

Microchip Technology PIC18 LITE Macro Assembler V1.33 build 59893 
                                                                                               Mon Nov 05 16:37:47 2018

Microchip Technology Omniscient Code Generator (Lite mode) build 59893
     1                           	processor	18F4550
     2                           	fnconf	rparam,??,?,0
     3                           	opt	pw 120
     4                           	opt	lm
     5                           	psect	idataCOMRAM,global,class=CODE,delta=1
     6                           	psect	mediumconst,global,reloc=2,class=MEDIUMCONST,delta=1
     7                           	psect	nvBANK0,global,class=BANK0,space=1,delta=1
     8                           	psect	cinit,global,reloc=2,class=CODE,delta=1
     9                           	psect	bssCOMRAM,global,class=COMRAM,space=1,delta=1
    10                           	psect	dataCOMRAM,global,class=COMRAM,space=1,delta=1
    11                           	psect	bssBANK0,global,class=BANK0,space=1,delta=1
    12                           	psect	cstackBANK0,global,class=BANK0,space=1,delta=1
    13                           	psect	cstackCOMRAM,global,class=COMRAM,space=1,delta=1
    14                           	psect	text0,global,reloc=2,class=CODE,delta=1
    15                           	psect	text1,global,reloc=2,class=CODE,delta=1
    16                           	psect	text2,global,reloc=2,class=CODE,delta=1
    17                           	psect	text3,global,reloc=2,class=CODE,delta=1
    18                           	psect	text4,global,reloc=2,class=CODE,delta=1
    19                           	psect	text5,global,reloc=2,class=CODE,delta=1
    20                           	psect	text6,global,reloc=2,class=CODE,delta=1
    21                           	psect	text7,global,reloc=2,class=CODE,delta=1
    22                           	psect	text8,global,reloc=2,class=CODE,delta=1
    23                           	psect	text9,global,reloc=2,class=CODE,delta=1
    24                           	psect	text10,global,reloc=2,class=CODE,delta=1
    25                           	psect	text11,global,reloc=2,class=CODE,delta=1
    26                           	psect	text12,global,reloc=2,class=CODE,delta=1
    27                           	psect	text13,global,reloc=2,class=CODE,delta=1
    28                           	psect	text14,global,reloc=2,class=CODE,delta=1
    29                           	psect	text15,global,reloc=2,class=CODE,delta=1
    30                           	psect	text16,global,reloc=2,class=CODE,delta=1
    31                           	psect	text17,global,reloc=2,class=CODE,delta=1
    32                           	psect	text18,global,reloc=2,class=CODE,delta=1
    33                           	psect	text19,global,reloc=2,class=CODE,delta=1
    34                           	psect	text20,global,reloc=2,class=CODE,delta=1
    35                           	psect	text21,global,reloc=2,class=CODE,delta=1
    36                           	psect	text22,global,reloc=2,class=CODE,delta=1
    37                           	psect	text23,global,reloc=2,class=CODE,delta=1
    38                           	psect	intcode,global,reloc=2,class=CODE,delta=1
    39                           	psect	intcode_body,global,reloc=2,class=CODE,delta=1
    40                           	psect	text25,global,reloc=2,class=CODE,delta=1
    41                           	psect	intsave_regs,global,class=BIGRAM,space=1,delta=1
    42                           	psect	rparam,global,class=COMRAM,space=1,delta=1
    43  0000                     
    44                           	psect	idataCOMRAM
    45  0074F0                     __pidataCOMRAM:
    46                           	opt stack 0
    47                           
    48                           ;initializer for _derivativo
    49                           ;pid.c: 11: char vKp[16];
    50                           ;pid.c: 12: char vKi[16];
    51                           ;pid.c: 13: char vKd[16];
    52                           ;pid.c: 14: char volts[16];
    53                           ;pid.c: 15: enum pantallas{
    54                           ;pid.c: 16: Start, ProgramKP, ProgramKD, ProgramKI, Run, Set
    55                           ;pid.c: 17: };
    56                           ;pid.c: 18: unsigned int estado;
    57                           ;pid.c: 19: char marcador = 100;
    58                           ;pid.c: 20: char Duty[16];
    59                           ;pid.c: 21: double proporcional = 12;
    60                           ;pid.c: 22: double integral = 0.5;
    61  0074F0  9A                 	db	154
    62  0074F1  99                 	db	153
    63  0074F2  3E                 	db	62
    64                           
    65                           ;initializer for _integral
    66                           ;pid.c: 11: char vKp[16];
    67                           ;pid.c: 12: char vKi[16];
    68                           ;pid.c: 13: char vKd[16];
    69                           ;pid.c: 14: char volts[16];
    70                           ;pid.c: 15: enum pantallas{
    71                           ;pid.c: 16: Start, ProgramKP, ProgramKD, ProgramKI, Run, Set
    72                           ;pid.c: 17: };
    73                           ;pid.c: 18: unsigned int estado;
    74                           ;pid.c: 19: char marcador = 100;
    75                           ;pid.c: 20: char Duty[16];
    76                           ;pid.c: 21: double proporcional = 12;
    77  0074F3  00                 	db	0
    78  0074F4  00                 	db	0
    79  0074F5  3F                 	db	63
    80                           
    81                           ;initializer for _proporcional
    82  0074F6  00                 	db	0
    83  0074F7  40                 	db	64
    84  0074F8  41                 	db	65
    85                           
    86                           ;initializer for _vectorSize
    87  0074F9  0004               	dw	4
    88                           
    89                           ;initializer for _marcador
    90  0074FB  64                 	db	100
    91                           
    92                           	psect	mediumconst
    93  007AC8                     __pmediumconst:
    94                           	opt stack 0
    95  007AC8  00                 	db	0
    96  007AC9                     _dpowers:
    97                           	opt stack 0
    98  007AC9  0001               	dw	1
    99  007ACB  0000               	dw	0
   100  007ACD  000A               	dw	10
   101  007ACF  0000               	dw	0
   102  007AD1  0064               	dw	100
   103  007AD3  0000               	dw	0
   104  007AD5  03E8               	dw	1000
   105  007AD7  0000               	dw	0
   106  007AD9  2710               	dw	10000
   107  007ADB  0000               	dw	0
   108  007ADD  86A0               	dw	34464
   109  007ADF  0001               	dw	1
   110  007AE1  4240               	dw	16960
   111  007AE3  000F               	dw	15
   112  007AE5  9680               	dw	38528
   113  007AE7  0098               	dw	152
   114  007AE9  E100               	dw	57600
   115  007AEB  05F5               	dw	1525
   116  007AED  CA00               	dw	51712
   117  007AEF  3B9A               	dw	15258
   118  007AF1                     __end_of_dpowers:
   119                           	opt stack 0
   120  007AF1                     __npowers_:
   121                           	opt stack 0
   122  007AF1  00                 	db	0
   123  007AF2  80                 	db	128
   124  007AF3  3F                 	db	63
   125  007AF4  CD                 	db	205
   126  007AF5  CC                 	db	204
   127  007AF6  3D                 	db	61
   128  007AF7  D7                 	db	215
   129  007AF8  23                 	db	35
   130  007AF9  3C                 	db	60
   131  007AFA  12                 	db	18
   132  007AFB  83                 	db	131
   133  007AFC  3A                 	db	58
   134  007AFD  B7                 	db	183
   135  007AFE  D1                 	db	209
   136  007AFF  38                 	db	56
   137  007B00  C6                 	db	198
   138  007B01  27                 	db	39
   139  007B02  37                 	db	55
   140  007B03  38                 	db	56
   141  007B04  86                 	db	134
   142  007B05  35                 	db	53
   143  007B06  C0                 	db	192
   144  007B07  D6                 	db	214
   145  007B08  33                 	db	51
   146  007B09  CC                 	db	204
   147  007B0A  2B                 	db	43
   148  007B0B  32                 	db	50
   149  007B0C  70                 	db	112
   150  007B0D  89                 	db	137
   151  007B0E  30                 	db	48
   152  007B0F  E7                 	db	231
   153  007B10  DB                 	db	219
   154  007B11  2E                 	db	46
   155  007B12  E5                 	db	229
   156  007B13  3C                 	db	60
   157  007B14  1E                 	db	30
   158  007B15  42                 	db	66
   159  007B16  A2                 	db	162
   160  007B17  0D                 	db	13
   161  007B18                     __end_of__npowers_:
   162                           	opt stack 0
   163  007B18                     __powers_:
   164                           	opt stack 0
   165  007B18  00                 	db	0
   166  007B19  80                 	db	128
   167  007B1A  3F                 	db	63
   168  007B1B  00                 	db	0
   169  007B1C  20                 	db	32
   170  007B1D  41                 	db	65
   171  007B1E  00                 	db	0
   172  007B1F  C8                 	db	200
   173  007B20  42                 	db	66
   174  007B21  00                 	db	0
   175  007B22  7A                 	db	122
   176  007B23  44                 	db	68
   177  007B24  40                 	db	64
   178  007B25  1C                 	db	28
   179  007B26  46                 	db	70
   180  007B27  50                 	db	80
   181  007B28  C3                 	db	195
   182  007B29  47                 	db	71
   183  007B2A  24                 	db	36
   184  007B2B  74                 	db	116
   185  007B2C  49                 	db	73
   186  007B2D  97                 	db	151
   187  007B2E  18                 	db	24
   188  007B2F  4B                 	db	75
   189  007B30  BC                 	db	188
   190  007B31  BE                 	db	190
   191  007B32  4C                 	db	76
   192  007B33  6B                 	db	107
   193  007B34  6E                 	db	110
   194  007B35  4E                 	db	78
   195  007B36  03                 	db	3
   196  007B37  15                 	db	21
   197  007B38  50                 	db	80
   198  007B39  79                 	db	121
   199  007B3A  AD                 	db	173
   200  007B3B  60                 	db	96
   201  007B3C  F3                 	db	243
   202  007B3D  49                 	db	73
   203  007B3E  71                 	db	113
   204  007B3F                     __end_of__powers_:
   205                           	opt stack 0
   206  0000                     _TMR0	set	4054
   207  0000                     _ADCON0	set	4034
   208  0000                     _ADCON0bits	set	4034
   209  0000                     _ADCON1	set	4033
   210  0000                     _ADCON2	set	4032
   211  0000                     _ADRESH	set	4036
   212  0000                     _ADRESL	set	4035
   213  0000                     _CCPR1L	set	4030
   214  0000                     _CCPR2L	set	4027
   215  0000                     _INTCONbits	set	4082
   216  0000                     _LATAbits	set	3977
   217  0000                     _LATBbits	set	3978
   218  0000                     _LATCbits	set	3979
   219  0000                     _LATDbits	set	3980
   220  0000                     _PIE1bits	set	3997
   221  0000                     _PORTAbits	set	3968
   222  0000                     _PORTBbits	set	3969
   223  0000                     _PORTCbits	set	3970
   224  0000                     _PORTD	set	3971
   225  0000                     _PORTDbits	set	3971
   226  0000                     _PORTEbits	set	3972
   227  0000                     _PR2	set	4043
   228  0000                     _RCREG	set	4014
   229  0000                     _SPBRG	set	4015
   230  0000                     _SSPBUF	set	4041
   231  0000                     _SSPCON1bits	set	4038
   232  0000                     _SSPSTATbits	set	4039
   233  0000                     _T0CON	set	4053
   234  0000                     _T0CONbits	set	4053
   235  0000                     _T1CON	set	4045
   236  0000                     _T1CONbits	set	4045
   237  0000                     _TMR0H	set	4055
   238  0000                     _TMR0L	set	4054
   239  0000                     _TMR1H	set	4047
   240  0000                     _TMR1L	set	4046
   241  0000                     _TRISA	set	3986
   242  0000                     _TRISAbits	set	3986
   243  0000                     _TRISB	set	3987
   244  0000                     _TRISBbits	set	3987
   245  0000                     _TRISC	set	3988
   246  0000                     _TRISCbits	set	3988
   247  0000                     _TRISD	set	3989
   248  0000                     _TRISDbits	set	3989
   249  0000                     _TRISEbits	set	3990
   250  0000                     _TXREG	set	4013
   251  0000                     _BRGH	set	32098
   252  0000                     _CCP1M2	set	32234
   253  0000                     _CCP1M3	set	32235
   254  0000                     _CCP2M2	set	32210
   255  0000                     _CCP2M3	set	32211
   256  0000                     _CREN	set	32092
   257  0000                     _DC1B0	set	32236
   258  0000                     _DC1B1	set	32237
   259  0000                     _DC2B0	set	32212
   260  0000                     _DC2B1	set	32213
   261  0000                     _FERR	set	32090
   262  0000                     _OERR	set	32089
   263  0000                     _RCIDL	set	32198
   264  0000                     _RCIF	set	31989
   265  0000                     _SPEN	set	32095
   266  0000                     _SYNC	set	32100
   267  0000                     _T2CKPS0	set	32336
   268  0000                     _T2CKPS1	set	32337
   269  0000                     _TMR2ON	set	32338
   270  0000                     _TRISA5	set	31893
   271  0000                     _TRISB0	set	31896
   272  0000                     _TRISB1	set	31897
   273  0000                     _TRISC1	set	31905
   274  0000                     _TRISC2	set	31906
   275  0000                     _TRISC6	set	31910
   276  0000                     _TRISC7	set	31911
   277  0000                     _TRMT	set	32097
   278  0000                     _TXEN	set	32101
   279  007B3F                     __stringdata:
   280                           	opt stack 0
   281  007B3F  43                 	db	67	;'C'
   282  007B40  6F                 	db	111	;'o'
   283  007B41  6E                 	db	110	;'n'
   284  007B42  74                 	db	116	;'t'
   285  007B43  72                 	db	114	;'r'
   286  007B44  6F                 	db	111	;'o'
   287  007B45  6C                 	db	108	;'l'
   288  007B46  20                 	db	32
   289  007B47  50                 	db	80	;'P'
   290  007B48  49                 	db	73	;'I'
   291  007B49  44                 	db	68	;'D'
   292  007B4A  20                 	db	32
   293  007B4B  76                 	db	118	;'v'
   294  007B4C  31                 	db	49	;'1'
   295  007B4D  2E                 	db	46
   296  007B4E  30                 	db	48	;'0'
   297  007B4F  00                 	db	0
   298  007B50  55                 	db	85	;'U'
   299  007B51  50                 	db	80	;'P'
   300  007B52  2A                 	db	42
   301  007B53  2A                 	db	42
   302  007B54  2A                 	db	42
   303  007B55  7C                 	db	124
   304  007B56  20                 	db	32
   305  007B57  52                 	db	82	;'R'
   306  007B58  55                 	db	85	;'U'
   307  007B59  4E                 	db	78	;'N'
   308  007B5A  20                 	db	32
   309  007B5B  7C                 	db	124
   310  007B5C  2A                 	db	42
   311  007B5D  2A                 	db	42
   312  007B5E  2A                 	db	42
   313  007B5F  2A                 	db	42
   314  007B60  00                 	db	0
   315  007B61  44                 	db	68	;'D'
   316  007B62  57                 	db	87	;'W'
   317  007B63  4E                 	db	78	;'N'
   318  007B64  2A                 	db	42
   319  007B65  2A                 	db	42
   320  007B66  7C                 	db	124
   321  007B67  2D                 	db	45
   322  007B68  2D                 	db	45
   323  007B69  2D                 	db	45
   324  007B6A  2D                 	db	45
   325  007B6B  2D                 	db	45
   326  007B6C  7C                 	db	124
   327  007B6D  2A                 	db	42
   328  007B6E  2A                 	db	42
   329  007B6F  2A                 	db	42
   330  007B70  2A                 	db	42
   331  007B71  00                 	db	0
   332  007B72                     STR_8:
   333  007B72  44                 	db	68	;'D'
   334  007B73  57                 	db	87	;'W'
   335  007B74  4E                 	db	78	;'N'
   336  007B75  2A                 	db	42
   337  007B76  7C                 	db	124
   338  007B77  2D                 	db	45
   339  007B78  2D                 	db	45
   340  007B79  2D                 	db	45
   341  007B7A  2D                 	db	45
   342  007B7B  2D                 	db	45
   343  007B7C  2D                 	db	45
   344  007B7D  2D                 	db	45
   345  007B7E  2D                 	db	45
   346  007B7F  7C                 	db	124
   347  007B80  2A                 	db	42
   348  007B81  2A                 	db	42
   349  007B82  00                 	db	0
   350  007B83  55                 	db	85	;'U'
   351  007B84  50                 	db	80	;'P'
   352  007B85  2A                 	db	42
   353  007B86  2A                 	db	42
   354  007B87  7C                 	db	124
   355  007B88  47                 	db	71	;'G'
   356  007B89  50                 	db	80	;'P'
   357  007B8A  49                 	db	73	;'I'
   358  007B8B  4F                 	db	79	;'O'
   359  007B8C  20                 	db	32
   360  007B8D  43                 	db	67	;'C'
   361  007B8E  46                 	db	70	;'F'
   362  007B8F  47                 	db	71	;'G'
   363  007B90  7C                 	db	124
   364  007B91  2A                 	db	42
   365  007B92  2A                 	db	42
   366  007B93  00                 	db	0
   367  007B94  55                 	db	85	;'U'
   368  007B95  50                 	db	80	;'P'
   369  007B96  2A                 	db	42
   370  007B97  2A                 	db	42
   371  007B98  7C                 	db	124
   372  007B99  53                 	db	83	;'S'
   373  007B9A  2F                 	db	47
   374  007B9B  52                 	db	82	;'R'
   375  007B9C  20                 	db	32
   376  007B9D  47                 	db	71	;'G'
   377  007B9E  50                 	db	80	;'P'
   378  007B9F  49                 	db	73	;'I'
   379  007BA0  4F                 	db	79	;'O'
   380  007BA1  7C                 	db	124
   381  007BA2  2A                 	db	42
   382  007BA3  2A                 	db	42
   383  007BA4  00                 	db	0
   384  007BA5  55                 	db	85	;'U'
   385  007BA6  50                 	db	80	;'P'
   386  007BA7  2A                 	db	42
   387  007BA8  2A                 	db	42
   388  007BA9  7C                 	db	124
   389  007BAA  54                 	db	84	;'T'
   390  007BAB  45                 	db	69	;'E'
   391  007BAC  53                 	db	83	;'S'
   392  007BAD  54                 	db	84	;'T'
   393  007BAE  20                 	db	32
   394  007BAF  52                 	db	82	;'R'
   395  007BB0  4D                 	db	77	;'M'
   396  007BB1  54                 	db	84	;'T'
   397  007BB2  7C                 	db	124
   398  007BB3  2A                 	db	42
   399  007BB4  2A                 	db	42
   400  007BB5  00                 	db	0
   401  007BB6  55                 	db	85	;'U'
   402  007BB7  50                 	db	80	;'P'
   403  007BB8  2A                 	db	42
   404  007BB9  2A                 	db	42
   405  007BBA  7C                 	db	124
   406  007BBB  55                 	db	85	;'U'
   407  007BBC  53                 	db	83	;'S'
   408  007BBD  43                 	db	67	;'C'
   409  007BBE  20                 	db	32
   410  007BBF  54                 	db	84	;'T'
   411  007BC0  45                 	db	69	;'E'
   412  007BC1  53                 	db	83	;'S'
   413  007BC2  54                 	db	84	;'T'
   414  007BC3  7C                 	db	124
   415  007BC4  2A                 	db	42
   416  007BC5  2A                 	db	42
   417  007BC6  00                 	db	0
   418  007BC7                     STR_6:
   419  007BC7  44                 	db	68	;'D'
   420  007BC8  57                 	db	87	;'W'
   421  007BC9  4E                 	db	78	;'N'
   422  007BCA  2A                 	db	42
   423  007BCB  7C                 	db	124
   424  007BCC  2D                 	db	45
   425  007BCD  2D                 	db	45
   426  007BCE  2D                 	db	45
   427  007BCF  2D                 	db	45
   428  007BD0  2D                 	db	45
   429  007BD1  2D                 	db	45
   430  007BD2  2D                 	db	45
   431  007BD3  2D                 	db	45
   432  007BD4  2D                 	db	45
   433  007BD5  7C                 	db	124
   434  007BD6  2A                 	db	42
   435  007BD7  00                 	db	0
   436  007BD8  55                 	db	85	;'U'
   437  007BD9  50                 	db	80	;'P'
   438  007BDA  2A                 	db	42
   439  007BDB  2A                 	db	42
   440  007BDC  7C                 	db	124
   441  007BDD  47                 	db	71	;'G'
   442  007BDE  50                 	db	80	;'P'
   443  007BDF  49                 	db	73	;'I'
   444  007BE0  4F                 	db	79	;'O'
   445  007BE1  20                 	db	32
   446  007BE2  52                 	db	82	;'R'
   447  007BE3  45                 	db	69	;'E'
   448  007BE4  41                 	db	65	;'A'
   449  007BE5  44                 	db	68	;'D'
   450  007BE6  7C                 	db	124
   451  007BE7  2A                 	db	42
   452  007BE8  00                 	db	0
   453  007BE9  55                 	db	85	;'U'
   454  007BEA  50                 	db	80	;'P'
   455  007BEB  2A                 	db	42
   456  007BEC  7C                 	db	124
   457  007BED  54                 	db	84	;'T'
   458  007BEE  45                 	db	69	;'E'
   459  007BEF  53                 	db	83	;'S'
   460  007BF0  54                 	db	84	;'T'
   461  007BF1  20                 	db	32
   462  007BF2  4C                 	db	76	;'L'
   463  007BF3  4F                 	db	79	;'O'
   464  007BF4  43                 	db	67	;'C'
   465  007BF5  41                 	db	65	;'A'
   466  007BF6  4C                 	db	76	;'L'
   467  007BF7  7C                 	db	124
   468  007BF8  2A                 	db	42
   469  007BF9  00                 	db	0
   470  007BFA  55                 	db	85	;'U'
   471  007BFB  50                 	db	80	;'P'
   472  007BFC  2A                 	db	42
   473  007BFD  2A                 	db	42
   474  007BFE  7C                 	db	124
   475  007BFF  57                 	db	87	;'W'
   476  007C00  48                 	db	72	;'H'
   477  007C01  45                 	db	69	;'E'
   478  007C02  4C                 	db	76	;'L'
   479  007C03  20                 	db	32
   480  007C04  54                 	db	84	;'T'
   481  007C05  45                 	db	69	;'E'
   482  007C06  53                 	db	83	;'S'
   483  007C07  54                 	db	84	;'T'
   484  007C08  7C                 	db	124
   485  007C09  2A                 	db	42
   486  007C0A  00                 	db	0
   487  007C0B  2E                 	db	46
   488  007C0C  2E                 	db	46
   489  007C0D  2E                 	db	46
   490  007C0E  2E                 	db	46
   491  007C0F  2E                 	db	46
   492  007C10  53                 	db	83	;'S'
   493  007C11  59                 	db	89	;'Y'
   494  007C12  53                 	db	83	;'S'
   495  007C13  54                 	db	84	;'T'
   496  007C14  45                 	db	69	;'E'
   497  007C15  4D                 	db	77	;'M'
   498  007C16  2E                 	db	46
   499  007C17  2E                 	db	46
   500  007C18  2E                 	db	46
   501  007C19  2E                 	db	46
   502  007C1A  2E                 	db	46
   503  007C1B  00                 	db	0
   504  007C1C  2E                 	db	46
   505  007C1D  2E                 	db	46
   506  007C1E  2E                 	db	46
   507  007C1F  2E                 	db	46
   508  007C20  53                 	db	83	;'S'
   509  007C21  54                 	db	84	;'T'
   510  007C22  41                 	db	65	;'A'
   511  007C23  52                 	db	82	;'R'
   512  007C24  54                 	db	84	;'T'
   513  007C25  49                 	db	73	;'I'
   514  007C26  4E                 	db	78	;'N'
   515  007C27  47                 	db	71	;'G'
   516  007C28  2E                 	db	46
   517  007C29  2E                 	db	46
   518  007C2A  2E                 	db	46
   519  007C2B  2E                 	db	46
   520  007C2C  00                 	db	0
   521  007C2D  45                 	db	69	;'E'
   522  007C2E  31                 	db	49	;'1'
   523  007C2F  3D                 	db	61	;'='
   524  007C30  2B                 	db	43
   525  007C31  20                 	db	32
   526  007C32  45                 	db	69	;'E'
   527  007C33  30                 	db	48	;'0'
   528  007C34  3D                 	db	61	;'='
   529  007C35  44                 	db	68	;'D'
   530  007C36  20                 	db	32
   531  007C37  45                 	db	69	;'E'
   532  007C38  32                 	db	50	;'2'
   533  007C39  3D                 	db	61	;'='
   534  007C3A  2D                 	db	45
   535  007C3B  00                 	db	0
   536  007C3C  45                 	db	69	;'E'
   537  007C3D  31                 	db	49	;'1'
   538  007C3E  3D                 	db	61	;'='
   539  007C3F  2B                 	db	43
   540  007C40  20                 	db	32
   541  007C41  45                 	db	69	;'E'
   542  007C42  30                 	db	48	;'0'
   543  007C43  3D                 	db	61	;'='
   544  007C44  49                 	db	73	;'I'
   545  007C45  20                 	db	32
   546  007C46  45                 	db	69	;'E'
   547  007C47  32                 	db	50	;'2'
   548  007C48  3D                 	db	61	;'='
   549  007C49  2D                 	db	45
   550  007C4A  00                 	db	0
   551  007C4B  45                 	db	69	;'E'
   552  007C4C  31                 	db	49	;'1'
   553  007C4D  3D                 	db	61	;'='
   554  007C4E  2B                 	db	43
   555  007C4F  20                 	db	32
   556  007C50  45                 	db	69	;'E'
   557  007C51  30                 	db	48	;'0'
   558  007C52  3D                 	db	61	;'='
   559  007C53  53                 	db	83	;'S'
   560  007C54  20                 	db	32
   561  007C55  45                 	db	69	;'E'
   562  007C56  32                 	db	50	;'2'
   563  007C57  3D                 	db	61	;'='
   564  007C58  2D                 	db	45
   565  007C59  00                 	db	0
   566  007C5A  41                 	db	65	;'A'
   567  007C5B  70                 	db	112	;'p'
   568  007C5C  70                 	db	112	;'p'
   569  007C5D  6C                 	db	108	;'l'
   570  007C5E  79                 	db	121	;'y'
   571  007C5F  20                 	db	32
   572  007C60  43                 	db	67	;'C'
   573  007C61  68                 	db	104	;'h'
   574  007C62  61                 	db	97	;'a'
   575  007C63  6E                 	db	110	;'n'
   576  007C64  67                 	db	103	;'g'
   577  007C65  65                 	db	101	;'e'
   578  007C66  73                 	db	115	;'s'
   579  007C67  3F                 	db	63	;'?'
   580  007C68  00                 	db	0
   581  007C69  45                 	db	69	;'E'
   582  007C6A  31                 	db	49	;'1'
   583  007C6B  3D                 	db	61	;'='
   584  007C6C  44                 	db	68	;'D'
   585  007C6D  20                 	db	32
   586  007C6E  45                 	db	69	;'E'
   587  007C6F  30                 	db	48	;'0'
   588  007C70  3D                 	db	61	;'='
   589  007C71  50                 	db	80	;'P'
   590  007C72  20                 	db	32
   591  007C73  45                 	db	69	;'E'
   592  007C74  32                 	db	50	;'2'
   593  007C75  3D                 	db	61	;'='
   594  007C76  49                 	db	73	;'I'
   595  007C77  00                 	db	0
   596  007C78  45                 	db	69	;'E'
   597  007C79  31                 	db	49	;'1'
   598  007C7A  2F                 	db	47
   599  007C7B  30                 	db	48	;'0'
   600  007C7C  3D                 	db	61	;'='
   601  007C7D  4F                 	db	79	;'O'
   602  007C7E  4B                 	db	75	;'K'
   603  007C7F  20                 	db	32
   604  007C80  45                 	db	69	;'E'
   605  007C81  32                 	db	50	;'2'
   606  007C82  3D                 	db	61	;'='
   607  007C83  53                 	db	83	;'S'
   608  007C84  54                 	db	84	;'T'
   609  007C85  52                 	db	82	;'R'
   610  007C86  00                 	db	0
   611  007C87  43                 	db	67	;'C'
   612  007C88  6F                 	db	111	;'o'
   613  007C89  6E                 	db	110	;'n'
   614  007C8A  74                 	db	116	;'t'
   615  007C8B  72                 	db	114	;'r'
   616  007C8C  6F                 	db	111	;'o'
   617  007C8D  6C                 	db	108	;'l'
   618  007C8E  20                 	db	32
   619  007C8F  3D                 	db	61	;'='
   620  007C90  20                 	db	32
   621  007C91  25                 	db	37
   622  007C92  66                 	db	102	;'f'
   623  007C93  00                 	db	0
   624  007C94  61                 	db	97	;'a'
   625  007C95  64                 	db	100	;'d'
   626  007C96  63                 	db	99	;'c'
   627  007C97  20                 	db	32
   628  007C98  3D                 	db	61	;'='
   629  007C99  20                 	db	32
   630  007C9A  25                 	db	37
   631  007C9B  66                 	db	102	;'f'
   632  007C9C  00                 	db	0
   633  007C9D                     STR_39:
   634  007C9D  4B                 	db	75	;'K'
   635  007C9E  49                 	db	73	;'I'
   636  007C9F  20                 	db	32
   637  007CA0  3D                 	db	61	;'='
   638  007CA1  20                 	db	32
   639  007CA2  25                 	db	37
   640  007CA3  66                 	db	102	;'f'
   641  007CA4  00                 	db	0
   642  007CA5  4B                 	db	75	;'K'
   643  007CA6  50                 	db	80	;'P'
   644  007CA7  20                 	db	32
   645  007CA8  3D                 	db	61	;'='
   646  007CA9  20                 	db	32
   647  007CAA  25                 	db	37
   648  007CAB  66                 	db	102	;'f'
   649  007CAC  00                 	db	0
   650  007CAD  53                 	db	83	;'S'
   651  007CAE  69                 	db	105	;'i'
   652  007CAF  65                 	db	101	;'e'
   653  007CB0  74                 	db	116	;'t'
   654  007CB1  65                 	db	101	;'e'
   655  007CB2  00                 	db	0
   656  007CB3  4E                 	db	78	;'N'
   657  007CB4  75                 	db	117	;'u'
   658  007CB5  65                 	db	101	;'e'
   659  007CB6  76                 	db	118	;'v'
   660  007CB7  65                 	db	101	;'e'
   661  007CB8  00                 	db	0
   662  007CB9  43                 	db	67	;'C'
   663  007CBA  69                 	db	105	;'i'
   664  007CBB  6E                 	db	110	;'n'
   665  007CBC  63                 	db	99	;'c'
   666  007CBD  6F                 	db	111	;'o'
   667  007CBE  00                 	db	0
   668  007CBF  41                 	db	65	;'A'
   669  007CC0  41                 	db	65	;'A'
   670  007CC1  41                 	db	65	;'A'
   671  007CC2  41                 	db	65	;'A'
   672  007CC3  00                 	db	0
   673  007CC4  42                 	db	66	;'B'
   674  007CC5  42                 	db	66	;'B'
   675  007CC6  42                 	db	66	;'B'
   676  007CC7  42                 	db	66	;'B'
   677  007CC8  00                 	db	0
   678  007CC9  44                 	db	68	;'D'
   679  007CCA  44                 	db	68	;'D'
   680  007CCB  44                 	db	68	;'D'
   681  007CCC  44                 	db	68	;'D'
   682  007CCD  00                 	db	0
   683  007CCE  45                 	db	69	;'E'
   684  007CCF  45                 	db	69	;'E'
   685  007CD0  45                 	db	69	;'E'
   686  007CD1  45                 	db	69	;'E'
   687  007CD2  00                 	db	0
   688  007CD3  49                 	db	73	;'I'
   689  007CD4  49                 	db	73	;'I'
   690  007CD5  49                 	db	73	;'I'
   691  007CD6  49                 	db	73	;'I'
   692  007CD7  00                 	db	0
   693  007CD8  4C                 	db	76	;'L'
   694  007CD9  4C                 	db	76	;'L'
   695  007CDA  4C                 	db	76	;'L'
   696  007CDB  4C                 	db	76	;'L'
   697  007CDC  00                 	db	0
   698  007CDD  52                 	db	82	;'R'
   699  007CDE  52                 	db	82	;'R'
   700  007CDF  52                 	db	82	;'R'
   701  007CE0  52                 	db	82	;'R'
   702  007CE1  00                 	db	0
   703  007CE2  53                 	db	83	;'S'
   704  007CE3  53                 	db	83	;'S'
   705  007CE4  53                 	db	83	;'S'
   706  007CE5  53                 	db	83	;'S'
   707  007CE6  00                 	db	0
   708  007CE7  55                 	db	85	;'U'
   709  007CE8  55                 	db	85	;'U'
   710  007CE9  55                 	db	85	;'U'
   711  007CEA  55                 	db	85	;'U'
   712  007CEB  00                 	db	0
   713  007CEC  4F                 	db	79	;'O'
   714  007CED  63                 	db	99	;'c'
   715  007CEE  68                 	db	104	;'h'
   716  007CEF  6F                 	db	111	;'o'
   717  007CF0  00                 	db	0
   718  007CF1  53                 	db	83	;'S'
   719  007CF2  65                 	db	101	;'e'
   720  007CF3  69                 	db	105	;'i'
   721  007CF4  73                 	db	115	;'s'
   722  007CF5  00                 	db	0
   723  007CF6  55                 	db	85	;'U'
   724  007CF7  6E                 	db	110	;'n'
   725  007CF8  6F                 	db	111	;'o'
   726  007CF9  00                 	db	0
   727  007CFA  44                 	db	68	;'D'
   728  007CFB  6F                 	db	111	;'o'
   729  007CFC  73                 	db	115	;'s'
   730  007CFD  00                 	db	0
   731  007CFE                     __end_of__stringdata:
   732                           	opt stack 0
   733                           
   734                           ; #config settings
   735  007CFE  00                 	db	0	; dummy byte at the end
   736  0000                     
   737                           	psect	nvBANK0
   738  0000D6                     __pnvBANK0:
   739                           	opt stack 0
   740  0000D6                     _freq:
   741                           	opt stack 0
   742  0000D6                     	ds	4
   743                           
   744                           	psect	cinit
   745  007698                     __pcinit:
   746                           	opt stack 0
   747  007698                     start_initialization:
   748                           	opt stack 0
   749  007698                     __initialization:
   750                           	opt stack 0
   751                           
   752                           ; Clear objects allocated to BANK0 (98 bytes)
   753  007698  EE00  F060         	lfsr	0,__pbssBANK0
   754  00769C  0E62               	movlw	98
   755  00769E                     clear_0:
   756  00769E  6AEE               	clrf	postinc0,c
   757  0076A0  06E8               	decf	wreg,f,c
   758  0076A2  E1FD               	bnz	clear_0
   759                           
   760                           ; Clear objects allocated to COMRAM (36 bytes)
   761  0076A4  EE00  F001         	lfsr	0,__pbssCOMRAM
   762  0076A8  0E24               	movlw	36
   763  0076AA                     clear_1:
   764  0076AA  6AEE               	clrf	postinc0,c
   765  0076AC  06E8               	decf	wreg,f,c
   766  0076AE  E1FD               	bnz	clear_1
   767                           
   768                           ; Initialize objects allocated to COMRAM (12 bytes)
   769                           ; load TBLPTR registers with __pidataCOMRAM
   770  0076B0  0EF0               	movlw	low __pidataCOMRAM
   771  0076B2  6EF6               	movwf	tblptrl,c
   772  0076B4  0E74               	movlw	high __pidataCOMRAM
   773  0076B6  6EF7               	movwf	tblptrh,c
   774  0076B8  0E00               	movlw	low (__pidataCOMRAM shr (0+16))
   775  0076BA  6EF8               	movwf	tblptru,c
   776  0076BC  EE00  F03F         	lfsr	0,__pdataCOMRAM
   777  0076C0  EE10 F00C          	lfsr	1,12
   778  0076C4                     copy_data0:
   779  0076C4  0009               	tblrd		*+
   780  0076C6  CFF5 FFEE          	movff	tablat,postinc0
   781  0076CA  50E5               	movf	postdec1,w,c
   782  0076CC  50E1               	movf	fsr1l,w,c
   783  0076CE  E1FA               	bnz	copy_data0
   784  0076D0                     end_of_initialization:
   785                           	opt stack 0
   786  0076D0                     __end_of__initialization:
   787                           	opt stack 0
   788  0076D0  0E00               	movlw	low (__Lmediumconst shr (0+16))
   789  0076D2  6EF8               	movwf	tblptru,c
   790  0076D4  0100               	movlb	0
   791  0076D6  EF7E  F03A         	goto	_main	;jump to C main() function
   792                           tblptru	equ	0xFF8
   793                           tblptrh	equ	0xFF7
   794                           tblptrl	equ	0xFF6
   795                           tablat	equ	0xFF5
   796                           postinc0	equ	0xFEE
   797                           wreg	equ	0xFE8
   798                           postdec1	equ	0xFE5
   799                           fsr1l	equ	0xFE1
   800                           
   801                           	psect	bssCOMRAM
   802  000001                     __pbssCOMRAM:
   803                           	opt stack 0
   804  000001                     _millis:
   805                           	opt stack 0
   806  000001                     	ds	4
   807  000005                     _Kderivative:
   808                           	opt stack 0
   809  000005                     	ds	3
   810  000008                     _Kintegral:
   811                           	opt stack 0
   812  000008                     	ds	3
   813  00000B                     _Kproportional:
   814                           	opt stack 0
   815  00000B                     	ds	3
   816  00000E                     _SalidaControl:
   817                           	opt stack 0
   818  00000E                     	ds	3
   819  000011                     _SampleT:
   820                           	opt stack 0
   821  000011                     	ds	3
   822  000014                     _SetPoint:
   823                           	opt stack 0
   824  000014                     	ds	3
   825  000017                     _adc:
   826                           	opt stack 0
   827  000017                     	ds	3
   828  00001A                     _outMax:
   829                           	opt stack 0
   830  00001A                     	ds	3
   831  00001D                     _outMin:
   832                           	opt stack 0
   833  00001D                     	ds	3
   834  000020                     _estado:
   835                           	opt stack 0
   836  000020                     	ds	2
   837  000022                     _state:
   838                           	opt stack 0
   839  000022                     	ds	2
   840  000024                     _pinFlag:
   841                           	opt stack 0
   842  000024                     	ds	1
   843                           tblptru	equ	0xFF8
   844                           tblptrh	equ	0xFF7
   845                           tblptrl	equ	0xFF6
   846                           tablat	equ	0xFF5
   847                           postinc0	equ	0xFEE
   848                           wreg	equ	0xFE8
   849                           postdec1	equ	0xFE5
   850                           fsr1l	equ	0xFE1
   851                           
   852                           	psect	dataCOMRAM
   853  00003F                     __pdataCOMRAM:
   854                           	opt stack 0
   855  00003F                     _derivativo:
   856                           	opt stack 0
   857  00003F                     	ds	3
   858  000042                     _integral:
   859                           	opt stack 0
   860  000042                     	ds	3
   861  000045                     _proporcional:
   862                           	opt stack 0
   863  000045                     	ds	3
   864  000048                     _vectorSize:
   865                           	opt stack 0
   866  000048                     	ds	2
   867  00004A                     _marcador:
   868                           	opt stack 0
   869  00004A                     	ds	1
   870                           tblptru	equ	0xFF8
   871                           tblptrh	equ	0xFF7
   872                           tblptrl	equ	0xFF6
   873                           tablat	equ	0xFF5
   874                           postinc0	equ	0xFEE
   875                           wreg	equ	0xFE8
   876                           postdec1	equ	0xFE5
   877                           fsr1l	equ	0xFE1
   878                           
   879                           	psect	bssBANK0
   880  000060                     __pbssBANK0:
   881                           	opt stack 0
   882  000060                     _SendData:
   883                           	opt stack 0
   884  000060                     	ds	4
   885  000064                     _TiempoMs:
   886                           	opt stack 0
   887  000064                     	ds	4
   888  000068                     _dataVector:
   889                           	opt stack 0
   890  000068                     	ds	4
   891  00006C                     _corriente:
   892                           	opt stack 0
   893  00006C                     	ds	3
   894  00006F                     _current:
   895                           	opt stack 0
   896  00006F                     	ds	3
   897  000072                     _Duty:
   898                           	opt stack 0
   899  000072                     	ds	16
   900  000082                     _vKd:
   901                           	opt stack 0
   902  000082                     	ds	16
   903  000092                     _vKi:
   904                           	opt stack 0
   905  000092                     	ds	16
   906  0000A2                     _vKp:
   907                           	opt stack 0
   908  0000A2                     	ds	16
   909  0000B2                     _volts:
   910                           	opt stack 0
   911  0000B2                     	ds	16
   912                           tblptru	equ	0xFF8
   913                           tblptrh	equ	0xFF7
   914                           tblptrl	equ	0xFF6
   915                           tablat	equ	0xFF5
   916                           postinc0	equ	0xFEE
   917                           wreg	equ	0xFE8
   918                           postdec1	equ	0xFE5
   919                           fsr1l	equ	0xFE1
   920                           
   921                           	psect	cstackBANK0
   922  0000C2                     __pcstackBANK0:
   923                           	opt stack 0
   924  0000C2                     ___aldiv@counter:
   925                           	opt stack 0
   926                           
   927                           ; 1 bytes @ 0x0
   928  0000C2                     	ds	1
   929  0000C3                     ___aldiv@sign:
   930                           	opt stack 0
   931                           
   932                           ; 1 bytes @ 0x1
   933  0000C3                     	ds	1
   934  0000C4                     ___aldiv@quotient:
   935                           	opt stack 0
   936                           
   937                           ; 4 bytes @ 0x2
   938  0000C4                     	ds	4
   939  0000C8                     PWM1_Init@fre:
   940                           	opt stack 0
   941  0000C8                     PWM2_Init@fre:
   942                           	opt stack 0
   943  0000C8                     SerialBegin@baudRate:
   944                           	opt stack 0
   945                           
   946                           ; 4 bytes @ 0x6
   947  0000C8                     	ds	4
   948  0000CC                     ??_PWM1_Init:
   949  0000CC                     ??_PWM2_Init:
   950  0000CC                     ??_SerialBegin:
   951                           
   952                           ; 0 bytes @ 0xA
   953  0000CC                     	ds	4
   954  0000D0                     _SerialBegin$3256:
   955                           	opt stack 0
   956                           
   957                           ; 4 bytes @ 0xE
   958  0000D0                     	ds	4
   959  0000D4                     SerialBegin@x:
   960                           	opt stack 0
   961                           
   962                           ; 2 bytes @ 0x12
   963  0000D4                     	ds	2
   964                           tblptru	equ	0xFF8
   965                           tblptrh	equ	0xFF7
   966                           tblptrl	equ	0xFF6
   967                           tablat	equ	0xFF5
   968                           postinc0	equ	0xFEE
   969                           wreg	equ	0xFE8
   970                           postdec1	equ	0xFE5
   971                           fsr1l	equ	0xFE1
   972                           
   973                           	psect	cstackCOMRAM
   974  000025                     __pcstackCOMRAM:
   975                           	opt stack 0
   976  000025                     i2WriteTimer0@timer0:
   977                           	opt stack 0
   978                           
   979                           ; 2 bytes @ 0x0
   980  000025                     	ds	2
   981  000027                     i2WriteTimer0@timer:
   982                           	opt stack 0
   983                           
   984                           ; 2 bytes @ 0x2
   985  000027                     	ds	2
   986  000029                     ??_TimerOverflow:
   987                           
   988                           ; 0 bytes @ 0x4
   989  000029                     	ds	14
   990  000037                     ?___aldiv:
   991                           	opt stack 0
   992  000037                     OpenTimer0@config:
   993                           	opt stack 0
   994  000037                     Delay1KTCYx@unit:
   995                           	opt stack 0
   996  000037                     SerialWrite@dataWrite:
   997                           	opt stack 0
   998  000037                     WriteTimer0@timer0:
   999                           	opt stack 0
  1000  000037                     ___aldiv@dividend:
  1001                           	opt stack 0
  1002                           
  1003                           ; 4 bytes @ 0x12
  1004  000037                     	ds	1
  1005  000038                     delay@milis:
  1006                           	opt stack 0
  1007                           
  1008                           ; 2 bytes @ 0x13
  1009  000038                     	ds	1
  1010  000039                     WriteTimer0@timer:
  1011                           	opt stack 0
  1012                           
  1013                           ; 2 bytes @ 0x14
  1014  000039                     	ds	1
  1015  00003A                     ??_delay:
  1016                           
  1017                           ; 0 bytes @ 0x15
  1018  00003A                     	ds	1
  1019  00003B                     delay@a:
  1020                           	opt stack 0
  1021  00003B                     ___aldiv@divisor:
  1022                           	opt stack 0
  1023                           
  1024                           ; 4 bytes @ 0x16
  1025  00003B                     	ds	2
  1026  00003D                     loop@i:
  1027                           	opt stack 0
  1028                           
  1029                           ; 2 bytes @ 0x18
  1030  00003D                     	ds	2
  1031  00003F                     tblptru	equ	0xFF8
  1032                           tblptrh	equ	0xFF7
  1033                           tblptrl	equ	0xFF6
  1034                           tablat	equ	0xFF5
  1035                           postinc0	equ	0xFEE
  1036                           wreg	equ	0xFE8
  1037                           postdec1	equ	0xFE5
  1038                           fsr1l	equ	0xFE1
  1039                           
  1040                           ; 0 bytes @ 0x1A
  1041 ;;
  1042 ;;Main: autosize = 0, tempsize = 0, incstack = 0, save=0
  1043 ;;
  1044 ;; *************** function _main *****************
  1045 ;; Defined at:
  1046 ;;		line 17 in file "Procedures.c"
  1047 ;; Parameters:    Size  Location     Type
  1048 ;;		None
  1049 ;; Auto vars:     Size  Location     Type
  1050 ;;		None
  1051 ;; Return value:  Size  Location     Type
  1052 ;;                  2  210[COMRAM] int 
  1053 ;; Registers used:
  1054 ;;		wreg, status,2, status,0, cstack
  1055 ;; Tracked objects:
  1056 ;;		On entry : 0/0
  1057 ;;		On exit  : 0/0
  1058 ;;		Unchanged: 0/0
  1059 ;; Data sizes:     COMRAM   BANK0   BANK1   BANK2   BANK3   BANK4   BANK5   BANK6   BANK7
  1060 ;;      Params:         0       0       0       0       0       0       0       0       0
  1061 ;;      Locals:         0       0       0       0       0       0       0       0       0
  1062 ;;      Temps:          0       0       0       0       0       0       0       0       0
  1063 ;;      Totals:         0       0       0       0       0       0       0       0       0
  1064 ;;Total ram usage:        0 bytes
  1065 ;; Hardware stack levels required when called:    6
  1066 ;; This function calls:
  1067 ;;		_configuracionInicial
  1068 ;;		_loop
  1069 ;;		_setup
  1070 ;; This function is called by:
  1071 ;;		Startup code after reset
  1072 ;; This function uses a non-reentrant model
  1073 ;;
  1074                           
  1075                           	psect	text0
  1076  0074FC                     __ptext0:
  1077                           	opt stack 0
  1078  0074FC                     _main:
  1079                           	opt stack 25
  1080                           
  1081                           ;Procedures.c: 19: configuracionInicial();
  1082                           
  1083                           ;incstack = 0
  1084  0074FC  ECC8  F03A         	call	_configuracionInicial	;wreg free
  1085                           
  1086                           ;Procedures.c: 20: setup();
  1087  007500  EC0C  F03B         	call	_setup	;wreg free
  1088  007504                     l211:
  1089                           
  1090                           ;Procedures.c: 22: {
  1091                           ;Procedures.c: 23: loop();
  1092  007504  ECF0  F03A         	call	_loop	;wreg free
  1093  007508  D7FD               	goto	l211
  1094  00750A                     __end_of_main:
  1095                           	opt stack 0
  1096                           tblptru	equ	0xFF8
  1097                           tblptrh	equ	0xFF7
  1098                           tblptrl	equ	0xFF6
  1099                           tablat	equ	0xFF5
  1100                           postinc0	equ	0xFEE
  1101                           wreg	equ	0xFE8
  1102                           postdec1	equ	0xFE5
  1103                           fsr1l	equ	0xFE1
  1104                           
  1105 ;; *************** function _setup *****************
  1106 ;; Defined at:
  1107 ;;		line 23 in file "Application.c"
  1108 ;; Parameters:    Size  Location     Type
  1109 ;;		None
  1110 ;; Auto vars:     Size  Location     Type
  1111 ;;		None
  1112 ;; Return value:  Size  Location     Type
  1113 ;;		None               void
  1114 ;; Registers used:
  1115 ;;		wreg, status,2, status,0, cstack
  1116 ;; Tracked objects:
  1117 ;;		On entry : 0/0
  1118 ;;		On exit  : 0/0
  1119 ;;		Unchanged: 0/0
  1120 ;; Data sizes:     COMRAM   BANK0   BANK1   BANK2   BANK3   BANK4   BANK5   BANK6   BANK7
  1121 ;;      Params:         0       0       0       0       0       0       0       0       0
  1122 ;;      Locals:         0       0       0       0       0       0       0       0       0
  1123 ;;      Temps:          0       0       0       0       0       0       0       0       0
  1124 ;;      Totals:         0       0       0       0       0       0       0       0       0
  1125 ;;Total ram usage:        0 bytes
  1126 ;; Hardware stack levels used:    1
  1127 ;; Hardware stack levels required when called:    4
  1128 ;; This function calls:
  1129 ;;		_SerialBegin
  1130 ;;		_SerialWrite
  1131 ;;		_delay
  1132 ;; This function is called by:
  1133 ;;		_main
  1134 ;; This function uses a non-reentrant model
  1135 ;;
  1136                           
  1137                           	psect	text1
  1138  007618                     __ptext1:
  1139                           	opt stack 0
  1140  007618                     _setup:
  1141                           	opt stack 26
  1142                           
  1143                           ;Application.c: 25: SerialBegin(9600);
  1144                           
  1145                           ;incstack = 0
  1146  007618  0E80               	movlw	128
  1147  00761A  0100               	movlb	0	; () banked
  1148  00761C  6FC8               	movwf	SerialBegin@baudRate& (0+255),b
  1149  00761E  0E25               	movlw	37
  1150  007620  0100               	movlb	0	; () banked
  1151  007622  6FC9               	movwf	(SerialBegin@baudRate+1)& (0+255),b
  1152  007624  0E00               	movlw	0
  1153  007626  0100               	movlb	0	; () banked
  1154  007628  6FCA               	movwf	(SerialBegin@baudRate+2)& (0+255),b
  1155  00762A  0E00               	movlw	0
  1156  00762C  0100               	movlb	0	; () banked
  1157  00762E  6FCB               	movwf	(SerialBegin@baudRate+3)& (0+255),b
  1158  007630  ECCE  F03C         	call	_SerialBegin	;wreg free
  1159                           
  1160                           ;Application.c: 26: state = inicio;
  1161  007634  0E00               	movlw	0
  1162  007636  6E23               	movwf	_state+1,c
  1163  007638  0E00               	movlw	0
  1164  00763A  6E22               	movwf	_state,c
  1165                           
  1166                           ;Application.c: 27: SerialWrite(0x01);
  1167  00763C  0E00               	movlw	0
  1168  00763E  6E38               	movwf	SerialWrite@dataWrite+1,c
  1169  007640  0E01               	movlw	1
  1170  007642  6E37               	movwf	SerialWrite@dataWrite,c
  1171  007644  EC67  F03A         	call	_SerialWrite	;wreg free
  1172                           
  1173                           ;Application.c: 28: delay(50);
  1174  007648  0E00               	movlw	0
  1175  00764A  6E39               	movwf	delay@milis+1,c
  1176  00764C  0E32               	movlw	50
  1177  00764E  6E38               	movwf	delay@milis,c
  1178  007650  ECDB  F03A         	call	_delay	;wreg free
  1179  007654  0012               	return	
  1180  007656                     __end_of_setup:
  1181                           	opt stack 0
  1182                           tblptru	equ	0xFF8
  1183                           tblptrh	equ	0xFF7
  1184                           tblptrl	equ	0xFF6
  1185                           tablat	equ	0xFF5
  1186                           postinc0	equ	0xFEE
  1187                           wreg	equ	0xFE8
  1188                           postdec1	equ	0xFE5
  1189                           fsr1l	equ	0xFE1
  1190                           
  1191 ;; *************** function _SerialBegin *****************
  1192 ;; Defined at:
  1193 ;;		line 672 in file "Procedures.c"
  1194 ;; Parameters:    Size  Location     Type
  1195 ;;  baudRate        4    6[BANK0 ] const long 
  1196 ;; Auto vars:     Size  Location     Type
  1197 ;;  x               2   18[BANK0 ] unsigned int 
  1198 ;; Return value:  Size  Location     Type
  1199 ;;                  1    wreg      unsigned char 
  1200 ;; Registers used:
  1201 ;;		wreg, status,2, status,0, cstack
  1202 ;; Tracked objects:
  1203 ;;		On entry : 0/0
  1204 ;;		On exit  : 0/0
  1205 ;;		Unchanged: 0/0
  1206 ;; Data sizes:     COMRAM   BANK0   BANK1   BANK2   BANK3   BANK4   BANK5   BANK6   BANK7
  1207 ;;      Params:         0       4       0       0       0       0       0       0       0
  1208 ;;      Locals:         0       6       0       0       0       0       0       0       0
  1209 ;;      Temps:          0       4       0       0       0       0       0       0       0
  1210 ;;      Totals:         0      14       0       0       0       0       0       0       0
  1211 ;;Total ram usage:       14 bytes
  1212 ;; Hardware stack levels used:    1
  1213 ;; Hardware stack levels required when called:    3
  1214 ;; This function calls:
  1215 ;;		___aldiv
  1216 ;; This function is called by:
  1217 ;;		_setup
  1218 ;; This function uses a non-reentrant model
  1219 ;;
  1220                           
  1221                           	psect	text2
  1222  00799C                     __ptext2:
  1223                           	opt stack 0
  1224  00799C                     _SerialBegin:
  1225                           	opt stack 26
  1226                           
  1227                           ;Procedures.c: 674: unsigned int x;
  1228                           ;Procedures.c: 675: x = ((24000000 / baudRate)/16) - 1;
  1229                           
  1230                           ;incstack = 0
  1231  00799C  C0C8  F03B         	movff	SerialBegin@baudRate,___aldiv@divisor
  1232  0079A0  C0C9  F03C         	movff	SerialBegin@baudRate+1,___aldiv@divisor+1
  1233  0079A4  C0CA  F03D         	movff	SerialBegin@baudRate+2,___aldiv@divisor+2
  1234  0079A8  C0CB  F03E         	movff	SerialBegin@baudRate+3,___aldiv@divisor+3
  1235  0079AC  0E00               	movlw	0
  1236  0079AE  6E37               	movwf	___aldiv@dividend,c
  1237  0079B0  0E36               	movlw	54
  1238  0079B2  6E38               	movwf	___aldiv@dividend+1,c
  1239  0079B4  0E6E               	movlw	110
  1240  0079B6  6E39               	movwf	___aldiv@dividend+2,c
  1241  0079B8  0E01               	movlw	1
  1242  0079BA  6E3A               	movwf	___aldiv@dividend+3,c
  1243  0079BC  EC38  F03C         	call	___aldiv	;wreg free
  1244  0079C0  C037  F0D0         	movff	?___aldiv,_SerialBegin$3256
  1245  0079C4  C038  F0D1         	movff	?___aldiv+1,_SerialBegin$3256+1
  1246  0079C8  C039  F0D2         	movff	?___aldiv+2,_SerialBegin$3256+2
  1247  0079CC  C03A  F0D3         	movff	?___aldiv+3,_SerialBegin$3256+3
  1248                           
  1249                           ;Procedures.c: 674: unsigned int x;
  1250                           ;Procedures.c: 675: x = ((24000000 / baudRate)/16) - 1;
  1251  0079D0  C0D0  F037         	movff	_SerialBegin$3256,___aldiv@dividend
  1252  0079D4  C0D1  F038         	movff	_SerialBegin$3256+1,___aldiv@dividend+1
  1253  0079D8  C0D2  F039         	movff	_SerialBegin$3256+2,___aldiv@dividend+2
  1254  0079DC  C0D3  F03A         	movff	_SerialBegin$3256+3,___aldiv@dividend+3
  1255  0079E0  0E10               	movlw	16
  1256  0079E2  6E3B               	movwf	___aldiv@divisor,c
  1257  0079E4  0E00               	movlw	0
  1258  0079E6  6E3C               	movwf	___aldiv@divisor+1,c
  1259  0079E8  0E00               	movlw	0
  1260  0079EA  6E3D               	movwf	___aldiv@divisor+2,c
  1261  0079EC  0E00               	movlw	0
  1262  0079EE  6E3E               	movwf	___aldiv@divisor+3,c
  1263  0079F0  EC38  F03C         	call	___aldiv	;wreg free
  1264  0079F4  C037  F0CC         	movff	?___aldiv,??_SerialBegin
  1265  0079F8  C038  F0CD         	movff	?___aldiv+1,??_SerialBegin+1
  1266  0079FC  C039  F0CE         	movff	?___aldiv+2,??_SerialBegin+2
  1267  007A00  C03A  F0CF         	movff	?___aldiv+3,??_SerialBegin+3
  1268  007A04  0EFF               	movlw	255
  1269  007A06  0100               	movlb	0	; () banked
  1270  007A08  25CC               	addwf	??_SerialBegin& (0+255),w,b
  1271  007A0A  0100               	movlb	0	; () banked
  1272  007A0C  6FD4               	movwf	SerialBegin@x& (0+255),b
  1273  007A0E  0EFF               	movlw	255
  1274  007A10  0100               	movlb	0	; () banked
  1275  007A12  21CD               	addwfc	(??_SerialBegin+1)& (0+255),w,b
  1276  007A14  0100               	movlb	0	; () banked
  1277  007A16  6FD5               	movwf	(SerialBegin@x+1)& (0+255),b
  1278                           
  1279                           ; BSR set to: 0
  1280                           ;Procedures.c: 676: if(x > 255)
  1281  007A18  0E00               	movlw	0
  1282  007A1A  0100               	movlb	0	; () banked
  1283  007A1C  5DD4               	subwf	SerialBegin@x& (0+255),w,b
  1284  007A1E  0E01               	movlw	1
  1285  007A20  0100               	movlb	0	; () banked
  1286  007A22  59D5               	subwfb	(SerialBegin@x+1)& (0+255),w,b
  1287  007A24  A0D8               	btfss	status,0,c
  1288  007A26  D03F               	goto	l4228
  1289                           
  1290                           ; BSR set to: 0
  1291                           ;Procedures.c: 677: {
  1292                           ;Procedures.c: 678: x = ((24000000 / baudRate)/16) - 1;
  1293  007A28  C0C8  F03B         	movff	SerialBegin@baudRate,___aldiv@divisor
  1294  007A2C  C0C9  F03C         	movff	SerialBegin@baudRate+1,___aldiv@divisor+1
  1295  007A30  C0CA  F03D         	movff	SerialBegin@baudRate+2,___aldiv@divisor+2
  1296  007A34  C0CB  F03E         	movff	SerialBegin@baudRate+3,___aldiv@divisor+3
  1297  007A38  0E00               	movlw	0
  1298  007A3A  6E37               	movwf	___aldiv@dividend,c
  1299  007A3C  0E36               	movlw	54
  1300  007A3E  6E38               	movwf	___aldiv@dividend+1,c
  1301  007A40  0E6E               	movlw	110
  1302  007A42  6E39               	movwf	___aldiv@dividend+2,c
  1303  007A44  0E01               	movlw	1
  1304  007A46  6E3A               	movwf	___aldiv@dividend+3,c
  1305  007A48  EC38  F03C         	call	___aldiv	;wreg free
  1306  007A4C  C037  F0D0         	movff	?___aldiv,_SerialBegin$3256
  1307  007A50  C038  F0D1         	movff	?___aldiv+1,_SerialBegin$3256+1
  1308  007A54  C039  F0D2         	movff	?___aldiv+2,_SerialBegin$3256+2
  1309  007A58  C03A  F0D3         	movff	?___aldiv+3,_SerialBegin$3256+3
  1310                           
  1311                           ;Procedures.c: 677: {
  1312                           ;Procedures.c: 678: x = ((24000000 / baudRate)/16) - 1;
  1313  007A5C  C0D0  F037         	movff	_SerialBegin$3256,___aldiv@dividend
  1314  007A60  C0D1  F038         	movff	_SerialBegin$3256+1,___aldiv@dividend+1
  1315  007A64  C0D2  F039         	movff	_SerialBegin$3256+2,___aldiv@dividend+2
  1316  007A68  C0D3  F03A         	movff	_SerialBegin$3256+3,___aldiv@dividend+3
  1317  007A6C  0E10               	movlw	16
  1318  007A6E  6E3B               	movwf	___aldiv@divisor,c
  1319  007A70  0E00               	movlw	0
  1320  007A72  6E3C               	movwf	___aldiv@divisor+1,c
  1321  007A74  0E00               	movlw	0
  1322  007A76  6E3D               	movwf	___aldiv@divisor+2,c
  1323  007A78  0E00               	movlw	0
  1324  007A7A  6E3E               	movwf	___aldiv@divisor+3,c
  1325  007A7C  EC38  F03C         	call	___aldiv	;wreg free
  1326  007A80  C037  F0CC         	movff	?___aldiv,??_SerialBegin
  1327  007A84  C038  F0CD         	movff	?___aldiv+1,??_SerialBegin+1
  1328  007A88  C039  F0CE         	movff	?___aldiv+2,??_SerialBegin+2
  1329  007A8C  C03A  F0CF         	movff	?___aldiv+3,??_SerialBegin+3
  1330  007A90  0EFF               	movlw	255
  1331  007A92  0100               	movlb	0	; () banked
  1332  007A94  25CC               	addwf	??_SerialBegin& (0+255),w,b
  1333  007A96  0100               	movlb	0	; () banked
  1334  007A98  6FD4               	movwf	SerialBegin@x& (0+255),b
  1335  007A9A  0EFF               	movlw	255
  1336  007A9C  0100               	movlb	0	; () banked
  1337  007A9E  21CD               	addwfc	(??_SerialBegin+1)& (0+255),w,b
  1338  007AA0  0100               	movlb	0	; () banked
  1339  007AA2  6FD5               	movwf	(SerialBegin@x+1)& (0+255),b
  1340                           
  1341                           ; BSR set to: 0
  1342                           ;Procedures.c: 679: BRGH = 1;
  1343  007AA4  84AC               	bsf	4012,2,c	;volatile
  1344  007AA6                     l4228:
  1345                           
  1346                           ; BSR set to: 0
  1347                           ;Procedures.c: 680: }
  1348                           ;Procedures.c: 681: if(x < 256)
  1349  007AA6  0E00               	movlw	0
  1350  007AA8  0100               	movlb	0	; () banked
  1351  007AAA  5DD4               	subwf	SerialBegin@x& (0+255),w,b
  1352  007AAC  0E01               	movlw	1
  1353  007AAE  0100               	movlb	0	; () banked
  1354  007AB0  59D5               	subwfb	(SerialBegin@x+1)& (0+255),w,b
  1355  007AB2  B0D8               	btfsc	status,0,c
  1356  007AB4  D008               	goto	l490
  1357                           
  1358                           ; BSR set to: 0
  1359                           ;Procedures.c: 682: {
  1360                           ;Procedures.c: 683: SPBRG = x;
  1361  007AB6  C0D4  FFAF         	movff	SerialBegin@x,4015	;volatile
  1362                           
  1363                           ;Procedures.c: 684: SYNC = 0;
  1364  007ABA  98AC               	bcf	4012,4,c	;volatile
  1365                           
  1366                           ;Procedures.c: 685: SPEN = 1;
  1367  007ABC  8EAB               	bsf	4011,7,c	;volatile
  1368                           
  1369                           ;Procedures.c: 686: TRISC6 = 1;
  1370  007ABE  8C94               	bsf	3988,6,c	;volatile
  1371                           
  1372                           ;Procedures.c: 687: TRISC7 = 1;
  1373  007AC0  8E94               	bsf	3988,7,c	;volatile
  1374                           
  1375                           ;Procedures.c: 688: CREN = 1;
  1376  007AC2  88AB               	bsf	4011,4,c	;volatile
  1377                           
  1378                           ;Procedures.c: 689: TXEN = 1;
  1379  007AC4  8AAC               	bsf	4012,5,c	;volatile
  1380  007AC6                     l490:
  1381                           
  1382                           ; BSR set to: 0
  1383  007AC6  0012               	return	
  1384  007AC8                     __end_of_SerialBegin:
  1385                           	opt stack 0
  1386                           tblptru	equ	0xFF8
  1387                           tblptrh	equ	0xFF7
  1388                           tblptrl	equ	0xFF6
  1389                           tablat	equ	0xFF5
  1390                           postinc0	equ	0xFEE
  1391                           wreg	equ	0xFE8
  1392                           postdec1	equ	0xFE5
  1393                           fsr1l	equ	0xFE1
  1394                           status	equ	0xFD8
  1395                           
  1396 ;; *************** function _loop *****************
  1397 ;; Defined at:
  1398 ;;		line 31 in file "Application.c"
  1399 ;; Parameters:    Size  Location     Type
  1400 ;;		None
  1401 ;; Auto vars:     Size  Location     Type
  1402 ;;  i               2   24[COMRAM] int 
  1403 ;; Return value:  Size  Location     Type
  1404 ;;		None               void
  1405 ;; Registers used:
  1406 ;;		wreg, status,2, status,0, cstack
  1407 ;; Tracked objects:
  1408 ;;		On entry : 0/0
  1409 ;;		On exit  : 0/0
  1410 ;;		Unchanged: 0/0
  1411 ;; Data sizes:     COMRAM   BANK0   BANK1   BANK2   BANK3   BANK4   BANK5   BANK6   BANK7
  1412 ;;      Params:         0       0       0       0       0       0       0       0       0
  1413 ;;      Locals:         2       0       0       0       0       0       0       0       0
  1414 ;;      Temps:          0       0       0       0       0       0       0       0       0
  1415 ;;      Totals:         2       0       0       0       0       0       0       0       0
  1416 ;;Total ram usage:        2 bytes
  1417 ;; Hardware stack levels used:    1
  1418 ;; Hardware stack levels required when called:    4
  1419 ;; This function calls:
  1420 ;;		_SerialWrite
  1421 ;;		_delay
  1422 ;; This function is called by:
  1423 ;;		_main
  1424 ;; This function uses a non-reentrant model
  1425 ;;
  1426                           
  1427                           	psect	text3
  1428  0075E0                     __ptext3:
  1429                           	opt stack 0
  1430  0075E0                     _loop:
  1431                           	opt stack 26
  1432                           
  1433                           ;Application.c: 33: for(int i=0;i<256;i++)
  1434                           
  1435                           ; BSR set to: 0
  1436                           ;incstack = 0
  1437  0075E0  0E00               	movlw	0
  1438  0075E2  6E3E               	movwf	loop@i+1,c
  1439  0075E4  0E00               	movlw	0
  1440  0075E6  6E3D               	movwf	loop@i,c
  1441  0075E8  503E               	movf	loop@i+1,w,c
  1442  0075EA  0A80               	xorlw	128
  1443  0075EC  0F7F               	addlw	-129
  1444  0075EE  0E00               	movlw	0
  1445  0075F0  B4D8               	btfsc	status,2,c
  1446  0075F2  5C3D               	subwf	loop@i,w,c
  1447  0075F4  B0D8               	btfsc	status,0,c
  1448  0075F6  D00F               	goto	l701
  1449                           
  1450                           ;Application.c: 34: {
  1451                           ;Application.c: 35: SerialWrite(i);
  1452  0075F8  C03D  F037         	movff	loop@i,SerialWrite@dataWrite
  1453  0075FC  C03E  F038         	movff	loop@i+1,SerialWrite@dataWrite+1
  1454  007600  EC67  F03A         	call	_SerialWrite	;wreg free
  1455                           
  1456                           ;Application.c: 36: delay(200);
  1457  007604  0E00               	movlw	0
  1458  007606  6E39               	movwf	delay@milis+1,c
  1459  007608  0EC8               	movlw	200
  1460  00760A  6E38               	movwf	delay@milis,c
  1461  00760C  ECDB  F03A         	call	_delay	;wreg free
  1462  007610  4A3D               	infsnz	loop@i,f,c
  1463  007612  2A3E               	incf	loop@i+1,f,c
  1464  007614  D7E9               	goto	L1
  1465  007616                     l701:
  1466  007616  0012               	return	
  1467  007618                     __end_of_loop:
  1468                           	opt stack 0
  1469                           tblptru	equ	0xFF8
  1470                           tblptrh	equ	0xFF7
  1471                           tblptrl	equ	0xFF6
  1472                           tablat	equ	0xFF5
  1473                           postinc0	equ	0xFEE
  1474                           wreg	equ	0xFE8
  1475                           postdec1	equ	0xFE5
  1476                           fsr1l	equ	0xFE1
  1477                           status	equ	0xFD8
  1478                           
  1479 ;; *************** function _delay *****************
  1480 ;; Defined at:
  1481 ;;		line 39 in file "Procedures.c"
  1482 ;; Parameters:    Size  Location     Type
  1483 ;;  milis           2   19[COMRAM] const int 
  1484 ;; Auto vars:     Size  Location     Type
  1485 ;;  a               2   22[COMRAM] int 
  1486 ;; Return value:  Size  Location     Type
  1487 ;;		None               void
  1488 ;; Registers used:
  1489 ;;		wreg, status,2, status,0, cstack
  1490 ;; Tracked objects:
  1491 ;;		On entry : 0/0
  1492 ;;		On exit  : 0/0
  1493 ;;		Unchanged: 0/0
  1494 ;; Data sizes:     COMRAM   BANK0   BANK1   BANK2   BANK3   BANK4   BANK5   BANK6   BANK7
  1495 ;;      Params:         2       0       0       0       0       0       0       0       0
  1496 ;;      Locals:         2       0       0       0       0       0       0       0       0
  1497 ;;      Temps:          1       0       0       0       0       0       0       0       0
  1498 ;;      Totals:         5       0       0       0       0       0       0       0       0
  1499 ;;Total ram usage:        5 bytes
  1500 ;; Hardware stack levels used:    1
  1501 ;; Hardware stack levels required when called:    3
  1502 ;; This function calls:
  1503 ;;		_Delay1KTCYx
  1504 ;; This function is called by:
  1505 ;;		_setup
  1506 ;;		_loop
  1507 ;;		_Frequency
  1508 ;;		_PantallaStartingState
  1509 ;;		_controllerOperation
  1510 ;; This function uses a non-reentrant model
  1511 ;;
  1512                           
  1513                           	psect	text4
  1514  0075B6                     __ptext4:
  1515                           	opt stack 0
  1516  0075B6                     _delay:
  1517                           	opt stack 26
  1518                           
  1519                           ;Procedures.c: 41: for(int a=1;a<=milis;a++)
  1520                           
  1521                           ;incstack = 0
  1522  0075B6  0E00               	movlw	0
  1523  0075B8  6E3C               	movwf	delay@a+1,c
  1524  0075BA  0E01               	movlw	1
  1525  0075BC  6E3B               	movwf	delay@a,c
  1526  0075BE  5039               	movf	delay@milis+1,w,c
  1527  0075C0  0A80               	xorlw	128
  1528  0075C2  6E3A               	movwf	??_delay& (0+255),c
  1529  0075C4  503B               	movf	delay@a,w,c
  1530  0075C6  5C38               	subwf	delay@milis,w,c
  1531  0075C8  503C               	movf	delay@a+1,w,c
  1532  0075CA  0A80               	xorlw	128
  1533  0075CC  583A               	subwfb	??_delay& (0+255),w,c
  1534  0075CE  A0D8               	btfss	status,0,c
  1535  0075D0  D006               	goto	l222
  1536                           
  1537                           ;Procedures.c: 42: {
  1538                           ;Procedures.c: 43: Delay1KTCYx(12);
  1539  0075D2  0E0C               	movlw	12
  1540  0075D4  EC85  F03A         	call	_Delay1KTCYx
  1541  0075D8  4A3B               	infsnz	delay@a,f,c
  1542  0075DA  2A3C               	incf	delay@a+1,f,c
  1543  0075DC  D7F0               	goto	L2
  1544  0075DE                     l222:
  1545  0075DE  0012               	return	
  1546  0075E0                     __end_of_delay:
  1547                           	opt stack 0
  1548                           tblptru	equ	0xFF8
  1549                           tblptrh	equ	0xFF7
  1550                           tblptrl	equ	0xFF6
  1551                           tablat	equ	0xFF5
  1552                           postinc0	equ	0xFEE
  1553                           wreg	equ	0xFE8
  1554                           postdec1	equ	0xFE5
  1555                           fsr1l	equ	0xFE1
  1556                           status	equ	0xFD8
  1557                           
  1558 ;; *************** function _Delay1KTCYx *****************
  1559 ;; Defined at:
  1560 ;;		line 8 in file "C:\Program Files (x86)\Microchip\xc8\v1.33\sources\pic18\d1ktcyx.c"
  1561 ;; Parameters:    Size  Location     Type
  1562 ;;  unit            1    wreg     unsigned char 
  1563 ;; Auto vars:     Size  Location     Type
  1564 ;;  unit            1   18[COMRAM] unsigned char 
  1565 ;; Return value:  Size  Location     Type
  1566 ;;		None               void
  1567 ;; Registers used:
  1568 ;;		wreg
  1569 ;; Tracked objects:
  1570 ;;		On entry : 0/0
  1571 ;;		On exit  : 0/0
  1572 ;;		Unchanged: 0/0
  1573 ;; Data sizes:     COMRAM   BANK0   BANK1   BANK2   BANK3   BANK4   BANK5   BANK6   BANK7
  1574 ;;      Params:         0       0       0       0       0       0       0       0       0
  1575 ;;      Locals:         1       0       0       0       0       0       0       0       0
  1576 ;;      Temps:          0       0       0       0       0       0       0       0       0
  1577 ;;      Totals:         1       0       0       0       0       0       0       0       0
  1578 ;;Total ram usage:        1 bytes
  1579 ;; Hardware stack levels used:    1
  1580 ;; Hardware stack levels required when called:    2
  1581 ;; This function calls:
  1582 ;;		Nothing
  1583 ;; This function is called by:
  1584 ;;		_delay
  1585 ;;		_DelayPORXLCD
  1586 ;;		_DelayXLCD
  1587 ;; This function uses a non-reentrant model
  1588 ;;
  1589                           
  1590                           	psect	text5
  1591  00750A                     __ptext5:
  1592                           	opt stack 0
  1593  00750A                     _Delay1KTCYx:
  1594                           	opt stack 26
  1595                           
  1596                           ;incstack = 0
  1597                           ;Delay1KTCYx@unit stored from wreg
  1598  00750A  6E37               	movwf	Delay1KTCYx@unit,c
  1599  00750C                     l1222:
  1600  00750C  0EFA               	movlw	250
  1601  00750E                     u4107:
  1602  00750E  F000               	nop	
  1603  007510  2EE8               	decfsz	wreg,f,c
  1604  007512  D7FD               	goto	u4107
  1605  007514  2E37               	decfsz	Delay1KTCYx@unit,f,c
  1606  007516  D7FA               	goto	l1222
  1607  007518  0012               	return	
  1608  00751A                     __end_of_Delay1KTCYx:
  1609                           	opt stack 0
  1610                           tblptru	equ	0xFF8
  1611                           tblptrh	equ	0xFF7
  1612                           tblptrl	equ	0xFF6
  1613                           tablat	equ	0xFF5
  1614                           postinc0	equ	0xFEE
  1615                           wreg	equ	0xFE8
  1616                           postdec1	equ	0xFE5
  1617                           fsr1l	equ	0xFE1
  1618                           status	equ	0xFD8
  1619                           
  1620 ;; *************** function _SerialWrite *****************
  1621 ;; Defined at:
  1622 ;;		line 721 in file "Procedures.c"
  1623 ;; Parameters:    Size  Location     Type
  1624 ;;  dataWrite       2   18[COMRAM] int 
  1625 ;; Auto vars:     Size  Location     Type
  1626 ;;		None
  1627 ;; Return value:  Size  Location     Type
  1628 ;;		None               void
  1629 ;; Registers used:
  1630 ;;		None
  1631 ;; Tracked objects:
  1632 ;;		On entry : 0/0
  1633 ;;		On exit  : 0/0
  1634 ;;		Unchanged: 0/0
  1635 ;; Data sizes:     COMRAM   BANK0   BANK1   BANK2   BANK3   BANK4   BANK5   BANK6   BANK7
  1636 ;;      Params:         2       0       0       0       0       0       0       0       0
  1637 ;;      Locals:         0       0       0       0       0       0       0       0       0
  1638 ;;      Temps:          0       0       0       0       0       0       0       0       0
  1639 ;;      Totals:         2       0       0       0       0       0       0       0       0
  1640 ;;Total ram usage:        2 bytes
  1641 ;; Hardware stack levels used:    1
  1642 ;; Hardware stack levels required when called:    2
  1643 ;; This function calls:
  1644 ;;		Nothing
  1645 ;; This function is called by:
  1646 ;;		_setup
  1647 ;;		_loop
  1648 ;;		_SerialWriteText
  1649 ;; This function uses a non-reentrant model
  1650 ;;
  1651                           
  1652                           	psect	text6
  1653  0074CE                     __ptext6:
  1654                           	opt stack 0
  1655  0074CE                     _SerialWrite:
  1656                           	opt stack 27
  1657  0074CE                     l512:
  1658  0074CE  A2AC               	btfss	4012,1,c	;volatile
  1659  0074D0  D7FE               	goto	l512
  1660                           
  1661                           ;Procedures.c: 724: TXREG = dataWrite;
  1662  0074D2  C037  FFAD         	movff	SerialWrite@dataWrite,4013	;volatile
  1663  0074D6  0012               	return	
  1664  0074D8                     __end_of_SerialWrite:
  1665                           	opt stack 0
  1666                           tblptru	equ	0xFF8
  1667                           tblptrh	equ	0xFF7
  1668                           tblptrl	equ	0xFF6
  1669                           tablat	equ	0xFF5
  1670                           postinc0	equ	0xFEE
  1671                           wreg	equ	0xFE8
  1672                           postdec1	equ	0xFE5
  1673                           fsr1l	equ	0xFE1
  1674                           status	equ	0xFD8
  1675                           
  1676 ;; *************** function _configuracionInicial *****************
  1677 ;; Defined at:
  1678 ;;		line 27 in file "Procedures.c"
  1679 ;; Parameters:    Size  Location     Type
  1680 ;;		None
  1681 ;; Auto vars:     Size  Location     Type
  1682 ;;		None
  1683 ;; Return value:  Size  Location     Type
  1684 ;;		None               void
  1685 ;; Registers used:
  1686 ;;		wreg, status,2, status,0, cstack
  1687 ;; Tracked objects:
  1688 ;;		On entry : 0/0
  1689 ;;		On exit  : 0/0
  1690 ;;		Unchanged: 0/0
  1691 ;; Data sizes:     COMRAM   BANK0   BANK1   BANK2   BANK3   BANK4   BANK5   BANK6   BANK7
  1692 ;;      Params:         0       0       0       0       0       0       0       0       0
  1693 ;;      Locals:         0       0       0       0       0       0       0       0       0
  1694 ;;      Temps:          0       0       0       0       0       0       0       0       0
  1695 ;;      Totals:         0       0       0       0       0       0       0       0       0
  1696 ;;Total ram usage:        0 bytes
  1697 ;; Hardware stack levels used:    1
  1698 ;; Hardware stack levels required when called:    5
  1699 ;; This function calls:
  1700 ;;		_ADCConfig
  1701 ;;		_CCPConfig
  1702 ;;		_PORTAConfig
  1703 ;;		_PORTBConfig
  1704 ;;		_PORTCConfig
  1705 ;;		_PORTDConfig
  1706 ;;		_PORTEConfig
  1707 ;;		_TMR0Config
  1708 ;;		_TMR1Config
  1709 ;; This function is called by:
  1710 ;;		_main
  1711 ;; This function uses a non-reentrant model
  1712 ;;
  1713                           
  1714                           	psect	text7
  1715  007590                     __ptext7:
  1716                           	opt stack 0
  1717  007590                     _configuracionInicial:
  1718                           	opt stack 25
  1719                           
  1720                           ;Procedures.c: 29: ADCConfig();
  1721                           
  1722                           ;incstack = 0
  1723  007590  EC9F  F03A         	call	_ADCConfig	;wreg free
  1724                           
  1725                           ;Procedures.c: 30: CCPConfig();
  1726  007594  EC2B  F03B         	call	_CCPConfig	;wreg free
  1727                           
  1728                           ;Procedures.c: 31: PORTAConfig();
  1729  007598  EC5A  F03A         	call	_PORTAConfig	;wreg free
  1730                           
  1731                           ;Procedures.c: 32: PORTBConfig();
  1732  00759C  EC56  F03A         	call	_PORTBConfig	;wreg free
  1733                           
  1734                           ;Procedures.c: 33: PORTCConfig();
  1735  0075A0  EC5D  F03A         	call	_PORTCConfig	;wreg free
  1736                           
  1737                           ;Procedures.c: 34: PORTDConfig();
  1738  0075A4  EC58  F03A         	call	_PORTDConfig	;wreg free
  1739                           
  1740                           ;Procedures.c: 35: PORTEConfig();
  1741  0075A8  EC63  F03A         	call	_PORTEConfig	;wreg free
  1742                           
  1743                           ;Procedures.c: 36: TMR0Config();
  1744  0075AC  ECAA  F03A         	call	_TMR0Config	;wreg free
  1745                           
  1746                           ;Procedures.c: 37: TMR1Config();
  1747  0075B0  EC60  F03A         	call	_TMR1Config	;wreg free
  1748  0075B4  0012               	return	
  1749  0075B6                     __end_of_configuracionInicial:
  1750                           	opt stack 0
  1751                           tblptru	equ	0xFF8
  1752                           tblptrh	equ	0xFF7
  1753                           tblptrl	equ	0xFF6
  1754                           tablat	equ	0xFF5
  1755                           postinc0	equ	0xFEE
  1756                           wreg	equ	0xFE8
  1757                           postdec1	equ	0xFE5
  1758                           fsr1l	equ	0xFE1
  1759                           status	equ	0xFD8
  1760                           
  1761 ;; *************** function _TMR1Config *****************
  1762 ;; Defined at:
  1763 ;;		line 448 in file "Procedures.c"
  1764 ;; Parameters:    Size  Location     Type
  1765 ;;		None
  1766 ;; Auto vars:     Size  Location     Type
  1767 ;;		None
  1768 ;; Return value:  Size  Location     Type
  1769 ;;		None               void
  1770 ;; Registers used:
  1771 ;;		wreg, status,2
  1772 ;; Tracked objects:
  1773 ;;		On entry : 0/0
  1774 ;;		On exit  : 0/0
  1775 ;;		Unchanged: 0/0
  1776 ;; Data sizes:     COMRAM   BANK0   BANK1   BANK2   BANK3   BANK4   BANK5   BANK6   BANK7
  1777 ;;      Params:         0       0       0       0       0       0       0       0       0
  1778 ;;      Locals:         0       0       0       0       0       0       0       0       0
  1779 ;;      Temps:          0       0       0       0       0       0       0       0       0
  1780 ;;      Totals:         0       0       0       0       0       0       0       0       0
  1781 ;;Total ram usage:        0 bytes
  1782 ;; Hardware stack levels used:    1
  1783 ;; Hardware stack levels required when called:    2
  1784 ;; This function calls:
  1785 ;;		Nothing
  1786 ;; This function is called by:
  1787 ;;		_configuracionInicial
  1788 ;; This function uses a non-reentrant model
  1789 ;;
  1790                           
  1791                           	psect	text8
  1792  0074C0                     __ptext8:
  1793                           	opt stack 0
  1794  0074C0                     _TMR1Config:
  1795                           	opt stack 27
  1796                           
  1797                           ;Procedures.c: 450: T1CON = 0xB6;
  1798                           
  1799                           ;incstack = 0
  1800  0074C0  0EB6               	movlw	182
  1801  0074C2  6ECD               	movwf	4045,c	;volatile
  1802  0074C4  0012               	return	
  1803  0074C6                     __end_of_TMR1Config:
  1804                           	opt stack 0
  1805                           tblptru	equ	0xFF8
  1806                           tblptrh	equ	0xFF7
  1807                           tblptrl	equ	0xFF6
  1808                           tablat	equ	0xFF5
  1809                           postinc0	equ	0xFEE
  1810                           wreg	equ	0xFE8
  1811                           postdec1	equ	0xFE5
  1812                           fsr1l	equ	0xFE1
  1813                           status	equ	0xFD8
  1814                           
  1815 ;; *************** function _TMR0Config *****************
  1816 ;; Defined at:
  1817 ;;		line 417 in file "Procedures.c"
  1818 ;; Parameters:    Size  Location     Type
  1819 ;;		None
  1820 ;; Auto vars:     Size  Location     Type
  1821 ;;		None
  1822 ;; Return value:  Size  Location     Type
  1823 ;;		None               void
  1824 ;; Registers used:
  1825 ;;		wreg, status,2, status,0, cstack
  1826 ;; Tracked objects:
  1827 ;;		On entry : 0/0
  1828 ;;		On exit  : 0/0
  1829 ;;		Unchanged: 0/0
  1830 ;; Data sizes:     COMRAM   BANK0   BANK1   BANK2   BANK3   BANK4   BANK5   BANK6   BANK7
  1831 ;;      Params:         0       0       0       0       0       0       0       0       0
  1832 ;;      Locals:         0       0       0       0       0       0       0       0       0
  1833 ;;      Temps:          0       0       0       0       0       0       0       0       0
  1834 ;;      Totals:         0       0       0       0       0       0       0       0       0
  1835 ;;Total ram usage:        0 bytes
  1836 ;; Hardware stack levels used:    1
  1837 ;; Hardware stack levels required when called:    3
  1838 ;; This function calls:
  1839 ;;		_OpenTimer0
  1840 ;;		_WriteTimer0
  1841 ;; This function is called by:
  1842 ;;		_configuracionInicial
  1843 ;; This function uses a non-reentrant model
  1844 ;;
  1845                           
  1846                           	psect	text9
  1847  007554                     __ptext9:
  1848                           	opt stack 0
  1849  007554                     _TMR0Config:
  1850                           	opt stack 26
  1851                           
  1852                           ;Procedures.c: 420: T0CON = 0x55;
  1853                           
  1854                           ;incstack = 0
  1855  007554  0E55               	movlw	85
  1856  007556  6ED5               	movwf	4053,c	;volatile
  1857                           
  1858                           ;Procedures.c: 424: OpenTimer0(0b11111111 & 0b10111111 & 0b11011111 & 0b11110111);
  1859  007558  0E97               	movlw	151
  1860  00755A  ECB8  F03A         	call	_OpenTimer0
  1861                           
  1862                           ;Procedures.c: 425: WriteTimer0(0x0000);
  1863  00755E  0E00               	movlw	0
  1864  007560  6E38               	movwf	WriteTimer0@timer0+1,c
  1865  007562  0E00               	movlw	0
  1866  007564  6E37               	movwf	WriteTimer0@timer0,c
  1867  007566  EC96  F03A         	call	_WriteTimer0	;wreg free
  1868                           
  1869                           ;Procedures.c: 426: INTCONbits.TMR0IF = 0;
  1870  00756A  94F2               	bcf	intcon,2,c	;volatile
  1871                           
  1872                           ;Procedures.c: 427: (INTCONbits.GIE = 1);
  1873  00756C  8EF2               	bsf	intcon,7,c	;volatile
  1874  00756E  0012               	return	
  1875  007570                     __end_of_TMR0Config:
  1876                           	opt stack 0
  1877                           tblptru	equ	0xFF8
  1878                           tblptrh	equ	0xFF7
  1879                           tblptrl	equ	0xFF6
  1880                           tablat	equ	0xFF5
  1881                           intcon	equ	0xFF2
  1882                           postinc0	equ	0xFEE
  1883                           wreg	equ	0xFE8
  1884                           postdec1	equ	0xFE5
  1885                           fsr1l	equ	0xFE1
  1886                           status	equ	0xFD8
  1887                           
  1888 ;; *************** function _WriteTimer0 *****************
  1889 ;; Defined at:
  1890 ;;		line 16 in file "C:\Program Files (x86)\Microchip\xc8\v1.33\sources\pic18\plib\Timers\t0write.c"
  1891 ;; Parameters:    Size  Location     Type
  1892 ;;  timer0          2   18[COMRAM] unsigned int 
  1893 ;; Auto vars:     Size  Location     Type
  1894 ;;  timer           2   20[COMRAM] struct Timers
  1895 ;; Return value:  Size  Location     Type
  1896 ;;		None               void
  1897 ;; Registers used:
  1898 ;;		None
  1899 ;; Tracked objects:
  1900 ;;		On entry : 0/0
  1901 ;;		On exit  : 0/0
  1902 ;;		Unchanged: 0/0
  1903 ;; Data sizes:     COMRAM   BANK0   BANK1   BANK2   BANK3   BANK4   BANK5   BANK6   BANK7
  1904 ;;      Params:         2       0       0       0       0       0       0       0       0
  1905 ;;      Locals:         2       0       0       0       0       0       0       0       0
  1906 ;;      Temps:          0       0       0       0       0       0       0       0       0
  1907 ;;      Totals:         4       0       0       0       0       0       0       0       0
  1908 ;;Total ram usage:        4 bytes
  1909 ;; Hardware stack levels used:    1
  1910 ;; Hardware stack levels required when called:    2
  1911 ;; This function calls:
  1912 ;;		Nothing
  1913 ;; This function is called by:
  1914 ;;		_TMR0Config
  1915 ;; This function uses a non-reentrant model
  1916 ;;
  1917                           
  1918                           	psect	text10
  1919  00752C                     __ptext10:
  1920                           	opt stack 0
  1921  00752C                     _WriteTimer0:
  1922                           	opt stack 26
  1923                           
  1924                           ;incstack = 0
  1925  00752C  C037  F039         	movff	WriteTimer0@timer0,WriteTimer0@timer
  1926  007530  C038  F03A         	movff	WriteTimer0@timer0+1,WriteTimer0@timer+1
  1927  007534  C03A  FFD7         	movff	WriteTimer0@timer+1,4055	;volatile
  1928  007538  C039  FFD6         	movff	WriteTimer0@timer,4054	;volatile
  1929  00753C  0012               	return	
  1930  00753E                     __end_of_WriteTimer0:
  1931                           	opt stack 0
  1932                           tblptru	equ	0xFF8
  1933                           tblptrh	equ	0xFF7
  1934                           tblptrl	equ	0xFF6
  1935                           tablat	equ	0xFF5
  1936                           intcon	equ	0xFF2
  1937                           postinc0	equ	0xFEE
  1938                           wreg	equ	0xFE8
  1939                           postdec1	equ	0xFE5
  1940                           fsr1l	equ	0xFE1
  1941                           status	equ	0xFD8
  1942                           
  1943 ;; *************** function _OpenTimer0 *****************
  1944 ;; Defined at:
  1945 ;;		line 18 in file "C:\Program Files (x86)\Microchip\xc8\v1.33\sources\pic18\plib\Timers\t0open.c"
  1946 ;; Parameters:    Size  Location     Type
  1947 ;;  config          1    wreg     unsigned char 
  1948 ;; Auto vars:     Size  Location     Type
  1949 ;;  config          1   18[COMRAM] unsigned char 
  1950 ;; Return value:  Size  Location     Type
  1951 ;;		None               void
  1952 ;; Registers used:
  1953 ;;		wreg, status,2, status,0
  1954 ;; Tracked objects:
  1955 ;;		On entry : 0/0
  1956 ;;		On exit  : 0/0
  1957 ;;		Unchanged: 0/0
  1958 ;; Data sizes:     COMRAM   BANK0   BANK1   BANK2   BANK3   BANK4   BANK5   BANK6   BANK7
  1959 ;;      Params:         0       0       0       0       0       0       0       0       0
  1960 ;;      Locals:         1       0       0       0       0       0       0       0       0
  1961 ;;      Temps:          0       0       0       0       0       0       0       0       0
  1962 ;;      Totals:         1       0       0       0       0       0       0       0       0
  1963 ;;Total ram usage:        1 bytes
  1964 ;; Hardware stack levels used:    1
  1965 ;; Hardware stack levels required when called:    2
  1966 ;; This function calls:
  1967 ;;		Nothing
  1968 ;; This function is called by:
  1969 ;;		_TMR0Config
  1970 ;; This function uses a non-reentrant model
  1971 ;;
  1972                           
  1973                           	psect	text11
  1974  007570                     __ptext11:
  1975                           	opt stack 0
  1976  007570                     _OpenTimer0:
  1977                           	opt stack 26
  1978                           
  1979                           ;incstack = 0
  1980                           ;OpenTimer0@config stored from wreg
  1981  007570  6E37               	movwf	OpenTimer0@config,c
  1982  007572  5037               	movf	OpenTimer0@config,w,c
  1983  007574  0B7F               	andlw	127
  1984  007576  6ED5               	movwf	4053,c	;volatile
  1985  007578  0E00               	movlw	0
  1986  00757A  6ED7               	movwf	4055,c	;volatile
  1987  00757C  0E00               	movlw	0
  1988  00757E  6ED6               	movwf	4054,c	;volatile
  1989  007580  94F2               	bcf	intcon,2,c	;volatile
  1990  007582  AE37               	btfss	OpenTimer0@config,7,c
  1991  007584  D002               	goto	l973
  1992  007586  8AF2               	bsf	intcon,5,c	;volatile
  1993  007588  D001               	goto	l974
  1994  00758A                     l973:
  1995  00758A  9AF2               	bcf	intcon,5,c	;volatile
  1996  00758C                     l974:
  1997  00758C  8ED5               	bsf	4053,7,c	;volatile
  1998  00758E  0012               	return	
  1999  007590                     __end_of_OpenTimer0:
  2000                           	opt stack 0
  2001                           tblptru	equ	0xFF8
  2002                           tblptrh	equ	0xFF7
  2003                           tblptrl	equ	0xFF6
  2004                           tablat	equ	0xFF5
  2005                           intcon	equ	0xFF2
  2006                           postinc0	equ	0xFEE
  2007                           wreg	equ	0xFE8
  2008                           postdec1	equ	0xFE5
  2009                           fsr1l	equ	0xFE1
  2010                           status	equ	0xFD8
  2011                           
  2012 ;; *************** function _PORTEConfig *****************
  2013 ;; Defined at:
  2014 ;;		line 513 in file "Procedures.c"
  2015 ;; Parameters:    Size  Location     Type
  2016 ;;		None
  2017 ;; Auto vars:     Size  Location     Type
  2018 ;;		None
  2019 ;; Return value:  Size  Location     Type
  2020 ;;		None               void
  2021 ;; Registers used:
  2022 ;;		None
  2023 ;; Tracked objects:
  2024 ;;		On entry : 0/0
  2025 ;;		On exit  : 0/0
  2026 ;;		Unchanged: 0/0
  2027 ;; Data sizes:     COMRAM   BANK0   BANK1   BANK2   BANK3   BANK4   BANK5   BANK6   BANK7
  2028 ;;      Params:         0       0       0       0       0       0       0       0       0
  2029 ;;      Locals:         0       0       0       0       0       0       0       0       0
  2030 ;;      Temps:          0       0       0       0       0       0       0       0       0
  2031 ;;      Totals:         0       0       0       0       0       0       0       0       0
  2032 ;;Total ram usage:        0 bytes
  2033 ;; Hardware stack levels used:    1
  2034 ;; Hardware stack levels required when called:    2
  2035 ;; This function calls:
  2036 ;;		Nothing
  2037 ;; This function is called by:
  2038 ;;		_configuracionInicial
  2039 ;; This function uses a non-reentrant model
  2040 ;;
  2041                           
  2042                           	psect	text12
  2043  0074C6                     __ptext12:
  2044                           	opt stack 0
  2045  0074C6                     _PORTEConfig:
  2046                           	opt stack 27
  2047                           
  2048                           ;Procedures.c: 515: TRISEbits.RE0 = 1;
  2049                           
  2050                           ;incstack = 0
  2051  0074C6  8096               	bsf	3990,0,c	;volatile
  2052                           
  2053                           ;Procedures.c: 516: TRISEbits.RE1 = 1;
  2054  0074C8  8296               	bsf	3990,1,c	;volatile
  2055                           
  2056                           ;Procedures.c: 517: TRISEbits.RE2 = 1;
  2057  0074CA  8496               	bsf	3990,2,c	;volatile
  2058  0074CC  0012               	return	
  2059  0074CE                     __end_of_PORTEConfig:
  2060                           	opt stack 0
  2061                           tblptru	equ	0xFF8
  2062                           tblptrh	equ	0xFF7
  2063                           tblptrl	equ	0xFF6
  2064                           tablat	equ	0xFF5
  2065                           intcon	equ	0xFF2
  2066                           postinc0	equ	0xFEE
  2067                           wreg	equ	0xFE8
  2068                           postdec1	equ	0xFE5
  2069                           fsr1l	equ	0xFE1
  2070                           status	equ	0xFD8
  2071                           
  2072 ;; *************** function _PORTDConfig *****************
  2073 ;; Defined at:
  2074 ;;		line 509 in file "Procedures.c"
  2075 ;; Parameters:    Size  Location     Type
  2076 ;;		None
  2077 ;; Auto vars:     Size  Location     Type
  2078 ;;		None
  2079 ;; Return value:  Size  Location     Type
  2080 ;;		None               void
  2081 ;; Registers used:
  2082 ;;		None
  2083 ;; Tracked objects:
  2084 ;;		On entry : 0/0
  2085 ;;		On exit  : 0/0
  2086 ;;		Unchanged: 0/0
  2087 ;; Data sizes:     COMRAM   BANK0   BANK1   BANK2   BANK3   BANK4   BANK5   BANK6   BANK7
  2088 ;;      Params:         0       0       0       0       0       0       0       0       0
  2089 ;;      Locals:         0       0       0       0       0       0       0       0       0
  2090 ;;      Temps:          0       0       0       0       0       0       0       0       0
  2091 ;;      Totals:         0       0       0       0       0       0       0       0       0
  2092 ;;Total ram usage:        0 bytes
  2093 ;; Hardware stack levels used:    1
  2094 ;; Hardware stack levels required when called:    2
  2095 ;; This function calls:
  2096 ;;		Nothing
  2097 ;; This function is called by:
  2098 ;;		_configuracionInicial
  2099 ;; This function uses a non-reentrant model
  2100 ;;
  2101                           
  2102                           	psect	text13
  2103  0074B0                     __ptext13:
  2104                           	opt stack 0
  2105  0074B0                     _PORTDConfig:
  2106                           	opt stack 27
  2107                           
  2108                           ;Procedures.c: 511: TRISD = 0xFF;
  2109                           
  2110                           ;incstack = 0
  2111  0074B0  6895               	setf	3989,c	;volatile
  2112  0074B2  0012               	return	
  2113  0074B4                     __end_of_PORTDConfig:
  2114                           	opt stack 0
  2115                           tblptru	equ	0xFF8
  2116                           tblptrh	equ	0xFF7
  2117                           tblptrl	equ	0xFF6
  2118                           tablat	equ	0xFF5
  2119                           intcon	equ	0xFF2
  2120                           postinc0	equ	0xFEE
  2121                           wreg	equ	0xFE8
  2122                           postdec1	equ	0xFE5
  2123                           fsr1l	equ	0xFE1
  2124                           status	equ	0xFD8
  2125                           
  2126 ;; *************** function _PORTCConfig *****************
  2127 ;; Defined at:
  2128 ;;		line 505 in file "Procedures.c"
  2129 ;; Parameters:    Size  Location     Type
  2130 ;;		None
  2131 ;; Auto vars:     Size  Location     Type
  2132 ;;		None
  2133 ;; Return value:  Size  Location     Type
  2134 ;;		None               void
  2135 ;; Registers used:
  2136 ;;		wreg, status,2
  2137 ;; Tracked objects:
  2138 ;;		On entry : 0/0
  2139 ;;		On exit  : 0/0
  2140 ;;		Unchanged: 0/0
  2141 ;; Data sizes:     COMRAM   BANK0   BANK1   BANK2   BANK3   BANK4   BANK5   BANK6   BANK7
  2142 ;;      Params:         0       0       0       0       0       0       0       0       0
  2143 ;;      Locals:         0       0       0       0       0       0       0       0       0
  2144 ;;      Temps:          0       0       0       0       0       0       0       0       0
  2145 ;;      Totals:         0       0       0       0       0       0       0       0       0
  2146 ;;Total ram usage:        0 bytes
  2147 ;; Hardware stack levels used:    1
  2148 ;; Hardware stack levels required when called:    2
  2149 ;; This function calls:
  2150 ;;		Nothing
  2151 ;; This function is called by:
  2152 ;;		_configuracionInicial
  2153 ;; This function uses a non-reentrant model
  2154 ;;
  2155                           
  2156                           	psect	text14
  2157  0074BA                     __ptext14:
  2158                           	opt stack 0
  2159  0074BA                     _PORTCConfig:
  2160                           	opt stack 27
  2161                           
  2162                           ;Procedures.c: 507: TRISC = 0xCF;
  2163                           
  2164                           ;incstack = 0
  2165  0074BA  0ECF               	movlw	207
  2166  0074BC  6E94               	movwf	3988,c	;volatile
  2167  0074BE  0012               	return	
  2168  0074C0                     __end_of_PORTCConfig:
  2169                           	opt stack 0
  2170                           tblptru	equ	0xFF8
  2171                           tblptrh	equ	0xFF7
  2172                           tblptrl	equ	0xFF6
  2173                           tablat	equ	0xFF5
  2174                           intcon	equ	0xFF2
  2175                           postinc0	equ	0xFEE
  2176                           wreg	equ	0xFE8
  2177                           postdec1	equ	0xFE5
  2178                           fsr1l	equ	0xFE1
  2179                           status	equ	0xFD8
  2180                           
  2181 ;; *************** function _PORTBConfig *****************
  2182 ;; Defined at:
  2183 ;;		line 501 in file "Procedures.c"
  2184 ;; Parameters:    Size  Location     Type
  2185 ;;		None
  2186 ;; Auto vars:     Size  Location     Type
  2187 ;;		None
  2188 ;; Return value:  Size  Location     Type
  2189 ;;		None               void
  2190 ;; Registers used:
  2191 ;;		None
  2192 ;; Tracked objects:
  2193 ;;		On entry : 0/0
  2194 ;;		On exit  : 0/0
  2195 ;;		Unchanged: 0/0
  2196 ;; Data sizes:     COMRAM   BANK0   BANK1   BANK2   BANK3   BANK4   BANK5   BANK6   BANK7
  2197 ;;      Params:         0       0       0       0       0       0       0       0       0
  2198 ;;      Locals:         0       0       0       0       0       0       0       0       0
  2199 ;;      Temps:          0       0       0       0       0       0       0       0       0
  2200 ;;      Totals:         0       0       0       0       0       0       0       0       0
  2201 ;;Total ram usage:        0 bytes
  2202 ;; Hardware stack levels used:    1
  2203 ;; Hardware stack levels required when called:    2
  2204 ;; This function calls:
  2205 ;;		Nothing
  2206 ;; This function is called by:
  2207 ;;		_configuracionInicial
  2208 ;; This function uses a non-reentrant model
  2209 ;;
  2210                           
  2211                           	psect	text15
  2212  0074AC                     __ptext15:
  2213                           	opt stack 0
  2214  0074AC                     _PORTBConfig:
  2215                           	opt stack 27
  2216                           
  2217                           ;Procedures.c: 503: TRISB = 0xFF;
  2218                           
  2219                           ;incstack = 0
  2220  0074AC  6893               	setf	3987,c	;volatile
  2221  0074AE  0012               	return	
  2222  0074B0                     __end_of_PORTBConfig:
  2223                           	opt stack 0
  2224                           tblptru	equ	0xFF8
  2225                           tblptrh	equ	0xFF7
  2226                           tblptrl	equ	0xFF6
  2227                           tablat	equ	0xFF5
  2228                           intcon	equ	0xFF2
  2229                           postinc0	equ	0xFEE
  2230                           wreg	equ	0xFE8
  2231                           postdec1	equ	0xFE5
  2232                           fsr1l	equ	0xFE1
  2233                           status	equ	0xFD8
  2234                           
  2235 ;; *************** function _PORTAConfig *****************
  2236 ;; Defined at:
  2237 ;;		line 497 in file "Procedures.c"
  2238 ;; Parameters:    Size  Location     Type
  2239 ;;		None
  2240 ;; Auto vars:     Size  Location     Type
  2241 ;;		None
  2242 ;; Return value:  Size  Location     Type
  2243 ;;		None               void
  2244 ;; Registers used:
  2245 ;;		wreg, status,2
  2246 ;; Tracked objects:
  2247 ;;		On entry : 0/0
  2248 ;;		On exit  : 0/0
  2249 ;;		Unchanged: 0/0
  2250 ;; Data sizes:     COMRAM   BANK0   BANK1   BANK2   BANK3   BANK4   BANK5   BANK6   BANK7
  2251 ;;      Params:         0       0       0       0       0       0       0       0       0
  2252 ;;      Locals:         0       0       0       0       0       0       0       0       0
  2253 ;;      Temps:          0       0       0       0       0       0       0       0       0
  2254 ;;      Totals:         0       0       0       0       0       0       0       0       0
  2255 ;;Total ram usage:        0 bytes
  2256 ;; Hardware stack levels used:    1
  2257 ;; Hardware stack levels required when called:    2
  2258 ;; This function calls:
  2259 ;;		Nothing
  2260 ;; This function is called by:
  2261 ;;		_configuracionInicial
  2262 ;; This function uses a non-reentrant model
  2263 ;;
  2264                           
  2265                           	psect	text16
  2266  0074B4                     __ptext16:
  2267                           	opt stack 0
  2268  0074B4                     _PORTAConfig:
  2269                           	opt stack 27
  2270                           
  2271                           ;Procedures.c: 499: TRISA = 0x3F;
  2272                           
  2273                           ;incstack = 0
  2274  0074B4  0E3F               	movlw	63
  2275  0074B6  6E92               	movwf	3986,c	;volatile
  2276  0074B8  0012               	return	
  2277  0074BA                     __end_of_PORTAConfig:
  2278                           	opt stack 0
  2279                           tblptru	equ	0xFF8
  2280                           tblptrh	equ	0xFF7
  2281                           tblptrl	equ	0xFF6
  2282                           tablat	equ	0xFF5
  2283                           intcon	equ	0xFF2
  2284                           postinc0	equ	0xFEE
  2285                           wreg	equ	0xFE8
  2286                           postdec1	equ	0xFE5
  2287                           fsr1l	equ	0xFE1
  2288                           status	equ	0xFD8
  2289                           
  2290 ;; *************** function _CCPConfig *****************
  2291 ;; Defined at:
  2292 ;;		line 410 in file "Procedures.c"
  2293 ;; Parameters:    Size  Location     Type
  2294 ;;		None
  2295 ;; Auto vars:     Size  Location     Type
  2296 ;;		None
  2297 ;; Return value:  Size  Location     Type
  2298 ;;		None               void
  2299 ;; Registers used:
  2300 ;;		wreg, status,2, status,0, cstack
  2301 ;; Tracked objects:
  2302 ;;		On entry : 0/0
  2303 ;;		On exit  : 0/0
  2304 ;;		Unchanged: 0/0
  2305 ;; Data sizes:     COMRAM   BANK0   BANK1   BANK2   BANK3   BANK4   BANK5   BANK6   BANK7
  2306 ;;      Params:         0       0       0       0       0       0       0       0       0
  2307 ;;      Locals:         0       0       0       0       0       0       0       0       0
  2308 ;;      Temps:          0       0       0       0       0       0       0       0       0
  2309 ;;      Totals:         0       0       0       0       0       0       0       0       0
  2310 ;;Total ram usage:        0 bytes
  2311 ;; Hardware stack levels used:    1
  2312 ;; Hardware stack levels required when called:    4
  2313 ;; This function calls:
  2314 ;;		_PWM1_Init
  2315 ;;		_PWM1_Start
  2316 ;;		_PWM2_Init
  2317 ;;		_PWM2_Start
  2318 ;; This function is called by:
  2319 ;;		_configuracionInicial
  2320 ;; This function uses a non-reentrant model
  2321 ;;
  2322                           
  2323                           	psect	text17
  2324  007656                     __ptext17:
  2325                           	opt stack 0
  2326  007656                     _CCPConfig:
  2327                           	opt stack 25
  2328                           
  2329                           ;Procedures.c: 412: PWM1_Init(1500);
  2330                           
  2331                           ;incstack = 0
  2332  007656  0EDC               	movlw	220
  2333  007658  0100               	movlb	0	; () banked
  2334  00765A  6FC8               	movwf	PWM1_Init@fre& (0+255),b
  2335  00765C  0E05               	movlw	5
  2336  00765E  0100               	movlb	0	; () banked
  2337  007660  6FC9               	movwf	(PWM1_Init@fre+1)& (0+255),b
  2338  007662  0E00               	movlw	0
  2339  007664  0100               	movlb	0	; () banked
  2340  007666  6FCA               	movwf	(PWM1_Init@fre+2)& (0+255),b
  2341  007668  0E00               	movlw	0
  2342  00766A  0100               	movlb	0	; () banked
  2343  00766C  6FCB               	movwf	(PWM1_Init@fre+3)& (0+255),b
  2344  00766E  ECB0  F03B         	call	_PWM1_Init	;wreg free
  2345                           
  2346                           ;Procedures.c: 413: PWM2_Init(1500);
  2347  007672  0EDC               	movlw	220
  2348  007674  0100               	movlb	0	; () banked
  2349  007676  6FC8               	movwf	PWM2_Init@fre& (0+255),b
  2350  007678  0E05               	movlw	5
  2351  00767A  0100               	movlb	0	; () banked
  2352  00767C  6FC9               	movwf	(PWM2_Init@fre+1)& (0+255),b
  2353  00767E  0E00               	movlw	0
  2354  007680  0100               	movlb	0	; () banked
  2355  007682  6FCA               	movwf	(PWM2_Init@fre+2)& (0+255),b
  2356  007684  0E00               	movlw	0
  2357  007686  0100               	movlb	0	; () banked
  2358  007688  6FCB               	movwf	(PWM2_Init@fre+3)& (0+255),b
  2359  00768A  ECF4  F03B         	call	_PWM2_Init	;wreg free
  2360                           
  2361                           ;Procedures.c: 414: PWM1_Start();
  2362  00768E  EC6C  F03A         	call	_PWM1_Start	;wreg free
  2363                           
  2364                           ;Procedures.c: 415: PWM2_Start();
  2365  007692  EC72  F03A         	call	_PWM2_Start	;wreg free
  2366  007696  0012               	return	
  2367  007698                     __end_of_CCPConfig:
  2368                           	opt stack 0
  2369                           tblptru	equ	0xFF8
  2370                           tblptrh	equ	0xFF7
  2371                           tblptrl	equ	0xFF6
  2372                           tablat	equ	0xFF5
  2373                           intcon	equ	0xFF2
  2374                           postinc0	equ	0xFEE
  2375                           wreg	equ	0xFE8
  2376                           postdec1	equ	0xFE5
  2377                           fsr1l	equ	0xFE1
  2378                           status	equ	0xFD8
  2379                           
  2380 ;; *************** function _PWM2_Start *****************
  2381 ;; Defined at:
  2382 ;;		line 570 in file "Procedures.c"
  2383 ;; Parameters:    Size  Location     Type
  2384 ;;		None
  2385 ;; Auto vars:     Size  Location     Type
  2386 ;;		None
  2387 ;; Return value:  Size  Location     Type
  2388 ;;		None               void
  2389 ;; Registers used:
  2390 ;;		None
  2391 ;; Tracked objects:
  2392 ;;		On entry : 0/0
  2393 ;;		On exit  : 0/0
  2394 ;;		Unchanged: 0/0
  2395 ;; Data sizes:     COMRAM   BANK0   BANK1   BANK2   BANK3   BANK4   BANK5   BANK6   BANK7
  2396 ;;      Params:         0       0       0       0       0       0       0       0       0
  2397 ;;      Locals:         0       0       0       0       0       0       0       0       0
  2398 ;;      Temps:          0       0       0       0       0       0       0       0       0
  2399 ;;      Totals:         0       0       0       0       0       0       0       0       0
  2400 ;;Total ram usage:        0 bytes
  2401 ;; Hardware stack levels used:    1
  2402 ;; Hardware stack levels required when called:    2
  2403 ;; This function calls:
  2404 ;;		Nothing
  2405 ;; This function is called by:
  2406 ;;		_CCPConfig
  2407 ;; This function uses a non-reentrant model
  2408 ;;
  2409                           
  2410                           	psect	text18
  2411  0074E4                     __ptext18:
  2412                           	opt stack 0
  2413  0074E4                     _PWM2_Start:
  2414                           	opt stack 26
  2415                           
  2416                           ;Procedures.c: 572: CCP2M3 = 1;
  2417                           
  2418                           ;incstack = 0
  2419  0074E4  86BA               	bsf	4026,3,c	;volatile
  2420                           
  2421                           ;Procedures.c: 573: CCP2M2 = 1;
  2422  0074E6  84BA               	bsf	4026,2,c	;volatile
  2423                           
  2424                           ;Procedures.c: 581: T2CKPS0 = 1;
  2425  0074E8  80CA               	bsf	4042,0,c	;volatile
  2426                           
  2427                           ;Procedures.c: 582: T2CKPS1 = 1;
  2428  0074EA  82CA               	bsf	4042,1,c	;volatile
  2429                           
  2430                           ;Procedures.c: 584: TMR2ON = 1;
  2431  0074EC  84CA               	bsf	4042,2,c	;volatile
  2432  0074EE  0012               	return	
  2433  0074F0                     __end_of_PWM2_Start:
  2434                           	opt stack 0
  2435                           tblptru	equ	0xFF8
  2436                           tblptrh	equ	0xFF7
  2437                           tblptrl	equ	0xFF6
  2438                           tablat	equ	0xFF5
  2439                           intcon	equ	0xFF2
  2440                           postinc0	equ	0xFEE
  2441                           wreg	equ	0xFE8
  2442                           postdec1	equ	0xFE5
  2443                           fsr1l	equ	0xFE1
  2444                           status	equ	0xFD8
  2445                           
  2446 ;; *************** function _PWM2_Init *****************
  2447 ;; Defined at:
  2448 ;;		line 543 in file "Procedures.c"
  2449 ;; Parameters:    Size  Location     Type
  2450 ;;  fre             4    6[BANK0 ] long 
  2451 ;; Auto vars:     Size  Location     Type
  2452 ;;		None
  2453 ;; Return value:  Size  Location     Type
  2454 ;;		None               void
  2455 ;; Registers used:
  2456 ;;		wreg, status,2, status,0, cstack
  2457 ;; Tracked objects:
  2458 ;;		On entry : 0/0
  2459 ;;		On exit  : 0/0
  2460 ;;		Unchanged: 0/0
  2461 ;; Data sizes:     COMRAM   BANK0   BANK1   BANK2   BANK3   BANK4   BANK5   BANK6   BANK7
  2462 ;;      Params:         0       4       0       0       0       0       0       0       0
  2463 ;;      Locals:         0       0       0       0       0       0       0       0       0
  2464 ;;      Temps:          0       8       0       0       0       0       0       0       0
  2465 ;;      Totals:         0      12       0       0       0       0       0       0       0
  2466 ;;Total ram usage:       12 bytes
  2467 ;; Hardware stack levels used:    1
  2468 ;; Hardware stack levels required when called:    3
  2469 ;; This function calls:
  2470 ;;		___aldiv
  2471 ;; This function is called by:
  2472 ;;		_CCPConfig
  2473 ;; This function uses a non-reentrant model
  2474 ;;
  2475                           
  2476                           	psect	text19
  2477  0077E8                     __ptext19:
  2478                           	opt stack 0
  2479  0077E8                     _PWM2_Init:
  2480                           	opt stack 25
  2481                           
  2482                           ;Procedures.c: 545: PR2 = (24000000 / (fre * 4 * 16)) - 1;
  2483                           
  2484                           ;incstack = 0
  2485  0077E8  0E00               	movlw	0
  2486  0077EA  6E37               	movwf	___aldiv@dividend,c
  2487  0077EC  0E36               	movlw	54
  2488  0077EE  6E38               	movwf	___aldiv@dividend+1,c
  2489  0077F0  0E6E               	movlw	110
  2490  0077F2  6E39               	movwf	___aldiv@dividend+2,c
  2491  0077F4  0E01               	movlw	1
  2492  0077F6  6E3A               	movwf	___aldiv@dividend+3,c
  2493  0077F8  0100               	movlb	0	; () banked
  2494  0077FA  C0C8  F0CC         	movff	PWM2_Init@fre,??_PWM2_Init
  2495  0077FE  0100               	movlb	0	; () banked
  2496  007800  C0C9  F0CD         	movff	PWM2_Init@fre+1,??_PWM2_Init+1
  2497  007804  0100               	movlb	0	; () banked
  2498  007806  C0CA  F0CE         	movff	PWM2_Init@fre+2,??_PWM2_Init+2
  2499  00780A  0100               	movlb	0	; () banked
  2500  00780C  C0CB  F0CF         	movff	PWM2_Init@fre+3,??_PWM2_Init+3
  2501  007810  0E02               	movlw	2
  2502  007812                     u3865:
  2503  007812  90D8               	bcf	status,0,c
  2504  007814  0100               	movlb	0	; () banked
  2505  007816  37CC               	rlcf	??_PWM2_Init& (0+255),f,b
  2506  007818  37CD               	rlcf	(??_PWM2_Init+1)& (0+255),f,b
  2507  00781A  37CE               	rlcf	(??_PWM2_Init+2)& (0+255),f,b
  2508  00781C  37CF               	rlcf	(??_PWM2_Init+3)& (0+255),f,b
  2509  00781E  2EE8               	decfsz	wreg,f,c
  2510  007820  D7F8               	goto	u3865
  2511  007822  0E04               	movlw	4
  2512  007824                     u3875:
  2513  007824  90D8               	bcf	status,0,c
  2514  007826  0100               	movlb	0	; () banked
  2515  007828  37CC               	rlcf	??_PWM2_Init& (0+255),f,b
  2516  00782A  37CD               	rlcf	(??_PWM2_Init+1)& (0+255),f,b
  2517  00782C  37CE               	rlcf	(??_PWM2_Init+2)& (0+255),f,b
  2518  00782E  37CF               	rlcf	(??_PWM2_Init+3)& (0+255),f,b
  2519  007830  2EE8               	decfsz	wreg,f,c
  2520  007832  D7F8               	goto	u3875
  2521  007834  C0CC  F03B         	movff	??_PWM2_Init,___aldiv@divisor
  2522  007838  C0CD  F03C         	movff	??_PWM2_Init+1,___aldiv@divisor+1
  2523  00783C  C0CE  F03D         	movff	??_PWM2_Init+2,___aldiv@divisor+2
  2524  007840  C0CF  F03E         	movff	??_PWM2_Init+3,___aldiv@divisor+3
  2525  007844  EC38  F03C         	call	___aldiv	;wreg free
  2526  007848  C037  F0D0         	movff	?___aldiv,??_PWM2_Init+4
  2527  00784C  C038  F0D1         	movff	?___aldiv+1,??_PWM2_Init+5
  2528  007850  C039  F0D2         	movff	?___aldiv+2,??_PWM2_Init+6
  2529  007854  C03A  F0D3         	movff	?___aldiv+3,??_PWM2_Init+7
  2530  007858  0100               	movlb	0	; () banked
  2531  00785A  05D0               	decf	(??_PWM2_Init+4)& (0+255),w,b
  2532  00785C  6ECB               	movwf	4043,c	;volatile
  2533                           
  2534                           ; BSR set to: 0
  2535                           ;Procedures.c: 546: freq = fre;
  2536  00785E  C0C8  F0D6         	movff	PWM2_Init@fre,_freq
  2537  007862  C0C9  F0D7         	movff	PWM2_Init@fre+1,_freq+1
  2538  007866  C0CA  F0D8         	movff	PWM2_Init@fre+2,_freq+2
  2539  00786A  C0CB  F0D9         	movff	PWM2_Init@fre+3,_freq+3
  2540                           
  2541                           ; BSR set to: 0
  2542  00786E  0012               	return	
  2543  007870                     __end_of_PWM2_Init:
  2544                           	opt stack 0
  2545                           tblptru	equ	0xFF8
  2546                           tblptrh	equ	0xFF7
  2547                           tblptrl	equ	0xFF6
  2548                           tablat	equ	0xFF5
  2549                           intcon	equ	0xFF2
  2550                           postinc0	equ	0xFEE
  2551                           wreg	equ	0xFE8
  2552                           postdec1	equ	0xFE5
  2553                           fsr1l	equ	0xFE1
  2554                           status	equ	0xFD8
  2555                           
  2556 ;; *************** function _PWM1_Start *****************
  2557 ;; Defined at:
  2558 ;;		line 548 in file "Procedures.c"
  2559 ;; Parameters:    Size  Location     Type
  2560 ;;		None
  2561 ;; Auto vars:     Size  Location     Type
  2562 ;;		None
  2563 ;; Return value:  Size  Location     Type
  2564 ;;		None               void
  2565 ;; Registers used:
  2566 ;;		None
  2567 ;; Tracked objects:
  2568 ;;		On entry : 0/0
  2569 ;;		On exit  : 0/0
  2570 ;;		Unchanged: 0/0
  2571 ;; Data sizes:     COMRAM   BANK0   BANK1   BANK2   BANK3   BANK4   BANK5   BANK6   BANK7
  2572 ;;      Params:         0       0       0       0       0       0       0       0       0
  2573 ;;      Locals:         0       0       0       0       0       0       0       0       0
  2574 ;;      Temps:          0       0       0       0       0       0       0       0       0
  2575 ;;      Totals:         0       0       0       0       0       0       0       0       0
  2576 ;;Total ram usage:        0 bytes
  2577 ;; Hardware stack levels used:    1
  2578 ;; Hardware stack levels required when called:    2
  2579 ;; This function calls:
  2580 ;;		Nothing
  2581 ;; This function is called by:
  2582 ;;		_CCPConfig
  2583 ;; This function uses a non-reentrant model
  2584 ;;
  2585                           
  2586                           	psect	text20
  2587  0074D8                     __ptext20:
  2588                           	opt stack 0
  2589  0074D8                     _PWM1_Start:
  2590                           	opt stack 26
  2591                           
  2592                           ;Procedures.c: 550: CCP1M3 = 1;
  2593                           
  2594                           ; BSR set to: 0
  2595                           ;incstack = 0
  2596  0074D8  86BD               	bsf	4029,3,c	;volatile
  2597                           
  2598                           ;Procedures.c: 551: CCP1M2 = 1;
  2599  0074DA  84BD               	bsf	4029,2,c	;volatile
  2600                           
  2601                           ;Procedures.c: 559: T2CKPS0 = 1;
  2602  0074DC  80CA               	bsf	4042,0,c	;volatile
  2603                           
  2604                           ;Procedures.c: 560: T2CKPS1 = 1;
  2605  0074DE  82CA               	bsf	4042,1,c	;volatile
  2606                           
  2607                           ;Procedures.c: 562: TMR2ON = 1;
  2608  0074E0  84CA               	bsf	4042,2,c	;volatile
  2609  0074E2  0012               	return	
  2610  0074E4                     __end_of_PWM1_Start:
  2611                           	opt stack 0
  2612                           tblptru	equ	0xFF8
  2613                           tblptrh	equ	0xFF7
  2614                           tblptrl	equ	0xFF6
  2615                           tablat	equ	0xFF5
  2616                           intcon	equ	0xFF2
  2617                           postinc0	equ	0xFEE
  2618                           wreg	equ	0xFE8
  2619                           postdec1	equ	0xFE5
  2620                           fsr1l	equ	0xFE1
  2621                           status	equ	0xFD8
  2622                           
  2623 ;; *************** function _PWM1_Init *****************
  2624 ;; Defined at:
  2625 ;;		line 538 in file "Procedures.c"
  2626 ;; Parameters:    Size  Location     Type
  2627 ;;  fre             4    6[BANK0 ] long 
  2628 ;; Auto vars:     Size  Location     Type
  2629 ;;		None
  2630 ;; Return value:  Size  Location     Type
  2631 ;;		None               void
  2632 ;; Registers used:
  2633 ;;		wreg, status,2, status,0, cstack
  2634 ;; Tracked objects:
  2635 ;;		On entry : 0/0
  2636 ;;		On exit  : 0/0
  2637 ;;		Unchanged: 0/0
  2638 ;; Data sizes:     COMRAM   BANK0   BANK1   BANK2   BANK3   BANK4   BANK5   BANK6   BANK7
  2639 ;;      Params:         0       4       0       0       0       0       0       0       0
  2640 ;;      Locals:         0       0       0       0       0       0       0       0       0
  2641 ;;      Temps:          0       8       0       0       0       0       0       0       0
  2642 ;;      Totals:         0      12       0       0       0       0       0       0       0
  2643 ;;Total ram usage:       12 bytes
  2644 ;; Hardware stack levels used:    1
  2645 ;; Hardware stack levels required when called:    3
  2646 ;; This function calls:
  2647 ;;		___aldiv
  2648 ;; This function is called by:
  2649 ;;		_CCPConfig
  2650 ;; This function uses a non-reentrant model
  2651 ;;
  2652                           
  2653                           	psect	text21
  2654  007760                     __ptext21:
  2655                           	opt stack 0
  2656  007760                     _PWM1_Init:
  2657                           	opt stack 25
  2658                           
  2659                           ;Procedures.c: 540: PR2 = (24000000 / (fre * 4 * 16)) - 1;
  2660                           
  2661                           ;incstack = 0
  2662  007760  0E00               	movlw	0
  2663  007762  6E37               	movwf	___aldiv@dividend,c
  2664  007764  0E36               	movlw	54
  2665  007766  6E38               	movwf	___aldiv@dividend+1,c
  2666  007768  0E6E               	movlw	110
  2667  00776A  6E39               	movwf	___aldiv@dividend+2,c
  2668  00776C  0E01               	movlw	1
  2669  00776E  6E3A               	movwf	___aldiv@dividend+3,c
  2670  007770  0100               	movlb	0	; () banked
  2671  007772  C0C8  F0CC         	movff	PWM1_Init@fre,??_PWM1_Init
  2672  007776  0100               	movlb	0	; () banked
  2673  007778  C0C9  F0CD         	movff	PWM1_Init@fre+1,??_PWM1_Init+1
  2674  00777C  0100               	movlb	0	; () banked
  2675  00777E  C0CA  F0CE         	movff	PWM1_Init@fre+2,??_PWM1_Init+2
  2676  007782  0100               	movlb	0	; () banked
  2677  007784  C0CB  F0CF         	movff	PWM1_Init@fre+3,??_PWM1_Init+3
  2678  007788  0E02               	movlw	2
  2679  00778A                     u3845:
  2680  00778A  90D8               	bcf	status,0,c
  2681  00778C  0100               	movlb	0	; () banked
  2682  00778E  37CC               	rlcf	??_PWM1_Init& (0+255),f,b
  2683  007790  37CD               	rlcf	(??_PWM1_Init+1)& (0+255),f,b
  2684  007792  37CE               	rlcf	(??_PWM1_Init+2)& (0+255),f,b
  2685  007794  37CF               	rlcf	(??_PWM1_Init+3)& (0+255),f,b
  2686  007796  2EE8               	decfsz	wreg,f,c
  2687  007798  D7F8               	goto	u3845
  2688  00779A  0E04               	movlw	4
  2689  00779C                     u3855:
  2690  00779C  90D8               	bcf	status,0,c
  2691  00779E  0100               	movlb	0	; () banked
  2692  0077A0  37CC               	rlcf	??_PWM1_Init& (0+255),f,b
  2693  0077A2  37CD               	rlcf	(??_PWM1_Init+1)& (0+255),f,b
  2694  0077A4  37CE               	rlcf	(??_PWM1_Init+2)& (0+255),f,b
  2695  0077A6  37CF               	rlcf	(??_PWM1_Init+3)& (0+255),f,b
  2696  0077A8  2EE8               	decfsz	wreg,f,c
  2697  0077AA  D7F8               	goto	u3855
  2698  0077AC  C0CC  F03B         	movff	??_PWM1_Init,___aldiv@divisor
  2699  0077B0  C0CD  F03C         	movff	??_PWM1_Init+1,___aldiv@divisor+1
  2700  0077B4  C0CE  F03D         	movff	??_PWM1_Init+2,___aldiv@divisor+2
  2701  0077B8  C0CF  F03E         	movff	??_PWM1_Init+3,___aldiv@divisor+3
  2702  0077BC  EC38  F03C         	call	___aldiv	;wreg free
  2703  0077C0  C037  F0D0         	movff	?___aldiv,??_PWM1_Init+4
  2704  0077C4  C038  F0D1         	movff	?___aldiv+1,??_PWM1_Init+5
  2705  0077C8  C039  F0D2         	movff	?___aldiv+2,??_PWM1_Init+6
  2706  0077CC  C03A  F0D3         	movff	?___aldiv+3,??_PWM1_Init+7
  2707  0077D0  0100               	movlb	0	; () banked
  2708  0077D2  05D0               	decf	(??_PWM1_Init+4)& (0+255),w,b
  2709  0077D4  6ECB               	movwf	4043,c	;volatile
  2710                           
  2711                           ; BSR set to: 0
  2712                           ;Procedures.c: 541: freq = fre;
  2713  0077D6  C0C8  F0D6         	movff	PWM1_Init@fre,_freq
  2714  0077DA  C0C9  F0D7         	movff	PWM1_Init@fre+1,_freq+1
  2715  0077DE  C0CA  F0D8         	movff	PWM1_Init@fre+2,_freq+2
  2716  0077E2  C0CB  F0D9         	movff	PWM1_Init@fre+3,_freq+3
  2717                           
  2718                           ; BSR set to: 0
  2719  0077E6  0012               	return	
  2720  0077E8                     __end_of_PWM1_Init:
  2721                           	opt stack 0
  2722                           tblptru	equ	0xFF8
  2723                           tblptrh	equ	0xFF7
  2724                           tblptrl	equ	0xFF6
  2725                           tablat	equ	0xFF5
  2726                           intcon	equ	0xFF2
  2727                           postinc0	equ	0xFEE
  2728                           wreg	equ	0xFE8
  2729                           postdec1	equ	0xFE5
  2730                           fsr1l	equ	0xFE1
  2731                           status	equ	0xFD8
  2732                           
  2733 ;; *************** function ___aldiv *****************
  2734 ;; Defined at:
  2735 ;;		line 8 in file "C:\Program Files (x86)\Microchip\xc8\v1.33\sources\common\aldiv.c"
  2736 ;; Parameters:    Size  Location     Type
  2737 ;;  dividend        4   18[COMRAM] long 
  2738 ;;  divisor         4   22[COMRAM] long 
  2739 ;; Auto vars:     Size  Location     Type
  2740 ;;  quotient        4    2[BANK0 ] long 
  2741 ;;  sign            1    1[BANK0 ] unsigned char 
  2742 ;;  counter         1    0[BANK0 ] unsigned char 
  2743 ;; Return value:  Size  Location     Type
  2744 ;;                  4   18[COMRAM] long 
  2745 ;; Registers used:
  2746 ;;		wreg, status,2, status,0
  2747 ;; Tracked objects:
  2748 ;;		On entry : 0/0
  2749 ;;		On exit  : 0/0
  2750 ;;		Unchanged: 0/0
  2751 ;; Data sizes:     COMRAM   BANK0   BANK1   BANK2   BANK3   BANK4   BANK5   BANK6   BANK7
  2752 ;;      Params:         8       0       0       0       0       0       0       0       0
  2753 ;;      Locals:         0       6       0       0       0       0       0       0       0
  2754 ;;      Temps:          0       0       0       0       0       0       0       0       0
  2755 ;;      Totals:         8       6       0       0       0       0       0       0       0
  2756 ;;Total ram usage:       14 bytes
  2757 ;; Hardware stack levels used:    1
  2758 ;; Hardware stack levels required when called:    2
  2759 ;; This function calls:
  2760 ;;		Nothing
  2761 ;; This function is called by:
  2762 ;;		_PWM1_Init
  2763 ;;		_PWM2_Init
  2764 ;;		_SerialBegin
  2765 ;;		_PWM_Max_Duty
  2766 ;; This function uses a non-reentrant model
  2767 ;;
  2768                           
  2769                           	psect	text22
  2770  007870                     __ptext22:
  2771                           	opt stack 0
  2772  007870                     ___aldiv:
  2773                           	opt stack 26
  2774                           
  2775                           ; BSR set to: 0
  2776                           ;incstack = 0
  2777  007870  0E00               	movlw	0
  2778  007872  0100               	movlb	0	; () banked
  2779  007874  6FC3               	movwf	___aldiv@sign& (0+255),b
  2780                           
  2781                           ; BSR set to: 0
  2782  007876  503E               	movf	___aldiv@divisor+3,w,c
  2783  007878  0A80               	xorlw	128
  2784  00787A  0F80               	addlw	128
  2785  00787C  E108               	bnz	u3785
  2786  00787E  0E00               	movlw	0
  2787  007880  5C3D               	subwf	___aldiv@divisor+2,w,c
  2788  007882  E105               	bnz	u3785
  2789  007884  0E00               	movlw	0
  2790  007886  5C3C               	subwf	___aldiv@divisor+1,w,c
  2791  007888  E102               	bnz	u3785
  2792  00788A  0E00               	movlw	0
  2793  00788C  5C3B               	subwf	___aldiv@divisor,w,c
  2794  00788E                     u3785:
  2795  00788E  B0D8               	btfsc	status,0,c
  2796  007890  D00B               	goto	l4166
  2797                           
  2798                           ; BSR set to: 0
  2799  007892  1E3E               	comf	___aldiv@divisor+3,f,c
  2800  007894  1E3D               	comf	___aldiv@divisor+2,f,c
  2801  007896  1E3C               	comf	___aldiv@divisor+1,f,c
  2802  007898  6C3B               	negf	___aldiv@divisor,c
  2803  00789A  0E00               	movlw	0
  2804  00789C  223C               	addwfc	___aldiv@divisor+1,f,c
  2805  00789E  223D               	addwfc	___aldiv@divisor+2,f,c
  2806  0078A0  223E               	addwfc	___aldiv@divisor+3,f,c
  2807                           
  2808                           ; BSR set to: 0
  2809  0078A2  0E01               	movlw	1
  2810  0078A4  0100               	movlb	0	; () banked
  2811  0078A6  6FC3               	movwf	___aldiv@sign& (0+255),b
  2812  0078A8                     l4166:
  2813                           
  2814                           ; BSR set to: 0
  2815  0078A8  503A               	movf	___aldiv@dividend+3,w,c
  2816  0078AA  0A80               	xorlw	128
  2817  0078AC  0F80               	addlw	128
  2818  0078AE  E108               	bnz	u3795
  2819  0078B0  0E00               	movlw	0
  2820  0078B2  5C39               	subwf	___aldiv@dividend+2,w,c
  2821  0078B4  E105               	bnz	u3795
  2822  0078B6  0E00               	movlw	0
  2823  0078B8  5C38               	subwf	___aldiv@dividend+1,w,c
  2824  0078BA  E102               	bnz	u3795
  2825  0078BC  0E00               	movlw	0
  2826  0078BE  5C37               	subwf	___aldiv@dividend,w,c
  2827  0078C0                     u3795:
  2828  0078C0  B0D8               	btfsc	status,0,c
  2829  0078C2  D00B               	goto	l4172
  2830                           
  2831                           ; BSR set to: 0
  2832  0078C4  1E3A               	comf	___aldiv@dividend+3,f,c
  2833  0078C6  1E39               	comf	___aldiv@dividend+2,f,c
  2834  0078C8  1E38               	comf	___aldiv@dividend+1,f,c
  2835  0078CA  6C37               	negf	___aldiv@dividend,c
  2836  0078CC  0E00               	movlw	0
  2837  0078CE  2238               	addwfc	___aldiv@dividend+1,f,c
  2838  0078D0  2239               	addwfc	___aldiv@dividend+2,f,c
  2839  0078D2  223A               	addwfc	___aldiv@dividend+3,f,c
  2840                           
  2841                           ; BSR set to: 0
  2842  0078D4  0E01               	movlw	1
  2843  0078D6  0100               	movlb	0	; () banked
  2844  0078D8  1BC3               	xorwf	___aldiv@sign& (0+255),f,b
  2845  0078DA                     l4172:
  2846                           
  2847                           ; BSR set to: 0
  2848  0078DA  0E00               	movlw	0
  2849  0078DC  0100               	movlb	0	; () banked
  2850  0078DE  6FC4               	movwf	___aldiv@quotient& (0+255),b
  2851  0078E0  0E00               	movlw	0
  2852  0078E2  0100               	movlb	0	; () banked
  2853  0078E4  6FC5               	movwf	(___aldiv@quotient+1)& (0+255),b
  2854  0078E6  0E00               	movlw	0
  2855  0078E8  0100               	movlb	0	; () banked
  2856  0078EA  6FC6               	movwf	(___aldiv@quotient+2)& (0+255),b
  2857  0078EC  0E00               	movlw	0
  2858  0078EE  0100               	movlb	0	; () banked
  2859  0078F0  6FC7               	movwf	(___aldiv@quotient+3)& (0+255),b
  2860                           
  2861                           ; BSR set to: 0
  2862  0078F2  503E               	movf	___aldiv@divisor+3,w,c
  2863  0078F4  103B               	iorwf	___aldiv@divisor,w,c
  2864  0078F6  103C               	iorwf	___aldiv@divisor+1,w,c
  2865  0078F8  103D               	iorwf	___aldiv@divisor+2,w,c
  2866  0078FA  B4D8               	btfsc	status,2,c
  2867  0078FC  D033               	goto	l4194
  2868                           
  2869                           ; BSR set to: 0
  2870  0078FE  0E01               	movlw	1
  2871  007900  0100               	movlb	0	; () banked
  2872  007902  6FC2               	movwf	___aldiv@counter& (0+255),b
  2873  007904  D007               	goto	l4180
  2874  007906                     l4178:
  2875                           
  2876                           ; BSR set to: 0
  2877  007906  90D8               	bcf	status,0,c
  2878  007908  363B               	rlcf	___aldiv@divisor,f,c
  2879  00790A  363C               	rlcf	___aldiv@divisor+1,f,c
  2880  00790C  363D               	rlcf	___aldiv@divisor+2,f,c
  2881  00790E  363E               	rlcf	___aldiv@divisor+3,f,c
  2882  007910  0100               	movlb	0	; () banked
  2883  007912  2BC2               	incf	___aldiv@counter& (0+255),f,b
  2884  007914                     l4180:
  2885                           
  2886                           ; BSR set to: 0
  2887  007914  AE3E               	btfss	___aldiv@divisor+3,7,c
  2888  007916  D7F7               	goto	l4178
  2889  007918                     l4182:
  2890                           
  2891                           ; BSR set to: 0
  2892  007918  0100               	movlb	0	; () banked
  2893  00791A  90D8               	bcf	status,0,c
  2894  00791C  0100               	movlb	0	; () banked
  2895  00791E  37C4               	rlcf	___aldiv@quotient& (0+255),f,b
  2896  007920  0100               	movlb	0	; () banked
  2897  007922  37C5               	rlcf	(___aldiv@quotient+1)& (0+255),f,b
  2898  007924  0100               	movlb	0	; () banked
  2899  007926  37C6               	rlcf	(___aldiv@quotient+2)& (0+255),f,b
  2900  007928  0100               	movlb	0	; () banked
  2901  00792A  37C7               	rlcf	(___aldiv@quotient+3)& (0+255),f,b
  2902                           
  2903                           ; BSR set to: 0
  2904  00792C  503B               	movf	___aldiv@divisor,w,c
  2905  00792E  5C37               	subwf	___aldiv@dividend,w,c
  2906  007930  503C               	movf	___aldiv@divisor+1,w,c
  2907  007932  5838               	subwfb	___aldiv@dividend+1,w,c
  2908  007934  503D               	movf	___aldiv@divisor+2,w,c
  2909  007936  5839               	subwfb	___aldiv@dividend+2,w,c
  2910  007938  503E               	movf	___aldiv@divisor+3,w,c
  2911  00793A  583A               	subwfb	___aldiv@dividend+3,w,c
  2912  00793C  A0D8               	btfss	status,0,c
  2913  00793E  D00A               	goto	l4190
  2914                           
  2915                           ; BSR set to: 0
  2916  007940  503B               	movf	___aldiv@divisor,w,c
  2917  007942  5E37               	subwf	___aldiv@dividend,f,c
  2918  007944  503C               	movf	___aldiv@divisor+1,w,c
  2919  007946  5A38               	subwfb	___aldiv@dividend+1,f,c
  2920  007948  503D               	movf	___aldiv@divisor+2,w,c
  2921  00794A  5A39               	subwfb	___aldiv@dividend+2,f,c
  2922  00794C  503E               	movf	___aldiv@divisor+3,w,c
  2923  00794E  5A3A               	subwfb	___aldiv@dividend+3,f,c
  2924                           
  2925                           ; BSR set to: 0
  2926  007950  0100               	movlb	0	; () banked
  2927  007952  81C4               	bsf	___aldiv@quotient& (0+255),0,b
  2928  007954                     l4190:
  2929                           
  2930                           ; BSR set to: 0
  2931  007954  90D8               	bcf	status,0,c
  2932  007956  323E               	rrcf	___aldiv@divisor+3,f,c
  2933  007958  323D               	rrcf	___aldiv@divisor+2,f,c
  2934  00795A  323C               	rrcf	___aldiv@divisor+1,f,c
  2935  00795C  323B               	rrcf	___aldiv@divisor,f,c
  2936                           
  2937                           ; BSR set to: 0
  2938  00795E  0100               	movlb	0	; () banked
  2939  007960  2FC2               	decfsz	___aldiv@counter& (0+255),f,b
  2940  007962  D7DA               	goto	l4182
  2941  007964                     l4194:
  2942                           
  2943                           ; BSR set to: 0
  2944  007964  0100               	movlb	0	; () banked
  2945  007966  51C3               	movf	___aldiv@sign& (0+255),w,b
  2946  007968  B4D8               	btfsc	status,2,c
  2947  00796A  D00F               	goto	l4198
  2948                           
  2949                           ; BSR set to: 0
  2950  00796C  0100               	movlb	0	; () banked
  2951  00796E  1FC7               	comf	(___aldiv@quotient+3)& (0+255),f,b
  2952  007970  0100               	movlb	0	; () banked
  2953  007972  1FC6               	comf	(___aldiv@quotient+2)& (0+255),f,b
  2954  007974  0100               	movlb	0	; () banked
  2955  007976  1FC5               	comf	(___aldiv@quotient+1)& (0+255),f,b
  2956  007978  0100               	movlb	0	; () banked
  2957  00797A  6DC4               	negf	___aldiv@quotient& (0+255),b
  2958  00797C  0E00               	movlw	0
  2959  00797E  0100               	movlb	0	; () banked
  2960  007980  23C5               	addwfc	(___aldiv@quotient+1)& (0+255),f,b
  2961  007982  0100               	movlb	0	; () banked
  2962  007984  23C6               	addwfc	(___aldiv@quotient+2)& (0+255),f,b
  2963  007986  0100               	movlb	0	; () banked
  2964  007988  23C7               	addwfc	(___aldiv@quotient+3)& (0+255),f,b
  2965  00798A                     l4198:
  2966                           
  2967                           ; BSR set to: 0
  2968  00798A  C0C4  F037         	movff	___aldiv@quotient,?___aldiv
  2969  00798E  C0C5  F038         	movff	___aldiv@quotient+1,?___aldiv+1
  2970  007992  C0C6  F039         	movff	___aldiv@quotient+2,?___aldiv+2
  2971  007996  C0C7  F03A         	movff	___aldiv@quotient+3,?___aldiv+3
  2972                           
  2973                           ; BSR set to: 0
  2974                           
  2975                           ; BSR set to: 0
  2976  00799A  0012               	return	
  2977  00799C                     __end_of___aldiv:
  2978                           	opt stack 0
  2979                           tblptru	equ	0xFF8
  2980                           tblptrh	equ	0xFF7
  2981                           tblptrl	equ	0xFF6
  2982                           tablat	equ	0xFF5
  2983                           intcon	equ	0xFF2
  2984                           postinc0	equ	0xFEE
  2985                           wreg	equ	0xFE8
  2986                           postdec1	equ	0xFE5
  2987                           fsr1l	equ	0xFE1
  2988                           status	equ	0xFD8
  2989                           
  2990 ;; *************** function _ADCConfig *****************
  2991 ;; Defined at:
  2992 ;;		line 358 in file "Procedures.c"
  2993 ;; Parameters:    Size  Location     Type
  2994 ;;		None
  2995 ;; Auto vars:     Size  Location     Type
  2996 ;;		None
  2997 ;; Return value:  Size  Location     Type
  2998 ;;		None               void
  2999 ;; Registers used:
  3000 ;;		wreg, status,2
  3001 ;; Tracked objects:
  3002 ;;		On entry : 0/0
  3003 ;;		On exit  : 0/0
  3004 ;;		Unchanged: 0/0
  3005 ;; Data sizes:     COMRAM   BANK0   BANK1   BANK2   BANK3   BANK4   BANK5   BANK6   BANK7
  3006 ;;      Params:         0       0       0       0       0       0       0       0       0
  3007 ;;      Locals:         0       0       0       0       0       0       0       0       0
  3008 ;;      Temps:          0       0       0       0       0       0       0       0       0
  3009 ;;      Totals:         0       0       0       0       0       0       0       0       0
  3010 ;;Total ram usage:        0 bytes
  3011 ;; Hardware stack levels used:    1
  3012 ;; Hardware stack levels required when called:    2
  3013 ;; This function calls:
  3014 ;;		Nothing
  3015 ;; This function is called by:
  3016 ;;		_configuracionInicial
  3017 ;; This function uses a non-reentrant model
  3018 ;;
  3019                           
  3020                           	psect	text23
  3021  00753E                     __ptext23:
  3022                           	opt stack 0
  3023  00753E                     _ADCConfig:
  3024                           	opt stack 27
  3025                           
  3026                           ;Procedures.c: 360: TRISAbits.RA0 = 1;
  3027                           
  3028                           ; BSR set to: 0
  3029                           ;incstack = 0
  3030  00753E  8092               	bsf	3986,0,c	;volatile
  3031                           
  3032                           ;Procedures.c: 361: TRISAbits.RA1 = 1;
  3033  007540  8292               	bsf	3986,1,c	;volatile
  3034                           
  3035                           ;Procedures.c: 362: TRISAbits.RA2 = 1;
  3036  007542  8492               	bsf	3986,2,c	;volatile
  3037                           
  3038                           ;Procedures.c: 363: TRISAbits.RA3 = 1;
  3039  007544  8692               	bsf	3986,3,c	;volatile
  3040                           
  3041                           ;Procedures.c: 364: ADCON0 = 0x01;
  3042  007546  0E01               	movlw	1
  3043  007548  6EC2               	movwf	4034,c	;volatile
  3044                           
  3045                           ;Procedures.c: 365: ADCON1 = 0x0B;
  3046  00754A  0E0B               	movlw	11
  3047  00754C  6EC1               	movwf	4033,c	;volatile
  3048                           
  3049                           ;Procedures.c: 366: ADCON2 = 0xAB;
  3050  00754E  0EAB               	movlw	171
  3051  007550  6EC0               	movwf	4032,c	;volatile
  3052  007552  0012               	return	
  3053  007554                     __end_of_ADCConfig:
  3054                           	opt stack 0
  3055                           tblptru	equ	0xFF8
  3056                           tblptrh	equ	0xFF7
  3057                           tblptrl	equ	0xFF6
  3058                           tablat	equ	0xFF5
  3059                           intcon	equ	0xFF2
  3060                           postinc0	equ	0xFEE
  3061                           wreg	equ	0xFE8
  3062                           postdec1	equ	0xFE5
  3063                           fsr1l	equ	0xFE1
  3064                           status	equ	0xFD8
  3065                           
  3066 ;; *************** function _TimerOverflow *****************
  3067 ;; Defined at:
  3068 ;;		line 438 in file "Procedures.c"
  3069 ;; Parameters:    Size  Location     Type
  3070 ;;		None
  3071 ;; Auto vars:     Size  Location     Type
  3072 ;;		None
  3073 ;; Return value:  Size  Location     Type
  3074 ;;		None               void
  3075 ;; Registers used:
  3076 ;;		wreg, status,2, status,0, cstack
  3077 ;; Tracked objects:
  3078 ;;		On entry : 0/0
  3079 ;;		On exit  : 0/0
  3080 ;;		Unchanged: 0/0
  3081 ;; Data sizes:     COMRAM   BANK0   BANK1   BANK2   BANK3   BANK4   BANK5   BANK6   BANK7
  3082 ;;      Params:         0       0       0       0       0       0       0       0       0
  3083 ;;      Locals:         0       0       0       0       0       0       0       0       0
  3084 ;;      Temps:         14       0       0       0       0       0       0       0       0
  3085 ;;      Totals:        14       0       0       0       0       0       0       0       0
  3086 ;;Total ram usage:       14 bytes
  3087 ;; Hardware stack levels used:    1
  3088 ;; Hardware stack levels required when called:    1
  3089 ;; This function calls:
  3090 ;;		i2_WriteTimer0
  3091 ;; This function is called by:
  3092 ;;		Interrupt level 2
  3093 ;; This function uses a non-reentrant model
  3094 ;;
  3095                           
  3096                           	psect	intcode
  3097  000008                     __pintcode:
  3098                           	opt stack 0
  3099  000008                     _TimerOverflow:
  3100                           	opt stack 25
  3101                           
  3102                           ;incstack = 0
  3103  000008  CFFA F029          	movff	pclath,??_TimerOverflow
  3104  00000C  CFFB F02A          	movff	pclatu,??_TimerOverflow+1
  3105  000010  CFE9 F02B          	movff	fsr0l,??_TimerOverflow+2
  3106  000014  ED6D  F03B         	call	int_func,f	;refresh shadow registers
  3107                           pclatu	equ	0xFFB
  3108                           pclath	equ	0xFFA
  3109                           tblptru	equ	0xFF8
  3110                           tblptrh	equ	0xFF7
  3111                           tblptrl	equ	0xFF6
  3112                           tablat	equ	0xFF5
  3113                           intcon	equ	0xFF2
  3114                           postinc0	equ	0xFEE
  3115                           fsr0l	equ	0xFE9
  3116                           wreg	equ	0xFE8
  3117                           postdec1	equ	0xFE5
  3118                           fsr1l	equ	0xFE1
  3119                           status	equ	0xFD8
  3120                           
  3121                           	psect	intcode_body
  3122  0076DA                     __pintcode_body:
  3123                           	opt stack 25
  3124  0076DA                     int_func:
  3125                           	opt stack 25
  3126  0076DA  0006               	pop		; remove dummy address from shadow register refresh
  3127  0076DC  CFEA F02C          	movff	fsr0h,??_TimerOverflow+3
  3128  0076E0  CFE1 F02D          	movff	fsr1l,??_TimerOverflow+4
  3129  0076E4  CFE2 F02E          	movff	fsr1h,??_TimerOverflow+5
  3130  0076E8  CFD9 F02F          	movff	fsr2l,??_TimerOverflow+6
  3131  0076EC  CFDA F030          	movff	fsr2h,??_TimerOverflow+7
  3132  0076F0  CFF3 F031          	movff	prodl,??_TimerOverflow+8
  3133  0076F4  CFF4 F032          	movff	prodh,??_TimerOverflow+9
  3134  0076F8  CFF6 F033          	movff	tblptrl,??_TimerOverflow+10
  3135  0076FC  CFF7 F034          	movff	tblptrh,??_TimerOverflow+11
  3136  007700  CFF8 F035          	movff	tblptru,??_TimerOverflow+12
  3137  007704  CFF5 F036          	movff	tablat,??_TimerOverflow+13
  3138                           
  3139                           ;Procedures.c: 440: if(INTCONbits.TMR0IF == 1)
  3140  007708  A4F2               	btfss	intcon,2,c	;volatile
  3141  00770A  D00D               	goto	i2l393
  3142                           
  3143                           ;Procedures.c: 441: {
  3144                           ;Procedures.c: 443: millis++;
  3145  00770C  0E01               	movlw	1
  3146  00770E  2601               	addwf	_millis,f,c
  3147  007710  0E00               	movlw	0
  3148  007712  2202               	addwfc	_millis+1,f,c
  3149  007714  2203               	addwfc	_millis+2,f,c
  3150  007716  2204               	addwfc	_millis+3,f,c
  3151                           
  3152                           ;Procedures.c: 444: INTCONbits.TMR0IF = 0;
  3153  007718  94F2               	bcf	intcon,2,c	;volatile
  3154                           
  3155                           ;Procedures.c: 445: WriteTimer0(0x0000);
  3156  00771A  0E00               	movlw	0
  3157  00771C  6E26               	movwf	i2WriteTimer0@timer0+1,c
  3158  00771E  0E00               	movlw	0
  3159  007720  6E25               	movwf	i2WriteTimer0@timer0,c
  3160  007722  EC8D  F03A         	call	i2_WriteTimer0	;wreg free
  3161  007726                     i2l393:
  3162  007726  C036  FFF5         	movff	??_TimerOverflow+13,tablat
  3163  00772A  C035  FFF8         	movff	??_TimerOverflow+12,tblptru
  3164  00772E  C034  FFF7         	movff	??_TimerOverflow+11,tblptrh
  3165  007732  C033  FFF6         	movff	??_TimerOverflow+10,tblptrl
  3166  007736  C032  FFF4         	movff	??_TimerOverflow+9,prodh
  3167  00773A  C031  FFF3         	movff	??_TimerOverflow+8,prodl
  3168  00773E  C030  FFDA         	movff	??_TimerOverflow+7,fsr2h
  3169  007742  C02F  FFD9         	movff	??_TimerOverflow+6,fsr2l
  3170  007746  C02E  FFE2         	movff	??_TimerOverflow+5,fsr1h
  3171  00774A  C02D  FFE1         	movff	??_TimerOverflow+4,fsr1l
  3172  00774E  C02C  FFEA         	movff	??_TimerOverflow+3,fsr0h
  3173  007752  C02B  FFE9         	movff	??_TimerOverflow+2,fsr0l
  3174  007756  C02A  FFFB         	movff	??_TimerOverflow+1,pclatu
  3175  00775A  C029  FFFA         	movff	??_TimerOverflow,pclath
  3176  00775E  0011               	retfie		f
  3177  007760                     __end_of_TimerOverflow:
  3178                           	opt stack 0
  3179                           pclatu	equ	0xFFB
  3180                           pclath	equ	0xFFA
  3181                           tblptru	equ	0xFF8
  3182                           tblptrh	equ	0xFF7
  3183                           tblptrl	equ	0xFF6
  3184                           tablat	equ	0xFF5
  3185                           prodh	equ	0xFF4
  3186                           prodl	equ	0xFF3
  3187                           intcon	equ	0xFF2
  3188                           postinc0	equ	0xFEE
  3189                           fsr0h	equ	0xFEA
  3190                           fsr0l	equ	0xFE9
  3191                           wreg	equ	0xFE8
  3192                           postdec1	equ	0xFE5
  3193                           fsr1h	equ	0xFE2
  3194                           fsr1l	equ	0xFE1
  3195                           fsr2h	equ	0xFDA
  3196                           fsr2l	equ	0xFD9
  3197                           status	equ	0xFD8
  3198                           
  3199 ;; *************** function i2_WriteTimer0 *****************
  3200 ;; Defined at:
  3201 ;;		line 16 in file "C:\Program Files (x86)\Microchip\xc8\v1.33\sources\pic18\plib\Timers\t0write.c"
  3202 ;; Parameters:    Size  Location     Type
  3203 ;;  timer0          2    0[COMRAM] unsigned int 
  3204 ;; Auto vars:     Size  Location     Type
  3205 ;;  WriteTimer0     2    2[COMRAM] struct Timers
  3206 ;; Return value:  Size  Location     Type
  3207 ;;		None               void
  3208 ;; Registers used:
  3209 ;;		None
  3210 ;; Tracked objects:
  3211 ;;		On entry : 0/0
  3212 ;;		On exit  : 0/0
  3213 ;;		Unchanged: 0/0
  3214 ;; Data sizes:     COMRAM   BANK0   BANK1   BANK2   BANK3   BANK4   BANK5   BANK6   BANK7
  3215 ;;      Params:         2       0       0       0       0       0       0       0       0
  3216 ;;      Locals:         2       0       0       0       0       0       0       0       0
  3217 ;;      Temps:          0       0       0       0       0       0       0       0       0
  3218 ;;      Totals:         4       0       0       0       0       0       0       0       0
  3219 ;;Total ram usage:        4 bytes
  3220 ;; Hardware stack levels used:    1
  3221 ;; This function calls:
  3222 ;;		Nothing
  3223 ;; This function is called by:
  3224 ;;		_TimerOverflow
  3225 ;; This function uses a non-reentrant model
  3226 ;;
  3227                           
  3228                           	psect	text25
  3229  00751A                     __ptext25:
  3230                           	opt stack 0
  3231  00751A                     i2_WriteTimer0:
  3232                           	opt stack 25
  3233                           
  3234                           ;incstack = 0
  3235  00751A  C025  F027         	movff	i2WriteTimer0@timer0,i2WriteTimer0@timer
  3236  00751E  C026  F028         	movff	i2WriteTimer0@timer0+1,i2WriteTimer0@timer+1
  3237  007522  C028  FFD7         	movff	i2WriteTimer0@timer+1,4055	;volatile
  3238  007526  C027  FFD6         	movff	i2WriteTimer0@timer,4054	;volatile
  3239  00752A  0012               	return	
  3240  00752C                     __end_ofi2_WriteTimer0:
  3241                           	opt stack 0
  3242                           pclatu	equ	0xFFB
  3243                           pclath	equ	0xFFA
  3244                           tblptru	equ	0xFF8
  3245                           tblptrh	equ	0xFF7
  3246                           tblptrl	equ	0xFF6
  3247                           tablat	equ	0xFF5
  3248                           prodh	equ	0xFF4
  3249                           prodl	equ	0xFF3
  3250                           intcon	equ	0xFF2
  3251                           postinc0	equ	0xFEE
  3252                           fsr0h	equ	0xFEA
  3253                           fsr0l	equ	0xFE9
  3254                           wreg	equ	0xFE8
  3255                           postdec1	equ	0xFE5
  3256                           fsr1h	equ	0xFE2
  3257                           fsr1l	equ	0xFE1
  3258                           fsr2h	equ	0xFDA
  3259                           fsr2l	equ	0xFD9
  3260                           status	equ	0xFD8
  3261                           pclatu	equ	0xFFB
  3262                           pclath	equ	0xFFA
  3263                           tblptru	equ	0xFF8
  3264                           tblptrh	equ	0xFF7
  3265                           tblptrl	equ	0xFF6
  3266                           tablat	equ	0xFF5
  3267                           prodh	equ	0xFF4
  3268                           prodl	equ	0xFF3
  3269                           intcon	equ	0xFF2
  3270                           postinc0	equ	0xFEE
  3271                           fsr0h	equ	0xFEA
  3272                           fsr0l	equ	0xFE9
  3273                           wreg	equ	0xFE8
  3274                           postdec1	equ	0xFE5
  3275                           fsr1h	equ	0xFE2
  3276                           fsr1l	equ	0xFE1
  3277                           fsr2h	equ	0xFDA
  3278                           fsr2l	equ	0xFD9
  3279                           status	equ	0xFD8
  3280                           
  3281                           	psect	rparam
  3282  0000                     pclatu	equ	0xFFB
  3283                           pclath	equ	0xFFA
  3284                           tblptru	equ	0xFF8
  3285                           tblptrh	equ	0xFF7
  3286                           tblptrl	equ	0xFF6
  3287                           tablat	equ	0xFF5
  3288                           prodh	equ	0xFF4
  3289                           prodl	equ	0xFF3
  3290                           intcon	equ	0xFF2
  3291                           postinc0	equ	0xFEE
  3292                           fsr0h	equ	0xFEA
  3293                           fsr0l	equ	0xFE9
  3294                           wreg	equ	0xFE8
  3295                           postdec1	equ	0xFE5
  3296                           fsr1h	equ	0xFE2
  3297                           fsr1l	equ	0xFE1
  3298                           fsr2h	equ	0xFDA
  3299                           fsr2l	equ	0xFD9
  3300                           status	equ	0xFD8


Data Sizes:
    Strings     447
    Constant    118
    Data        12
    BSS         134
    Persistent  4
    Stack       0

Auto Spaces:
    Space          Size  Autos    Used
    COMRAM           95     26      74
    BANK0           160     20     122
    BANK1           256      0       0
    BANK2           256      0       0
    BANK3           256      0       0
    BANK4           256      0       0
    BANK5           256      0       0
    BANK6           256      0       0
    BANK7           256      0       0

Pointer List with Targets:

    S2461$_cp	PTR const unsigned char  size(2) Largest target is 0

    _val._str._cp	PTR const unsigned char  size(2) Largest target is 0


Critical Paths under _main in COMRAM

    _main->_loop
    _SerialBegin->___aldiv
    _loop->_delay
    _delay->_Delay1KTCYx
    _TMR0Config->_WriteTimer0
    _PWM2_Init->___aldiv
    _PWM1_Init->___aldiv

Critical Paths under _TimerOverflow in COMRAM

    _TimerOverflow->i2_WriteTimer0

Critical Paths under _main in BANK0

    _setup->_SerialBegin
    _SerialBegin->___aldiv
    _CCPConfig->_PWM1_Init
    _CCPConfig->_PWM2_Init
    _PWM2_Init->___aldiv
    _PWM1_Init->___aldiv

Critical Paths under _TimerOverflow in BANK0

    None.

Critical Paths under _main in BANK1

    None.

Critical Paths under _TimerOverflow in BANK1

    None.

Critical Paths under _main in BANK2

    None.

Critical Paths under _TimerOverflow in BANK2

    None.

Critical Paths under _main in BANK3

    None.

Critical Paths under _TimerOverflow in BANK3

    None.

Critical Paths under _main in BANK4

    None.

Critical Paths under _TimerOverflow in BANK4

    None.

Critical Paths under _main in BANK5

    None.

Critical Paths under _TimerOverflow in BANK5

    None.

Critical Paths under _main in BANK6

    None.

Critical Paths under _TimerOverflow in BANK6

    None.

Critical Paths under _main in BANK7

    None.

Critical Paths under _TimerOverflow in BANK7

    None.

Call Graph Tables:

 ---------------------------------------------------------------------------------
 (Depth) Function   	        Calls       Base Space   Used Autos Params    Refs
 ---------------------------------------------------------------------------------
 (0) _main                                                 0     0      0    7303
               _configuracionInicial
                               _loop
                              _setup
 ---------------------------------------------------------------------------------
 (1) _setup                                                0     0      0    2823
                        _SerialBegin
                        _SerialWrite
                              _delay
 ---------------------------------------------------------------------------------
 (2) _SerialBegin                                         18    14      4    1897
                                              6 BANK0     14    10      4
                            ___aldiv
 ---------------------------------------------------------------------------------
 (1) _loop                                                 2     2      0     994
                                             24 COMRAM     2     2      0
                        _SerialWrite
                              _delay
 ---------------------------------------------------------------------------------
 (2) _delay                                                5     3      2     752
                                             19 COMRAM     5     3      2
                        _Delay1KTCYx
 ---------------------------------------------------------------------------------
 (3) _Delay1KTCYx                                          1     1      0      22
                                             18 COMRAM     1     1      0
 ---------------------------------------------------------------------------------
 (2) _SerialWrite                                          2     0      2     174
                                             18 COMRAM     2     0      2
 ---------------------------------------------------------------------------------
 (1) _configuracionInicial                                 0     0      0    3486
                          _ADCConfig
                          _CCPConfig
                        _PORTAConfig
                        _PORTBConfig
                        _PORTCConfig
                        _PORTDConfig
                        _PORTEConfig
                         _TMR0Config
                         _TMR1Config
 ---------------------------------------------------------------------------------
 (2) _TMR1Config                                           0     0      0       0
 ---------------------------------------------------------------------------------
 (2) _TMR0Config                                           0     0      0     162
                         _OpenTimer0
                        _WriteTimer0
 ---------------------------------------------------------------------------------
 (3) _WriteTimer0                                          4     2      2     132
                                             18 COMRAM     4     2      2
 ---------------------------------------------------------------------------------
 (3) _OpenTimer0                                           1     1      0      30
                                             18 COMRAM     1     1      0
 ---------------------------------------------------------------------------------
 (2) _PORTEConfig                                          0     0      0       0
 ---------------------------------------------------------------------------------
 (2) _PORTDConfig                                          0     0      0       0
 ---------------------------------------------------------------------------------
 (2) _PORTCConfig                                          0     0      0       0
 ---------------------------------------------------------------------------------
 (2) _PORTBConfig                                          0     0      0       0
 ---------------------------------------------------------------------------------
 (2) _PORTAConfig                                          0     0      0       0
 ---------------------------------------------------------------------------------
 (2) _CCPConfig                                            0     0      0    3324
                          _PWM1_Init
                         _PWM1_Start
                          _PWM2_Init
                         _PWM2_Start
 ---------------------------------------------------------------------------------
 (3) _PWM2_Start                                           0     0      0       0
 ---------------------------------------------------------------------------------
 (3) _PWM2_Init                                           12     8      4    1662
                                              6 BANK0     12     8      4
                            ___aldiv
 ---------------------------------------------------------------------------------
 (3) _PWM1_Start                                           0     0      0       0
 ---------------------------------------------------------------------------------
 (3) _PWM1_Init                                           12     8      4    1662
                                              6 BANK0     12     8      4
                            ___aldiv
 ---------------------------------------------------------------------------------
 (3) ___aldiv                                             14     6      8    1523
                                             18 COMRAM     8     0      8
                                              0 BANK0      6     6      0
 ---------------------------------------------------------------------------------
 (2) _ADCConfig                                            0     0      0       0
 ---------------------------------------------------------------------------------
 Estimated maximum stack depth 3
 ---------------------------------------------------------------------------------
 (Depth) Function   	        Calls       Base Space   Used Autos Params    Refs
 ---------------------------------------------------------------------------------
 (5) _TimerOverflow                                       14    14      0      64
                                              4 COMRAM    14    14      0
                      i2_WriteTimer0
 ---------------------------------------------------------------------------------
 (6) i2_WriteTimer0                                        4     2      2      64
                                              0 COMRAM     4     2      2
 ---------------------------------------------------------------------------------
 Estimated maximum stack depth 6
 ---------------------------------------------------------------------------------

 Call Graph Graphs:

 _main (ROOT)
   _configuracionInicial
     _ADCConfig
     _CCPConfig
       _PWM1_Init
         ___aldiv
       _PWM1_Start
       _PWM2_Init
         ___aldiv
       _PWM2_Start
     _PORTAConfig
     _PORTBConfig
     _PORTCConfig
     _PORTDConfig
     _PORTEConfig
     _TMR0Config
       _OpenTimer0
       _WriteTimer0
     _TMR1Config
   _loop
     _SerialWrite
     _delay
       _Delay1KTCYx
   _setup
     _SerialBegin
       ___aldiv
     _SerialWrite
     _delay
       _Delay1KTCYx

 _TimerOverflow (ROOT)
   i2_WriteTimer0

 Address spaces:
Name               Size   Autos  Total    Cost      Usage
BIGRAM             7FF      0       0      21        0.0%
EEDATA             100      0       0       0        0.0%
BITBANK7           100      0       0      18        0.0%
BANK7              100      0       0      19        0.0%
BITBANK6           100      0       0      16        0.0%
BANK6              100      0       0      17        0.0%
BITBANK5           100      0       0      14        0.0%
BANK5              100      0       0      15        0.0%
BITBANK4           100      0       0      12        0.0%
BANK4              100      0       0      13        0.0%
BITBANK3           100      0       0      10        0.0%
BANK3              100      0       0      11        0.0%
BITBANK2           100      0       0       8        0.0%
BANK2              100      0       0       9        0.0%
BITBANK1           100      0       0       6        0.0%
BANK1              100      0       0       7        0.0%
BITBANK0            A0      0       0       4        0.0%
BANK0               A0     14      7A       5       76.3%
BITCOMRAM           5F      0       0       0        0.0%
COMRAM              5F     1A      4A       1       77.9%
BITSFR               0      0       0      40        0.0%
SFR                  0      0       0      40        0.0%
STACK                0      0       0       2        0.0%
NULL                 0      0       0       0        0.0%
ABS                  0      0      C4      20        0.0%
DATA                 0      0      C4       3        0.0%
CODE                 0      0       0       0        0.0%


Microchip Technology PIC18 Macro Assembler V1.33 build 59893 
Symbol Table                                                                                   Mon Nov 05 16:37:47 2018

           __size_of_ADCConfig 0016                    _SSPSTATbits 000FC7                    __CFG_BORV$3 000000  
                 __CFG_CP0$OFF 000000                   __CFG_CP1$OFF 000000                   __CFG_CP2$OFF 000000  
                 __CFG_CP3$OFF 000000                            l211 7504                            l222 75DE  
                          l512 74CE                            l701 7616                            l490 7AC6  
                          l973 758A                            l974 758C                   __CFG_CPB$OFF 000000  
                          _PR2 000FCB                   __CFG_CPD$OFF 000000                   __CFG_BOR$OFF 000000  
         __size_of_WriteTimer0 0012                            _adc 0017             __size_of_CCPConfig 0042  
                          _vKd 0082                            _vKi 0092                            _vKp 00A2  
                          wreg 000FE8                   _proporcional 0045                   __CFG_LVP$OFF 000000  
                 __CFG_WDT$OFF 000000                           l1222 750C                           l4180 7914  
                         l4172 78DA                           l4228 7AA6                           l4190 7954  
                         l4182 7918                           l4166 78A8                           l4178 7906  
                         l4194 7964                           l4198 798A                           STR_1 7C0B  
                         STR_2 7C1C                           STR_3 7B50                           STR_4 7B61  
                         STR_5 7BE9                           STR_6 7BC7                           STR_7 7BA5  
                         STR_8 7B72                           STR_9 7B83                           _BRGH 007D62  
                         _CREN 007D5C                           _FERR 007D5A                           u4107 750E  
                         _RCIF 007CF5                           u3845 778A                           u3855 779C  
                         u3785 788E                           u3865 7812                           u3795 78C0  
                         u3875 7824                           _OERR 007D59                           _TMR0 000FD6  
                         _SPEN 007D5F                           _TRMT 007D61                           _TXEN 007D65  
                         _SYNC 007D64                           _Duty 0072                           _main 74FC  
                         _freq 00D6                           _loop 75E0                           fsr0h 000FEA  
                         fsr1h 000FE2                           fsr0l 000FE9                           fsr2h 000FDA  
                         fsr1l 000FE1                           fsr2l 000FD9         __size_ofi2_WriteTimer0 0012  
                         pclat 000FFA                           prodh 000FF4                           prodl 000FF3  
                         start 0018                  __CFG_IESO$OFF 000000                  __CFG_MCLRE$ON 000000  
                  _Delay1KTCYx 750A                  __CFG_PLLDIV$5 000000                 __CFG_CCP2MX$ON 000000  
                        _DC1B0 007DEC                          _DC1B1 007DED                          _DC2B0 007DD4  
                        _DC2B1 007DD5                __end_of___aldiv 799C                          ?_main 0025  
                        ?_loop 0025                          STR_11 7B94                          STR_20 7CF1  
                        STR_21 7CAD                          STR_13 7BD8                          STR_22 7CEC  
                        STR_30 7CE7                          STR_31 7CC4                          STR_23 7CB3  
                        STR_15 7BFA                          STR_24 7CFA                          STR_32 7CBF  
                        STR_40 7C2D                          STR_25 7CF6                          STR_33 7CE2  
                        STR_17 7BB6                          STR_34 7CDD                          STR_26 7CD8  
                        STR_42 7C4B                          STR_27 7CCE                          STR_19 7CB9  
                        STR_43 7C5A                          STR_35 7B3F                          STR_28 7CC9  
                        STR_44 7C78                          STR_36 7C69                          STR_29 7CD3  
                        STR_37 7CA5                          STR_45 7C94                          STR_46 7C87  
                        STR_38 7C3C                          STR_39 7C9D                          _T0CON 000FD5  
                        _T1CON 000FCD                          _RCIDL 007DC6                          i2l393 7726  
                        _RCREG 000FAE                          _TMR0H 000FD7                          _TMR1H 000FCF  
                        _TMR0L 000FD6                          _TMR1L 000FCE                          _SPBRG 000FAF  
                        _PORTD 000F83                  __CFG_USBDIV$1 000000                          _TRISA 000F92  
                        _TRISB 000F93                          _TRISC 000F94                          _TRISD 000F95  
                        _TXREG 000FAD                    ?_TMR0Config 0025                  __CFG_PWRT$OFF 000000  
                  ?_TMR1Config 0025                  __CFG_WRT0$OFF 000000                  __CFG_WRT1$OFF 000000  
                __CFG_WRT2$OFF 000000                  __CFG_WRT3$OFF 000000                 __CFG_EBTR0$OFF 000000  
               __CFG_FCMEN$OFF 000000                 __CFG_EBTR1$OFF 000000                 __CFG_EBTR2$OFF 000000  
               __CFG_EBTR3$OFF 000000                  __CFG_WRTB$OFF 000000                  __CFG_WRTC$OFF 000000  
                __CFG_WRTD$OFF 000000             __size_of_PWM1_Init 0088                    ?_PWM1_Start 0025  
           __size_of_PWM2_Init 0088                    ?_PWM2_Start 0025                 __CFG_EBTRB$OFF 000000  
                        _delay 75B6                __end_of_dpowers 7AF1              __end_of_ADCConfig 7554  
                        _setup 7618                          _state 0022                          _volts 00B2  
                        tablat 000FF5                          loop@i 003D                          status 000FD8  
               __CFG_ICPRT$OFF 000000              __end_of_CCPConfig 7698                __initialization 7698  
                 __end_of_main 750A                   __end_of_loop 7618                         ??_main 003F  
                       ??_loop 003D                  i2_WriteTimer0 751A                  __activetblptr 000002  
                       ?_delay 0038                         _ADCON0 000FC2                         _ADCON1 000FC1  
                       _ADCON2 000FC0                         _CCP1M2 007DEA                         _CCP1M3 007DEB  
                       _CCP2M2 007DD2                         _CCP2M3 007DD3                         _ADRESH 000FC4  
                       _ADRESL 000FC3                         _CCPR1L 000FBE                         _CCPR2L 000FBB  
                       ?_setup 0025                     _OpenTimer0 7570                  ??_SerialBegin 00CC  
                       _TMR2ON 007E52                         _TRISB0 007C98                         _TRISB1 007C99  
                       _TRISC1 007CA1                         _TRISA5 007C95                         _TRISC2 007CA2  
                       _TRISC6 007CA6                         _TRISC7 007CA7                         _SSPBUF 000FC9  
                ??_SerialWrite 0039                   ?_PORTAConfig 0025                   ?_PORTBConfig 0025  
                 ?_PORTCConfig 0025                   ?_PORTDConfig 0025                   ?_PORTEConfig 0025  
               __CFG_XINST$OFF 000000            __size_of_TMR0Config 001C               __end_of__powers_ 7B3F  
          __size_of_TMR1Config 0006              __end_of_PWM1_Init 77E8              __end_of_PWM2_Init 7870  
                    ??___aldiv 003F                 __CFG_STVREN$ON 000000            __size_of_PWM1_Start 000C  
__size_of_configuracionInicial 0026            __size_of_PWM2_Start 000C               OpenTimer0@config 0037  
                       _estado 0020                         delay@a 003B                         _millis 0001  
                       clear_0 769E                         clear_1 76AA                         _outMax 001A  
                       _outMin 001D                 ?i2_WriteTimer0 0025          __end_of_TimerOverflow 7760  
                 __pdataCOMRAM 003F                    _Kderivative 0005                   __mediumconst 7AC8  
                       tblptrh 000FF7                         tblptrl 000FF6                         tblptru 000FF8  
                   __accesstop 0060        __end_of__initialization 76D0                __CFG_PBADEN$OFF 000000  
          SerialBegin@baudRate 00C8            __end_of_SerialBegin 7AC8                 __pcstackCOMRAM 0025  
                __end_of_delay 75E0            __end_of_SerialWrite 74D8                  __end_of_setup 7656  
             _SerialBegin$3256 00D0                  _SalidaControl 000E                        ??_delay 003A  
                      ??_setup 003F                     __pbssBANK0 0060                    ?_OpenTimer0 0025  
                   _dataVector 0068           SerialWrite@dataWrite 0037                ??i2_WriteTimer0 0027  
                 ?_Delay1KTCYx 0025               WriteTimer0@timer 0039                  ??_WriteTimer0 0039  
                   _derivativo 003F                        _T2CKPS0 007E50                        _T2CKPS1 007E51  
                 ??_TMR0Config 003B                   ??_TMR1Config 0037                   ??_PWM1_Start 0037  
                 ??_PWM2_Start 0037                __CFG_VREGEN$OFF 000000                    _SerialBegin 799C  
                    _ADCConfig 753E            i2WriteTimer0@timer0 0025                    _SerialWrite 74CE  
            __end_of__npowers_ 7B18                        __Hparam 0000                        _SampleT 0011  
                      __Lparam 0000           __size_of_PORTAConfig 0006           __size_of_PORTBConfig 0004  
         __size_of_PORTCConfig 0006             __end_of_TMR0Config 7570           __size_of_PORTDConfig 0004  
           __end_of_TMR1Config 74C6           __size_of_PORTEConfig 0008                        ___aldiv 7870  
                    _CCPConfig 7656             __end_of_PWM1_Start 74E4             __end_of_PWM2_Start 74F0  
                      __pcinit 7698                        __ramtop 0800            __size_of_OpenTimer0 0020  
                      __ptext0 74FC                        __ptext1 7618                        __ptext2 799C  
                      __ptext3 75E0                        __ptext4 75B6                        __ptext5 750A  
                      __ptext6 74CE                        __ptext7 7590                        __ptext8 74C0  
                      __ptext9 7554                      _T0CONbits 000FD5                      _T1CONbits 000FCD  
                      _dpowers 7AC9                        _current 006F                        _pinFlag 0024  
                   delay@milis 0038               ___aldiv@dividend 0037            __end_of_WriteTimer0 753E  
               __pintcode_body 76DA           end_of_initialization 76D0                  __Lmediumconst 7AC8  
                      int_func 76DA                     ?_ADCConfig 0025               ___aldiv@quotient 00C4  
                      postdec1 000FE5                        postinc0 000FEE                     ?_CCPConfig 0025  
                   _vectorSize 0048                      _PWM1_Init 7760                      _PWM2_Init 77E8  
                    _PORTAbits 000F80                      _PORTBbits 000F81                      _PORTCbits 000F82  
                    _PORTDbits 000F83                      _PORTEbits 000F84                      _TRISAbits 000F92  
                    _TRISBbits 000F93                      _TRISCbits 000F94                      _TRISDbits 000F95  
                    _TRISEbits 000F96   __end_of_configuracionInicial 75B6                  __pidataCOMRAM 74F0  
                   ?_PWM1_Init 00C8                    _WriteTimer0 752C                     ?_PWM2_Init 00C8  
                _Kproportional 000B           __size_of_Delay1KTCYx 0010            start_initialization 7698  
                    _Kintegral 0008                   ??_OpenTimer0 0037                    ??_ADCConfig 0037  
       __size_of_TimerOverflow 7758                    ??_CCPConfig 003F               __CFG_LPT1OSC$OFF 000000  
           __end_of_OpenTimer0 7590                    __pbssCOMRAM 0001                  __pcstackBANK0 00C2  
          __end_of__stringdata 7CFE                Delay1KTCYx@unit 0037                   ?_SerialBegin 00C8  
                    __pnvBANK0 00D6                   ?_SerialWrite 0037                      __pintcode 0008  
                __pmediumconst 7AC8                       ?___aldiv 0037                   SerialBegin@x 00D4  
         _configuracionInicial 7590                      __npowers_ 7AF1                    ??_PWM1_Init 00CC  
                  ??_PWM2_Init 00CC          __end_ofi2_WriteTimer0 752C              WriteTimer0@timer0 0037  
                _TimerOverflow 0008                      _corriente 006C             i2WriteTimer0@timer 0027  
               __size_of_delay 002A                 __size_of_setup 003E                ___aldiv@divisor 003B  
              ___aldiv@counter 00C2                       _LATAbits 000F89                       _LATBbits 000F8A  
                     _LATCbits 000F8B                       _LATDbits 000F8C                  ??_PORTAConfig 0037  
                ??_PORTBConfig 0037                  ??_PORTCConfig 0037                       _PIE1bits 000F9D  
                ??_PORTDConfig 0037                  ??_PORTEConfig 0037               __CFG_WDTPS$32768 000000  
        ?_configuracionInicial 0025                     _ADCON0bits 000FC2                    __stringdata 7B3F  
               ?_TimerOverflow 0025                      copy_data0 76C4                       _SendData 0060  
                     _SetPoint 0014                       __Hrparam 0000                       __Lrparam 0000  
                     _TiempoMs 0064            __end_of_PORTAConfig 74BA            __end_of_PORTBConfig 74B0  
          __end_of_PORTCConfig 74C0               __size_of___aldiv 012C            __end_of_PORTDConfig 74B4  
          __end_of_PORTEConfig 74CE                   ?_WriteTimer0 0037                       __ptext10 752C  
                     __ptext11 7570                       __ptext20 74D8                       __ptext12 74C6  
                     __ptext21 7760                       __ptext13 74B0                       __ptext22 7870  
                     __ptext14 74BA                       __ptext23 753E                       __ptext15 74AC  
                     __ptext16 74B4                       __ptext25 751A                       __ptext17 7656  
                     __ptext18 74E4                       __ptext19 77E8                       __powers_ 7B18  
                     _marcador 004A                  __size_of_main 000E                  __size_of_loop 0038  
                     _integral 0042           __size_of_SerialBegin 012C                   PWM1_Init@fre 00C8  
       ??_configuracionInicial 003F           __size_of_SerialWrite 000A                   PWM2_Init@fre 00C8  
                ??_Delay1KTCYx 0037                ??_TimerOverflow 0029          __CFG_CPUDIV$OSC3_PLL4 000000  
                   _INTCONbits 000FF2                       intlevel2 0000                    _PORTAConfig 74B4  
                  _PORTBConfig 74AC                    _PORTCConfig 74BA                    _PORTDConfig 74B0  
                  _PORTEConfig 74C6                     _TMR0Config 7554            __end_of_Delay1KTCYx 751A  
                   _TMR1Config 74C0                   ___aldiv@sign 00C3                    _SSPCON1bits 000FC6  
                   _PWM1_Start 74D8                     _PWM2_Start 74E4             __CFG_FOSC$HSPLL_HS 000000  
