

Microchip Technology PIC LITE Macro Assembler V2.00 build -1524193055 
                                                                                               Wed Mar 04 12:17:54 2020

Microchip Technology Omniscient Code Generator v2.00 (Free mode) build 20180527130849
     1  0000                     
      + 0000                     
     2                           ; Version 2.00
     3                           ; Generated 27/05/2018 GMT
     4                           
     5                           ; 
     6                           ; Copyright © 2018, Microchip Technology Inc. and its subsidiaries ("Microchip")
     7                           ; All rights reserved.
     8                           ; 
     9                           ; This software is developed by Microchip Technology Inc. and its subsidiaries ("Microch
                                 ip").
    10                           ; 
    11                           ; Redistribution and use in source and binary forms, with or without modification, are
    12                           ; permitted provided that the following conditions are met:
    13                           ; 
    14                           ;     1. Redistributions of source code must retain the above copyright notice, this lis
                                 t of
    15                           ;        conditions and the following disclaimer.
    16                           ; 
    17                           ;     2. Redistributions in binary form must reproduce the above copyright notice, this 
                                 list
    18                           ;        of conditions and the following disclaimer in the documentation and/or other
    19                           ;        materials provided with the distribution.
    20                           ; 
    21                           ;     3. Microchip's name may not be used to endorse or promote products derived from th
                                 is
    22                           ;        software without specific prior written permission.
    23                           ; 
    24                           ; THIS SOFTWARE IS PROVIDED BY MICROCHIP "AS IS" AND ANY EXPRESS OR IMPLIED WARRANTIES,

    25                           ; INCLUDING, BUT NOT LIMITED TO, THE IMPLIED WARRANTIES OF MERCHANTABILITY AND FITNESS F
                                 OR
    26                           ; PURPOSE ARE DISCLAIMED.  IN NO EVENT SHALL MICROCHIP BE LIABLE FOR ANY DIRECT, INDIREC
                                 T,
    27                           ; INCIDENTAL, SPECIAL, EXEMPLARY, OR CONSEQUENTIAL DAMAGES (INCLUDING BUT NOT LIMITED TO
                                 
    28                           ; PROCUREMENT OF SUBSTITUTE GOODS OR SERVICES; LOSS OF USE, DATA OR PROFITS; OR BUSINESS
                                 
    29                           ; INTERRUPTION) HOWSOEVER CAUSED AND ON ANY THEORY OF LIABILITY, WHETHER IN CONTRACT, ST
                                 RICT
    30                           ; LIABILITY, OR TORT (INCLUDING NEGLIGENCE OR OTHERWISE) ARISING IN ANY WAY OUT OF THE U
                                 SE OF
    31                           ; THIS SOFTWARE, EVEN IF ADVISED OF THE POSSIBILITY OF SUCH DAMAGE.
    32                           ; 
    33                           
    34                           
    35                           ; 
    36                           ; Code-generator required, PIC16F877A Definitions
    37                           ; 
    38  0004                     fsr0 equ 04h
    39  0004                     indf equ 00h
    40  0000                     indf0 equ 00h
    41  0000                     pc equ 02h
    42  0002                     pcl equ 02h
    43  0002                     pclath equ 0Ah
    44  000A                     status equ 03h
    45  0003                     
     2                           opt pagewidth 120
     3  0000                     byte0	macro	val
     4                           	(getbyte(val,0))
     5                           endm
     6  0000                     byte1	macro	val
     7                           	(getbyte(val,1))
     8                           endm
     9  0000                     byte2	macro	val
    10                           	(getbyte(val,2))
    11                           endm
    12  0000                     byte3	macro	val
    13                           	(getbyte(val,3))
    14                           endm
    15  0000                     byte4	macro	val
    16                           	(getbyte(val,4))
    17                           endm
    18  0000                     byte5	macro	val
    19                           	(getbyte(val,5))
    20                           endm
    21  0000                     byte6	macro	val
    22                           	(getbyte(val,6))
    23                           endm
    24  0000                     byte7	macro	val
    25                           	(getbyte(val,7))
    26                           endm
    27  0000                     getword	macro	val,pos
    28                           	(((val) >> (8 * pos)) and 0xffff)
    29                           endm
    30  0000                     word0	macro	val
    31                           	(getword(val,0))
    32                           endm
    33  0000                     word1	macro	val
    34                           	(getword(val,2))
    35                           endm
    36  0000                     word2	macro	val
    37                           	(getword(val,4))
    38                           endm
    39  0000                     word3	macro	val
    40                           	(getword(val,6))
    41                           endm
    42  0000                     gettword	macro	val,pos
    43                           	(((val) >> (8 * pos)) and 0xffffff)
    44                           endm
    45  0000                     tword0	macro	val
    46                           	(gettword(val,0))
    47                           endm
    48  0000                     tword1	macro	val
    49                           	(gettword(val,3))
    50                           endm
    51  0000                     tword2	macro	val
    52                           	(gettword(val,6))
    53                           endm
    54  0000                     getdword	macro	val,pos
    55                           	(((val) >> (8 * pos)) and 0xffffffff)
    56                           endm
    57  0000                     dword0	macro	val
    58                           	(getdword(val,0))
    59                           endm
    60  0000                     dword1	macro	val
    61                           	(getdword(val,4))
    62                           endm
    63  0000                     clrc	macro
    64                           	bcf	3,0
    65                           	endm
    66  0000                     clrz	macro
    67                           	bcf	3,2
    68                           	endm
    69  0000                     setc	macro
    70                           	bsf	3,0
    71                           	endm
    72  0000                     setz	macro
    73                           	bsf	3,2
    74                           	endm
    75  0000                     skipc	macro
    76                           	btfss	3,0
    77                           	endm
    78  0000                     skipz	macro
    79                           	btfss	3,2
    80                           	endm
    81  0000                     skipnc	macro
    82                           	btfsc	3,0
    83                           	endm
    84  0000                     skipnz	macro
    85                           	btfsc	3,2
    86                           	endm
    87  0000                     # 54 "C:\Program Files (x86)\Microchip\xc8\v2.00\pic\include\pic16f877a.h"
    88                           INDF equ 00h ;# 
    89  0000                     # 61 "C:\Program Files (x86)\Microchip\xc8\v2.00\pic\include\pic16f877a.h"
    90                           TMR0 equ 01h ;# 
    91  0001                     # 68 "C:\Program Files (x86)\Microchip\xc8\v2.00\pic\include\pic16f877a.h"
    92                           PCL equ 02h ;# 
    93  0002                     # 75 "C:\Program Files (x86)\Microchip\xc8\v2.00\pic\include\pic16f877a.h"
    94                           STATUS equ 03h ;# 
    95  0003                     # 161 "C:\Program Files (x86)\Microchip\xc8\v2.00\pic\include\pic16f877a.h"
    96                           FSR equ 04h ;# 
    97  0004                     # 168 "C:\Program Files (x86)\Microchip\xc8\v2.00\pic\include\pic16f877a.h"
    98                           PORTA equ 05h ;# 
    99  0005                     # 218 "C:\Program Files (x86)\Microchip\xc8\v2.00\pic\include\pic16f877a.h"
   100                           PORTB equ 06h ;# 
   101  0006                     # 280 "C:\Program Files (x86)\Microchip\xc8\v2.00\pic\include\pic16f877a.h"
   102                           PORTC equ 07h ;# 
   103  0007                     # 342 "C:\Program Files (x86)\Microchip\xc8\v2.00\pic\include\pic16f877a.h"
   104                           PORTD equ 08h ;# 
   105  0008                     # 404 "C:\Program Files (x86)\Microchip\xc8\v2.00\pic\include\pic16f877a.h"
   106                           PORTE equ 09h ;# 
   107  0009                     # 436 "C:\Program Files (x86)\Microchip\xc8\v2.00\pic\include\pic16f877a.h"
   108                           PCLATH equ 0Ah ;# 
   109  000A                     # 456 "C:\Program Files (x86)\Microchip\xc8\v2.00\pic\include\pic16f877a.h"
   110                           INTCON equ 0Bh ;# 
   111  000B                     # 534 "C:\Program Files (x86)\Microchip\xc8\v2.00\pic\include\pic16f877a.h"
   112                           PIR1 equ 0Ch ;# 
   113  000C                     # 596 "C:\Program Files (x86)\Microchip\xc8\v2.00\pic\include\pic16f877a.h"
   114                           PIR2 equ 0Dh ;# 
   115  000D                     # 636 "C:\Program Files (x86)\Microchip\xc8\v2.00\pic\include\pic16f877a.h"
   116                           TMR1 equ 0Eh ;# 
   117  000E                     # 643 "C:\Program Files (x86)\Microchip\xc8\v2.00\pic\include\pic16f877a.h"
   118                           TMR1L equ 0Eh ;# 
   119  000E                     # 650 "C:\Program Files (x86)\Microchip\xc8\v2.00\pic\include\pic16f877a.h"
   120                           TMR1H equ 0Fh ;# 
   121  000F                     # 657 "C:\Program Files (x86)\Microchip\xc8\v2.00\pic\include\pic16f877a.h"
   122                           T1CON equ 010h ;# 
   123  0010                     # 732 "C:\Program Files (x86)\Microchip\xc8\v2.00\pic\include\pic16f877a.h"
   124                           TMR2 equ 011h ;# 
   125  0011                     # 739 "C:\Program Files (x86)\Microchip\xc8\v2.00\pic\include\pic16f877a.h"
   126                           T2CON equ 012h ;# 
   127  0012                     # 810 "C:\Program Files (x86)\Microchip\xc8\v2.00\pic\include\pic16f877a.h"
   128                           SSPBUF equ 013h ;# 
   129  0013                     # 817 "C:\Program Files (x86)\Microchip\xc8\v2.00\pic\include\pic16f877a.h"
   130                           SSPCON equ 014h ;# 
   131  0014                     # 887 "C:\Program Files (x86)\Microchip\xc8\v2.00\pic\include\pic16f877a.h"
   132                           CCPR1 equ 015h ;# 
   133  0015                     # 894 "C:\Program Files (x86)\Microchip\xc8\v2.00\pic\include\pic16f877a.h"
   134                           CCPR1L equ 015h ;# 
   135  0015                     # 901 "C:\Program Files (x86)\Microchip\xc8\v2.00\pic\include\pic16f877a.h"
   136                           CCPR1H equ 016h ;# 
   137  0016                     # 908 "C:\Program Files (x86)\Microchip\xc8\v2.00\pic\include\pic16f877a.h"
   138                           CCP1CON equ 017h ;# 
   139  0017                     # 966 "C:\Program Files (x86)\Microchip\xc8\v2.00\pic\include\pic16f877a.h"
   140                           RCSTA equ 018h ;# 
   141  0018                     # 1061 "C:\Program Files (x86)\Microchip\xc8\v2.00\pic\include\pic16f877a.h"
   142                           TXREG equ 019h ;# 
   143  0019                     # 1068 "C:\Program Files (x86)\Microchip\xc8\v2.00\pic\include\pic16f877a.h"
   144                           RCREG equ 01Ah ;# 
   145  001A                     # 1075 "C:\Program Files (x86)\Microchip\xc8\v2.00\pic\include\pic16f877a.h"
   146                           CCPR2 equ 01Bh ;# 
   147  001B                     # 1082 "C:\Program Files (x86)\Microchip\xc8\v2.00\pic\include\pic16f877a.h"
   148                           CCPR2L equ 01Bh ;# 
   149  001B                     # 1089 "C:\Program Files (x86)\Microchip\xc8\v2.00\pic\include\pic16f877a.h"
   150                           CCPR2H equ 01Ch ;# 
   151  001C                     # 1096 "C:\Program Files (x86)\Microchip\xc8\v2.00\pic\include\pic16f877a.h"
   152                           CCP2CON equ 01Dh ;# 
   153  001D                     # 1154 "C:\Program Files (x86)\Microchip\xc8\v2.00\pic\include\pic16f877a.h"
   154                           ADRESH equ 01Eh ;# 
   155  001E                     # 1161 "C:\Program Files (x86)\Microchip\xc8\v2.00\pic\include\pic16f877a.h"
   156                           ADCON0 equ 01Fh ;# 
   157  001F                     # 1257 "C:\Program Files (x86)\Microchip\xc8\v2.00\pic\include\pic16f877a.h"
   158                           OPTION_REG equ 081h ;# 
   159  0081                     # 1327 "C:\Program Files (x86)\Microchip\xc8\v2.00\pic\include\pic16f877a.h"
   160                           TRISA equ 085h ;# 
   161  0085                     # 1377 "C:\Program Files (x86)\Microchip\xc8\v2.00\pic\include\pic16f877a.h"
   162                           TRISB equ 086h ;# 
   163  0086                     # 1439 "C:\Program Files (x86)\Microchip\xc8\v2.00\pic\include\pic16f877a.h"
   164                           TRISC equ 087h ;# 
   165  0087                     # 1501 "C:\Program Files (x86)\Microchip\xc8\v2.00\pic\include\pic16f877a.h"
   166                           TRISD equ 088h ;# 
   167  0088                     # 1563 "C:\Program Files (x86)\Microchip\xc8\v2.00\pic\include\pic16f877a.h"
   168                           TRISE equ 089h ;# 
   169  0089                     # 1620 "C:\Program Files (x86)\Microchip\xc8\v2.00\pic\include\pic16f877a.h"
   170                           PIE1 equ 08Ch ;# 
   171  008C                     # 1682 "C:\Program Files (x86)\Microchip\xc8\v2.00\pic\include\pic16f877a.h"
   172                           PIE2 equ 08Dh ;# 
   173  008D                     # 1722 "C:\Program Files (x86)\Microchip\xc8\v2.00\pic\include\pic16f877a.h"
   174                           PCON equ 08Eh ;# 
   175  008E                     # 1756 "C:\Program Files (x86)\Microchip\xc8\v2.00\pic\include\pic16f877a.h"
   176                           SSPCON2 equ 091h ;# 
   177  0091                     # 1818 "C:\Program Files (x86)\Microchip\xc8\v2.00\pic\include\pic16f877a.h"
   178                           PR2 equ 092h ;# 
   179  0092                     # 1825 "C:\Program Files (x86)\Microchip\xc8\v2.00\pic\include\pic16f877a.h"
   180                           SSPADD equ 093h ;# 
   181  0093                     # 1832 "C:\Program Files (x86)\Microchip\xc8\v2.00\pic\include\pic16f877a.h"
   182                           SSPSTAT equ 094h ;# 
   183  0094                     # 2001 "C:\Program Files (x86)\Microchip\xc8\v2.00\pic\include\pic16f877a.h"
   184                           TXSTA equ 098h ;# 
   185  0098                     # 2082 "C:\Program Files (x86)\Microchip\xc8\v2.00\pic\include\pic16f877a.h"
   186                           SPBRG equ 099h ;# 
   187  0099                     # 2089 "C:\Program Files (x86)\Microchip\xc8\v2.00\pic\include\pic16f877a.h"
   188                           CMCON equ 09Ch ;# 
   189  009C                     # 2159 "C:\Program Files (x86)\Microchip\xc8\v2.00\pic\include\pic16f877a.h"
   190                           CVRCON equ 09Dh ;# 
   191  009D                     # 2224 "C:\Program Files (x86)\Microchip\xc8\v2.00\pic\include\pic16f877a.h"
   192                           ADRESL equ 09Eh ;# 
   193  009E                     # 2231 "C:\Program Files (x86)\Microchip\xc8\v2.00\pic\include\pic16f877a.h"
   194                           ADCON1 equ 09Fh ;# 
   195  009F                     # 2290 "C:\Program Files (x86)\Microchip\xc8\v2.00\pic\include\pic16f877a.h"
   196                           EEDATA equ 010Ch ;# 
   197  010C                     # 2297 "C:\Program Files (x86)\Microchip\xc8\v2.00\pic\include\pic16f877a.h"
   198                           EEADR equ 010Dh ;# 
   199  010D                     # 2304 "C:\Program Files (x86)\Microchip\xc8\v2.00\pic\include\pic16f877a.h"
   200                           EEDATH equ 010Eh ;# 
   201  010E                     # 2311 "C:\Program Files (x86)\Microchip\xc8\v2.00\pic\include\pic16f877a.h"
   202                           EEADRH equ 010Fh ;# 
   203  010F                     # 2318 "C:\Program Files (x86)\Microchip\xc8\v2.00\pic\include\pic16f877a.h"
   204                           EECON1 equ 018Ch ;# 
   205  018C                     # 2363 "C:\Program Files (x86)\Microchip\xc8\v2.00\pic\include\pic16f877a.h"
   206                           EECON2 equ 018Dh ;# 
   207  018D                     # 54 "C:\Program Files (x86)\Microchip\xc8\v2.00\pic\include\pic16f877a.h"
   208                           INDF equ 00h ;# 
   209  0000                     # 61 "C:\Program Files (x86)\Microchip\xc8\v2.00\pic\include\pic16f877a.h"
   210                           TMR0 equ 01h ;# 
   211  0001                     # 68 "C:\Program Files (x86)\Microchip\xc8\v2.00\pic\include\pic16f877a.h"
   212                           PCL equ 02h ;# 
   213  0002                     # 75 "C:\Program Files (x86)\Microchip\xc8\v2.00\pic\include\pic16f877a.h"
   214                           STATUS equ 03h ;# 
   215  0003                     # 161 "C:\Program Files (x86)\Microchip\xc8\v2.00\pic\include\pic16f877a.h"
   216                           FSR equ 04h ;# 
   217  0004                     # 168 "C:\Program Files (x86)\Microchip\xc8\v2.00\pic\include\pic16f877a.h"
   218                           PORTA equ 05h ;# 
   219  0005                     # 218 "C:\Program Files (x86)\Microchip\xc8\v2.00\pic\include\pic16f877a.h"
   220                           PORTB equ 06h ;# 
   221  0006                     # 280 "C:\Program Files (x86)\Microchip\xc8\v2.00\pic\include\pic16f877a.h"
   222                           PORTC equ 07h ;# 
   223  0007                     # 342 "C:\Program Files (x86)\Microchip\xc8\v2.00\pic\include\pic16f877a.h"
   224                           PORTD equ 08h ;# 
   225  0008                     # 404 "C:\Program Files (x86)\Microchip\xc8\v2.00\pic\include\pic16f877a.h"
   226                           PORTE equ 09h ;# 
   227  0009                     # 436 "C:\Program Files (x86)\Microchip\xc8\v2.00\pic\include\pic16f877a.h"
   228                           PCLATH equ 0Ah ;# 
   229  000A                     # 456 "C:\Program Files (x86)\Microchip\xc8\v2.00\pic\include\pic16f877a.h"
   230                           INTCON equ 0Bh ;# 
   231  000B                     # 534 "C:\Program Files (x86)\Microchip\xc8\v2.00\pic\include\pic16f877a.h"
   232                           PIR1 equ 0Ch ;# 
   233  000C                     # 596 "C:\Program Files (x86)\Microchip\xc8\v2.00\pic\include\pic16f877a.h"
   234                           PIR2 equ 0Dh ;# 
   235  000D                     # 636 "C:\Program Files (x86)\Microchip\xc8\v2.00\pic\include\pic16f877a.h"
   236                           TMR1 equ 0Eh ;# 
   237  000E                     # 643 "C:\Program Files (x86)\Microchip\xc8\v2.00\pic\include\pic16f877a.h"
   238                           TMR1L equ 0Eh ;# 
   239  000E                     # 650 "C:\Program Files (x86)\Microchip\xc8\v2.00\pic\include\pic16f877a.h"
   240                           TMR1H equ 0Fh ;# 
   241  000F                     # 657 "C:\Program Files (x86)\Microchip\xc8\v2.00\pic\include\pic16f877a.h"
   242                           T1CON equ 010h ;# 
   243  0010                     # 732 "C:\Program Files (x86)\Microchip\xc8\v2.00\pic\include\pic16f877a.h"
   244                           TMR2 equ 011h ;# 
   245  0011                     # 739 "C:\Program Files (x86)\Microchip\xc8\v2.00\pic\include\pic16f877a.h"
   246                           T2CON equ 012h ;# 
   247  0012                     # 810 "C:\Program Files (x86)\Microchip\xc8\v2.00\pic\include\pic16f877a.h"
   248                           SSPBUF equ 013h ;# 
   249  0013                     # 817 "C:\Program Files (x86)\Microchip\xc8\v2.00\pic\include\pic16f877a.h"
   250                           SSPCON equ 014h ;# 
   251  0014                     # 887 "C:\Program Files (x86)\Microchip\xc8\v2.00\pic\include\pic16f877a.h"
   252                           CCPR1 equ 015h ;# 
   253  0015                     # 894 "C:\Program Files (x86)\Microchip\xc8\v2.00\pic\include\pic16f877a.h"
   254                           CCPR1L equ 015h ;# 
   255  0015                     # 901 "C:\Program Files (x86)\Microchip\xc8\v2.00\pic\include\pic16f877a.h"
   256                           CCPR1H equ 016h ;# 
   257  0016                     # 908 "C:\Program Files (x86)\Microchip\xc8\v2.00\pic\include\pic16f877a.h"
   258                           CCP1CON equ 017h ;# 
   259  0017                     # 966 "C:\Program Files (x86)\Microchip\xc8\v2.00\pic\include\pic16f877a.h"
   260                           RCSTA equ 018h ;# 
   261  0018                     # 1061 "C:\Program Files (x86)\Microchip\xc8\v2.00\pic\include\pic16f877a.h"
   262                           TXREG equ 019h ;# 
   263  0019                     # 1068 "C:\Program Files (x86)\Microchip\xc8\v2.00\pic\include\pic16f877a.h"
   264                           RCREG equ 01Ah ;# 
   265  001A                     # 1075 "C:\Program Files (x86)\Microchip\xc8\v2.00\pic\include\pic16f877a.h"
   266                           CCPR2 equ 01Bh ;# 
   267  001B                     # 1082 "C:\Program Files (x86)\Microchip\xc8\v2.00\pic\include\pic16f877a.h"
   268                           CCPR2L equ 01Bh ;# 
   269  001B                     # 1089 "C:\Program Files (x86)\Microchip\xc8\v2.00\pic\include\pic16f877a.h"
   270                           CCPR2H equ 01Ch ;# 
   271  001C                     # 1096 "C:\Program Files (x86)\Microchip\xc8\v2.00\pic\include\pic16f877a.h"
   272                           CCP2CON equ 01Dh ;# 
   273  001D                     # 1154 "C:\Program Files (x86)\Microchip\xc8\v2.00\pic\include\pic16f877a.h"
   274                           ADRESH equ 01Eh ;# 
   275  001E                     # 1161 "C:\Program Files (x86)\Microchip\xc8\v2.00\pic\include\pic16f877a.h"
   276                           ADCON0 equ 01Fh ;# 
   277  001F                     # 1257 "C:\Program Files (x86)\Microchip\xc8\v2.00\pic\include\pic16f877a.h"
   278                           OPTION_REG equ 081h ;# 
   279  0081                     # 1327 "C:\Program Files (x86)\Microchip\xc8\v2.00\pic\include\pic16f877a.h"
   280                           TRISA equ 085h ;# 
   281  0085                     # 1377 "C:\Program Files (x86)\Microchip\xc8\v2.00\pic\include\pic16f877a.h"
   282                           TRISB equ 086h ;# 
   283  0086                     # 1439 "C:\Program Files (x86)\Microchip\xc8\v2.00\pic\include\pic16f877a.h"
   284                           TRISC equ 087h ;# 
   285  0087                     # 1501 "C:\Program Files (x86)\Microchip\xc8\v2.00\pic\include\pic16f877a.h"
   286                           TRISD equ 088h ;# 
   287  0088                     # 1563 "C:\Program Files (x86)\Microchip\xc8\v2.00\pic\include\pic16f877a.h"
   288                           TRISE equ 089h ;# 
   289  0089                     # 1620 "C:\Program Files (x86)\Microchip\xc8\v2.00\pic\include\pic16f877a.h"
   290                           PIE1 equ 08Ch ;# 
   291  008C                     # 1682 "C:\Program Files (x86)\Microchip\xc8\v2.00\pic\include\pic16f877a.h"
   292                           PIE2 equ 08Dh ;# 
   293  008D                     # 1722 "C:\Program Files (x86)\Microchip\xc8\v2.00\pic\include\pic16f877a.h"
   294                           PCON equ 08Eh ;# 
   295  008E                     # 1756 "C:\Program Files (x86)\Microchip\xc8\v2.00\pic\include\pic16f877a.h"
   296                           SSPCON2 equ 091h ;# 
   297  0091                     # 1818 "C:\Program Files (x86)\Microchip\xc8\v2.00\pic\include\pic16f877a.h"
   298                           PR2 equ 092h ;# 
   299  0092                     # 1825 "C:\Program Files (x86)\Microchip\xc8\v2.00\pic\include\pic16f877a.h"
   300                           SSPADD equ 093h ;# 
   301  0093                     # 1832 "C:\Program Files (x86)\Microchip\xc8\v2.00\pic\include\pic16f877a.h"
   302                           SSPSTAT equ 094h ;# 
   303  0094                     # 2001 "C:\Program Files (x86)\Microchip\xc8\v2.00\pic\include\pic16f877a.h"
   304                           TXSTA equ 098h ;# 
   305  0098                     # 2082 "C:\Program Files (x86)\Microchip\xc8\v2.00\pic\include\pic16f877a.h"
   306                           SPBRG equ 099h ;# 
   307  0099                     # 2089 "C:\Program Files (x86)\Microchip\xc8\v2.00\pic\include\pic16f877a.h"
   308                           CMCON equ 09Ch ;# 
   309  009C                     # 2159 "C:\Program Files (x86)\Microchip\xc8\v2.00\pic\include\pic16f877a.h"
   310                           CVRCON equ 09Dh ;# 
   311  009D                     # 2224 "C:\Program Files (x86)\Microchip\xc8\v2.00\pic\include\pic16f877a.h"
   312                           ADRESL equ 09Eh ;# 
   313  009E                     # 2231 "C:\Program Files (x86)\Microchip\xc8\v2.00\pic\include\pic16f877a.h"
   314                           ADCON1 equ 09Fh ;# 
   315  009F                     # 2290 "C:\Program Files (x86)\Microchip\xc8\v2.00\pic\include\pic16f877a.h"
   316                           EEDATA equ 010Ch ;# 
   317  010C                     # 2297 "C:\Program Files (x86)\Microchip\xc8\v2.00\pic\include\pic16f877a.h"
   318                           EEADR equ 010Dh ;# 
   319  010D                     # 2304 "C:\Program Files (x86)\Microchip\xc8\v2.00\pic\include\pic16f877a.h"
   320                           EEDATH equ 010Eh ;# 
   321  010E                     # 2311 "C:\Program Files (x86)\Microchip\xc8\v2.00\pic\include\pic16f877a.h"
   322                           EEADRH equ 010Fh ;# 
   323  010F                     # 2318 "C:\Program Files (x86)\Microchip\xc8\v2.00\pic\include\pic16f877a.h"
   324                           EECON1 equ 018Ch ;# 
   325  018C                     # 2363 "C:\Program Files (x86)\Microchip\xc8\v2.00\pic\include\pic16f877a.h"
   326                           EECON2 equ 018Dh ;# 
   327  018D                     # 54 "C:\Program Files (x86)\Microchip\xc8\v2.00\pic\include\pic16f877a.h"
   328                           INDF equ 00h ;# 
   329  0000                     # 61 "C:\Program Files (x86)\Microchip\xc8\v2.00\pic\include\pic16f877a.h"
   330                           TMR0 equ 01h ;# 
   331  0001                     # 68 "C:\Program Files (x86)\Microchip\xc8\v2.00\pic\include\pic16f877a.h"
   332                           PCL equ 02h ;# 
   333  0002                     # 75 "C:\Program Files (x86)\Microchip\xc8\v2.00\pic\include\pic16f877a.h"
   334                           STATUS equ 03h ;# 
   335  0003                     # 161 "C:\Program Files (x86)\Microchip\xc8\v2.00\pic\include\pic16f877a.h"
   336                           FSR equ 04h ;# 
   337  0004                     # 168 "C:\Program Files (x86)\Microchip\xc8\v2.00\pic\include\pic16f877a.h"
   338                           PORTA equ 05h ;# 
   339  0005                     # 218 "C:\Program Files (x86)\Microchip\xc8\v2.00\pic\include\pic16f877a.h"
   340                           PORTB equ 06h ;# 
   341  0006                     # 280 "C:\Program Files (x86)\Microchip\xc8\v2.00\pic\include\pic16f877a.h"
   342                           PORTC equ 07h ;# 
   343  0007                     # 342 "C:\Program Files (x86)\Microchip\xc8\v2.00\pic\include\pic16f877a.h"
   344                           PORTD equ 08h ;# 
   345  0008                     # 404 "C:\Program Files (x86)\Microchip\xc8\v2.00\pic\include\pic16f877a.h"
   346                           PORTE equ 09h ;# 
   347  0009                     # 436 "C:\Program Files (x86)\Microchip\xc8\v2.00\pic\include\pic16f877a.h"
   348                           PCLATH equ 0Ah ;# 
   349  000A                     # 456 "C:\Program Files (x86)\Microchip\xc8\v2.00\pic\include\pic16f877a.h"
   350                           INTCON equ 0Bh ;# 
   351  000B                     # 534 "C:\Program Files (x86)\Microchip\xc8\v2.00\pic\include\pic16f877a.h"
   352                           PIR1 equ 0Ch ;# 
   353  000C                     # 596 "C:\Program Files (x86)\Microchip\xc8\v2.00\pic\include\pic16f877a.h"
   354                           PIR2 equ 0Dh ;# 
   355  000D                     # 636 "C:\Program Files (x86)\Microchip\xc8\v2.00\pic\include\pic16f877a.h"
   356                           TMR1 equ 0Eh ;# 
   357  000E                     # 643 "C:\Program Files (x86)\Microchip\xc8\v2.00\pic\include\pic16f877a.h"
   358                           TMR1L equ 0Eh ;# 
   359  000E                     # 650 "C:\Program Files (x86)\Microchip\xc8\v2.00\pic\include\pic16f877a.h"
   360                           TMR1H equ 0Fh ;# 
   361  000F                     # 657 "C:\Program Files (x86)\Microchip\xc8\v2.00\pic\include\pic16f877a.h"
   362                           T1CON equ 010h ;# 
   363  0010                     # 732 "C:\Program Files (x86)\Microchip\xc8\v2.00\pic\include\pic16f877a.h"
   364                           TMR2 equ 011h ;# 
   365  0011                     # 739 "C:\Program Files (x86)\Microchip\xc8\v2.00\pic\include\pic16f877a.h"
   366                           T2CON equ 012h ;# 
   367  0012                     # 810 "C:\Program Files (x86)\Microchip\xc8\v2.00\pic\include\pic16f877a.h"
   368                           SSPBUF equ 013h ;# 
   369  0013                     # 817 "C:\Program Files (x86)\Microchip\xc8\v2.00\pic\include\pic16f877a.h"
   370                           SSPCON equ 014h ;# 
   371  0014                     # 887 "C:\Program Files (x86)\Microchip\xc8\v2.00\pic\include\pic16f877a.h"
   372                           CCPR1 equ 015h ;# 
   373  0015                     # 894 "C:\Program Files (x86)\Microchip\xc8\v2.00\pic\include\pic16f877a.h"
   374                           CCPR1L equ 015h ;# 
   375  0015                     # 901 "C:\Program Files (x86)\Microchip\xc8\v2.00\pic\include\pic16f877a.h"
   376                           CCPR1H equ 016h ;# 
   377  0016                     # 908 "C:\Program Files (x86)\Microchip\xc8\v2.00\pic\include\pic16f877a.h"
   378                           CCP1CON equ 017h ;# 
   379  0017                     # 966 "C:\Program Files (x86)\Microchip\xc8\v2.00\pic\include\pic16f877a.h"
   380                           RCSTA equ 018h ;# 
   381  0018                     # 1061 "C:\Program Files (x86)\Microchip\xc8\v2.00\pic\include\pic16f877a.h"
   382                           TXREG equ 019h ;# 
   383  0019                     # 1068 "C:\Program Files (x86)\Microchip\xc8\v2.00\pic\include\pic16f877a.h"
   384                           RCREG equ 01Ah ;# 
   385  001A                     # 1075 "C:\Program Files (x86)\Microchip\xc8\v2.00\pic\include\pic16f877a.h"
   386                           CCPR2 equ 01Bh ;# 
   387  001B                     # 1082 "C:\Program Files (x86)\Microchip\xc8\v2.00\pic\include\pic16f877a.h"
   388                           CCPR2L equ 01Bh ;# 
   389  001B                     # 1089 "C:\Program Files (x86)\Microchip\xc8\v2.00\pic\include\pic16f877a.h"
   390                           CCPR2H equ 01Ch ;# 
   391  001C                     # 1096 "C:\Program Files (x86)\Microchip\xc8\v2.00\pic\include\pic16f877a.h"
   392                           CCP2CON equ 01Dh ;# 
   393  001D                     # 1154 "C:\Program Files (x86)\Microchip\xc8\v2.00\pic\include\pic16f877a.h"
   394                           ADRESH equ 01Eh ;# 
   395  001E                     # 1161 "C:\Program Files (x86)\Microchip\xc8\v2.00\pic\include\pic16f877a.h"
   396                           ADCON0 equ 01Fh ;# 
   397  001F                     # 1257 "C:\Program Files (x86)\Microchip\xc8\v2.00\pic\include\pic16f877a.h"
   398                           OPTION_REG equ 081h ;# 
   399  0081                     # 1327 "C:\Program Files (x86)\Microchip\xc8\v2.00\pic\include\pic16f877a.h"
   400                           TRISA equ 085h ;# 
   401  0085                     # 1377 "C:\Program Files (x86)\Microchip\xc8\v2.00\pic\include\pic16f877a.h"
   402                           TRISB equ 086h ;# 
   403  0086                     # 1439 "C:\Program Files (x86)\Microchip\xc8\v2.00\pic\include\pic16f877a.h"
   404                           TRISC equ 087h ;# 
   405  0087                     # 1501 "C:\Program Files (x86)\Microchip\xc8\v2.00\pic\include\pic16f877a.h"
   406                           TRISD equ 088h ;# 
   407  0088                     # 1563 "C:\Program Files (x86)\Microchip\xc8\v2.00\pic\include\pic16f877a.h"
   408                           TRISE equ 089h ;# 
   409  0089                     # 1620 "C:\Program Files (x86)\Microchip\xc8\v2.00\pic\include\pic16f877a.h"
   410                           PIE1 equ 08Ch ;# 
   411  008C                     # 1682 "C:\Program Files (x86)\Microchip\xc8\v2.00\pic\include\pic16f877a.h"
   412                           PIE2 equ 08Dh ;# 
   413  008D                     # 1722 "C:\Program Files (x86)\Microchip\xc8\v2.00\pic\include\pic16f877a.h"
   414                           PCON equ 08Eh ;# 
   415  008E                     # 1756 "C:\Program Files (x86)\Microchip\xc8\v2.00\pic\include\pic16f877a.h"
   416                           SSPCON2 equ 091h ;# 
   417  0091                     # 1818 "C:\Program Files (x86)\Microchip\xc8\v2.00\pic\include\pic16f877a.h"
   418                           PR2 equ 092h ;# 
   419  0092                     # 1825 "C:\Program Files (x86)\Microchip\xc8\v2.00\pic\include\pic16f877a.h"
   420                           SSPADD equ 093h ;# 
   421  0093                     # 1832 "C:\Program Files (x86)\Microchip\xc8\v2.00\pic\include\pic16f877a.h"
   422                           SSPSTAT equ 094h ;# 
   423  0094                     # 2001 "C:\Program Files (x86)\Microchip\xc8\v2.00\pic\include\pic16f877a.h"
   424                           TXSTA equ 098h ;# 
   425  0098                     # 2082 "C:\Program Files (x86)\Microchip\xc8\v2.00\pic\include\pic16f877a.h"
   426                           SPBRG equ 099h ;# 
   427  0099                     # 2089 "C:\Program Files (x86)\Microchip\xc8\v2.00\pic\include\pic16f877a.h"
   428                           CMCON equ 09Ch ;# 
   429  009C                     # 2159 "C:\Program Files (x86)\Microchip\xc8\v2.00\pic\include\pic16f877a.h"
   430                           CVRCON equ 09Dh ;# 
   431  009D                     # 2224 "C:\Program Files (x86)\Microchip\xc8\v2.00\pic\include\pic16f877a.h"
   432                           ADRESL equ 09Eh ;# 
   433  009E                     # 2231 "C:\Program Files (x86)\Microchip\xc8\v2.00\pic\include\pic16f877a.h"
   434                           ADCON1 equ 09Fh ;# 
   435  009F                     # 2290 "C:\Program Files (x86)\Microchip\xc8\v2.00\pic\include\pic16f877a.h"
   436                           EEDATA equ 010Ch ;# 
   437  010C                     # 2297 "C:\Program Files (x86)\Microchip\xc8\v2.00\pic\include\pic16f877a.h"
   438                           EEADR equ 010Dh ;# 
   439  010D                     # 2304 "C:\Program Files (x86)\Microchip\xc8\v2.00\pic\include\pic16f877a.h"
   440                           EEDATH equ 010Eh ;# 
   441  010E                     # 2311 "C:\Program Files (x86)\Microchip\xc8\v2.00\pic\include\pic16f877a.h"
   442                           EEADRH equ 010Fh ;# 
   443  010F                     # 2318 "C:\Program Files (x86)\Microchip\xc8\v2.00\pic\include\pic16f877a.h"
   444                           EECON1 equ 018Ch ;# 
   445  018C                     # 2363 "C:\Program Files (x86)\Microchip\xc8\v2.00\pic\include\pic16f877a.h"
   446                           EECON2 equ 018Dh ;# 
   447  018D                     # 54 "C:\Program Files (x86)\Microchip\xc8\v2.00\pic\include\pic16f877a.h"
   448                           INDF equ 00h ;# 
   449  0000                     # 61 "C:\Program Files (x86)\Microchip\xc8\v2.00\pic\include\pic16f877a.h"
   450                           TMR0 equ 01h ;# 
   451  0001                     # 68 "C:\Program Files (x86)\Microchip\xc8\v2.00\pic\include\pic16f877a.h"
   452                           PCL equ 02h ;# 
   453  0002                     # 75 "C:\Program Files (x86)\Microchip\xc8\v2.00\pic\include\pic16f877a.h"
   454                           STATUS equ 03h ;# 
   455  0003                     # 161 "C:\Program Files (x86)\Microchip\xc8\v2.00\pic\include\pic16f877a.h"
   456                           FSR equ 04h ;# 
   457  0004                     # 168 "C:\Program Files (x86)\Microchip\xc8\v2.00\pic\include\pic16f877a.h"
   458                           PORTA equ 05h ;# 
   459  0005                     # 218 "C:\Program Files (x86)\Microchip\xc8\v2.00\pic\include\pic16f877a.h"
   460                           PORTB equ 06h ;# 
   461  0006                     # 280 "C:\Program Files (x86)\Microchip\xc8\v2.00\pic\include\pic16f877a.h"
   462                           PORTC equ 07h ;# 
   463  0007                     # 342 "C:\Program Files (x86)\Microchip\xc8\v2.00\pic\include\pic16f877a.h"
   464                           PORTD equ 08h ;# 
   465  0008                     # 404 "C:\Program Files (x86)\Microchip\xc8\v2.00\pic\include\pic16f877a.h"
   466                           PORTE equ 09h ;# 
   467  0009                     # 436 "C:\Program Files (x86)\Microchip\xc8\v2.00\pic\include\pic16f877a.h"
   468                           PCLATH equ 0Ah ;# 
   469  000A                     # 456 "C:\Program Files (x86)\Microchip\xc8\v2.00\pic\include\pic16f877a.h"
   470                           INTCON equ 0Bh ;# 
   471  000B                     # 534 "C:\Program Files (x86)\Microchip\xc8\v2.00\pic\include\pic16f877a.h"
   472                           PIR1 equ 0Ch ;# 
   473  000C                     # 596 "C:\Program Files (x86)\Microchip\xc8\v2.00\pic\include\pic16f877a.h"
   474                           PIR2 equ 0Dh ;# 
   475  000D                     # 636 "C:\Program Files (x86)\Microchip\xc8\v2.00\pic\include\pic16f877a.h"
   476                           TMR1 equ 0Eh ;# 
   477  000E                     # 643 "C:\Program Files (x86)\Microchip\xc8\v2.00\pic\include\pic16f877a.h"
   478                           TMR1L equ 0Eh ;# 
   479  000E                     # 650 "C:\Program Files (x86)\Microchip\xc8\v2.00\pic\include\pic16f877a.h"
   480                           TMR1H equ 0Fh ;# 
   481  000F                     # 657 "C:\Program Files (x86)\Microchip\xc8\v2.00\pic\include\pic16f877a.h"
   482                           T1CON equ 010h ;# 
   483  0010                     # 732 "C:\Program Files (x86)\Microchip\xc8\v2.00\pic\include\pic16f877a.h"
   484                           TMR2 equ 011h ;# 
   485  0011                     # 739 "C:\Program Files (x86)\Microchip\xc8\v2.00\pic\include\pic16f877a.h"
   486                           T2CON equ 012h ;# 
   487  0012                     # 810 "C:\Program Files (x86)\Microchip\xc8\v2.00\pic\include\pic16f877a.h"
   488                           SSPBUF equ 013h ;# 
   489  0013                     # 817 "C:\Program Files (x86)\Microchip\xc8\v2.00\pic\include\pic16f877a.h"
   490                           SSPCON equ 014h ;# 
   491  0014                     # 887 "C:\Program Files (x86)\Microchip\xc8\v2.00\pic\include\pic16f877a.h"
   492                           CCPR1 equ 015h ;# 
   493  0015                     # 894 "C:\Program Files (x86)\Microchip\xc8\v2.00\pic\include\pic16f877a.h"
   494                           CCPR1L equ 015h ;# 
   495  0015                     # 901 "C:\Program Files (x86)\Microchip\xc8\v2.00\pic\include\pic16f877a.h"
   496                           CCPR1H equ 016h ;# 
   497  0016                     # 908 "C:\Program Files (x86)\Microchip\xc8\v2.00\pic\include\pic16f877a.h"
   498                           CCP1CON equ 017h ;# 
   499  0017                     # 966 "C:\Program Files (x86)\Microchip\xc8\v2.00\pic\include\pic16f877a.h"
   500                           RCSTA equ 018h ;# 
   501  0018                     # 1061 "C:\Program Files (x86)\Microchip\xc8\v2.00\pic\include\pic16f877a.h"
   502                           TXREG equ 019h ;# 
   503  0019                     # 1068 "C:\Program Files (x86)\Microchip\xc8\v2.00\pic\include\pic16f877a.h"
   504                           RCREG equ 01Ah ;# 
   505  001A                     # 1075 "C:\Program Files (x86)\Microchip\xc8\v2.00\pic\include\pic16f877a.h"
   506                           CCPR2 equ 01Bh ;# 
   507  001B                     # 1082 "C:\Program Files (x86)\Microchip\xc8\v2.00\pic\include\pic16f877a.h"
   508                           CCPR2L equ 01Bh ;# 
   509  001B                     # 1089 "C:\Program Files (x86)\Microchip\xc8\v2.00\pic\include\pic16f877a.h"
   510                           CCPR2H equ 01Ch ;# 
   511  001C                     # 1096 "C:\Program Files (x86)\Microchip\xc8\v2.00\pic\include\pic16f877a.h"
   512                           CCP2CON equ 01Dh ;# 
   513  001D                     # 1154 "C:\Program Files (x86)\Microchip\xc8\v2.00\pic\include\pic16f877a.h"
   514                           ADRESH equ 01Eh ;# 
   515  001E                     # 1161 "C:\Program Files (x86)\Microchip\xc8\v2.00\pic\include\pic16f877a.h"
   516                           ADCON0 equ 01Fh ;# 
   517  001F                     # 1257 "C:\Program Files (x86)\Microchip\xc8\v2.00\pic\include\pic16f877a.h"
   518                           OPTION_REG equ 081h ;# 
   519  0081                     # 1327 "C:\Program Files (x86)\Microchip\xc8\v2.00\pic\include\pic16f877a.h"
   520                           TRISA equ 085h ;# 
   521  0085                     # 1377 "C:\Program Files (x86)\Microchip\xc8\v2.00\pic\include\pic16f877a.h"
   522                           TRISB equ 086h ;# 
   523  0086                     # 1439 "C:\Program Files (x86)\Microchip\xc8\v2.00\pic\include\pic16f877a.h"
   524                           TRISC equ 087h ;# 
   525  0087                     # 1501 "C:\Program Files (x86)\Microchip\xc8\v2.00\pic\include\pic16f877a.h"
   526                           TRISD equ 088h ;# 
   527  0088                     # 1563 "C:\Program Files (x86)\Microchip\xc8\v2.00\pic\include\pic16f877a.h"
   528                           TRISE equ 089h ;# 
   529  0089                     # 1620 "C:\Program Files (x86)\Microchip\xc8\v2.00\pic\include\pic16f877a.h"
   530                           PIE1 equ 08Ch ;# 
   531  008C                     # 1682 "C:\Program Files (x86)\Microchip\xc8\v2.00\pic\include\pic16f877a.h"
   532                           PIE2 equ 08Dh ;# 
   533  008D                     # 1722 "C:\Program Files (x86)\Microchip\xc8\v2.00\pic\include\pic16f877a.h"
   534                           PCON equ 08Eh ;# 
   535  008E                     # 1756 "C:\Program Files (x86)\Microchip\xc8\v2.00\pic\include\pic16f877a.h"
   536                           SSPCON2 equ 091h ;# 
   537  0091                     # 1818 "C:\Program Files (x86)\Microchip\xc8\v2.00\pic\include\pic16f877a.h"
   538                           PR2 equ 092h ;# 
   539  0092                     # 1825 "C:\Program Files (x86)\Microchip\xc8\v2.00\pic\include\pic16f877a.h"
   540                           SSPADD equ 093h ;# 
   541  0093                     # 1832 "C:\Program Files (x86)\Microchip\xc8\v2.00\pic\include\pic16f877a.h"
   542                           SSPSTAT equ 094h ;# 
   543  0094                     # 2001 "C:\Program Files (x86)\Microchip\xc8\v2.00\pic\include\pic16f877a.h"
   544                           TXSTA equ 098h ;# 
   545  0098                     # 2082 "C:\Program Files (x86)\Microchip\xc8\v2.00\pic\include\pic16f877a.h"
   546                           SPBRG equ 099h ;# 
   547  0099                     # 2089 "C:\Program Files (x86)\Microchip\xc8\v2.00\pic\include\pic16f877a.h"
   548                           CMCON equ 09Ch ;# 
   549  009C                     # 2159 "C:\Program Files (x86)\Microchip\xc8\v2.00\pic\include\pic16f877a.h"
   550                           CVRCON equ 09Dh ;# 
   551  009D                     # 2224 "C:\Program Files (x86)\Microchip\xc8\v2.00\pic\include\pic16f877a.h"
   552                           ADRESL equ 09Eh ;# 
   553  009E                     # 2231 "C:\Program Files (x86)\Microchip\xc8\v2.00\pic\include\pic16f877a.h"
   554                           ADCON1 equ 09Fh ;# 
   555  009F                     # 2290 "C:\Program Files (x86)\Microchip\xc8\v2.00\pic\include\pic16f877a.h"
   556                           EEDATA equ 010Ch ;# 
   557  010C                     # 2297 "C:\Program Files (x86)\Microchip\xc8\v2.00\pic\include\pic16f877a.h"
   558                           EEADR equ 010Dh ;# 
   559  010D                     # 2304 "C:\Program Files (x86)\Microchip\xc8\v2.00\pic\include\pic16f877a.h"
   560                           EEDATH equ 010Eh ;# 
   561  010E                     # 2311 "C:\Program Files (x86)\Microchip\xc8\v2.00\pic\include\pic16f877a.h"
   562                           EEADRH equ 010Fh ;# 
   563  010F                     # 2318 "C:\Program Files (x86)\Microchip\xc8\v2.00\pic\include\pic16f877a.h"
   564                           EECON1 equ 018Ch ;# 
   565  018C                     # 2363 "C:\Program Files (x86)\Microchip\xc8\v2.00\pic\include\pic16f877a.h"
   566                           EECON2 equ 018Dh ;# 
   567  018D                     # 54 "C:\Program Files (x86)\Microchip\xc8\v2.00\pic\include\pic16f877a.h"
   568                           INDF equ 00h ;# 
   569  0000                     # 61 "C:\Program Files (x86)\Microchip\xc8\v2.00\pic\include\pic16f877a.h"
   570                           TMR0 equ 01h ;# 
   571  0001                     # 68 "C:\Program Files (x86)\Microchip\xc8\v2.00\pic\include\pic16f877a.h"
   572                           PCL equ 02h ;# 
   573  0002                     # 75 "C:\Program Files (x86)\Microchip\xc8\v2.00\pic\include\pic16f877a.h"
   574                           STATUS equ 03h ;# 
   575  0003                     # 161 "C:\Program Files (x86)\Microchip\xc8\v2.00\pic\include\pic16f877a.h"
   576                           FSR equ 04h ;# 
   577  0004                     # 168 "C:\Program Files (x86)\Microchip\xc8\v2.00\pic\include\pic16f877a.h"
   578                           PORTA equ 05h ;# 
   579  0005                     # 218 "C:\Program Files (x86)\Microchip\xc8\v2.00\pic\include\pic16f877a.h"
   580                           PORTB equ 06h ;# 
   581  0006                     # 280 "C:\Program Files (x86)\Microchip\xc8\v2.00\pic\include\pic16f877a.h"
   582                           PORTC equ 07h ;# 
   583  0007                     # 342 "C:\Program Files (x86)\Microchip\xc8\v2.00\pic\include\pic16f877a.h"
   584                           PORTD equ 08h ;# 
   585  0008                     # 404 "C:\Program Files (x86)\Microchip\xc8\v2.00\pic\include\pic16f877a.h"
   586                           PORTE equ 09h ;# 
   587  0009                     # 436 "C:\Program Files (x86)\Microchip\xc8\v2.00\pic\include\pic16f877a.h"
   588                           PCLATH equ 0Ah ;# 
   589  000A                     # 456 "C:\Program Files (x86)\Microchip\xc8\v2.00\pic\include\pic16f877a.h"
   590                           INTCON equ 0Bh ;# 
   591  000B                     # 534 "C:\Program Files (x86)\Microchip\xc8\v2.00\pic\include\pic16f877a.h"
   592                           PIR1 equ 0Ch ;# 
   593  000C                     # 596 "C:\Program Files (x86)\Microchip\xc8\v2.00\pic\include\pic16f877a.h"
   594                           PIR2 equ 0Dh ;# 
   595  000D                     # 636 "C:\Program Files (x86)\Microchip\xc8\v2.00\pic\include\pic16f877a.h"
   596                           TMR1 equ 0Eh ;# 
   597  000E                     # 643 "C:\Program Files (x86)\Microchip\xc8\v2.00\pic\include\pic16f877a.h"
   598                           TMR1L equ 0Eh ;# 
   599  000E                     # 650 "C:\Program Files (x86)\Microchip\xc8\v2.00\pic\include\pic16f877a.h"
   600                           TMR1H equ 0Fh ;# 
   601  000F                     # 657 "C:\Program Files (x86)\Microchip\xc8\v2.00\pic\include\pic16f877a.h"
   602                           T1CON equ 010h ;# 
   603  0010                     # 732 "C:\Program Files (x86)\Microchip\xc8\v2.00\pic\include\pic16f877a.h"
   604                           TMR2 equ 011h ;# 
   605  0011                     # 739 "C:\Program Files (x86)\Microchip\xc8\v2.00\pic\include\pic16f877a.h"
   606                           T2CON equ 012h ;# 
   607  0012                     # 810 "C:\Program Files (x86)\Microchip\xc8\v2.00\pic\include\pic16f877a.h"
   608                           SSPBUF equ 013h ;# 
   609  0013                     # 817 "C:\Program Files (x86)\Microchip\xc8\v2.00\pic\include\pic16f877a.h"
   610                           SSPCON equ 014h ;# 
   611  0014                     # 887 "C:\Program Files (x86)\Microchip\xc8\v2.00\pic\include\pic16f877a.h"
   612                           CCPR1 equ 015h ;# 
   613  0015                     # 894 "C:\Program Files (x86)\Microchip\xc8\v2.00\pic\include\pic16f877a.h"
   614                           CCPR1L equ 015h ;# 
   615  0015                     # 901 "C:\Program Files (x86)\Microchip\xc8\v2.00\pic\include\pic16f877a.h"
   616                           CCPR1H equ 016h ;# 
   617  0016                     # 908 "C:\Program Files (x86)\Microchip\xc8\v2.00\pic\include\pic16f877a.h"
   618                           CCP1CON equ 017h ;# 
   619  0017                     # 966 "C:\Program Files (x86)\Microchip\xc8\v2.00\pic\include\pic16f877a.h"
   620                           RCSTA equ 018h ;# 
   621  0018                     # 1061 "C:\Program Files (x86)\Microchip\xc8\v2.00\pic\include\pic16f877a.h"
   622                           TXREG equ 019h ;# 
   623  0019                     # 1068 "C:\Program Files (x86)\Microchip\xc8\v2.00\pic\include\pic16f877a.h"
   624                           RCREG equ 01Ah ;# 
   625  001A                     # 1075 "C:\Program Files (x86)\Microchip\xc8\v2.00\pic\include\pic16f877a.h"
   626                           CCPR2 equ 01Bh ;# 
   627  001B                     # 1082 "C:\Program Files (x86)\Microchip\xc8\v2.00\pic\include\pic16f877a.h"
   628                           CCPR2L equ 01Bh ;# 
   629  001B                     # 1089 "C:\Program Files (x86)\Microchip\xc8\v2.00\pic\include\pic16f877a.h"
   630                           CCPR2H equ 01Ch ;# 
   631  001C                     # 1096 "C:\Program Files (x86)\Microchip\xc8\v2.00\pic\include\pic16f877a.h"
   632                           CCP2CON equ 01Dh ;# 
   633  001D                     # 1154 "C:\Program Files (x86)\Microchip\xc8\v2.00\pic\include\pic16f877a.h"
   634                           ADRESH equ 01Eh ;# 
   635  001E                     # 1161 "C:\Program Files (x86)\Microchip\xc8\v2.00\pic\include\pic16f877a.h"
   636                           ADCON0 equ 01Fh ;# 
   637  001F                     # 1257 "C:\Program Files (x86)\Microchip\xc8\v2.00\pic\include\pic16f877a.h"
   638                           OPTION_REG equ 081h ;# 
   639  0081                     # 1327 "C:\Program Files (x86)\Microchip\xc8\v2.00\pic\include\pic16f877a.h"
   640                           TRISA equ 085h ;# 
   641  0085                     # 1377 "C:\Program Files (x86)\Microchip\xc8\v2.00\pic\include\pic16f877a.h"
   642                           TRISB equ 086h ;# 
   643  0086                     # 1439 "C:\Program Files (x86)\Microchip\xc8\v2.00\pic\include\pic16f877a.h"
   644                           TRISC equ 087h ;# 
   645  0087                     # 1501 "C:\Program Files (x86)\Microchip\xc8\v2.00\pic\include\pic16f877a.h"
   646                           TRISD equ 088h ;# 
   647  0088                     # 1563 "C:\Program Files (x86)\Microchip\xc8\v2.00\pic\include\pic16f877a.h"
   648                           TRISE equ 089h ;# 
   649  0089                     # 1620 "C:\Program Files (x86)\Microchip\xc8\v2.00\pic\include\pic16f877a.h"
   650                           PIE1 equ 08Ch ;# 
   651  008C                     # 1682 "C:\Program Files (x86)\Microchip\xc8\v2.00\pic\include\pic16f877a.h"
   652                           PIE2 equ 08Dh ;# 
   653  008D                     # 1722 "C:\Program Files (x86)\Microchip\xc8\v2.00\pic\include\pic16f877a.h"
   654                           PCON equ 08Eh ;# 
   655  008E                     # 1756 "C:\Program Files (x86)\Microchip\xc8\v2.00\pic\include\pic16f877a.h"
   656                           SSPCON2 equ 091h ;# 
   657  0091                     # 1818 "C:\Program Files (x86)\Microchip\xc8\v2.00\pic\include\pic16f877a.h"
   658                           PR2 equ 092h ;# 
   659  0092                     # 1825 "C:\Program Files (x86)\Microchip\xc8\v2.00\pic\include\pic16f877a.h"
   660                           SSPADD equ 093h ;# 
   661  0093                     # 1832 "C:\Program Files (x86)\Microchip\xc8\v2.00\pic\include\pic16f877a.h"
   662                           SSPSTAT equ 094h ;# 
   663  0094                     # 2001 "C:\Program Files (x86)\Microchip\xc8\v2.00\pic\include\pic16f877a.h"
   664                           TXSTA equ 098h ;# 
   665  0098                     # 2082 "C:\Program Files (x86)\Microchip\xc8\v2.00\pic\include\pic16f877a.h"
   666                           SPBRG equ 099h ;# 
   667  0099                     # 2089 "C:\Program Files (x86)\Microchip\xc8\v2.00\pic\include\pic16f877a.h"
   668                           CMCON equ 09Ch ;# 
   669  009C                     # 2159 "C:\Program Files (x86)\Microchip\xc8\v2.00\pic\include\pic16f877a.h"
   670                           CVRCON equ 09Dh ;# 
   671  009D                     # 2224 "C:\Program Files (x86)\Microchip\xc8\v2.00\pic\include\pic16f877a.h"
   672                           ADRESL equ 09Eh ;# 
   673  009E                     # 2231 "C:\Program Files (x86)\Microchip\xc8\v2.00\pic\include\pic16f877a.h"
   674                           ADCON1 equ 09Fh ;# 
   675  009F                     # 2290 "C:\Program Files (x86)\Microchip\xc8\v2.00\pic\include\pic16f877a.h"
   676                           EEDATA equ 010Ch ;# 
   677  010C                     # 2297 "C:\Program Files (x86)\Microchip\xc8\v2.00\pic\include\pic16f877a.h"
   678                           EEADR equ 010Dh ;# 
   679  010D                     # 2304 "C:\Program Files (x86)\Microchip\xc8\v2.00\pic\include\pic16f877a.h"
   680                           EEDATH equ 010Eh ;# 
   681  010E                     # 2311 "C:\Program Files (x86)\Microchip\xc8\v2.00\pic\include\pic16f877a.h"
   682                           EEADRH equ 010Fh ;# 
   683  010F                     # 2318 "C:\Program Files (x86)\Microchip\xc8\v2.00\pic\include\pic16f877a.h"
   684                           EECON1 equ 018Ch ;# 
   685  018C                     # 2363 "C:\Program Files (x86)\Microchip\xc8\v2.00\pic\include\pic16f877a.h"
   686                           EECON2 equ 018Dh ;# 
   687  018D                     	FNCALL	_main,_Initialization
   688                           	FNCALL	_main,_loop
   689                           	FNCALL	_main,_setup
   690                           	FNCALL	_setup,_ContadorBegin
   691                           	FNCALL	_setup,_IOConfiguration
   692                           	FNCALL	_setup,_KeypadBegin
   693                           	FNCALL	_setup,_SerialBegin
   694                           	FNCALL	_setup,_delay
   695                           	FNCALL	_setup,_lcdBegin
   696                           	FNCALL	_setup,_lcdClear
   697                           	FNCALL	_setup,_lcdPrint
   698                           	FNCALL	_setup,_lcdSetCursor
   699                           	FNCALL	_setup,_lcdWrite
   700                           	FNCALL	_lcdBegin,_WriteInstruction
   701                           	FNCALL	_lcdBegin,_delay
   702                           	FNCALL	_lcdBegin,_pinMode
   703                           	FNCALL	_SerialBegin,___aldiv
   704                           	FNCALL	_KeypadBegin,_pinMode
   705                           	FNCALL	_IOConfiguration,_digitalWrite
   706                           	FNCALL	_IOConfiguration,_pinMode
   707                           	FNCALL	_loop,_Contador
   708                           	FNCALL	_loop,_KeypadRead
   709                           	FNCALL	_loop,___bmul
   710                           	FNCALL	_loop,_delay
   711                           	FNCALL	_loop,_digitalRead
   712                           	FNCALL	_loop,_digitalWrite
   713                           	FNCALL	_loop,_lcdClear
   714                           	FNCALL	_loop,_lcdPrint
   715                           	FNCALL	_loop,_lcdSetCursor
   716                           	FNCALL	_loop,_sprintf
   717                           	FNCALL	_sprintf,___lwdiv
   718                           	FNCALL	_sprintf,___lwmod
   719                           	FNCALL	_lcdSetCursor,_WriteInstruction
   720                           	FNCALL	_lcdPrint,_lcdWrite
   721                           	FNCALL	_lcdWrite,_WriteData
   722                           	FNCALL	_lcdWrite,_delay
   723                           	FNCALL	_WriteData,_ByteByNibble
   724                           	FNCALL	_WriteData,_delay
   725                           	FNCALL	_WriteData,_digitalWrite
   726                           	FNCALL	_lcdClear,_WriteInstruction
   727                           	FNCALL	_WriteInstruction,_ByteByNibble
   728                           	FNCALL	_WriteInstruction,_delay
   729                           	FNCALL	_WriteInstruction,_digitalWrite
   730                           	FNCALL	_ByteByNibble,_digitalWrite
   731                           	FNCALL	_KeypadRead,_delay
   732                           	FNCALL	_KeypadRead,_digitalRead
   733                           	FNCALL	_KeypadRead,_digitalWrite
   734                           	FNCALL	_Initialization,_CCP1Configuration
   735                           	FNCALL	_Initialization,_CCP2Configuration
   736                           	FNROOT	_main
   737                           	global	_delaying
   738                           	global	_Tecla
   739                           	global	_characters
   740                           	global	_Teclas
   741                           psect	idataBANK0,class=CODE,space=0,delta=2,noexec
   742                           global __pidataBANK0
   743                           __pidataBANK0:
   744  0004                     	file	"Keypad4x4.c"
   745                           	line	13
   746                           
   747                           ;initializer for _delaying
   748                           	retlw	064h
   749  0004  3464               	retlw	0
   750  0005  3400               
   751                           	file	"ContadoraCanicas.c"
   752                           	line	16
   753                           
   754                           ;initializer for _Tecla
   755                           	retlw	06Eh
   756  0006  346E               psect	idataBANK1,class=CODE,space=0,delta=2,noexec
   757                           global __pidataBANK1
   758                           __pidataBANK1:
   759  1205                     	file	"Keypad4x4.c"
   760                           	line	4
   761                           
   762                           ;initializer for _characters
   763                           	retlw	030h
   764  1205  3430               	retlw	030h
   765  1206  3430               	retlw	030h
   766  1207  3430               	retlw	030h
   767  1208  3430               	retlw	030h
   768  1209  3430               	retlw	030h
   769  120A  3430               	retlw	030h
   770  120B  3430               	retlw	030h
   771  120C  3430               	retlw	030h
   772  120D  3430               	retlw	030h
   773  120E  3430               	retlw	030h
   774  120F  3430               	retlw	030h
   775  1210  3430               	retlw	030h
   776  1211  3430               	retlw	030h
   777  1212  3430               	retlw	030h
   778  1213  3430               	retlw	030h
   779  1214  3430               	file	"ContadoraCanicas.c"
   780                           	line	9
   781                           
   782                           ;initializer for _Teclas
   783                           	retlw	031h
   784  1215  3431               	retlw	032h
   785  1216  3432               	retlw	033h
   786  1217  3433               	retlw	041h
   787  1218  3441               	retlw	034h
   788  1219  3434               	retlw	035h
   789  121A  3435               	retlw	036h
   790  121B  3436               	retlw	042h
   791  121C  3442               	retlw	037h
   792  121D  3437               	retlw	038h
   793  121E  3438               	retlw	039h
   794  121F  3439               	retlw	043h
   795  1220  3443               	retlw	02Ah
   796  1221  342A               	retlw	030h
   797  1222  3430               	retlw	023h
   798  1223  3423               	retlw	044h
   799  1224  3444               	global	_dpowers
   800                           psect	strings,class=STRING,delta=2,noexec
   801                           global __pstrings
   802                           __pstrings:
   803  1000                     stringtab:
   804  1000                     	global    __stringtab
   805                           __stringtab:
   806  1000                     ;	String table - string pointers are 1 byte each
   807                           	btfsc	(btemp+1),7
   808  1000  1BFF               	ljmp	stringcode
   809  1001  280A               	bcf	status,7
   810  1002  1383               	btfsc	(btemp+1),0
   811  1003  187F               	bsf	status,7
   812  1004  1783               	movf	indf,w
   813  1005  0800               	incf fsr
   814  1006  0A84               skipnz
   815  1007  1903               incf btemp+1
   816  1008  0AFF               	return
   817  1009  0008               stringcode:stringdir:
   818  100A                     movlw high(stringdir)
      + 100A                     stringdir:	
   819  100A  3010               movwf pclath
   820  100B  008A               movf fsr,w
   821  100C  0804               incf fsr
   822  100D  0A84               	addwf pc
   823  100E  0782               	global __stringbase
   824                           __stringbase:
   825  100F                     	retlw	0
   826  100F  3400               psect	strings
   827                           	global    __end_of__stringtab
   828                           __end_of__stringtab:
   829  1010                     	file	"C:\Program Files (x86)\Microchip\xc8\v2.00\pic\sources\c90\common\doprnt.c"
   830                           	line	358
   831                           _dpowers:
   832  1010                     	retlw	01h
   833  1010  3401               	retlw	0
   834  1011  3400               
   835                           	retlw	0Ah
   836  1012  340A               	retlw	0
   837  1013  3400               
   838                           	retlw	064h
   839  1014  3464               	retlw	0
   840  1015  3400               
   841                           	retlw	0E8h
   842  1016  34E8               	retlw	03h
   843  1017  3403               
   844                           	retlw	010h
   845  1018  3410               	retlw	027h
   846  1019  3427               
   847                           	global __end_of_dpowers
   848                           __end_of_dpowers:
   849  101A                     	global	_SensorCajas
   850                           psect	strings
   851                           	file	"ContadoraCanicas.c"
   852                           	line	45
   853                           _SensorCajas:
   854  101A                     	retlw	07h
   855  101A  3407               	global __end_of_SensorCajas
   856                           __end_of_SensorCajas:
   857  101B                     	global	_SensorCanicas
   858                           psect	strings
   859                           	file	"ContadoraCanicas.c"
   860                           	line	44
   861                           _SensorCanicas:
   862  101B                     	retlw	018h
   863  101B  3418               	global __end_of_SensorCanicas
   864                           __end_of_SensorCanicas:
   865  101C                     	global	_IndicadorCanicas
   866                           psect	strings
   867                           	file	"ContadoraCanicas.c"
   868                           	line	43
   869                           _IndicadorCanicas:
   870  101C                     	retlw	05h
   871  101C  3405               	global __end_of_IndicadorCanicas
   872                           __end_of_IndicadorCanicas:
   873  101D                     	global	_Alarma
   874                           psect	strings
   875                           	file	"ContadoraCanicas.c"
   876                           	line	42
   877                           _Alarma:
   878  101D                     	retlw	04h
   879  101D  3404               	global __end_of_Alarma
   880                           __end_of_Alarma:
   881  101E                     	global	_Banda
   882                           psect	strings
   883                           	file	"ContadoraCanicas.c"
   884                           	line	41
   885                           _Banda:
   886  101E                     	retlw	02h
   887  101E  3402               	global __end_of_Banda
   888                           __end_of_Banda:
   889  101F                     	global	_MotorCanicas
   890                           psect	strings
   891                           	file	"ContadoraCanicas.c"
   892                           	line	40
   893                           _MotorCanicas:
   894  101F                     	retlw	03h
   895  101F  3403               	global __end_of_MotorCanicas
   896                           __end_of_MotorCanicas:
   897  1020                     	global	_D7
   898                           psect	strings
   899                           	file	"ContadoraCanicas.c"
   900                           	line	29
   901                           _D7:
   902  1020                     	retlw	08h
   903  1020  3408               	global __end_of_D7
   904                           __end_of_D7:
   905  1021                     	global	_D6
   906                           psect	strings
   907                           	file	"ContadoraCanicas.c"
   908                           	line	28
   909                           _D6:
   910  1021                     	retlw	09h
   911  1021  3409               	global __end_of_D6
   912                           __end_of_D6:
   913  1022                     	global	_D5
   914                           psect	strings
   915                           	file	"ContadoraCanicas.c"
   916                           	line	27
   917                           _D5:
   918  1022                     	retlw	0Ah
   919  1022  340A               	global __end_of_D5
   920                           __end_of_D5:
   921  1023                     	global	_D4
   922                           psect	strings
   923                           	file	"ContadoraCanicas.c"
   924                           	line	26
   925                           _D4:
   926  1023                     	retlw	0Bh
   927  1023  340B               	global __end_of_D4
   928                           __end_of_D4:
   929  1024                     	global	_En
   930                           psect	strings
   931                           	file	"ContadoraCanicas.c"
   932                           	line	25
   933                           _En:
   934  1024                     	retlw	0Dh
   935  1024  340D               	global __end_of_En
   936                           __end_of_En:
   937  1025                     	global	_RnW
   938                           psect	strings
   939                           	file	"ContadoraCanicas.c"
   940                           	line	24
   941                           _RnW:
   942  1025                     	retlw	0Ch
   943  1025  340C               	global __end_of_RnW
   944                           __end_of_RnW:
   945  1026                     	global	_RS
   946                           psect	strings
   947                           	file	"ContadoraCanicas.c"
   948                           	line	23
   949                           _RS:
   950  1026                     	retlw	0Eh
   951  1026  340E               	global __end_of_RS
   952                           __end_of_RS:
   953  1027                     	global	_COLS
   954                           psect	strings
   955                           	file	"ContadoraCanicas.c"
   956                           	line	19
   957                           _COLS:
   958  1027                     	retlw	010h
   959  1027  3410               	retlw	0
   960  1028  3400               
   961                           	retlw	011h
   962  1029  3411               	retlw	0
   963  102A  3400               
   964                           	retlw	012h
   965  102B  3412               	retlw	0
   966  102C  3400               
   967                           	retlw	013h
   968  102D  3413               	retlw	0
   969  102E  3400               
   970                           	global __end_of_COLS
   971                           __end_of_COLS:
   972  102F                     	global	_ROWS
   973                           psect	strings
   974                           	file	"ContadoraCanicas.c"
   975                           	line	18
   976                           _ROWS:
   977  102F                     	retlw	014h
   978  102F  3414               	retlw	0
   979  1030  3400               
   980                           	retlw	015h
   981  1031  3415               	retlw	0
   982  1032  3400               
   983                           	retlw	016h
   984  1033  3416               	retlw	0
   985  1034  3400               
   986                           	retlw	017h
   987  1035  3417               	retlw	0
   988  1036  3400               
   989                           	global __end_of_ROWS
   990                           __end_of_ROWS:
   991  1037                     	global	_dpowers
   992                           	global	_SensorCajas
   993                           	global	_SensorCanicas
   994                           	global	_IndicadorCanicas
   995                           	global	_Alarma
   996                           	global	_Banda
   997                           	global	_MotorCanicas
   998                           	global	_D7
   999                           	global	_D6
  1000                           	global	_D5
  1001                           	global	_D4
  1002                           	global	_En
  1003                           	global	_RnW
  1004                           	global	_RS
  1005                           	global	_COLS
  1006                           	global	_ROWS
  1007                           	global	_ColPins
  1008                           	global	_RowPins
  1009                           	global	_ContadorCanicasGlobal
  1010                           	global	_Paso
  1011                           	global	_Modo
  1012                           	global	_CajasCompletas
  1013                           	global	_CanicasActuales
  1014                           	global	_Number
  1015                           	global	_counter
  1016                           	global	_LatchC
  1017                           	global	_LatchB
  1018                           	global	_Latch
  1019                           	global	_DataStorage
  1020                           	global	_SecondROW
  1021                           	global	_FirstROW
  1022                           	global	_d7Pin
  1023                           psect	nvBANK0,class=BANK0,space=1,noexec
  1024                           global __pnvBANK0
  1025                           __pnvBANK0:
  1026  0052                     _d7Pin:
  1027  0052                            ds      2
  1028  0052                     
  1029                           	global	_d6Pin
  1030                           _d6Pin:
  1031  0054                            ds      2
  1032  0054                     
  1033                           	global	_d5Pin
  1034                           _d5Pin:
  1035  0056                            ds      2
  1036  0056                     
  1037                           	global	_d4Pin
  1038                           _d4Pin:
  1039  0058                            ds      2
  1040  0058                     
  1041                           	global	_RWPin
  1042                           _RWPin:
  1043  005A                            ds      2
  1044  005A                     
  1045                           	global	_ENPin
  1046                           _ENPin:
  1047  005C                            ds      2
  1048  005C                     
  1049                           	global	_RSPin
  1050                           _RSPin:
  1051  005E                            ds      2
  1052  005E                     
  1053                           	global	_Estado
  1054                           _Estado:
  1055  0060                            ds      1
  1056  0060                     
  1057                           	global	_TMR0
  1058                           _TMR0	set	0x1
  1059  0001                     	global	_SSPBUF
  1060                           _SSPBUF	set	0x13
  1061  0013                     	global	_SSPCON
  1062                           _SSPCON	set	0x14
  1063  0014                     	global	_RCREG
  1064                           _RCREG	set	0x1A
  1065  001A                     	global	_TXREG
  1066                           _TXREG	set	0x19
  1067  0019                     	global	_PORTEbits
  1068                           _PORTEbits	set	0x9
  1069  0009                     	global	_CCPR1L
  1070                           _CCPR1L	set	0x15
  1071  0015                     	global	_CCPR2L
  1072                           _CCPR2L	set	0x1B
  1073  001B                     	global	_ADRESH
  1074                           _ADRESH	set	0x1E
  1075  001E                     	global	_ADCON0bits
  1076                           _ADCON0bits	set	0x1F
  1077  001F                     	global	_PORTAbits
  1078                           _PORTAbits	set	0x5
  1079  0005                     	global	_PORTDbits
  1080                           _PORTDbits	set	0x8
  1081  0008                     	global	_PORTBbits
  1082                           _PORTBbits	set	0x6
  1083  0006                     	global	_PORTCbits
  1084                           _PORTCbits	set	0x7
  1085  0007                     	global	_CCP2CON
  1086                           _CCP2CON	set	0x1D
  1087  001D                     	global	_CCP1CON
  1088                           _CCP1CON	set	0x17
  1089  0017                     	global	_T2CON
  1090                           _T2CON	set	0x12
  1091  0012                     	global	_PORTE
  1092                           _PORTE	set	0x9
  1093  0009                     	global	_ADCON0
  1094                           _ADCON0	set	0x1F
  1095  001F                     	global	_SSPIF
  1096                           _SSPIF	set	0x63
  1097  0063                     	global	_PEIE
  1098                           _PEIE	set	0x5E
  1099  005E                     	global	_GIE
  1100                           _GIE	set	0x5F
  1101  005F                     	global	_RCIF
  1102                           _RCIF	set	0x65
  1103  0065                     	global	_TXIF
  1104                           _TXIF	set	0x64
  1105  0064                     	global	_OERR
  1106                           _OERR	set	0xC1
  1107  00C1                     	global	_FERR
  1108                           _FERR	set	0xC2
  1109  00C2                     	global	_CREN
  1110                           _CREN	set	0xC4
  1111  00C4                     	global	_SPEN
  1112                           _SPEN	set	0xC7
  1113  00C7                     	global	_CCP1Y
  1114                           _CCP1Y	set	0xBC
  1115  00BC                     	global	_CCP1X
  1116                           _CCP1X	set	0xBD
  1117  00BD                     	global	_CCP2Y
  1118                           _CCP2Y	set	0xEC
  1119  00EC                     	global	_CCP2X
  1120                           _CCP2X	set	0xED
  1121  00ED                     	global	_OPTION_REGbits
  1122                           _OPTION_REGbits	set	0x81
  1123  0081                     	global	_SSPSTAT
  1124                           _SSPSTAT	set	0x94
  1125  0094                     	global	_SSPADD
  1126                           _SSPADD	set	0x93
  1127  0093                     	global	_SSPCON2
  1128                           _SSPCON2	set	0x91
  1129  0091                     	global	_SPBRG
  1130                           _SPBRG	set	0x99
  1131  0099                     	global	_ADRESL
  1132                           _ADRESL	set	0x9E
  1133  009E                     	global	_TRISAbits
  1134                           _TRISAbits	set	0x85
  1135  0085                     	global	_TRISDbits
  1136                           _TRISDbits	set	0x88
  1137  0088                     	global	_TRISBbits
  1138                           _TRISBbits	set	0x86
  1139  0086                     	global	_TRISCbits
  1140                           _TRISCbits	set	0x87
  1141  0087                     	global	_PR2
  1142                           _PR2	set	0x92
  1143  0092                     	global	_TRISE
  1144                           _TRISE	set	0x89
  1145  0089                     	global	_ADCON1
  1146                           _ADCON1	set	0x9F
  1147  009F                     	global	_ACKEN
  1148                           _ACKEN	set	0x48C
  1149  048C                     	global	_ACKDT
  1150                           _ACKDT	set	0x48D
  1151  048D                     	global	_RCEN
  1152                           _RCEN	set	0x48B
  1153  048B                     	global	_PEN
  1154                           _PEN	set	0x48A
  1155  048A                     	global	_RSEN
  1156                           _RSEN	set	0x489
  1157  0489                     	global	_SEN
  1158                           _SEN	set	0x488
  1159  0488                     	global	_SSPIE
  1160                           _SSPIE	set	0x463
  1161  0463                     	global	_TRISC4
  1162                           _TRISC4	set	0x43C
  1163  043C                     	global	_TRISC3
  1164                           _TRISC3	set	0x43B
  1165  043B                     	global	_TRMT
  1166                           _TRMT	set	0x4C1
  1167  04C1                     	global	_TXEN
  1168                           _TXEN	set	0x4C5
  1169  04C5                     	global	_TRISC6
  1170                           _TRISC6	set	0x43E
  1171  043E                     	global	_TRISC7
  1172                           _TRISC7	set	0x43F
  1173  043F                     	global	_SYNC
  1174                           _SYNC	set	0x4C4
  1175  04C4                     	global	_BRGH
  1176                           _BRGH	set	0x4C2
  1177  04C2                     psect	strings
  1178                           	
  1179                           STR_13:	
  1180  1037                     	retlw	32	;' '
  1181  1037  3420               	retlw	32	;' '
  1182  1038  3420               	retlw	32	;' '
  1183  1039  3420               	retlw	32	;' '
  1184  103A  3420               	retlw	32	;' '
  1185  103B  3420               	retlw	32	;' '
  1186  103C  3420               	retlw	32	;' '
  1187  103D  3420               	retlw	32	;' '
  1188  103E  3420               	retlw	32	;' '
  1189  103F  3420               	retlw	32	;' '
  1190  1040  3420               	retlw	32	;' '
  1191  1041  3420               	retlw	32	;' '
  1192  1042  3420               	retlw	32	;' '
  1193  1043  3420               	retlw	32	;' '
  1194  1044  3420               	retlw	32	;' '
  1195  1045  3420               	retlw	32	;' '
  1196  1046  3420               	retlw	0
  1197  1047  3400               psect	strings
  1198                           	
  1199                           STR_5:	
  1200  1048                     	retlw	32	;' '
  1201  1048  3420               	retlw	35	;'#'
  1202  1049  3423               	retlw	32	;' '
  1203  104A  3420               	retlw	45	;'-'
  1204  104B  342D               	retlw	45	;'-'
  1205  104C  342D               	retlw	45	;'-'
  1206  104D  342D               	retlw	62	;'>'
  1207  104E  343E               	retlw	32	;' '
  1208  104F  3420               	retlw	65	;'A'
  1209  1050  3441               	retlw	112	;'p'
  1210  1051  3470               	retlw	97	;'a'
  1211  1052  3461               	retlw	103	;'g'
  1212  1053  3467               	retlw	97	;'a'
  1213  1054  3461               	retlw	114	;'r'
  1214  1055  3472               	retlw	32	;' '
  1215  1056  3420               	retlw	32	;' '
  1216  1057  3420               	retlw	0
  1217  1058  3400               psect	strings
  1218                           	
  1219                           STR_1:	
  1220  1059                     	retlw	32	;' '
  1221  1059  3420               	retlw	69	;'E'
  1222  105A  3445               	retlw	81	;'Q'
  1223  105B  3451               	retlw	85	;'U'
  1224  105C  3455               	retlw	73	;'I'
  1225  105D  3449               	retlw	80	;'P'
  1226  105E  3450               	retlw	79	;'O'
  1227  105F  344F               	retlw	32	;' '
  1228  1060  3420               	retlw	32	;' '
  1229  1061  3420               	retlw	87	;'W'
  1230  1062  3457               	retlw	105	;'i'
  1231  1063  3469               	retlw	67	;'C'
  1232  1064  3443               	retlw	111	;'o'
  1233  1065  346F               	retlw	82	;'R'
  1234  1066  3452               	retlw	101	;'e'
  1235  1067  3465               	retlw	32	;' '
  1236  1068  3420               	retlw	0
  1237  1069  3400               psect	strings
  1238                           	
  1239                           STR_2:	
  1240  106A                     	retlw	32	;' '
  1241  106A  3420               	retlw	77	;'M'
  1242  106B  344D               	retlw	97	;'a'
  1243  106C  3461               	retlw	114	;'r'
  1244  106D  3472               	retlw	98	;'b'
  1245  106E  3462               	retlw	108	;'l'
  1246  106F  346C               	retlw	101	;'e'
  1247  1070  3465               	retlw	32	;' '
  1248  1071  3420               	retlw	67	;'C'
  1249  1072  3443               	retlw	111	;'o'
  1250  1073  346F               	retlw	117	;'u'
  1251  1074  3475               	retlw	110	;'n'
  1252  1075  346E               	retlw	116	;'t'
  1253  1076  3474               	retlw	101	;'e'
  1254  1077  3465               	retlw	114	;'r'
  1255  1078  3472               	retlw	32	;' '
  1256  1079  3420               	retlw	0
  1257  107A  3400               psect	strings
  1258                           	
  1259                           STR_4:	
  1260  107B                     	retlw	32	;' '
  1261  107B  3420               	retlw	42	;'*'
  1262  107C  342A               	retlw	32	;' '
  1263  107D  3420               	retlw	45	;'-'
  1264  107E  342D               	retlw	45	;'-'
  1265  107F  342D               	retlw	62	;'>'
  1266  1080  343E               	retlw	32	;' '
  1267  1081  3420               	retlw	67	;'C'
  1268  1082  3443               	retlw	111	;'o'
  1269  1083  346F               	retlw	110	;'n'
  1270  1084  346E               	retlw	102	;'f'
  1271  1085  3466               	retlw	105	;'i'
  1272  1086  3469               	retlw	103	;'g'
  1273  1087  3467               	retlw	117	;'u'
  1274  1088  3475               	retlw	114	;'r'
  1275  1089  3472               	retlw	32	;' '
  1276  108A  3420               	retlw	0
  1277  108B  3400               psect	strings
  1278                           	
  1279                           STR_3:	
  1280  108C                     	retlw	32	;' '
  1281  108C  3420               	retlw	39	;'''
  1282  108D  3427               	retlw	65	;'A'
  1283  108E  3441               	retlw	39	;'''
  1284  108F  3427               	retlw	32	;' '
  1285  1090  3420               	retlw	32	;' '
  1286  1091  3420               	retlw	116	;'t'
  1287  1092  3474               	retlw	111	;'o'
  1288  1093  346F               	retlw	32	;' '
  1289  1094  3420               	retlw	32	;' '
  1290  1095  3420               	retlw	83	;'S'
  1291  1096  3453               	retlw	116	;'t'
  1292  1097  3474               	retlw	97	;'a'
  1293  1098  3461               	retlw	114	;'r'
  1294  1099  3472               	retlw	116	;'t'
  1295  109A  3474               	retlw	32	;' '
  1296  109B  3420               	retlw	0
  1297  109C  3400               psect	strings
  1298                           	
  1299                           STR_8:	
  1300  109D                     	retlw	105	;'i'
  1301  109D  3469               	retlw	77	;'M'
  1302  109E  344D               	retlw	67	;'C'
  1303  109F  3443               	retlw	58	;':'
  1304  10A0  343A               	retlw	37	;'%'
  1305  10A1  3425               	retlw	105	;'i'
  1306  10A2  3469               	retlw	32	;' '
  1307  10A3  3420               	retlw	32	;' '
  1308  10A4  3420               	retlw	32	;' '
  1309  10A5  3420               	retlw	32	;' '
  1310  10A6  3420               	retlw	66	;'B'
  1311  10A7  3442               	retlw	111	;'o'
  1312  10A8  346F               	retlw	120	;'x'
  1313  10A9  3478               	retlw	58	;':'
  1314  10AA  343A               	retlw	37	;'%'
  1315  10AB  3425               	retlw	105	;'i'
  1316  10AC  3469               	retlw	0
  1317  10AD  3400               psect	strings
  1318                           	
  1319                           STR_11:	
  1320  10AE                     	retlw	67	;'C'
  1321  10AE  3443               	retlw	97	;'a'
  1322  10AF  3461               	retlw	110	;'n'
  1323  10B0  346E               	retlw	116	;'t'
  1324  10B1  3474               	retlw	105	;'i'
  1325  10B2  3469               	retlw	100	;'d'
  1326  10B3  3464               	retlw	97	;'a'
  1327  10B4  3461               	retlw	100	;'d'
  1328  10B5  3464               	retlw	32	;' '
  1329  10B6  3420               	retlw	67	;'C'
  1330  10B7  3443               	retlw	97	;'a'
  1331  10B8  3461               	retlw	110	;'n'
  1332  10B9  346E               	retlw	105	;'i'
  1333  10BA  3469               	retlw	99	;'c'
  1334  10BB  3463               	retlw	97	;'a'
  1335  10BC  3461               	retlw	115	;'s'
  1336  10BD  3473               	retlw	0
  1337  10BE  3400               psect	strings
  1338                           	
  1339                           STR_10:	
  1340  10BF                     	retlw	77	;'M'
  1341  10BF  344D               	retlw	67	;'C'
  1342  10C0  3443               	retlw	58	;':'
  1343  10C1  343A               	retlw	37	;'%'
  1344  10C2  3425               	retlw	105	;'i'
  1345  10C3  3469               	retlw	32	;' '
  1346  10C4  3420               	retlw	32	;' '
  1347  10C5  3420               	retlw	32	;' '
  1348  10C6  3420               	retlw	32	;' '
  1349  10C7  3420               	retlw	66	;'B'
  1350  10C8  3442               	retlw	111	;'o'
  1351  10C9  346F               	retlw	120	;'x'
  1352  10CA  3478               	retlw	58	;':'
  1353  10CB  343A               	retlw	37	;'%'
  1354  10CC  3425               	retlw	117	;'u'
  1355  10CD  3475               	retlw	0
  1356  10CE  3400               psect	strings
  1357                           	
  1358                           STR_7:	
  1359  10CF                     	retlw	105	;'i'
  1360  10CF  3469               	retlw	77	;'M'
  1361  10D0  344D               	retlw	81	;'Q'
  1362  10D1  3451               	retlw	58	;':'
  1363  10D2  343A               	retlw	37	;'%'
  1364  10D3  3425               	retlw	105	;'i'
  1365  10D4  3469               	retlw	32	;' '
  1366  10D5  3420               	retlw	32	;' '
  1367  10D6  3420               	retlw	84	;'T'
  1368  10D7  3454               	retlw	77	;'M'
  1369  10D8  344D               	retlw	67	;'C'
  1370  10D9  3443               	retlw	58	;':'
  1371  10DA  343A               	retlw	37	;'%'
  1372  10DB  3425               	retlw	105	;'i'
  1373  10DC  3469               	retlw	0
  1374  10DD  3400               psect	strings
  1375                           	
  1376                           STR_6:	
  1377  10DE                     	retlw	77	;'M'
  1378  10DE  344D               	retlw	111	;'o'
  1379  10DF  346F               	retlw	100	;'d'
  1380  10E0  3464               	retlw	111	;'o'
  1381  10E1  346F               	retlw	32	;' '
  1382  10E2  3420               	retlw	65	;'A'
  1383  10E3  3441               	retlw	114	;'r'
  1384  10E4  3472               	retlw	114	;'r'
  1385  10E5  3472               	retlw	97	;'a'
  1386  10E6  3461               	retlw	110	;'n'
  1387  10E7  346E               	retlw	113	;'q'
  1388  10E8  3471               	retlw	117	;'u'
  1389  10E9  3475               	retlw	101	;'e'
  1390  10EA  3465               	retlw	0
  1391  10EB  3400               psect	strings
  1392                           	
  1393                           STR_12:	
  1394  10EC                     	retlw	37	;'%'
  1395  10EC  3425               	retlw	105	;'i'
  1396  10ED  3469               	retlw	32	;' '
  1397  10EE  3420               	retlw	67	;'C'
  1398  10EF  3443               	retlw	97	;'a'
  1399  10F0  3461               	retlw	110	;'n'
  1400  10F1  346E               	retlw	105	;'i'
  1401  10F2  3469               	retlw	99	;'c'
  1402  10F3  3463               	retlw	97	;'a'
  1403  10F4  3461               	retlw	115	;'s'
  1404  10F5  3473               	retlw	0
  1405  10F6  3400               psect	strings
  1406                           STR_9	equ	STR_7+1
  1407  10D0                     ; #config settings
  1408                           global __CFG_FOSC$HS
  1409                           __CFG_FOSC$HS equ 0x0
  1410  0000                     global __CFG_WDTE$OFF
  1411                           __CFG_WDTE$OFF equ 0x0
  1412  0000                     global __CFG_PWRTE$OFF
  1413                           __CFG_PWRTE$OFF equ 0x0
  1414  0000                     global __CFG_BOREN$OFF
  1415                           __CFG_BOREN$OFF equ 0x0
  1416  0000                     global __CFG_LVP$ON
  1417                           __CFG_LVP$ON equ 0x0
  1418  0000                     global __CFG_CPD$OFF
  1419                           __CFG_CPD$OFF equ 0x0
  1420  0000                     global __CFG_WRT$OFF
  1421                           __CFG_WRT$OFF equ 0x0
  1422  0000                     global __CFG_CP$OFF
  1423                           __CFG_CP$OFF equ 0x0
  1424  0000                     	file	"C:\Users\c4810\AppData\Local\Temp\s638."
  1425                           	line	#
  1426                           psect cinit,class=CODE,delta=2
  1427                           global start_initialization
  1428                           start_initialization:
  1429  07D1                     
  1430                           global __initialization
  1431                           __initialization:
  1432  07D1                     psect	bssBANK0,class=BANK0,space=1,noexec
  1433                           global __pbssBANK0
  1434                           __pbssBANK0:
  1435  0020                     _ColPins:
  1436  0020                            ds      8
  1437  0020                     
  1438                           _RowPins:
  1439  0028                            ds      8
  1440  0028                     
  1441                           _ContadorCanicasGlobal:
  1442  0030                            ds      2
  1443  0030                     
  1444                           _dato:
  1445  0032                            ds      1
  1446  0032                     
  1447                           _Paso:
  1448  0033                            ds      1
  1449  0033                     
  1450                           _Modo:
  1451  0034                            ds      1
  1452  0034                     
  1453                           _CajasCompletas:
  1454  0035                            ds      1
  1455  0035                     
  1456                           _CanicasActuales:
  1457  0036                            ds      1
  1458  0036                     
  1459                           _Number:
  1460  0037                            ds      1
  1461  0037                     
  1462                           _counter:
  1463  0038                            ds      1
  1464  0038                     
  1465                           _LatchC:
  1466  0039                            ds      1
  1467  0039                     
  1468                           _LatchB:
  1469  003A                            ds      1
  1470  003A                     
  1471                           _Latch:
  1472  003B                            ds      1
  1473  003B                     
  1474                           _DataStorage:
  1475  003C                            ds      2
  1476  003C                     
  1477                           psect	dataBANK0,class=BANK0,space=1,noexec
  1478                           global __pdataBANK0
  1479                           __pdataBANK0:
  1480  0061                     	file	"Keypad4x4.c"
  1481                           	line	13
  1482                           _delaying:
  1483  0061                            ds      2
  1484  0061                     
  1485                           psect	dataBANK0
  1486                           	file	"ContadoraCanicas.c"
  1487                           	line	16
  1488                           _Tecla:
  1489  0063                            ds      1
  1490  0063                     
  1491                           psect	bssBANK1,class=BANK1,space=1,noexec
  1492                           global __pbssBANK1
  1493                           __pbssBANK1:
  1494  00A0                     _SecondROW:
  1495  00A0                            ds      16
  1496  00A0                     
  1497                           _FirstROW:
  1498  00B0                            ds      16
  1499  00B0                     
  1500                           psect	dataBANK1,class=BANK1,space=1,noexec
  1501                           global __pdataBANK1
  1502                           __pdataBANK1:
  1503  00C0                     	file	"Keypad4x4.c"
  1504                           	line	4
  1505                           _characters:
  1506  00C0                            ds      16
  1507  00C0                     
  1508                           psect	dataBANK1
  1509                           	file	"ContadoraCanicas.c"
  1510                           	line	9
  1511                           _Teclas:
  1512  00D0                            ds      16
  1513  00D0                     
  1514                           	file	"C:\Users\c4810\AppData\Local\Temp\s638."
  1515                           	line	#
  1516                           global btemp
  1517                           psect inittext,class=CODE,delta=2
  1518                           global init_fetch0,btemp
  1519                           ;	Called with low address in FSR and high address in W
  1520                           init_fetch0:
  1521  11A9                     	movf btemp,w
  1522  11A9  087E               	movwf pclath
  1523  11AA  008A               	movf btemp+1,w
  1524  11AB  087F               	movwf pc
  1525  11AC  0082               global init_ram0
  1526                           ;Called with:
  1527                           ;	high address of idata address in btemp 
  1528                           ;	low address of idata address in btemp+1 
  1529                           ;	low address of data in FSR
  1530                           ;	high address + 1 of data in btemp-1
  1531                           init_ram0:
  1532  11AD                     	fcall init_fetch0
  1533  11AD  160A  118A  21A9  160A  118A  	movwf indf,f
  1534  11B2  0080               	incf fsr,f
  1535  11B3  0A84               	movf fsr,w
  1536  11B4  0804               	xorwf btemp-1,w
  1537  11B5  067D               	btfsc status,2
  1538  11B6  1903               	retlw 0
  1539  11B7  3400               	incf btemp+1,f
  1540  11B8  0AFF               	btfsc status,2
  1541  11B9  1903               	incf btemp,f
  1542  11BA  0AFE               	goto init_ram0
  1543  11BB  29AD               ; Initialize objects allocated to BANK1
  1544                           psect cinit,class=CODE,delta=2,merge=1
  1545                           global init_ram0, __pidataBANK1
  1546                           	bcf	status, 7	;select IRP bank0
  1547  07D1  1383               	movlw low(__pdataBANK1+32)
  1548  07D2  30E0               	movwf btemp-1,f
  1549  07D3  00FD               	movlw high(__pidataBANK1)
  1550  07D4  3012               	movwf btemp,f
  1551  07D5  00FE               	movlw low(__pidataBANK1)
  1552  07D6  3005               	movwf btemp+1,f
  1553  07D7  00FF               	movlw low(__pdataBANK1)
  1554  07D8  30C0               	movwf fsr,f
  1555  07D9  0084               	fcall init_ram0
  1556  07DA  160A  118A  21AD  120A  118A  ; Initialize objects allocated to BANK0
  1557                           psect cinit,class=CODE,delta=2,merge=1
  1558                           global init_ram0, __pidataBANK0
  1559                           	movlw low(__pdataBANK0+3)
  1560  07DF  3064               	movwf btemp-1,f
  1561  07E0  00FD               	movlw high(__pidataBANK0)
  1562  07E1  3000               	movwf btemp,f
  1563  07E2  00FE               	movlw low(__pidataBANK0)
  1564  07E3  3004               	movwf btemp+1,f
  1565  07E4  00FF               	movlw low(__pdataBANK0)
  1566  07E5  3061               	movwf fsr,f
  1567  07E6  0084               	fcall init_ram0
  1568  07E7  160A  118A  21AD  120A  118A  	line	#
  1569                           psect clrtext,class=CODE,delta=2
  1570                           global clear_ram0
  1571                           ;	Called with FSR containing the base address, and
  1572                           ;	W with the last address+1
  1573                           clear_ram0:
  1574  1187                     	clrwdt			;clear the watchdog before getting into this loop
  1575  1187  0064               clrloop0:
  1576  1188                     	clrf	indf		;clear RAM location pointed to by FSR
  1577  1188  0180               	incf	fsr,f		;increment pointer
  1578  1189  0A84               	xorwf	fsr,w		;XOR with final address
  1579  118A  0604               	btfsc	status,2	;have we reached the end yet?
  1580  118B  1903               	retlw	0		;all done for this memory range, return
  1581  118C  3400               	xorwf	fsr,w		;XOR again to restore value
  1582  118D  0604               	goto	clrloop0		;do the next byte
  1583  118E  2988               
  1584                           ; Clear objects allocated to BANK1
  1585                           psect cinit,class=CODE,delta=2,merge=1
  1586                           	movlw	low(__pbssBANK1)
  1587  07EC  30A0               	movwf	fsr
  1588  07ED  0084               	movlw	low((__pbssBANK1)+020h)
  1589  07EE  30C0               	fcall	clear_ram0
  1590  07EF  160A  118A  2187  120A  118A  ; Clear objects allocated to BANK0
  1591                           psect cinit,class=CODE,delta=2,merge=1
  1592                           	movlw	low(__pbssBANK0)
  1593  07F4  3020               	movwf	fsr
  1594  07F5  0084               	movlw	low((__pbssBANK0)+01Eh)
  1595  07F6  303E               	fcall	clear_ram0
  1596  07F7  160A  118A  2187  120A  118A  psect cinit,class=CODE,delta=2,merge=1
  1597                           global end_of_initialization,__end_of__initialization
  1598                           
  1599                           ;End of C runtime variable initialization code
  1600                           
  1601                           end_of_initialization:
  1602  07FC                     __end_of__initialization:
  1603  07FC                     clrf status
  1604  07FC  0183               ljmp _main	;jump to C main() function
  1605  07FD  160A  118A  29BC   psect	cstackCOMMON,class=COMMON,space=1,noexec
  1606                           global __pcstackCOMMON
  1607                           __pcstackCOMMON:
  1608  0070                     ?_Initialization:	; 1 bytes @ 0x0
  1609  0070                     ??_Initialization:	; 1 bytes @ 0x0
  1610  0070                     ?_setup:	; 1 bytes @ 0x0
  1611  0070                     ?_loop:	; 1 bytes @ 0x0
  1612  0070                     ?_CCP1Configuration:	; 1 bytes @ 0x0
  1613  0070                     ??_CCP1Configuration:	; 1 bytes @ 0x0
  1614  0070                     ?_CCP2Configuration:	; 1 bytes @ 0x0
  1615  0070                     ??_CCP2Configuration:	; 1 bytes @ 0x0
  1616  0070                     ?_ContadorBegin:	; 1 bytes @ 0x0
  1617  0070                     ??_ContadorBegin:	; 1 bytes @ 0x0
  1618  0070                     ?_IOConfiguration:	; 1 bytes @ 0x0
  1619  0070                     ?_lcdClear:	; 1 bytes @ 0x0
  1620  0070                     ?_lcdWrite:	; 1 bytes @ 0x0
  1621  0070                     ?_KeypadRead:	; 1 bytes @ 0x0
  1622  0070                     ?_Contador:	; 1 bytes @ 0x0
  1623  0070                     ??_Contador:	; 1 bytes @ 0x0
  1624  0070                     ?_WriteInstruction:	; 1 bytes @ 0x0
  1625  0070                     ?_WriteData:	; 1 bytes @ 0x0
  1626  0070                     ?_ByteByNibble:	; 1 bytes @ 0x0
  1627  0070                     ?_pinMode:	; 1 bytes @ 0x0
  1628  0070                     ?_digitalWrite:	; 1 bytes @ 0x0
  1629  0070                     ?_digitalRead:	; 1 bytes @ 0x0
  1630  0070                     ??_digitalRead:	; 1 bytes @ 0x0
  1631  0070                     ?_delay:	; 1 bytes @ 0x0
  1632  0070                     ?___bmul:	; 1 bytes @ 0x0
  1633  0070                     ?_main:	; 2 bytes @ 0x0
  1634  0070                     	global	?___lwdiv
  1635                           ?___lwdiv:	; 2 bytes @ 0x0
  1636  0070                     	global	?___aldiv
  1637                           ?___aldiv:	; 4 bytes @ 0x0
  1638  0070                     	global	pinMode@mode
  1639                           pinMode@mode:	; 1 bytes @ 0x0
  1640  0070                     	global	digitalWrite@value
  1641                           digitalWrite@value:	; 1 bytes @ 0x0
  1642  0070                     	global	Contador@mode
  1643                           Contador@mode:	; 1 bytes @ 0x0
  1644  0070                     	global	___bmul@multiplicand
  1645                           ___bmul@multiplicand:	; 1 bytes @ 0x0
  1646  0070                     	global	delay@milis
  1647                           delay@milis:	; 2 bytes @ 0x0
  1648  0070                     	global	___lwdiv@divisor
  1649                           ___lwdiv@divisor:	; 2 bytes @ 0x0
  1650  0070                     	global	___aldiv@divisor
  1651                           ___aldiv@divisor:	; 4 bytes @ 0x0
  1652  0070                     	ds	1
  1653  0070                     ??_pinMode:	; 1 bytes @ 0x1
  1654  0071                     ??_digitalWrite:	; 1 bytes @ 0x1
  1655  0071                     ??___bmul:	; 1 bytes @ 0x1
  1656  0071                     	ds	1
  1657  0071                     ??_delay:	; 1 bytes @ 0x2
  1658  0072                     	global	digitalRead@pin
  1659                           digitalRead@pin:	; 1 bytes @ 0x2
  1660  0072                     	global	___bmul@product
  1661                           ___bmul@product:	; 1 bytes @ 0x2
  1662  0072                     	global	___lwdiv@dividend
  1663                           ___lwdiv@dividend:	; 2 bytes @ 0x2
  1664  0072                     	ds	1
  1665  0072                     	global	pinMode@pin
  1666                           pinMode@pin:	; 1 bytes @ 0x3
  1667  0073                     	global	digitalWrite@pin
  1668                           digitalWrite@pin:	; 1 bytes @ 0x3
  1669  0073                     	global	___bmul@multiplier
  1670                           ___bmul@multiplier:	; 1 bytes @ 0x3
  1671  0073                     	global	delay@j
  1672                           delay@j:	; 2 bytes @ 0x3
  1673  0073                     	ds	1
  1674  0073                     ?_KeypadBegin:	; 1 bytes @ 0x4
  1675  0074                     ??_IOConfiguration:	; 1 bytes @ 0x4
  1676  0074                     ??_ByteByNibble:	; 1 bytes @ 0x4
  1677  0074                     ??___lwdiv:	; 1 bytes @ 0x4
  1678  0074                     	global	KeypadBegin@cols
  1679                           KeypadBegin@cols:	; 1 bytes @ 0x4
  1680  0074                     	global	___aldiv@dividend
  1681                           ___aldiv@dividend:	; 4 bytes @ 0x4
  1682  0074                     	ds	1
  1683  0074                     	global	KeypadBegin@data
  1684                           KeypadBegin@data:	; 1 bytes @ 0x5
  1685  0075                     	global	delay@i
  1686                           delay@i:	; 2 bytes @ 0x5
  1687  0075                     	global	___lwdiv@quotient
  1688                           ___lwdiv@quotient:	; 2 bytes @ 0x5
  1689  0075                     	ds	1
  1690  0075                     ??_KeypadBegin:	; 1 bytes @ 0x6
  1691  0076                     	global	ByteByNibble@NibbleValue
  1692                           ByteByNibble@NibbleValue:	; 1 bytes @ 0x6
  1693  0076                     	ds	1
  1694  0076                     ??_KeypadRead:	; 1 bytes @ 0x7
  1695  0077                     ??_WriteInstruction:	; 1 bytes @ 0x7
  1696  0077                     ??_WriteData:	; 1 bytes @ 0x7
  1697  0077                     	global	___lwdiv@counter
  1698                           ___lwdiv@counter:	; 1 bytes @ 0x7
  1699  0077                     	ds	1
  1700  0077                     ??___aldiv:	; 1 bytes @ 0x8
  1701  0078                     	global	?___lwmod
  1702                           ?___lwmod:	; 2 bytes @ 0x8
  1703  0078                     	global	___lwmod@divisor
  1704                           ___lwmod@divisor:	; 2 bytes @ 0x8
  1705  0078                     	ds	1
  1706  0078                     ??_SerialBegin:	; 1 bytes @ 0x9
  1707  0079                     	global	WriteInstruction@LSNibble
  1708                           WriteInstruction@LSNibble:	; 1 bytes @ 0x9
  1709  0079                     	global	WriteData@LSNibble
  1710                           WriteData@LSNibble:	; 1 bytes @ 0x9
  1711  0079                     	ds	1
  1712  0079                     	global	WriteInstruction@instruction
  1713                           WriteInstruction@instruction:	; 1 bytes @ 0xA
  1714  007A                     	global	WriteData@data
  1715                           WriteData@data:	; 1 bytes @ 0xA
  1716  007A                     	global	___lwmod@dividend
  1717                           ___lwmod@dividend:	; 2 bytes @ 0xA
  1718  007A                     	ds	1
  1719  007A                     	global	WriteInstruction@MSNibble
  1720                           WriteInstruction@MSNibble:	; 1 bytes @ 0xB
  1721  007B                     	global	WriteData@MSNibble
  1722                           WriteData@MSNibble:	; 1 bytes @ 0xB
  1723  007B                     	ds	1
  1724  007B                     ??_lcdBegin:	; 1 bytes @ 0xC
  1725  007C                     ??_lcdClear:	; 1 bytes @ 0xC
  1726  007C                     ?_lcdSetCursor:	; 1 bytes @ 0xC
  1727  007C                     ??_lcdWrite:	; 1 bytes @ 0xC
  1728  007C                     ??___lwmod:	; 1 bytes @ 0xC
  1729  007C                     	global	lcdSetCursor@column
  1730                           lcdSetCursor@column:	; 1 bytes @ 0xC
  1731  007C                     	global	lcdWrite@data
  1732                           lcdWrite@data:	; 1 bytes @ 0xC
  1733  007C                     	ds	1
  1734  007C                     ??_lcdSetCursor:	; 1 bytes @ 0xD
  1735  007D                     	global	___lwmod@counter
  1736                           ___lwmod@counter:	; 1 bytes @ 0xD
  1737  007D                     	ds	1
  1738  007D                     ??_main:	; 1 bytes @ 0xE
  1739  007E                     psect	cstackBANK0,class=BANK0,space=1,noexec
  1740                           global __pcstackBANK0
  1741                           __pcstackBANK0:
  1742  003E                     ?_lcdBegin:	; 1 bytes @ 0x0
  1743  003E                     ?_lcdPrint:	; 1 bytes @ 0x0
  1744  003E                     	global	?_sprintf
  1745                           ?_sprintf:	; 2 bytes @ 0x0
  1746  003E                     	global	KeypadBegin@rows
  1747                           KeypadBegin@rows:	; 1 bytes @ 0x0
  1748  003E                     	global	lcdBegin@EN
  1749                           lcdBegin@EN:	; 1 bytes @ 0x0
  1750  003E                     	global	lcdSetCursor@row
  1751                           lcdSetCursor@row:	; 1 bytes @ 0x0
  1752  003E                     	global	sprintf@f
  1753                           sprintf@f:	; 1 bytes @ 0x0
  1754  003E                     	global	___aldiv@counter
  1755                           ___aldiv@counter:	; 1 bytes @ 0x0
  1756  003E                     	global	lcdPrint@string
  1757                           lcdPrint@string:	; 2 bytes @ 0x0
  1758  003E                     	ds	1
  1759  003E                     	global	lcdBegin@R_W
  1760                           lcdBegin@R_W:	; 1 bytes @ 0x1
  1761  003F                     	global	lcdSetCursor@location
  1762                           lcdSetCursor@location:	; 1 bytes @ 0x1
  1763  003F                     	global	___aldiv@sign
  1764                           ___aldiv@sign:	; 1 bytes @ 0x1
  1765  003F                     	global	KeypadBegin@j
  1766                           KeypadBegin@j:	; 2 bytes @ 0x1
  1767  003F                     	ds	1
  1768  003F                     ??_lcdPrint:	; 1 bytes @ 0x2
  1769  0040                     	global	lcdBegin@d4
  1770                           lcdBegin@d4:	; 1 bytes @ 0x2
  1771  0040                     	global	___aldiv@quotient
  1772                           ___aldiv@quotient:	; 4 bytes @ 0x2
  1773  0040                     	ds	1
  1774  0040                     	global	lcdBegin@d5
  1775                           lcdBegin@d5:	; 1 bytes @ 0x3
  1776  0041                     	global	KeypadBegin@k
  1777                           KeypadBegin@k:	; 2 bytes @ 0x3
  1778  0041                     	ds	1
  1779  0041                     	global	lcdBegin@d6
  1780                           lcdBegin@d6:	; 1 bytes @ 0x4
  1781  0042                     	ds	1
  1782  0042                     ??_sprintf:	; 1 bytes @ 0x5
  1783  0043                     	global	lcdBegin@d7
  1784                           lcdBegin@d7:	; 1 bytes @ 0x5
  1785  0043                     	global	KeypadBegin@i
  1786                           KeypadBegin@i:	; 2 bytes @ 0x5
  1787  0043                     	global	lcdPrint@i
  1788                           lcdPrint@i:	; 2 bytes @ 0x5
  1789  0043                     	ds	1
  1790  0043                     ?_SerialBegin:	; 1 bytes @ 0x6
  1791  0044                     	global	lcdBegin@RS
  1792                           lcdBegin@RS:	; 1 bytes @ 0x6
  1793  0044                     	global	SerialBegin@BaudRate
  1794                           SerialBegin@BaudRate:	; 4 bytes @ 0x6
  1795  0044                     	ds	2
  1796  0044                     	global	sprintf@prec
  1797                           sprintf@prec:	; 1 bytes @ 0x8
  1798  0046                     	ds	1
  1799  0046                     	global	sprintf@ap
  1800                           sprintf@ap:	; 1 bytes @ 0x9
  1801  0047                     	ds	1
  1802  0047                     	global	sprintf@flag
  1803                           sprintf@flag:	; 1 bytes @ 0xA
  1804  0048                     	global	SerialBegin@x
  1805                           SerialBegin@x:	; 2 bytes @ 0xA
  1806  0048                     	ds	1
  1807  0048                     	global	sprintf@val
  1808                           sprintf@val:	; 2 bytes @ 0xB
  1809  0049                     	ds	1
  1810  0049                     ??_setup:	; 1 bytes @ 0xC
  1811  004A                     	ds	1
  1812  004A                     	global	sprintf@sp
  1813                           sprintf@sp:	; 1 bytes @ 0xD
  1814  004B                     	ds	1
  1815  004B                     	global	sprintf@c
  1816                           sprintf@c:	; 1 bytes @ 0xE
  1817  004C                     	ds	1
  1818  004C                     ??_loop:	; 1 bytes @ 0xF
  1819  004D                     	ds	3
  1820  004D                     	global	setup@i
  1821                           setup@i:	; 1 bytes @ 0x12
  1822  0050                     	ds	1
  1823  0050                     	global	setup@j
  1824                           setup@j:	; 1 bytes @ 0x13
  1825  0051                     	ds	1
  1826  0051                     ;!
  1827                           ;!Data Sizes:
  1828                           ;!    Strings     192
  1829                           ;!    Constant    39
  1830                           ;!    Data        35
  1831                           ;!    BSS         62
  1832                           ;!    Persistent  15
  1833                           ;!    Stack       0
  1834                           ;!
  1835                           ;!Auto Spaces:
  1836                           ;!    Space          Size  Autos    Used
  1837                           ;!    COMMON           14     14      14
  1838                           ;!    BANK0            80     20      68
  1839                           ;!    BANK1            80      0      64
  1840                           ;!    BANK3            96      0       0
  1841                           ;!    BANK2            96      0       0
  1842                           
  1843                           ;!
  1844                           ;!Pointer List with Targets:
  1845                           ;!
  1846                           ;!    sprintf@f	PTR const unsigned char  size(1) Largest target is 17
  1847                           ;!		 -> STR_12(CODE[11]), STR_10(CODE[16]), STR_9(CODE[14]), STR_8(CODE[17]), 
  1848                           ;!		 -> STR_7(CODE[15]), 
  1849                           ;!
  1850                           ;!    sprintf@sp	PTR unsigned char  size(1) Largest target is 16
  1851                           ;!		 -> SecondROW(BANK1[16]), FirstROW(BANK1[16]), 
  1852                           ;!
  1853                           ;!    sprintf@ap	PTR void [1] size(1) Largest target is 2
  1854                           ;!		 -> ?_sprintf(BANK0[2]), 
  1855                           ;!
  1856                           ;!    lcdPrint@string	PTR unsigned char  size(2) Largest target is 17
  1857                           ;!		 -> STR_13(CODE[17]), STR_11(CODE[17]), SecondROW(BANK1[16]), FirstROW(BANK1[16]), 

  1858                           ;!		 -> STR_6(CODE[14]), STR_5(CODE[17]), STR_4(CODE[17]), STR_3(CODE[17]), 
  1859                           ;!		 -> STR_2(CODE[17]), STR_1(CODE[17]), 
  1860                           ;!
  1861                           ;!    KeypadBegin@data	PTR unsigned char [4] size(1) Largest target is 16
  1862                           ;!		 -> Teclas(BANK1[16]), 
  1863                           ;!
  1864                           ;!    KeypadBegin@cols	PTR const int  size(1) Largest target is 8
  1865                           ;!		 -> COLS(CODE[8]), 
  1866                           ;!
  1867                           ;!    KeypadBegin@rows	PTR const int  size(1) Largest target is 8
  1868                           ;!		 -> ROWS(CODE[8]), 
  1869                           ;!
  1870                           
  1871                           
  1872                           ;!
  1873                           ;!Critical Paths under _main in COMMON
  1874                           ;!
  1875                           ;!    _setup->_lcdBegin
  1876                           ;!    _setup->_lcdSetCursor
  1877                           ;!    _lcdBegin->_WriteInstruction
  1878                           ;!    _SerialBegin->___aldiv
  1879                           ;!    _KeypadBegin->_pinMode
  1880                           ;!    _IOConfiguration->_digitalWrite
  1881                           ;!    _IOConfiguration->_pinMode
  1882                           ;!    _loop->_lcdSetCursor
  1883                           ;!    _sprintf->___lwmod
  1884                           ;!    ___lwmod->___lwdiv
  1885                           ;!    _lcdSetCursor->_WriteInstruction
  1886                           ;!    _lcdPrint->_lcdWrite
  1887                           ;!    _lcdWrite->_WriteData
  1888                           ;!    _WriteData->_ByteByNibble
  1889                           ;!    _WriteData->_delay
  1890                           ;!    _lcdClear->_WriteInstruction
  1891                           ;!    _WriteInstruction->_ByteByNibble
  1892                           ;!    _WriteInstruction->_delay
  1893                           ;!    _ByteByNibble->_digitalWrite
  1894                           ;!    _KeypadRead->_delay
  1895                           ;!
  1896                           ;!Critical Paths under _main in BANK0
  1897                           ;!
  1898                           ;!    _main->_loop
  1899                           ;!    _main->_setup
  1900                           ;!    _setup->_SerialBegin
  1901                           ;!    _SerialBegin->___aldiv
  1902                           ;!    _loop->_sprintf
  1903                           ;!
  1904                           ;!Critical Paths under _main in BANK1
  1905                           ;!
  1906                           ;!    None.
  1907                           ;!
  1908                           ;!Critical Paths under _main in BANK3
  1909                           ;!
  1910                           ;!    None.
  1911                           ;!
  1912                           ;!Critical Paths under _main in BANK2
  1913                           ;!
  1914                           ;!    None.
  1915                           
  1916 ;;
  1917 ;;Main: autosize = 0, tempsize = 0, incstack = 0, save=0
  1918 ;;
  1919                           
  1920                           ;!
  1921                           ;!Call Graph Tables:
  1922                           ;!
  1923                           ;! ---------------------------------------------------------------------------------
  1924                           ;! (Depth) Function   	        Calls       Base Space   Used Autos Params    Refs
  1925                           ;! ---------------------------------------------------------------------------------
  1926                           ;! (0) _main                                                 0     0      0  231875
  1927                           ;!                     _Initialization
  1928                           ;!                               _loop
  1929                           ;!                              _setup
  1930                           ;! ---------------------------------------------------------------------------------
  1931                           ;! (1) _setup                                                8     8      0  136703
  1932                           ;!                                             12 BANK0      8     8      0
  1933                           ;!                      _ContadorBegin
  1934                           ;!                    _IOConfiguration
  1935                           ;!                        _KeypadBegin
  1936                           ;!                        _SerialBegin
  1937                           ;!                              _delay
  1938                           ;!                           _lcdBegin
  1939                           ;!                           _lcdClear
  1940                           ;!                           _lcdPrint
  1941                           ;!                       _lcdSetCursor
  1942                           ;!                           _lcdWrite
  1943                           ;! ---------------------------------------------------------------------------------
  1944                           ;! (2) _lcdBegin                                             9     3      6   26525
  1945                           ;!                                             12 COMMON     2     2      0
  1946                           ;!                                              0 BANK0      7     1      6
  1947                           ;!                   _WriteInstruction
  1948                           ;!                              _delay
  1949                           ;!                            _pinMode
  1950                           ;! ---------------------------------------------------------------------------------
  1951                           ;! (2) _SerialBegin                                         10     6      4     792
  1952                           ;!                                              9 COMMON     4     4      0
  1953                           ;!                                              6 BANK0      6     2      4
  1954                           ;!                            ___aldiv
  1955                           ;! ---------------------------------------------------------------------------------
  1956                           ;! (3) ___aldiv                                             15     7      8     604
  1957                           ;!                                              0 COMMON     9     1      8
  1958                           ;!                                              0 BANK0      6     6      0
  1959                           ;! ---------------------------------------------------------------------------------
  1960                           ;! (2) _KeypadBegin                                         16    14      2    2321
  1961                           ;!                                              4 COMMON     9     7      2
  1962                           ;!                                              0 BANK0      7     7      0
  1963                           ;!                            _pinMode
  1964                           ;! ---------------------------------------------------------------------------------
  1965                           ;! (2) _IOConfiguration                                      0     0      0   11024
  1966                           ;!                       _digitalWrite
  1967                           ;!                            _pinMode
  1968                           ;! ---------------------------------------------------------------------------------
  1969                           ;! (3) _pinMode                                              4     3      1    1712
  1970                           ;!                                              0 COMMON     4     3      1
  1971                           ;! ---------------------------------------------------------------------------------
  1972                           ;! (2) _ContadorBegin                                        0     0      0       0
  1973                           ;! ---------------------------------------------------------------------------------
  1974                           ;! (1) _loop                                                 5     5      0   95172
  1975                           ;!                                             15 BANK0      5     5      0
  1976                           ;!                           _Contador
  1977                           ;!                         _KeypadRead
  1978                           ;!                             ___bmul
  1979                           ;!                              _delay
  1980                           ;!                        _digitalRead
  1981                           ;!                       _digitalWrite
  1982                           ;!                           _lcdClear
  1983                           ;!                           _lcdPrint
  1984                           ;!                       _lcdSetCursor
  1985                           ;!                            _sprintf
  1986                           ;! ---------------------------------------------------------------------------------
  1987                           ;! (2) _sprintf                                             23    18      5    1694
  1988                           ;!                                              0 BANK0     15    10      5
  1989                           ;!                            ___lwdiv
  1990                           ;!                            ___lwmod
  1991                           ;! ---------------------------------------------------------------------------------
  1992                           ;! (3) ___lwmod                                              6     2      4     311
  1993                           ;!                                              8 COMMON     6     2      4
  1994                           ;!                            ___lwdiv (ARG)
  1995                           ;! ---------------------------------------------------------------------------------
  1996                           ;! (3) ___lwdiv                                              8     4      4     314
  1997                           ;!                                              0 COMMON     8     4      4
  1998                           ;! ---------------------------------------------------------------------------------
  1999                           ;! (2) _lcdSetCursor                                         4     3      1   22680
  2000                           ;!                                             12 COMMON     2     1      1
  2001                           ;!                                              0 BANK0      2     2      0
  2002                           ;!                   _WriteInstruction
  2003                           ;! ---------------------------------------------------------------------------------
  2004                           ;! (2) _lcdPrint                                             7     5      2   25149
  2005                           ;!                                              0 BANK0      7     5      2
  2006                           ;!                           _lcdWrite
  2007                           ;! ---------------------------------------------------------------------------------
  2008                           ;! (2) _lcdWrite                                             1     1      0   24071
  2009                           ;!                                             12 COMMON     1     1      0
  2010                           ;!                          _WriteData
  2011                           ;!                              _delay
  2012                           ;! ---------------------------------------------------------------------------------
  2013                           ;! (3) _WriteData                                            5     5      0   21405
  2014                           ;!                                              7 COMMON     5     5      0
  2015                           ;!                       _ByteByNibble
  2016                           ;!                              _delay
  2017                           ;!                       _digitalWrite
  2018                           ;! ---------------------------------------------------------------------------------
  2019                           ;! (2) _lcdClear                                             0     0      0   21405
  2020                           ;!                   _WriteInstruction
  2021                           ;! ---------------------------------------------------------------------------------
  2022                           ;! (3) _WriteInstruction                                     5     5      0   21405
  2023                           ;!                                              7 COMMON     5     5      0
  2024                           ;!                       _ByteByNibble
  2025                           ;!                              _delay
  2026                           ;!                       _digitalWrite
  2027                           ;! ---------------------------------------------------------------------------------
  2028                           ;! (4) _ByteByNibble                                         3     3      0    9334
  2029                           ;!                                              4 COMMON     3     3      0
  2030                           ;!                       _digitalWrite
  2031                           ;! ---------------------------------------------------------------------------------
  2032                           ;! (2) ___bmul                                               4     3      1     244
  2033                           ;!                                              0 COMMON     4     3      1
  2034                           ;! ---------------------------------------------------------------------------------
  2035                           ;! (2) _KeypadRead                                           0     0      0   11978
  2036                           ;!                              _delay
  2037                           ;!                        _digitalRead
  2038                           ;!                       _digitalWrite
  2039                           ;! ---------------------------------------------------------------------------------
  2040                           ;! (4) _digitalWrite                                         4     3      1    9312
  2041                           ;!                                              0 COMMON     4     3      1
  2042                           ;! ---------------------------------------------------------------------------------
  2043                           ;! (2) _digitalRead                                          3     3      0      22
  2044                           ;!                                              0 COMMON     3     3      0
  2045                           ;! ---------------------------------------------------------------------------------
  2046                           ;! (3) _delay                                                7     5      2    2644
  2047                           ;!                                              0 COMMON     7     5      2
  2048                           ;! ---------------------------------------------------------------------------------
  2049                           ;! (2) _Contador                                             1     1      0      44
  2050                           ;!                                              0 COMMON     1     1      0
  2051                           ;! ---------------------------------------------------------------------------------
  2052                           ;! (1) _Initialization                                       0     0      0       0
  2053                           ;!                  _CCP1Configuration
  2054                           ;!                  _CCP2Configuration
  2055                           ;! ---------------------------------------------------------------------------------
  2056                           ;! (2) _CCP2Configuration                                    0     0      0       0
  2057                           ;! ---------------------------------------------------------------------------------
  2058                           ;! (2) _CCP1Configuration                                    0     0      0       0
  2059                           ;! ---------------------------------------------------------------------------------
  2060                           ;! Estimated maximum stack depth 4
  2061                           ;! ---------------------------------------------------------------------------------
  2062                           ;!
  2063                           ;! Call Graph Graphs:
  2064                           ;!
  2065                           ;! _main (ROOT)
  2066                           ;!   _Initialization
  2067                           ;!     _CCP1Configuration
  2068                           ;!     _CCP2Configuration
  2069                           ;!   _loop
  2070                           ;!     _Contador
  2071                           ;!     _KeypadRead
  2072                           ;!       _delay
  2073                           ;!       _digitalRead
  2074                           ;!       _digitalWrite
  2075                           ;!     ___bmul
  2076                           ;!     _delay
  2077                           ;!     _digitalRead
  2078                           ;!     _digitalWrite
  2079                           ;!     _lcdClear
  2080                           ;!       _WriteInstruction
  2081                           ;!         _ByteByNibble
  2082                           ;!           _digitalWrite
  2083                           ;!         _delay
  2084                           ;!         _digitalWrite
  2085                           ;!     _lcdPrint
  2086                           ;!       _lcdWrite
  2087                           ;!         _WriteData
  2088                           ;!           _ByteByNibble
  2089                           ;!             _digitalWrite
  2090                           ;!           _delay
  2091                           ;!           _digitalWrite
  2092                           ;!         _delay
  2093                           ;!     _lcdSetCursor
  2094                           ;!       _WriteInstruction
  2095                           ;!         _ByteByNibble
  2096                           ;!           _digitalWrite
  2097                           ;!         _delay
  2098                           ;!         _digitalWrite
  2099                           ;!     _sprintf
  2100                           ;!       ___lwdiv
  2101                           ;!       ___lwmod
  2102                           ;!         ___lwdiv (ARG)
  2103                           ;!   _setup
  2104                           ;!     _ContadorBegin
  2105                           ;!     _IOConfiguration
  2106                           ;!       _digitalWrite
  2107                           ;!       _pinMode
  2108                           ;!     _KeypadBegin
  2109                           ;!       _pinMode
  2110                           ;!     _SerialBegin
  2111                           ;!       ___aldiv
  2112                           ;!     _delay
  2113                           ;!     _lcdBegin
  2114                           ;!       _WriteInstruction
  2115                           ;!         _ByteByNibble
  2116                           ;!           _digitalWrite
  2117                           ;!         _delay
  2118                           ;!         _digitalWrite
  2119                           ;!       _delay
  2120                           ;!       _pinMode
  2121                           ;!     _lcdClear
  2122                           ;!       _WriteInstruction
  2123                           ;!         _ByteByNibble
  2124                           ;!           _digitalWrite
  2125                           ;!         _delay
  2126                           ;!         _digitalWrite
  2127                           ;!     _lcdPrint
  2128                           ;!       _lcdWrite
  2129                           ;!         _WriteData
  2130                           ;!           _ByteByNibble
  2131                           ;!             _digitalWrite
  2132                           ;!           _delay
  2133                           ;!           _digitalWrite
  2134                           ;!         _delay
  2135                           ;!     _lcdSetCursor
  2136                           ;!       _WriteInstruction
  2137                           ;!         _ByteByNibble
  2138                           ;!           _digitalWrite
  2139                           ;!         _delay
  2140                           ;!         _digitalWrite
  2141                           ;!     _lcdWrite
  2142                           ;!       _WriteData
  2143                           ;!         _ByteByNibble
  2144                           ;!           _digitalWrite
  2145                           ;!         _delay
  2146                           ;!         _digitalWrite
  2147                           ;!       _delay
  2148                           ;!
  2149                           
  2150                           ;! Address spaces:
  2151                           
  2152                           ;!Name               Size   Autos  Total    Cost      Usage
  2153                           ;!BANK3               60      0       0       9        0.0%
  2154                           ;!BITBANK3            60      0       0       8        0.0%
  2155                           ;!SFR3                 0      0       0       4        0.0%
  2156                           ;!BITSFR3              0      0       0       4        0.0%
  2157                           ;!BANK2               60      0       0      11        0.0%
  2158                           ;!BITBANK2            60      0       0      10        0.0%
  2159                           ;!SFR2                 0      0       0       5        0.0%
  2160                           ;!BITSFR2              0      0       0       5        0.0%
  2161                           ;!BANK1               50      0      40       7       80.0%
  2162                           ;!BITBANK1            50      0       0       6        0.0%
  2163                           ;!SFR1                 0      0       0       2        0.0%
  2164                           ;!BITSFR1              0      0       0       2        0.0%
  2165                           ;!BANK0               50     14      44       5       85.0%
  2166                           ;!BITBANK0            50      0       0       4        0.0%
  2167                           ;!SFR0                 0      0       0       1        0.0%
  2168                           ;!BITSFR0              0      0       0       1        0.0%
  2169                           ;!COMMON               E      E       E       1      100.0%
  2170                           ;!BITCOMMON            E      0       0       0        0.0%
  2171                           ;!CODE                 0      0       0       0        0.0%
  2172                           ;!DATA                 0      0      92      12        0.0%
  2173                           ;!ABS                  0      0      92       3        0.0%
  2174                           ;!NULL                 0      0       0       0        0.0%
  2175                           ;!STACK                0      0       0       2        0.0%
  2176                           ;!EEDATA             100      0       0       0        0.0%
  2177                           
  2178                           	global	_main
  2179                           
  2180 ;; *************** function _main *****************
  2181 ;; Defined at:
  2182 ;;		line 7 in file "source.c"
  2183 ;; Parameters:    Size  Location     Type
  2184 ;;		None
  2185 ;; Auto vars:     Size  Location     Type
  2186 ;;		None
  2187 ;; Return value:  Size  Location     Type
  2188 ;;                  2  130[None  ] int 
  2189 ;; Registers used:
  2190 ;;		wreg, fsr0l, fsr0h, status,2, status,0, btemp+1, pclath, cstack
  2191 ;; Tracked objects:
  2192 ;;		On entry : B00/0
  2193 ;;		On exit  : 0/0
  2194 ;;		Unchanged: 0/0
  2195 ;; Data sizes:     COMMON   BANK0   BANK1   BANK3   BANK2
  2196 ;;      Params:         0       0       0       0       0
  2197 ;;      Locals:         0       0       0       0       0
  2198 ;;      Temps:          0       0       0       0       0
  2199 ;;      Totals:         0       0       0       0       0
  2200 ;;Total ram usage:        0 bytes
  2201 ;; Hardware stack levels required when called:    6
  2202 ;; This function calls:
  2203 ;;		_Initialization
  2204 ;;		_loop
  2205 ;;		_setup
  2206 ;; This function is called by:
  2207 ;;		Startup code after reset
  2208 ;; This function uses a non-reentrant model
  2209 ;;
  2210                           psect	maintext,global,class=CODE,delta=2,split=1,group=0
  2211                           	file	"source.c"
  2212                           	line	7
  2213                           global __pmaintext
  2214                           __pmaintext:	;psect for function _main
  2215  11BC                     psect	maintext
  2216                           	file	"source.c"
  2217                           	line	7
  2218                           	global	__size_of_main
  2219                           	__size_of_main	equ	__end_of_main-_main
  2220  0015                     	
  2221                           _main:	
  2222  11BC                     ;incstack = 0
  2223                           	opt	stack 2
  2224                           ; Regs used in _main: [wreg-fsr0h+status,2+status,0+btemp+1+pclath+cstack]
  2225                           	line	9
  2226                           	
  2227                           l4312:	
  2228  11BC                     ;source.c: 9:     Initialization();
  2229                           	fcall	_Initialization
  2230  11BC  120A  158A  2002  160A  118A  	line	10
  2231                           	
  2232                           l4314:	
  2233  11C1                     ;source.c: 10:     setup();
  2234                           	fcall	_setup
  2235  11C1  160A  118A  26EE  160A  118A  	goto	l4316
  2236  11C6  29C7               	line	11
  2237                           ;source.c: 11:     while(1)
  2238                           	
  2239                           l131:	
  2240  11C7                     	line	13
  2241                           	
  2242                           l4316:	
  2243  11C7                     ;source.c: 12:     {;source.c: 13:         loop();
  2244                           	fcall	_loop
  2245  11C7  120A  118A  23B7  160A  118A  	goto	l4316
  2246  11CC  29C7               	line	14
  2247                           ;source.c: 14:     }
  2248                           	
  2249                           l132:	
  2250  11CD                     	goto	l4316
  2251  11CD  29C7               	
  2252                           l133:	
  2253  11CE                     	line	16
  2254                           ;source.c: 15:     return 0;;	Return value of _main is never used
  2255                           	
  2256                           l134:	
  2257  11CE                     	global	start
  2258                           	ljmp	start
  2259  11CE  120A  118A  2800   	opt stack 0
  2260                           GLOBAL	__end_of_main
  2261                           	__end_of_main:
  2262  11D1                     	signat	_main,90
  2263                           	global	_setup
  2264                           
  2265 ;; *************** function _setup *****************
  2266 ;; Defined at:
  2267 ;;		line 69 in file "ContadoraCanicas.c"
  2268 ;; Parameters:    Size  Location     Type
  2269 ;;		None
  2270 ;; Auto vars:     Size  Location     Type
  2271 ;;  j               1   19[BANK0 ] unsigned char 
  2272 ;;  i               1   18[BANK0 ] unsigned char 
  2273 ;; Return value:  Size  Location     Type
  2274 ;;                  1    wreg      void 
  2275 ;; Registers used:
  2276 ;;		wreg, fsr0l, fsr0h, status,2, status,0, btemp+1, pclath, cstack
  2277 ;; Tracked objects:
  2278 ;;		On entry : 0/0
  2279 ;;		On exit  : 0/0
  2280 ;;		Unchanged: 0/0
  2281 ;; Data sizes:     COMMON   BANK0   BANK1   BANK3   BANK2
  2282 ;;      Params:         0       0       0       0       0
  2283 ;;      Locals:         0       2       0       0       0
  2284 ;;      Temps:          0       6       0       0       0
  2285 ;;      Totals:         0       8       0       0       0
  2286 ;;Total ram usage:        8 bytes
  2287 ;; Hardware stack levels used:    1
  2288 ;; Hardware stack levels required when called:    5
  2289 ;; This function calls:
  2290 ;;		_ContadorBegin
  2291 ;;		_IOConfiguration
  2292 ;;		_KeypadBegin
  2293 ;;		_SerialBegin
  2294 ;;		_delay
  2295 ;;		_lcdBegin
  2296 ;;		_lcdClear
  2297 ;;		_lcdPrint
  2298 ;;		_lcdSetCursor
  2299 ;;		_lcdWrite
  2300 ;; This function is called by:
  2301 ;;		_main
  2302 ;; This function uses a non-reentrant model
  2303 ;;
  2304                           psect	text1,local,class=CODE,delta=2,merge=1,group=0
  2305                           	file	"ContadoraCanicas.c"
  2306                           	line	69
  2307                           global __ptext1
  2308                           __ptext1:	;psect for function _setup
  2309  16EE                     psect	text1
  2310                           	file	"ContadoraCanicas.c"
  2311                           	line	69
  2312                           	global	__size_of_setup
  2313                           	__size_of_setup	equ	__end_of_setup-_setup
  2314  0112                     	
  2315                           _setup:	
  2316  16EE                     ;incstack = 0
  2317                           	opt	stack 2
  2318                           ; Regs used in _setup: [wreg-fsr0h+status,2+status,0+btemp+1+pclath+cstack]
  2319                           	line	71
  2320                           	
  2321                           l3982:	
  2322  16EE                     ;ContadoraCanicas.c: 71:  Estado = Apagado;
  2323                           	bcf	status, 5	;RP0=0, select bank0
  2324  16EE  1283               	bcf	status, 6	;RP1=0, select bank0
  2325  16EF  1303               	clrf	(_Estado)
  2326  16F0  01E0               	incf	(_Estado),f
  2327  16F1  0AE0               	line	72
  2328                           	
  2329                           l3984:	
  2330  16F2                     ;ContadoraCanicas.c: 72:  lcdBegin(RS,En,RnW,D4,D5,D6,D7);
  2331                           	movlw	low((_En-__stringbase))
  2332  16F2  3015               	movwf	fsr0
  2333  16F3  0084               	fcall	stringdir
  2334  16F4  160A  118A  200A  160A  118A  	movwf	(??_setup+0)+0
  2335  16F9  00CA               	movf	(??_setup+0)+0,w
  2336  16FA  084A               	movwf	(lcdBegin@EN)
  2337  16FB  00BE               	movlw	low((_RnW-__stringbase))
  2338  16FC  3016               	movwf	fsr0
  2339  16FD  0084               	fcall	stringdir
  2340  16FE  160A  118A  200A  160A  118A  	movwf	(??_setup+1)+0
  2341  1703  00CB               	movf	(??_setup+1)+0,w
  2342  1704  084B               	movwf	(lcdBegin@R_W)
  2343  1705  00BF               	movlw	low((_D4-__stringbase))
  2344  1706  3014               	movwf	fsr0
  2345  1707  0084               	fcall	stringdir
  2346  1708  160A  118A  200A  160A  118A  	movwf	(??_setup+2)+0
  2347  170D  00CC               	movf	(??_setup+2)+0,w
  2348  170E  084C               	movwf	(lcdBegin@d4)
  2349  170F  00C0               	movlw	low((_D5-__stringbase))
  2350  1710  3013               	movwf	fsr0
  2351  1711  0084               	fcall	stringdir
  2352  1712  160A  118A  200A  160A  118A  	movwf	(??_setup+3)+0
  2353  1717  00CD               	movf	(??_setup+3)+0,w
  2354  1718  084D               	movwf	(lcdBegin@d5)
  2355  1719  00C1               	movlw	low((_D6-__stringbase))
  2356  171A  3012               	movwf	fsr0
  2357  171B  0084               	fcall	stringdir
  2358  171C  160A  118A  200A  160A  118A  	movwf	(??_setup+4)+0
  2359  1721  00CE               	movf	(??_setup+4)+0,w
  2360  1722  084E               	movwf	(lcdBegin@d6)
  2361  1723  00C2               	movlw	low((_D7-__stringbase))
  2362  1724  3011               	movwf	fsr0
  2363  1725  0084               	fcall	stringdir
  2364  1726  160A  118A  200A  160A  118A  	movwf	(??_setup+5)+0
  2365  172B  00CF               	movf	(??_setup+5)+0,w
  2366  172C  084F               	movwf	(lcdBegin@d7)
  2367  172D  00C3               	movlw	low((_RS-__stringbase))
  2368  172E  3017               	movwf	fsr0
  2369  172F  0084               	fcall	stringdir
  2370  1730  160A  118A  200A  160A  118A  	fcall	_lcdBegin
  2371  1735  160A  118A  24AF  160A  118A  	line	73
  2372                           ;ContadoraCanicas.c: 73:  KeypadBegin(ROWS,COLS,Teclas);
  2373                           	movlw	(low((((_COLS)-__stringbase)|8000h)))&0ffh
  2374  173A  3018               	bcf	status, 5	;RP0=0, select bank0
  2375  173B  1283               	bcf	status, 6	;RP1=0, select bank0
  2376  173C  1303               	movwf	(??_setup+0)+0
  2377  173D  00CA               	movf	(??_setup+0)+0,w
  2378  173E  084A               	movwf	(KeypadBegin@cols)
  2379  173F  00F4               	movlw	(low(_Teclas|((0x0)<<8)))&0ffh
  2380  1740  30D0               	movwf	(??_setup+1)+0
  2381  1741  00CB               	movf	(??_setup+1)+0,w
  2382  1742  084B               	movwf	(KeypadBegin@data)
  2383  1743  00F5               	movlw	(low((((_ROWS)-__stringbase)|8000h)))&0ffh
  2384  1744  3020               	fcall	_KeypadBegin
  2385  1745  160A  118A  25F6  160A  118A  	line	74
  2386                           	
  2387                           l3986:	
  2388  174A                     ;ContadoraCanicas.c: 74:  SerialBegin(9600);
  2389                           	movlw	0
  2390  174A  3000               	bcf	status, 5	;RP0=0, select bank0
  2391  174B  1283               	bcf	status, 6	;RP1=0, select bank0
  2392  174C  1303               	movwf	(SerialBegin@BaudRate+3)
  2393  174D  00C7               	movlw	0
  2394  174E  3000               	movwf	(SerialBegin@BaudRate+2)
  2395  174F  00C6               	movlw	025h
  2396  1750  3025               	movwf	(SerialBegin@BaudRate+1)
  2397  1751  00C5               	movlw	080h
  2398  1752  3080               	movwf	(SerialBegin@BaudRate)
  2399  1753  00C4               
  2400                           	fcall	_SerialBegin
  2401  1754  160A  118A  2551  160A  118A  	line	75
  2402                           	
  2403                           l3988:	
  2404  1759                     ;ContadoraCanicas.c: 75:  ContadorBegin();
  2405                           	fcall	_ContadorBegin
  2406  1759  160A  118A  218F  160A  118A  	line	76
  2407                           	
  2408                           l3990:	
  2409  175E                     ;ContadoraCanicas.c: 76:  IOConfiguration();
  2410                           	fcall	_IOConfiguration
  2411  175E  160A  118A  242A  160A  118A  	line	77
  2412                           	
  2413                           l3992:	
  2414  1763                     ;ContadoraCanicas.c: 77:  Latch = 0;
  2415                           	bcf	status, 5	;RP0=0, select bank0
  2416  1763  1283               	bcf	status, 6	;RP1=0, select bank0
  2417  1764  1303               	clrf	(_Latch)
  2418  1765  01BB               	line	78
  2419                           	
  2420                           l3994:	
  2421  1766                     ;ContadoraCanicas.c: 78:  LatchB = 0;
  2422                           	clrf	(_LatchB)
  2423  1766  01BA               	line	79
  2424                           	
  2425                           l3996:	
  2426  1767                     ;ContadoraCanicas.c: 79:  LatchC = 0;
  2427                           	clrf	(_LatchC)
  2428  1767  01B9               	line	80
  2429                           	
  2430                           l3998:	
  2431  1768                     ;ContadoraCanicas.c: 80:  lcdClear();
  2432                           	fcall	_lcdClear
  2433  1768  160A  118A  2180  160A  118A  	line	81
  2434                           	
  2435                           l4000:	
  2436  176D                     ;ContadoraCanicas.c: 81:  lcdSetCursor(1,1);
  2437                           	clrf	(lcdSetCursor@column)
  2438  176D  01FC               	incf	(lcdSetCursor@column),f
  2439  176E  0AFC               	movlw	low(01h)
  2440  176F  3001               	fcall	_lcdSetCursor
  2441  1770  160A  118A  2225  160A  118A  	line	82
  2442                           	
  2443                           l4002:	
  2444  1775                     ;ContadoraCanicas.c: 82:  lcdPrint(" EQUIPO  WiCoRe ");
  2445                           	movlw	(low((((STR_1)-__stringbase)|8000h)))&0ffh
  2446  1775  304A               	bcf	status, 5	;RP0=0, select bank0
  2447  1776  1283               	bcf	status, 6	;RP1=0, select bank0
  2448  1777  1303               	movwf	(lcdPrint@string)
  2449  1778  00BE               	movlw	80h
  2450  1779  3080               	movwf	(lcdPrint@string+1)
  2451  177A  00BF               	fcall	_lcdPrint
  2452  177B  160A  118A  2292  160A  118A  	line	83
  2453                           	
  2454                           l4004:	
  2455  1780                     ;ContadoraCanicas.c: 83:  lcdSetCursor(2,1);
  2456                           	clrf	(lcdSetCursor@column)
  2457  1780  01FC               	incf	(lcdSetCursor@column),f
  2458  1781  0AFC               	movlw	low(02h)
  2459  1782  3002               	fcall	_lcdSetCursor
  2460  1783  160A  118A  2225  160A  118A  	line	84
  2461                           	
  2462                           l4006:	
  2463  1788                     ;ContadoraCanicas.c: 84:  for(char i=0;i<16;i++)
  2464                           	bcf	status, 5	;RP0=0, select bank0
  2465  1788  1283               	bcf	status, 6	;RP1=0, select bank0
  2466  1789  1303               	clrf	(setup@i)
  2467  178A  01D0               	
  2468                           l4008:	
  2469  178B                     	movlw	low(010h)
  2470  178B  3010               	subwf	(setup@i),w
  2471  178C  0250               	skipc
  2472  178D  1C03               	goto	u2461
  2473  178E  2F90               	goto	u2460
  2474  178F  2F91               u2461:
  2475  1790                     	goto	l4012
  2476  1790  2F93               u2460:
  2477  1791                     	goto	l4020
  2478  1791  2FAF               	
  2479                           l4010:	
  2480  1792                     	goto	l4020
  2481  1792  2FAF               	
  2482                           l487:	
  2483  1793                     	line	86
  2484                           	
  2485                           l4012:	
  2486  1793                     ;ContadoraCanicas.c: 85:  {;ContadoraCanicas.c: 86:   lcdWrite('.');
  2487                           	movlw	low(02Eh)
  2488  1793  302E               	fcall	_lcdWrite
  2489  1794  160A  118A  2198  160A  118A  	line	87
  2490                           	
  2491                           l4014:	
  2492  1799                     ;ContadoraCanicas.c: 87:   delay(100);
  2493                           	movlw	064h
  2494  1799  3064               	movwf	(delay@milis)
  2495  179A  00F0               	movlw	0
  2496  179B  3000               	movwf	((delay@milis))+1
  2497  179C  00F1               	fcall	_delay
  2498  179D  120A  118A  2012  160A  118A  	line	88
  2499                           	
  2500                           l4016:	
  2501  17A2                     ;ContadoraCanicas.c: 88:  }
  2502                           	movlw	low(01h)
  2503  17A2  3001               	bcf	status, 5	;RP0=0, select bank0
  2504  17A3  1283               	bcf	status, 6	;RP1=0, select bank0
  2505  17A4  1303               	movwf	(??_setup+0)+0
  2506  17A5  00CA               	movf	(??_setup+0)+0,w
  2507  17A6  084A               	addwf	(setup@i),f
  2508  17A7  07D0               	
  2509                           l4018:	
  2510  17A8                     	movlw	low(010h)
  2511  17A8  3010               	subwf	(setup@i),w
  2512  17A9  0250               	skipc
  2513  17AA  1C03               	goto	u2471
  2514  17AB  2FAD               	goto	u2470
  2515  17AC  2FAE               u2471:
  2516  17AD                     	goto	l4012
  2517  17AD  2F93               u2470:
  2518  17AE                     	goto	l4020
  2519  17AE  2FAF               	
  2520                           l488:	
  2521  17AF                     	line	89
  2522                           	
  2523                           l4020:	
  2524  17AF                     ;ContadoraCanicas.c: 89:  lcdClear();
  2525                           	fcall	_lcdClear
  2526  17AF  160A  118A  2180  160A  118A  	line	90
  2527                           ;ContadoraCanicas.c: 90:  lcdSetCursor(1,1);
  2528                           	clrf	(lcdSetCursor@column)
  2529  17B4  01FC               	incf	(lcdSetCursor@column),f
  2530  17B5  0AFC               	movlw	low(01h)
  2531  17B6  3001               	fcall	_lcdSetCursor
  2532  17B7  160A  118A  2225  160A  118A  	line	91
  2533                           ;ContadoraCanicas.c: 91:  lcdPrint(" Marble Counter ");
  2534                           	movlw	(low((((STR_2)-__stringbase)|8000h)))&0ffh
  2535  17BC  305B               	bcf	status, 5	;RP0=0, select bank0
  2536  17BD  1283               	bcf	status, 6	;RP1=0, select bank0
  2537  17BE  1303               	movwf	(lcdPrint@string)
  2538  17BF  00BE               	movlw	80h
  2539  17C0  3080               	movwf	(lcdPrint@string+1)
  2540  17C1  00BF               	fcall	_lcdPrint
  2541  17C2  160A  118A  2292  160A  118A  	line	92
  2542                           ;ContadoraCanicas.c: 92:      lcdSetCursor(2,1);
  2543                           	clrf	(lcdSetCursor@column)
  2544  17C7  01FC               	incf	(lcdSetCursor@column),f
  2545  17C8  0AFC               	movlw	low(02h)
  2546  17C9  3002               	fcall	_lcdSetCursor
  2547  17CA  160A  118A  2225  160A  118A  	line	93
  2548                           	
  2549                           l4022:	
  2550  17CF                     ;ContadoraCanicas.c: 93:  for(char j=0;j<16;j++)
  2551                           	bcf	status, 5	;RP0=0, select bank0
  2552  17CF  1283               	bcf	status, 6	;RP1=0, select bank0
  2553  17D0  1303               	clrf	(setup@j)
  2554  17D1  01D1               	
  2555                           l4024:	
  2556  17D2                     	movlw	low(010h)
  2557  17D2  3010               	subwf	(setup@j),w
  2558  17D3  0251               	skipc
  2559  17D4  1C03               	goto	u2481
  2560  17D5  2FD7               	goto	u2480
  2561  17D6  2FD8               u2481:
  2562  17D7                     	goto	l4028
  2563  17D7  2FDA               u2480:
  2564  17D8                     	goto	l4036
  2565  17D8  2FF6               	
  2566                           l4026:	
  2567  17D9                     	goto	l4036
  2568  17D9  2FF6               	
  2569                           l489:	
  2570  17DA                     	line	95
  2571                           	
  2572                           l4028:	
  2573  17DA                     ;ContadoraCanicas.c: 94:  {;ContadoraCanicas.c: 95:   lcdWrite('.');
  2574                           	movlw	low(02Eh)
  2575  17DA  302E               	fcall	_lcdWrite
  2576  17DB  160A  118A  2198  160A  118A  	line	96
  2577                           	
  2578                           l4030:	
  2579  17E0                     ;ContadoraCanicas.c: 96:   delay(100);
  2580                           	movlw	064h
  2581  17E0  3064               	movwf	(delay@milis)
  2582  17E1  00F0               	movlw	0
  2583  17E2  3000               	movwf	((delay@milis))+1
  2584  17E3  00F1               	fcall	_delay
  2585  17E4  120A  118A  2012  160A  118A  	line	97
  2586                           	
  2587                           l4032:	
  2588  17E9                     ;ContadoraCanicas.c: 97:  }
  2589                           	movlw	low(01h)
  2590  17E9  3001               	bcf	status, 5	;RP0=0, select bank0
  2591  17EA  1283               	bcf	status, 6	;RP1=0, select bank0
  2592  17EB  1303               	movwf	(??_setup+0)+0
  2593  17EC  00CA               	movf	(??_setup+0)+0,w
  2594  17ED  084A               	addwf	(setup@j),f
  2595  17EE  07D1               	
  2596                           l4034:	
  2597  17EF                     	movlw	low(010h)
  2598  17EF  3010               	subwf	(setup@j),w
  2599  17F0  0251               	skipc
  2600  17F1  1C03               	goto	u2491
  2601  17F2  2FF4               	goto	u2490
  2602  17F3  2FF5               u2491:
  2603  17F4                     	goto	l4028
  2604  17F4  2FDA               u2490:
  2605  17F5                     	goto	l4036
  2606  17F5  2FF6               	
  2607                           l490:	
  2608  17F6                     	line	98
  2609                           	
  2610                           l4036:	
  2611  17F6                     ;ContadoraCanicas.c: 98:  delay(250);
  2612                           	movlw	0FAh
  2613  17F6  30FA               	movwf	(delay@milis)
  2614  17F7  00F0               	movlw	0
  2615  17F8  3000               	movwf	((delay@milis))+1
  2616  17F9  00F1               	fcall	_delay
  2617  17FA  120A  118A  2012  160A  118A  	line	99
  2618                           	
  2619                           l491:	
  2620  17FF                     	return
  2621  17FF  0008               	opt stack 0
  2622                           GLOBAL	__end_of_setup
  2623                           	__end_of_setup:
  2624  1800                     	signat	_setup,89
  2625                           	global	_lcdBegin
  2626                           
  2627 ;; *************** function _lcdBegin *****************
  2628 ;; Defined at:
  2629 ;;		line 18 in file "LCD16x2.c"
  2630 ;; Parameters:    Size  Location     Type
  2631 ;;  RS              1    wreg     unsigned char 
  2632 ;;  EN              1    0[BANK0 ] unsigned char 
  2633 ;;  R_W             1    1[BANK0 ] unsigned char 
  2634 ;;  d4              1    2[BANK0 ] unsigned char 
  2635 ;;  d5              1    3[BANK0 ] unsigned char 
  2636 ;;  d6              1    4[BANK0 ] unsigned char 
  2637 ;;  d7              1    5[BANK0 ] unsigned char 
  2638 ;; Auto vars:     Size  Location     Type
  2639 ;;  RS              1    6[BANK0 ] unsigned char 
  2640 ;; Return value:  Size  Location     Type
  2641 ;;                  1    wreg      void 
  2642 ;; Registers used:
  2643 ;;		wreg, fsr0l, fsr0h, status,2, status,0, btemp+1, pclath, cstack
  2644 ;; Tracked objects:
  2645 ;;		On entry : 0/0
  2646 ;;		On exit  : 0/0
  2647 ;;		Unchanged: 0/0
  2648 ;; Data sizes:     COMMON   BANK0   BANK1   BANK3   BANK2
  2649 ;;      Params:         0       6       0       0       0
  2650 ;;      Locals:         0       1       0       0       0
  2651 ;;      Temps:          2       0       0       0       0
  2652 ;;      Totals:         2       7       0       0       0
  2653 ;;Total ram usage:        9 bytes
  2654 ;; Hardware stack levels used:    1
  2655 ;; Hardware stack levels required when called:    3
  2656 ;; This function calls:
  2657 ;;		_WriteInstruction
  2658 ;;		_delay
  2659 ;;		_pinMode
  2660 ;; This function is called by:
  2661 ;;		_setup
  2662 ;; This function uses a non-reentrant model
  2663 ;;
  2664                           psect	text2,local,class=CODE,delta=2,merge=1,group=0
  2665                           	file	"LCD16x2.c"
  2666                           	line	18
  2667                           global __ptext2
  2668                           __ptext2:	;psect for function _lcdBegin
  2669  14AF                     psect	text2
  2670                           	file	"LCD16x2.c"
  2671                           	line	18
  2672                           	global	__size_of_lcdBegin
  2673                           	__size_of_lcdBegin	equ	__end_of_lcdBegin-_lcdBegin
  2674  00A2                     	
  2675                           _lcdBegin:	
  2676  14AF                     ;incstack = 0
  2677                           	opt	stack 3
  2678                           ; Regs used in _lcdBegin: [wreg-fsr0h+status,2+status,0+btemp+1+pclath+cstack]
  2679                           ;lcdBegin@RS stored from wreg
  2680                           	bcf	status, 5	;RP0=0, select bank0
  2681  14AF  1283               	bcf	status, 6	;RP1=0, select bank0
  2682  14B0  1303               	movwf	(lcdBegin@RS)
  2683  14B1  00C4               	line	20
  2684                           	
  2685                           l3626:	
  2686  14B2                     ;LCD16x2.c: 18: void lcdBegin(char RS, char EN, char R_W, char d4, char d5, char d6,char
                                  d7);LCD16x2.c: 19: {;LCD16x2.c: 20:     RSPin = RS;
  2687                           	movf	(lcdBegin@RS),w
  2688  14B2  0844               	movwf	(??_lcdBegin+0)+0
  2689  14B3  00FC               	clrf	(??_lcdBegin+0)+0+1
  2690  14B4  01FD               	movf	0+(??_lcdBegin+0)+0,w
  2691  14B5  087C               	movwf	(_RSPin)
  2692  14B6  00DE               	movf	1+(??_lcdBegin+0)+0,w
  2693  14B7  087D               	movwf	(_RSPin+1)
  2694  14B8  00DF               	line	21
  2695                           ;LCD16x2.c: 21:     ENPin = EN;
  2696                           	movf	(lcdBegin@EN),w
  2697  14B9  083E               	movwf	(??_lcdBegin+0)+0
  2698  14BA  00FC               	clrf	(??_lcdBegin+0)+0+1
  2699  14BB  01FD               	movf	0+(??_lcdBegin+0)+0,w
  2700  14BC  087C               	movwf	(_ENPin)
  2701  14BD  00DC               	movf	1+(??_lcdBegin+0)+0,w
  2702  14BE  087D               	movwf	(_ENPin+1)
  2703  14BF  00DD               	line	22
  2704                           ;LCD16x2.c: 22:     RWPin = R_W;
  2705                           	movf	(lcdBegin@R_W),w
  2706  14C0  083F               	movwf	(??_lcdBegin+0)+0
  2707  14C1  00FC               	clrf	(??_lcdBegin+0)+0+1
  2708  14C2  01FD               	movf	0+(??_lcdBegin+0)+0,w
  2709  14C3  087C               	movwf	(_RWPin)
  2710  14C4  00DA               	movf	1+(??_lcdBegin+0)+0,w
  2711  14C5  087D               	movwf	(_RWPin+1)
  2712  14C6  00DB               	line	23
  2713                           ;LCD16x2.c: 23:     d4Pin = d4;
  2714                           	movf	(lcdBegin@d4),w
  2715  14C7  0840               	movwf	(??_lcdBegin+0)+0
  2716  14C8  00FC               	clrf	(??_lcdBegin+0)+0+1
  2717  14C9  01FD               	movf	0+(??_lcdBegin+0)+0,w
  2718  14CA  087C               	movwf	(_d4Pin)
  2719  14CB  00D8               	movf	1+(??_lcdBegin+0)+0,w
  2720  14CC  087D               	movwf	(_d4Pin+1)
  2721  14CD  00D9               	line	24
  2722                           ;LCD16x2.c: 24:     d5Pin = d5;
  2723                           	movf	(lcdBegin@d5),w
  2724  14CE  0841               	movwf	(??_lcdBegin+0)+0
  2725  14CF  00FC               	clrf	(??_lcdBegin+0)+0+1
  2726  14D0  01FD               	movf	0+(??_lcdBegin+0)+0,w
  2727  14D1  087C               	movwf	(_d5Pin)
  2728  14D2  00D6               	movf	1+(??_lcdBegin+0)+0,w
  2729  14D3  087D               	movwf	(_d5Pin+1)
  2730  14D4  00D7               	line	25
  2731                           ;LCD16x2.c: 25:     d6Pin = d6;
  2732                           	movf	(lcdBegin@d6),w
  2733  14D5  0842               	movwf	(??_lcdBegin+0)+0
  2734  14D6  00FC               	clrf	(??_lcdBegin+0)+0+1
  2735  14D7  01FD               	movf	0+(??_lcdBegin+0)+0,w
  2736  14D8  087C               	movwf	(_d6Pin)
  2737  14D9  00D4               	movf	1+(??_lcdBegin+0)+0,w
  2738  14DA  087D               	movwf	(_d6Pin+1)
  2739  14DB  00D5               	line	26
  2740                           ;LCD16x2.c: 26:     d7Pin = d7;
  2741                           	movf	(lcdBegin@d7),w
  2742  14DC  0843               	movwf	(??_lcdBegin+0)+0
  2743  14DD  00FC               	clrf	(??_lcdBegin+0)+0+1
  2744  14DE  01FD               	movf	0+(??_lcdBegin+0)+0,w
  2745  14DF  087C               	movwf	(_d7Pin)
  2746  14E0  00D2               	movf	1+(??_lcdBegin+0)+0,w
  2747  14E1  087D               	movwf	(_d7Pin+1)
  2748  14E2  00D3               	line	27
  2749                           	
  2750                           l3628:	
  2751  14E3                     ;LCD16x2.c: 27:     pinMode(RS,0);
  2752                           	clrf	(pinMode@mode)
  2753  14E3  01F0               	movf	(lcdBegin@RS),w
  2754  14E4  0844               	fcall	_pinMode
  2755  14E5  120A  158A  21E5  160A  118A  	line	28
  2756                           	
  2757                           l3630:	
  2758  14EA                     ;LCD16x2.c: 28:     pinMode(EN,0);
  2759                           	clrf	(pinMode@mode)
  2760  14EA  01F0               	bcf	status, 5	;RP0=0, select bank0
  2761  14EB  1283               	bcf	status, 6	;RP1=0, select bank0
  2762  14EC  1303               	movf	(lcdBegin@EN),w
  2763  14ED  083E               	fcall	_pinMode
  2764  14EE  120A  158A  21E5  160A  118A  	line	29
  2765                           	
  2766                           l3632:	
  2767  14F3                     ;LCD16x2.c: 29:     pinMode(R_W,0);
  2768                           	clrf	(pinMode@mode)
  2769  14F3  01F0               	bcf	status, 5	;RP0=0, select bank0
  2770  14F4  1283               	bcf	status, 6	;RP1=0, select bank0
  2771  14F5  1303               	movf	(lcdBegin@R_W),w
  2772  14F6  083F               	fcall	_pinMode
  2773  14F7  120A  158A  21E5  160A  118A  	line	30
  2774                           	
  2775                           l3634:	
  2776  14FC                     ;LCD16x2.c: 30:     pinMode(d4,0);
  2777                           	clrf	(pinMode@mode)
  2778  14FC  01F0               	bcf	status, 5	;RP0=0, select bank0
  2779  14FD  1283               	bcf	status, 6	;RP1=0, select bank0
  2780  14FE  1303               	movf	(lcdBegin@d4),w
  2781  14FF  0840               	fcall	_pinMode
  2782  1500  120A  158A  21E5  160A  118A  	line	31
  2783                           	
  2784                           l3636:	
  2785  1505                     ;LCD16x2.c: 31:     pinMode(d5,0);
  2786                           	clrf	(pinMode@mode)
  2787  1505  01F0               	bcf	status, 5	;RP0=0, select bank0
  2788  1506  1283               	bcf	status, 6	;RP1=0, select bank0
  2789  1507  1303               	movf	(lcdBegin@d5),w
  2790  1508  0841               	fcall	_pinMode
  2791  1509  120A  158A  21E5  160A  118A  	line	32
  2792                           	
  2793                           l3638:	
  2794  150E                     ;LCD16x2.c: 32:     pinMode(d6,0);
  2795                           	clrf	(pinMode@mode)
  2796  150E  01F0               	bcf	status, 5	;RP0=0, select bank0
  2797  150F  1283               	bcf	status, 6	;RP1=0, select bank0
  2798  1510  1303               	movf	(lcdBegin@d6),w
  2799  1511  0842               	fcall	_pinMode
  2800  1512  120A  158A  21E5  160A  118A  	line	33
  2801                           	
  2802                           l3640:	
  2803  1517                     ;LCD16x2.c: 33:     pinMode(d7,0);
  2804                           	clrf	(pinMode@mode)
  2805  1517  01F0               	bcf	status, 5	;RP0=0, select bank0
  2806  1518  1283               	bcf	status, 6	;RP1=0, select bank0
  2807  1519  1303               	movf	(lcdBegin@d7),w
  2808  151A  0843               	fcall	_pinMode
  2809  151B  120A  158A  21E5  160A  118A  	line	34
  2810                           	
  2811                           l3642:	
  2812  1520                     ;LCD16x2.c: 34:     delay(15);
  2813                           	movlw	0Fh
  2814  1520  300F               	movwf	(delay@milis)
  2815  1521  00F0               	movlw	0
  2816  1522  3000               	movwf	((delay@milis))+1
  2817  1523  00F1               	fcall	_delay
  2818  1524  120A  118A  2012  160A  118A  	line	35
  2819                           	
  2820                           l3644:	
  2821  1529                     ;LCD16x2.c: 35:     WriteInstruction(0x02);
  2822                           	movlw	low(02h)
  2823  1529  3002               	fcall	_WriteInstruction
  2824  152A  160A  118A  2325  160A  118A  	line	36
  2825                           	
  2826                           l3646:	
  2827  152F                     ;LCD16x2.c: 36:     delay(5);
  2828                           	movlw	05h
  2829  152F  3005               	movwf	(delay@milis)
  2830  1530  00F0               	movlw	0
  2831  1531  3000               	movwf	((delay@milis))+1
  2832  1532  00F1               	fcall	_delay
  2833  1533  120A  118A  2012  160A  118A  	line	37
  2834                           	
  2835                           l3648:	
  2836  1538                     ;LCD16x2.c: 37:     WriteInstruction(0x28);
  2837                           	movlw	low(028h)
  2838  1538  3028               	fcall	_WriteInstruction
  2839  1539  160A  118A  2325  160A  118A  	line	38
  2840                           	
  2841                           l3650:	
  2842  153E                     ;LCD16x2.c: 38:     WriteInstruction(0x01);
  2843                           	movlw	low(01h)
  2844  153E  3001               	fcall	_WriteInstruction
  2845  153F  160A  118A  2325  160A  118A  	line	39
  2846                           	
  2847                           l3652:	
  2848  1544                     ;LCD16x2.c: 39:     WriteInstruction(0x0C);
  2849                           	movlw	low(0Ch)
  2850  1544  300C               	fcall	_WriteInstruction
  2851  1545  160A  118A  2325  160A  118A  	line	40
  2852                           	
  2853                           l3654:	
  2854  154A                     ;LCD16x2.c: 40:     WriteInstruction(0x06);
  2855                           	movlw	low(06h)
  2856  154A  3006               	fcall	_WriteInstruction
  2857  154B  160A  118A  2325  160A  118A  	line	41
  2858                           	
  2859                           l673:	
  2860  1550                     	return
  2861  1550  0008               	opt stack 0
  2862                           GLOBAL	__end_of_lcdBegin
  2863                           	__end_of_lcdBegin:
  2864  1551                     	signat	_lcdBegin,28793
  2865                           	global	_SerialBegin
  2866                           
  2867 ;; *************** function _SerialBegin *****************
  2868 ;; Defined at:
  2869 ;;		line 450 in file "source.c"
  2870 ;; Parameters:    Size  Location     Type
  2871 ;;  BaudRate        4    6[BANK0 ] const long 
  2872 ;; Auto vars:     Size  Location     Type
  2873 ;;  x               2   10[BANK0 ] unsigned int 
  2874 ;; Return value:  Size  Location     Type
  2875 ;;                  1    wreg      unsigned char 
  2876 ;; Registers used:
  2877 ;;		wreg, status,2, status,0, pclath, cstack
  2878 ;; Tracked objects:
  2879 ;;		On entry : 0/0
  2880 ;;		On exit  : 0/0
  2881 ;;		Unchanged: 0/0
  2882 ;; Data sizes:     COMMON   BANK0   BANK1   BANK3   BANK2
  2883 ;;      Params:         0       4       0       0       0
  2884 ;;      Locals:         0       2       0       0       0
  2885 ;;      Temps:          4       0       0       0       0
  2886 ;;      Totals:         4       6       0       0       0
  2887 ;;Total ram usage:       10 bytes
  2888 ;; Hardware stack levels used:    1
  2889 ;; Hardware stack levels required when called:    1
  2890 ;; This function calls:
  2891 ;;		___aldiv
  2892 ;; This function is called by:
  2893 ;;		_setup
  2894 ;; This function uses a non-reentrant model
  2895 ;;
  2896                           psect	text3,local,class=CODE,delta=2,merge=1,group=0
  2897                           	file	"source.c"
  2898                           	line	450
  2899                           global __ptext3
  2900                           __ptext3:	;psect for function _SerialBegin
  2901  1551                     psect	text3
  2902                           	file	"source.c"
  2903                           	line	450
  2904                           	global	__size_of_SerialBegin
  2905                           	__size_of_SerialBegin	equ	__end_of_SerialBegin-_SerialBegin
  2906  00A5                     	
  2907                           _SerialBegin:	
  2908  1551                     ;incstack = 0
  2909                           	opt	stack 5
  2910                           ; Regs used in _SerialBegin: [wreg+status,2+status,0+pclath+cstack]
  2911                           	line	456
  2912                           	
  2913                           l3574:	
  2914  1551                     ;source.c: 450: char SerialBegin(const long int BaudRate);source.c: 451: {;source.c: 455
                                 :  unsigned int x;;source.c: 456:  BRGH = 0;
  2915                           	bsf	status, 5	;RP0=1, select bank1
  2916  1551  1683               	bcf	status, 6	;RP1=0, select bank1
  2917  1552  1303               	bcf	(1218/8)^080h,(1218)&7	;volatile
  2918  1553  1118               	line	457
  2919                           	
  2920                           l3576:	
  2921  1554                     ;source.c: 457:  x = (20000000 / (64 * BaudRate)) - 1;
  2922                           	bcf	status, 5	;RP0=0, select bank0
  2923  1554  1283               	bcf	status, 6	;RP1=0, select bank0
  2924  1555  1303               	movf	(SerialBegin@BaudRate),w
  2925  1556  0844               	movwf	(??_SerialBegin+0)+0
  2926  1557  00F9               	movf	(SerialBegin@BaudRate+1),w
  2927  1558  0845               	movwf	((??_SerialBegin+0)+0+1)
  2928  1559  00FA               	movf	(SerialBegin@BaudRate+2),w
  2929  155A  0846               	movwf	((??_SerialBegin+0)+0+2)
  2930  155B  00FB               	movf	(SerialBegin@BaudRate+3),w
  2931  155C  0847               	movwf	((??_SerialBegin+0)+0+3)
  2932  155D  00FC               	movlw	06h
  2933  155E  3006               u1855:
  2934  155F                     	clrc
  2935  155F  1003               	rlf	(??_SerialBegin+0)+0,f
  2936  1560  0DF9               	rlf	(??_SerialBegin+0)+1,f
  2937  1561  0DFA               	rlf	(??_SerialBegin+0)+2,f
  2938  1562  0DFB               	rlf	(??_SerialBegin+0)+3,f
  2939  1563  0DFC               u1850:
  2940  1564                     	addlw	-1
  2941  1564  3EFF               	skipz
  2942  1565  1D03               	goto	u1855
  2943  1566  2D5F               	movf	3+(??_SerialBegin+0)+0,w
  2944  1567  087C               	movwf	(___aldiv@divisor+3)
  2945  1568  00F3               	movf	2+(??_SerialBegin+0)+0,w
  2946  1569  087B               	movwf	(___aldiv@divisor+2)
  2947  156A  00F2               	movf	1+(??_SerialBegin+0)+0,w
  2948  156B  087A               	movwf	(___aldiv@divisor+1)
  2949  156C  00F1               	movf	0+(??_SerialBegin+0)+0,w
  2950  156D  0879               	movwf	(___aldiv@divisor)
  2951  156E  00F0               
  2952                           	movlw	01h
  2953  156F  3001               	movwf	(___aldiv@dividend+3)
  2954  1570  00F7               	movlw	031h
  2955  1571  3031               	movwf	(___aldiv@dividend+2)
  2956  1572  00F6               	movlw	02Dh
  2957  1573  302D               	movwf	(___aldiv@dividend+1)
  2958  1574  00F5               	movlw	0
  2959  1575  3000               	movwf	(___aldiv@dividend)
  2960  1576  00F4               
  2961                           	fcall	___aldiv
  2962  1577  120A  158A  2028  160A  118A  	movf	(0+(?___aldiv)),w
  2963  157C  0870               	addlw	low(0FFFFh)
  2964  157D  3EFF               	bcf	status, 5	;RP0=0, select bank0
  2965  157E  1283               	bcf	status, 6	;RP1=0, select bank0
  2966  157F  1303               	movwf	(SerialBegin@x)
  2967  1580  00C8               	movf	(1+(?___aldiv)),w
  2968  1581  0871               	skipnc
  2969  1582  1803               	addlw	1
  2970  1583  3E01               	addlw	high(0FFFFh)
  2971  1584  3EFF               	movwf	1+(SerialBegin@x)
  2972  1585  00C9               	line	458
  2973                           	
  2974                           l3578:	
  2975  1586                     ;source.c: 458:  if(x > 255)
  2976                           	movlw	01h
  2977  1586  3001               	subwf	(SerialBegin@x+1),w
  2978  1587  0249               	movlw	0
  2979  1588  3000               	skipnz
  2980  1589  1903               	subwf	(SerialBegin@x),w
  2981  158A  0248               	skipc
  2982  158B  1C03               	goto	u1861
  2983  158C  2D8E               	goto	u1860
  2984  158D  2D8F               u1861:
  2985  158E                     	goto	l3606
  2986  158E  2DDD               u1860:
  2987  158F                     	line	460
  2988                           	
  2989                           l3580:	
  2990  158F                     ;source.c: 459:  {;source.c: 460:   BRGH = 1;
  2991                           	bsf	status, 5	;RP0=1, select bank1
  2992  158F  1683               	bcf	status, 6	;RP1=0, select bank1
  2993  1590  1303               	bsf	(1218/8)^080h,(1218)&7	;volatile
  2994  1591  1518               	line	461
  2995                           	
  2996                           l3582:	
  2997  1592                     ;source.c: 461:   x = (20000000 / (16 * BaudRate)) - 1;
  2998                           	bcf	status, 5	;RP0=0, select bank0
  2999  1592  1283               	bcf	status, 6	;RP1=0, select bank0
  3000  1593  1303               	movf	(SerialBegin@BaudRate),w
  3001  1594  0844               	movwf	(??_SerialBegin+0)+0
  3002  1595  00F9               	movf	(SerialBegin@BaudRate+1),w
  3003  1596  0845               	movwf	((??_SerialBegin+0)+0+1)
  3004  1597  00FA               	movf	(SerialBegin@BaudRate+2),w
  3005  1598  0846               	movwf	((??_SerialBegin+0)+0+2)
  3006  1599  00FB               	movf	(SerialBegin@BaudRate+3),w
  3007  159A  0847               	movwf	((??_SerialBegin+0)+0+3)
  3008  159B  00FC               	movlw	04h
  3009  159C  3004               u1875:
  3010  159D                     	clrc
  3011  159D  1003               	rlf	(??_SerialBegin+0)+0,f
  3012  159E  0DF9               	rlf	(??_SerialBegin+0)+1,f
  3013  159F  0DFA               	rlf	(??_SerialBegin+0)+2,f
  3014  15A0  0DFB               	rlf	(??_SerialBegin+0)+3,f
  3015  15A1  0DFC               u1870:
  3016  15A2                     	addlw	-1
  3017  15A2  3EFF               	skipz
  3018  15A3  1D03               	goto	u1875
  3019  15A4  2D9D               	movf	3+(??_SerialBegin+0)+0,w
  3020  15A5  087C               	movwf	(___aldiv@divisor+3)
  3021  15A6  00F3               	movf	2+(??_SerialBegin+0)+0,w
  3022  15A7  087B               	movwf	(___aldiv@divisor+2)
  3023  15A8  00F2               	movf	1+(??_SerialBegin+0)+0,w
  3024  15A9  087A               	movwf	(___aldiv@divisor+1)
  3025  15AA  00F1               	movf	0+(??_SerialBegin+0)+0,w
  3026  15AB  0879               	movwf	(___aldiv@divisor)
  3027  15AC  00F0               
  3028                           	movlw	01h
  3029  15AD  3001               	movwf	(___aldiv@dividend+3)
  3030  15AE  00F7               	movlw	031h
  3031  15AF  3031               	movwf	(___aldiv@dividend+2)
  3032  15B0  00F6               	movlw	02Dh
  3033  15B1  302D               	movwf	(___aldiv@dividend+1)
  3034  15B2  00F5               	movlw	0
  3035  15B3  3000               	movwf	(___aldiv@dividend)
  3036  15B4  00F4               
  3037                           	fcall	___aldiv
  3038  15B5  120A  158A  2028  160A  118A  	movf	(0+(?___aldiv)),w
  3039  15BA  0870               	addlw	low(0FFFFh)
  3040  15BB  3EFF               	bcf	status, 5	;RP0=0, select bank0
  3041  15BC  1283               	bcf	status, 6	;RP1=0, select bank0
  3042  15BD  1303               	movwf	(SerialBegin@x)
  3043  15BE  00C8               	movf	(1+(?___aldiv)),w
  3044  15BF  0871               	skipnc
  3045  15C0  1803               	addlw	1
  3046  15C1  3E01               	addlw	high(0FFFFh)
  3047  15C2  3EFF               	movwf	1+(SerialBegin@x)
  3048  15C3  00C9               	line	462
  3049                           	
  3050                           l3584:	
  3051  15C4                     ;source.c: 462:   SPBRG = x;
  3052                           	movf	(SerialBegin@x),w
  3053  15C4  0848               	bsf	status, 5	;RP0=1, select bank1
  3054  15C5  1683               	bcf	status, 6	;RP1=0, select bank1
  3055  15C6  1303               	movwf	(153)^080h	;volatile
  3056  15C7  0099               	line	463
  3057                           	
  3058                           l3586:	
  3059  15C8                     ;source.c: 463:   SYNC = 0;
  3060                           	bcf	(1220/8)^080h,(1220)&7	;volatile
  3061  15C8  1218               	line	464
  3062                           	
  3063                           l3588:	
  3064  15C9                     ;source.c: 464:   SPEN = 1;
  3065                           	bcf	status, 5	;RP0=0, select bank0
  3066  15C9  1283               	bcf	status, 6	;RP1=0, select bank0
  3067  15CA  1303               	bsf	(199/8),(199)&7	;volatile
  3068  15CB  1798               	line	465
  3069                           	
  3070                           l3590:	
  3071  15CC                     ;source.c: 465:   TRISC7 = 1;
  3072                           	bsf	status, 5	;RP0=1, select bank1
  3073  15CC  1683               	bcf	status, 6	;RP1=0, select bank1
  3074  15CD  1303               	bsf	(1087/8)^080h,(1087)&7	;volatile
  3075  15CE  1787               	line	466
  3076                           	
  3077                           l3592:	
  3078  15CF                     ;source.c: 466:   TRISC6 = 1;
  3079                           	bsf	(1086/8)^080h,(1086)&7	;volatile
  3080  15CF  1707               	line	467
  3081                           	
  3082                           l3594:	
  3083  15D0                     ;source.c: 467:   CREN = 1;
  3084                           	bcf	status, 5	;RP0=0, select bank0
  3085  15D0  1283               	bcf	status, 6	;RP1=0, select bank0
  3086  15D1  1303               	bsf	(196/8),(196)&7	;volatile
  3087  15D2  1618               	line	468
  3088                           	
  3089                           l3596:	
  3090  15D3                     ;source.c: 468:   TXEN = 1;
  3091                           	bsf	status, 5	;RP0=1, select bank1
  3092  15D3  1683               	bcf	status, 6	;RP1=0, select bank1
  3093  15D4  1303               	bsf	(1221/8)^080h,(1221)&7	;volatile
  3094  15D5  1698               	line	469
  3095                           	
  3096                           l3598:	
  3097  15D6                     ;source.c: 469:         TXREG = 0x00;
  3098                           	bcf	status, 5	;RP0=0, select bank0
  3099  15D6  1283               	bcf	status, 6	;RP1=0, select bank0
  3100  15D7  1303               	clrf	(25)	;volatile
  3101  15D8  0199               	line	470
  3102                           	
  3103                           l3600:	
  3104  15D9                     ;source.c: 470:         RCREG = 0x00;
  3105                           	clrf	(26)	;volatile
  3106  15D9  019A               	goto	l286
  3107  15DA  2DF5               	line	471
  3108                           	
  3109                           l3602:	
  3110  15DB                     ;source.c: 471:   return 0;;	Return value of _SerialBegin is never used
  3111                           	goto	l286
  3112  15DB  2DF5               	line	472
  3113                           	
  3114                           l3604:	
  3115  15DC                     ;source.c: 472:  }
  3116                           	goto	l286
  3117  15DC  2DF5               	line	473
  3118                           ;source.c: 473:  else
  3119                           	
  3120                           l285:	
  3121  15DD                     	line	475
  3122                           	
  3123                           l3606:	
  3124  15DD                     ;source.c: 474:  {;source.c: 475:   SPBRG = x;
  3125                           	movf	(SerialBegin@x),w
  3126  15DD  0848               	bsf	status, 5	;RP0=1, select bank1
  3127  15DE  1683               	bcf	status, 6	;RP1=0, select bank1
  3128  15DF  1303               	movwf	(153)^080h	;volatile
  3129  15E0  0099               	line	476
  3130                           	
  3131                           l3608:	
  3132  15E1                     ;source.c: 476:   SYNC = 0;
  3133                           	bcf	(1220/8)^080h,(1220)&7	;volatile
  3134  15E1  1218               	line	477
  3135                           	
  3136                           l3610:	
  3137  15E2                     ;source.c: 477:   SPEN = 1;
  3138                           	bcf	status, 5	;RP0=0, select bank0
  3139  15E2  1283               	bcf	status, 6	;RP1=0, select bank0
  3140  15E3  1303               	bsf	(199/8),(199)&7	;volatile
  3141  15E4  1798               	line	478
  3142                           	
  3143                           l3612:	
  3144  15E5                     ;source.c: 478:   TRISC7 = 1;
  3145                           	bsf	status, 5	;RP0=1, select bank1
  3146  15E5  1683               	bcf	status, 6	;RP1=0, select bank1
  3147  15E6  1303               	bsf	(1087/8)^080h,(1087)&7	;volatile
  3148  15E7  1787               	line	479
  3149                           	
  3150                           l3614:	
  3151  15E8                     ;source.c: 479:   TRISC6 = 1;
  3152                           	bsf	(1086/8)^080h,(1086)&7	;volatile
  3153  15E8  1707               	line	480
  3154                           	
  3155                           l3616:	
  3156  15E9                     ;source.c: 480:   CREN = 1;
  3157                           	bcf	status, 5	;RP0=0, select bank0
  3158  15E9  1283               	bcf	status, 6	;RP1=0, select bank0
  3159  15EA  1303               	bsf	(196/8),(196)&7	;volatile
  3160  15EB  1618               	line	481
  3161                           	
  3162                           l3618:	
  3163  15EC                     ;source.c: 481:   TXEN = 1;
  3164                           	bsf	status, 5	;RP0=1, select bank1
  3165  15EC  1683               	bcf	status, 6	;RP1=0, select bank1
  3166  15ED  1303               	bsf	(1221/8)^080h,(1221)&7	;volatile
  3167  15EE  1698               	line	482
  3168                           	
  3169                           l3620:	
  3170  15EF                     ;source.c: 482:         TXREG = 0x00;
  3171                           	bcf	status, 5	;RP0=0, select bank0
  3172  15EF  1283               	bcf	status, 6	;RP1=0, select bank0
  3173  15F0  1303               	clrf	(25)	;volatile
  3174  15F1  0199               	line	483
  3175                           	
  3176                           l3622:	
  3177  15F2                     ;source.c: 483:         RCREG = 0x00;
  3178                           	clrf	(26)	;volatile
  3179  15F2  019A               	goto	l286
  3180  15F3  2DF5               	line	484
  3181                           	
  3182                           l3624:	
  3183  15F4                     ;source.c: 484:   return 1;;	Return value of _SerialBegin is never used
  3184                           	goto	l286
  3185  15F4  2DF5               	line	485
  3186                           ;source.c: 485:  }
  3187                           	
  3188                           l287:	
  3189  15F5                     	line	486
  3190                           	
  3191                           l286:	
  3192  15F5                     	return
  3193  15F5  0008               	opt stack 0
  3194                           GLOBAL	__end_of_SerialBegin
  3195                           	__end_of_SerialBegin:
  3196  15F6                     	signat	_SerialBegin,4217
  3197                           	global	___aldiv
  3198                           
  3199 ;; *************** function ___aldiv *****************
  3200 ;; Defined at:
  3201 ;;		line 5 in file "C:\Program Files (x86)\Microchip\xc8\v2.00\pic\sources\c90\common\aldiv.c"
  3202 ;; Parameters:    Size  Location     Type
  3203 ;;  divisor         4    0[COMMON] long 
  3204 ;;  dividend        4    4[COMMON] long 
  3205 ;; Auto vars:     Size  Location     Type
  3206 ;;  quotient        4    2[BANK0 ] long 
  3207 ;;  sign            1    1[BANK0 ] unsigned char 
  3208 ;;  counter         1    0[BANK0 ] unsigned char 
  3209 ;; Return value:  Size  Location     Type
  3210 ;;                  4    0[COMMON] long 
  3211 ;; Registers used:
  3212 ;;		wreg, status,2, status,0
  3213 ;; Tracked objects:
  3214 ;;		On entry : 0/0
  3215 ;;		On exit  : 0/0
  3216 ;;		Unchanged: 0/0
  3217 ;; Data sizes:     COMMON   BANK0   BANK1   BANK3   BANK2
  3218 ;;      Params:         8       0       0       0       0
  3219 ;;      Locals:         0       6       0       0       0
  3220 ;;      Temps:          1       0       0       0       0
  3221 ;;      Totals:         9       6       0       0       0
  3222 ;;Total ram usage:       15 bytes
  3223 ;; Hardware stack levels used:    1
  3224 ;; This function calls:
  3225 ;;		Nothing
  3226 ;; This function is called by:
  3227 ;;		_SerialBegin
  3228 ;; This function uses a non-reentrant model
  3229 ;;
  3230                           psect	text4,local,class=CODE,delta=2,merge=1,group=1
  3231                           	file	"C:\Program Files (x86)\Microchip\xc8\v2.00\pic\sources\c90\common\aldiv.c"
  3232                           	line	5
  3233                           global __ptext4
  3234                           __ptext4:	;psect for function ___aldiv
  3235  0828                     psect	text4
  3236                           	file	"C:\Program Files (x86)\Microchip\xc8\v2.00\pic\sources\c90\common\aldiv.c"
  3237                           	line	5
  3238                           	global	__size_of___aldiv
  3239                           	__size_of___aldiv	equ	__end_of___aldiv-___aldiv
  3240  00A6                     	
  3241                           ___aldiv:	
  3242  0828                     ;incstack = 0
  3243                           	opt	stack 5
  3244                           ; Regs used in ___aldiv: [wreg+status,2+status,0]
  3245                           	line	13
  3246                           	
  3247                           l3486:	
  3248  0828                     	bcf	status, 5	;RP0=0, select bank0
  3249  0828  1283               	bcf	status, 6	;RP1=0, select bank0
  3250  0829  1303               	clrf	(___aldiv@sign)
  3251  082A  01BF               	line	14
  3252                           	
  3253                           l3488:	
  3254  082B                     	btfss	(___aldiv@divisor+3),7
  3255  082B  1FF3               	goto	u1621
  3256  082C  282E               	goto	u1620
  3257  082D  282F               u1621:
  3258  082E                     	goto	l918
  3259  082E  283C               u1620:
  3260  082F                     	line	15
  3261                           	
  3262                           l3490:	
  3263  082F                     	comf	(___aldiv@divisor),f
  3264  082F  09F0               	comf	(___aldiv@divisor+1),f
  3265  0830  09F1               	comf	(___aldiv@divisor+2),f
  3266  0831  09F2               	comf	(___aldiv@divisor+3),f
  3267  0832  09F3               	incf	(___aldiv@divisor),f
  3268  0833  0AF0               	skipnz
  3269  0834  1903               	incf	(___aldiv@divisor+1),f
  3270  0835  0AF1               	skipnz
  3271  0836  1903               	incf	(___aldiv@divisor+2),f
  3272  0837  0AF2               	skipnz
  3273  0838  1903               	incf	(___aldiv@divisor+3),f
  3274  0839  0AF3               	line	16
  3275                           	clrf	(___aldiv@sign)
  3276  083A  01BF               	incf	(___aldiv@sign),f
  3277  083B  0ABF               	line	17
  3278                           	
  3279                           l918:	
  3280  083C                     	line	18
  3281                           	btfss	(___aldiv@dividend+3),7
  3282  083C  1FF7               	goto	u1631
  3283  083D  283F               	goto	u1630
  3284  083E  2840               u1631:
  3285  083F                     	goto	l3496
  3286  083F  2850               u1630:
  3287  0840                     	line	19
  3288                           	
  3289                           l3492:	
  3290  0840                     	comf	(___aldiv@dividend),f
  3291  0840  09F4               	comf	(___aldiv@dividend+1),f
  3292  0841  09F5               	comf	(___aldiv@dividend+2),f
  3293  0842  09F6               	comf	(___aldiv@dividend+3),f
  3294  0843  09F7               	incf	(___aldiv@dividend),f
  3295  0844  0AF4               	skipnz
  3296  0845  1903               	incf	(___aldiv@dividend+1),f
  3297  0846  0AF5               	skipnz
  3298  0847  1903               	incf	(___aldiv@dividend+2),f
  3299  0848  0AF6               	skipnz
  3300  0849  1903               	incf	(___aldiv@dividend+3),f
  3301  084A  0AF7               	line	20
  3302                           	
  3303                           l3494:	
  3304  084B                     	movlw	low(01h)
  3305  084B  3001               	movwf	(??___aldiv+0)+0
  3306  084C  00F8               	movf	(??___aldiv+0)+0,w
  3307  084D  0878               	xorwf	(___aldiv@sign),f
  3308  084E  06BF               	goto	l3496
  3309  084F  2850               	line	21
  3310                           	
  3311                           l919:	
  3312  0850                     	line	22
  3313                           	
  3314                           l3496:	
  3315  0850                     	movlw	high highword(0)
  3316  0850  3000               	movwf	(___aldiv@quotient+3)
  3317  0851  00C3               	movlw	low highword(0)
  3318  0852  3000               	movwf	(___aldiv@quotient+2)
  3319  0853  00C2               	movlw	high(0)
  3320  0854  3000               	movwf	(___aldiv@quotient+1)
  3321  0855  00C1               	movlw	low(0)
  3322  0856  3000               	movwf	(___aldiv@quotient)
  3323  0857  00C0               
  3324                           	line	23
  3325                           	
  3326                           l3498:	
  3327  0858                     	movf	(___aldiv@divisor+3),w
  3328  0858  0873               	iorwf	(___aldiv@divisor+2),w
  3329  0859  0472               	iorwf	(___aldiv@divisor+1),w
  3330  085A  0471               	iorwf	(___aldiv@divisor),w
  3331  085B  0470               	skipnz
  3332  085C  1903               	goto	u1641
  3333  085D  285F               	goto	u1640
  3334  085E  2860               u1641:
  3335  085F                     	goto	l3518
  3336  085F  28B3               u1640:
  3337  0860                     	line	24
  3338                           	
  3339                           l3500:	
  3340  0860                     	clrf	(___aldiv@counter)
  3341  0860  01BE               	incf	(___aldiv@counter),f
  3342  0861  0ABE               	line	25
  3343                           	goto	l3504
  3344  0862  2871               	
  3345                           l922:	
  3346  0863                     	line	26
  3347                           	
  3348                           l3502:	
  3349  0863                     	movlw	01h
  3350  0863  3001               	movwf	(??___aldiv+0)+0
  3351  0864  00F8               u1655:
  3352  0865                     	clrc
  3353  0865  1003               	rlf	(___aldiv@divisor),f
  3354  0866  0DF0               	rlf	(___aldiv@divisor+1),f
  3355  0867  0DF1               	rlf	(___aldiv@divisor+2),f
  3356  0868  0DF2               	rlf	(___aldiv@divisor+3),f
  3357  0869  0DF3               	decfsz	(??___aldiv+0)+0
  3358  086A  0BF8               	goto	u1655
  3359  086B  2865               	line	27
  3360                           	movlw	low(01h)
  3361  086C  3001               	movwf	(??___aldiv+0)+0
  3362  086D  00F8               	movf	(??___aldiv+0)+0,w
  3363  086E  0878               	addwf	(___aldiv@counter),f
  3364  086F  07BE               	goto	l3504
  3365  0870  2871               	line	28
  3366                           	
  3367                           l921:	
  3368  0871                     	line	25
  3369                           	
  3370                           l3504:	
  3371  0871                     	btfss	(___aldiv@divisor+3),(31)&7
  3372  0871  1FF3               	goto	u1661
  3373  0872  2874               	goto	u1660
  3374  0873  2875               u1661:
  3375  0874                     	goto	l3502
  3376  0874  2863               u1660:
  3377  0875                     	goto	l3506
  3378  0875  2877               	
  3379                           l923:	
  3380  0876                     	goto	l3506
  3381  0876  2877               	line	29
  3382                           	
  3383                           l924:	
  3384  0877                     	line	30
  3385                           	
  3386                           l3506:	
  3387  0877                     	movlw	01h
  3388  0877  3001               	movwf	(??___aldiv+0)+0
  3389  0878  00F8               u1675:
  3390  0879                     	clrc
  3391  0879  1003               	rlf	(___aldiv@quotient),f
  3392  087A  0DC0               	rlf	(___aldiv@quotient+1),f
  3393  087B  0DC1               	rlf	(___aldiv@quotient+2),f
  3394  087C  0DC2               	rlf	(___aldiv@quotient+3),f
  3395  087D  0DC3               	decfsz	(??___aldiv+0)+0
  3396  087E  0BF8               	goto	u1675
  3397  087F  2879               	line	31
  3398                           	
  3399                           l3508:	
  3400  0880                     	movf	(___aldiv@divisor+3),w
  3401  0880  0873               	subwf	(___aldiv@dividend+3),w
  3402  0881  0277               	skipz
  3403  0882  1D03               	goto	u1685
  3404  0883  288E               	movf	(___aldiv@divisor+2),w
  3405  0884  0872               	subwf	(___aldiv@dividend+2),w
  3406  0885  0276               	skipz
  3407  0886  1D03               	goto	u1685
  3408  0887  288E               	movf	(___aldiv@divisor+1),w
  3409  0888  0871               	subwf	(___aldiv@dividend+1),w
  3410  0889  0275               	skipz
  3411  088A  1D03               	goto	u1685
  3412  088B  288E               	movf	(___aldiv@divisor),w
  3413  088C  0870               	subwf	(___aldiv@dividend),w
  3414  088D  0274               u1685:
  3415  088E                     	skipc
  3416  088E  1C03               	goto	u1681
  3417  088F  2891               	goto	u1680
  3418  0890  2892               u1681:
  3419  0891                     	goto	l3514
  3420  0891  28A2               u1680:
  3421  0892                     	line	32
  3422                           	
  3423                           l3510:	
  3424  0892                     	movf	(___aldiv@divisor),w
  3425  0892  0870               	subwf	(___aldiv@dividend),f
  3426  0893  02F4               	movf	(___aldiv@divisor+1),w
  3427  0894  0871               	skipc
  3428  0895  1C03               	incfsz	(___aldiv@divisor+1),w
  3429  0896  0F71               	subwf	(___aldiv@dividend+1),f
  3430  0897  02F5               	movf	(___aldiv@divisor+2),w
  3431  0898  0872               	skipc
  3432  0899  1C03               	incfsz	(___aldiv@divisor+2),w
  3433  089A  0F72               	subwf	(___aldiv@dividend+2),f
  3434  089B  02F6               	movf	(___aldiv@divisor+3),w
  3435  089C  0873               	skipc
  3436  089D  1C03               	incfsz	(___aldiv@divisor+3),w
  3437  089E  0F73               	subwf	(___aldiv@dividend+3),f
  3438  089F  02F7               	line	33
  3439                           	
  3440                           l3512:	
  3441  08A0                     	bsf	(___aldiv@quotient)+(0/8),(0)&7
  3442  08A0  1440               	goto	l3514
  3443  08A1  28A2               	line	34
  3444                           	
  3445                           l925:	
  3446  08A2                     	line	35
  3447                           	
  3448                           l3514:	
  3449  08A2                     	movlw	01h
  3450  08A2  3001               u1695:
  3451  08A3                     	clrc
  3452  08A3  1003               	rrf	(___aldiv@divisor+3),f
  3453  08A4  0CF3               	rrf	(___aldiv@divisor+2),f
  3454  08A5  0CF2               	rrf	(___aldiv@divisor+1),f
  3455  08A6  0CF1               	rrf	(___aldiv@divisor),f
  3456  08A7  0CF0               	addlw	-1
  3457  08A8  3EFF               	skipz
  3458  08A9  1D03               	goto	u1695
  3459  08AA  28A3               
  3460                           	line	36
  3461                           	
  3462                           l3516:	
  3463  08AB                     	movlw	01h
  3464  08AB  3001               	subwf	(___aldiv@counter),f
  3465  08AC  02BE               	btfss	status,2
  3466  08AD  1D03               	goto	u1701
  3467  08AE  28B0               	goto	u1700
  3468  08AF  28B1               u1701:
  3469  08B0                     	goto	l3506
  3470  08B0  2877               u1700:
  3471  08B1                     	goto	l3518
  3472  08B1  28B3               	
  3473                           l926:	
  3474  08B2                     	goto	l3518
  3475  08B2  28B3               	line	37
  3476                           	
  3477                           l920:	
  3478  08B3                     	line	38
  3479                           	
  3480                           l3518:	
  3481  08B3                     	movf	((___aldiv@sign)),w
  3482  08B3  083F               	btfsc	status,2
  3483  08B4  1903               	goto	u1711
  3484  08B5  28B7               	goto	u1710
  3485  08B6  28B8               u1711:
  3486  08B7                     	goto	l3522
  3487  08B7  28C4               u1710:
  3488  08B8                     	line	39
  3489                           	
  3490                           l3520:	
  3491  08B8                     	comf	(___aldiv@quotient),f
  3492  08B8  09C0               	comf	(___aldiv@quotient+1),f
  3493  08B9  09C1               	comf	(___aldiv@quotient+2),f
  3494  08BA  09C2               	comf	(___aldiv@quotient+3),f
  3495  08BB  09C3               	incf	(___aldiv@quotient),f
  3496  08BC  0AC0               	skipnz
  3497  08BD  1903               	incf	(___aldiv@quotient+1),f
  3498  08BE  0AC1               	skipnz
  3499  08BF  1903               	incf	(___aldiv@quotient+2),f
  3500  08C0  0AC2               	skipnz
  3501  08C1  1903               	incf	(___aldiv@quotient+3),f
  3502  08C2  0AC3               	goto	l3522
  3503  08C3  28C4               	
  3504                           l927:	
  3505  08C4                     	line	40
  3506                           	
  3507                           l3522:	
  3508  08C4                     	movf	(___aldiv@quotient+3),w
  3509  08C4  0843               	movwf	(?___aldiv+3)
  3510  08C5  00F3               	movf	(___aldiv@quotient+2),w
  3511  08C6  0842               	movwf	(?___aldiv+2)
  3512  08C7  00F2               	movf	(___aldiv@quotient+1),w
  3513  08C8  0841               	movwf	(?___aldiv+1)
  3514  08C9  00F1               	movf	(___aldiv@quotient),w
  3515  08CA  0840               	movwf	(?___aldiv)
  3516  08CB  00F0               
  3517                           	goto	l928
  3518  08CC  28CD               	
  3519                           l3524:	
  3520  08CD                     	line	41
  3521                           	
  3522                           l928:	
  3523  08CD                     	return
  3524  08CD  0008               	opt stack 0
  3525                           GLOBAL	__end_of___aldiv
  3526                           	__end_of___aldiv:
  3527  08CE                     	signat	___aldiv,8316
  3528                           	global	_KeypadBegin
  3529                           
  3530 ;; *************** function _KeypadBegin *****************
  3531 ;; Defined at:
  3532 ;;		line 14 in file "Keypad4x4.c"
  3533 ;; Parameters:    Size  Location     Type
  3534 ;;  rows            1    wreg     PTR const int 
  3535 ;;		 -> ROWS(8), 
  3536 ;;  cols            1    4[COMMON] PTR const int 
  3537 ;;		 -> COLS(8), 
  3538 ;;  data            1    5[COMMON] PTR unsigned char [4]
  3539 ;;		 -> Teclas(16), 
  3540 ;; Auto vars:     Size  Location     Type
  3541 ;;  rows            1    0[BANK0 ] PTR const int 
  3542 ;;		 -> ROWS(8), 
  3543 ;;  k               2    3[BANK0 ] int 
  3544 ;;  j               2    1[BANK0 ] int 
  3545 ;;  i               2    5[BANK0 ] int 
  3546 ;; Return value:  Size  Location     Type
  3547 ;;                  1    wreg      void 
  3548 ;; Registers used:
  3549 ;;		wreg, fsr0l, fsr0h, status,2, status,0, btemp+1, pclath, cstack
  3550 ;; Tracked objects:
  3551 ;;		On entry : 0/0
  3552 ;;		On exit  : 0/0
  3553 ;;		Unchanged: 0/0
  3554 ;; Data sizes:     COMMON   BANK0   BANK1   BANK3   BANK2
  3555 ;;      Params:         2       0       0       0       0
  3556 ;;      Locals:         0       7       0       0       0
  3557 ;;      Temps:          7       0       0       0       0
  3558 ;;      Totals:         9       7       0       0       0
  3559 ;;Total ram usage:       16 bytes
  3560 ;; Hardware stack levels used:    1
  3561 ;; Hardware stack levels required when called:    1
  3562 ;; This function calls:
  3563 ;;		_pinMode
  3564 ;; This function is called by:
  3565 ;;		_setup
  3566 ;; This function uses a non-reentrant model
  3567 ;;
  3568                           psect	text5,local,class=CODE,delta=2,merge=1,group=0
  3569                           	file	"Keypad4x4.c"
  3570                           	line	14
  3571                           global __ptext5
  3572                           __ptext5:	;psect for function _KeypadBegin
  3573  15F6                     psect	text5
  3574                           	file	"Keypad4x4.c"
  3575                           	line	14
  3576                           	global	__size_of_KeypadBegin
  3577                           	__size_of_KeypadBegin	equ	__end_of_KeypadBegin-_KeypadBegin
  3578  00F8                     	
  3579                           _KeypadBegin:	
  3580  15F6                     ;incstack = 0
  3581                           	opt	stack 5
  3582                           ; Regs used in _KeypadBegin: [wreg-fsr0h+status,2+status,0+btemp+1+pclath+cstack]
  3583                           ;KeypadBegin@rows stored from wreg
  3584                           	bcf	status, 5	;RP0=0, select bank0
  3585  15F6  1283               	bcf	status, 6	;RP1=0, select bank0
  3586  15F7  1303               	movwf	(KeypadBegin@rows)
  3587  15F8  00BE               	line	16
  3588                           	
  3589                           l3656:	
  3590  15F9                     ;Keypad4x4.c: 14: void KeypadBegin(const int rows[4], const int cols[4], char data[4][4]
                                 );Keypad4x4.c: 15: {;Keypad4x4.c: 16:     for(int i=0;i<4;i++)
  3591                           	clrf	(KeypadBegin@i)
  3592  15F9  01C3               	clrf	(KeypadBegin@i+1)
  3593  15FA  01C4               	
  3594                           l3658:	
  3595  15FB                     	movf	(KeypadBegin@i+1),w
  3596  15FB  0844               	xorlw	80h
  3597  15FC  3A80               	movwf	btemp+1
  3598  15FD  00FF               	movlw	(0)^80h
  3599  15FE  3080               	subwf	btemp+1,w
  3600  15FF  027F               	skipz
  3601  1600  1D03               	goto	u1885
  3602  1601  2E04               	movlw	04h
  3603  1602  3004               	subwf	(KeypadBegin@i),w
  3604  1603  0243               u1885:
  3605  1604                     
  3606                           	skipc
  3607  1604  1C03               	goto	u1881
  3608  1605  2E07               	goto	u1880
  3609  1606  2E08               u1881:
  3610  1607                     	goto	l3662
  3611  1607  2E0A               u1880:
  3612  1608                     	goto	l3672
  3613  1608  2E75               	
  3614                           l3660:	
  3615  1609                     	goto	l3672
  3616  1609  2E75               	
  3617                           l585:	
  3618  160A                     	line	18
  3619                           	
  3620                           l3662:	
  3621  160A                     ;Keypad4x4.c: 17:     {;Keypad4x4.c: 18:         RowPins[i] = rows[i];
  3622                           	bcf	status, 5	;RP0=0, select bank0
  3623  160A  1283               	bcf	status, 6	;RP1=0, select bank0
  3624  160B  1303               	movf	(KeypadBegin@i),w
  3625  160C  0843               	movwf	(??_KeypadBegin+0)+0
  3626  160D  00F6               	addwf	(??_KeypadBegin+0)+0,w
  3627  160E  0776               	addwf	(KeypadBegin@rows),w
  3628  160F  073E               	movwf	fsr0
  3629  1610  0084               	fcall	stringdir
  3630  1611  160A  118A  200A  160A  118A  	movwf	(??_KeypadBegin+1)+0
  3631  1616  00F7               	fcall	stringdir
  3632  1617  160A  118A  200A  160A  118A  	movwf	(??_KeypadBegin+1)+0+1
  3633  161C  00F8               	movf	(KeypadBegin@i),w
  3634  161D  0843               	movwf	(??_KeypadBegin+3)+0
  3635  161E  00F9               	addwf	(??_KeypadBegin+3)+0,w
  3636  161F  0779               	addlw	low(_RowPins|((0x0)<<8))&0ffh
  3637  1620  3E28               	movwf	fsr0
  3638  1621  0084               	movf	0+(??_KeypadBegin+1)+0,w
  3639  1622  0877               	bcf	status, 7	;select IRP bank0
  3640  1623  1383               	movwf	indf
  3641  1624  0080               	incf	fsr0,f
  3642  1625  0A84               	movf	1+(??_KeypadBegin+1)+0,w
  3643  1626  0878               	movwf	indf
  3644  1627  0080               	line	19
  3645                           ;Keypad4x4.c: 19:         ColPins[i] = cols[i];
  3646                           	movf	(KeypadBegin@i),w
  3647  1628  0843               	movwf	(??_KeypadBegin+0)+0
  3648  1629  00F6               	addwf	(??_KeypadBegin+0)+0,w
  3649  162A  0776               	addwf	(KeypadBegin@cols),w
  3650  162B  0774               	movwf	fsr0
  3651  162C  0084               	fcall	stringdir
  3652  162D  160A  118A  200A  160A  118A  	movwf	(??_KeypadBegin+1)+0
  3653  1632  00F7               	fcall	stringdir
  3654  1633  160A  118A  200A  160A  118A  	movwf	(??_KeypadBegin+1)+0+1
  3655  1638  00F8               	movf	(KeypadBegin@i),w
  3656  1639  0843               	movwf	(??_KeypadBegin+3)+0
  3657  163A  00F9               	addwf	(??_KeypadBegin+3)+0,w
  3658  163B  0779               	addlw	low(_ColPins|((0x0)<<8))&0ffh
  3659  163C  3E20               	movwf	fsr0
  3660  163D  0084               	movf	0+(??_KeypadBegin+1)+0,w
  3661  163E  0877               	movwf	indf
  3662  163F  0080               	incf	fsr0,f
  3663  1640  0A84               	movf	1+(??_KeypadBegin+1)+0,w
  3664  1641  0878               	movwf	indf
  3665  1642  0080               	line	20
  3666                           	
  3667                           l3664:	
  3668  1643                     ;Keypad4x4.c: 20:         pinMode(RowPins[i],1);
  3669                           	clrf	(pinMode@mode)
  3670  1643  01F0               	incf	(pinMode@mode),f
  3671  1644  0AF0               	movf	(KeypadBegin@i),w
  3672  1645  0843               	movwf	(??_KeypadBegin+0)+0
  3673  1646  00F6               	addwf	(??_KeypadBegin+0)+0,w
  3674  1647  0776               	addlw	low(_RowPins|((0x0)<<8))&0ffh
  3675  1648  3E28               	movwf	fsr0
  3676  1649  0084               	movf	indf,w
  3677  164A  0800               	fcall	_pinMode
  3678  164B  120A  158A  21E5  160A  118A  	line	21
  3679                           	
  3680                           l3666:	
  3681  1650                     ;Keypad4x4.c: 21:         pinMode(ColPins[i],0);
  3682                           	clrf	(pinMode@mode)
  3683  1650  01F0               	bcf	status, 5	;RP0=0, select bank0
  3684  1651  1283               	bcf	status, 6	;RP1=0, select bank0
  3685  1652  1303               	movf	(KeypadBegin@i),w
  3686  1653  0843               	movwf	(??_KeypadBegin+0)+0
  3687  1654  00F6               	addwf	(??_KeypadBegin+0)+0,w
  3688  1655  0776               	addlw	low(_ColPins|((0x0)<<8))&0ffh
  3689  1656  3E20               	movwf	fsr0
  3690  1657  0084               	bcf	status, 7	;select IRP bank0
  3691  1658  1383               	movf	indf,w
  3692  1659  0800               	fcall	_pinMode
  3693  165A  120A  158A  21E5  160A  118A  	line	22
  3694                           	
  3695                           l3668:	
  3696  165F                     ;Keypad4x4.c: 22:     }
  3697                           	movlw	01h
  3698  165F  3001               	bcf	status, 5	;RP0=0, select bank0
  3699  1660  1283               	bcf	status, 6	;RP1=0, select bank0
  3700  1661  1303               	addwf	(KeypadBegin@i),f
  3701  1662  07C3               	skipnc
  3702  1663  1803               	incf	(KeypadBegin@i+1),f
  3703  1664  0AC4               	movlw	0
  3704  1665  3000               	addwf	(KeypadBegin@i+1),f
  3705  1666  07C4               	
  3706                           l3670:	
  3707  1667                     	movf	(KeypadBegin@i+1),w
  3708  1667  0844               	xorlw	80h
  3709  1668  3A80               	movwf	btemp+1
  3710  1669  00FF               	movlw	(0)^80h
  3711  166A  3080               	subwf	btemp+1,w
  3712  166B  027F               	skipz
  3713  166C  1D03               	goto	u1895
  3714  166D  2E70               	movlw	04h
  3715  166E  3004               	subwf	(KeypadBegin@i),w
  3716  166F  0243               u1895:
  3717  1670                     
  3718                           	skipc
  3719  1670  1C03               	goto	u1891
  3720  1671  2E73               	goto	u1890
  3721  1672  2E74               u1891:
  3722  1673                     	goto	l3662
  3723  1673  2E0A               u1890:
  3724  1674                     	goto	l3672
  3725  1674  2E75               	
  3726                           l586:	
  3727  1675                     	line	24
  3728                           	
  3729                           l3672:	
  3730  1675                     ;Keypad4x4.c: 24:     for(int j=0;j<4;j++)
  3731                           	bcf	status, 5	;RP0=0, select bank0
  3732  1675  1283               	bcf	status, 6	;RP1=0, select bank0
  3733  1676  1303               	clrf	(KeypadBegin@j)
  3734  1677  01BF               	clrf	(KeypadBegin@j+1)
  3735  1678  01C0               	
  3736                           l3674:	
  3737  1679                     	movf	(KeypadBegin@j+1),w
  3738  1679  0840               	xorlw	80h
  3739  167A  3A80               	movwf	btemp+1
  3740  167B  00FF               	movlw	(0)^80h
  3741  167C  3080               	subwf	btemp+1,w
  3742  167D  027F               	skipz
  3743  167E  1D03               	goto	u1905
  3744  167F  2E82               	movlw	04h
  3745  1680  3004               	subwf	(KeypadBegin@j),w
  3746  1681  023F               u1905:
  3747  1682                     
  3748                           	skipc
  3749  1682  1C03               	goto	u1901
  3750  1683  2E85               	goto	u1900
  3751  1684  2E86               u1901:
  3752  1685                     	goto	l3678
  3753  1685  2E88               u1900:
  3754  1686                     	goto	l591
  3755  1686  2EED               	
  3756                           l3676:	
  3757  1687                     	goto	l591
  3758  1687  2EED               	
  3759                           l587:	
  3760  1688                     	line	26
  3761                           	
  3762                           l3678:	
  3763  1688                     ;Keypad4x4.c: 25:     {;Keypad4x4.c: 26:         for(int k=0;k<4;k++)
  3764                           	bcf	status, 5	;RP0=0, select bank0
  3765  1688  1283               	bcf	status, 6	;RP1=0, select bank0
  3766  1689  1303               	clrf	(KeypadBegin@k)
  3767  168A  01C1               	clrf	(KeypadBegin@k+1)
  3768  168B  01C2               	
  3769                           l3680:	
  3770  168C                     	movf	(KeypadBegin@k+1),w
  3771  168C  0842               	xorlw	80h
  3772  168D  3A80               	movwf	btemp+1
  3773  168E  00FF               	movlw	(0)^80h
  3774  168F  3080               	subwf	btemp+1,w
  3775  1690  027F               	skipz
  3776  1691  1D03               	goto	u1915
  3777  1692  2E95               	movlw	04h
  3778  1693  3004               	subwf	(KeypadBegin@k),w
  3779  1694  0241               u1915:
  3780  1695                     
  3781                           	skipc
  3782  1695  1C03               	goto	u1911
  3783  1696  2E98               	goto	u1910
  3784  1697  2E99               u1911:
  3785  1698                     	goto	l3684
  3786  1698  2E9B               u1910:
  3787  1699                     	goto	l3690
  3788  1699  2ED7               	
  3789                           l3682:	
  3790  169A                     	goto	l3690
  3791  169A  2ED7               	
  3792                           l589:	
  3793  169B                     	line	28
  3794                           	
  3795                           l3684:	
  3796  169B                     ;Keypad4x4.c: 27:         {;Keypad4x4.c: 28:             characters[j][k] = data[j][k];

  3797                           	bcf	status, 5	;RP0=0, select bank0
  3798  169B  1283               	bcf	status, 6	;RP1=0, select bank0
  3799  169C  1303               	movf	(KeypadBegin@j),w
  3800  169D  083F               	movwf	(??_KeypadBegin+0)+0
  3801  169E  00F6               	movlw	(02h)-1
  3802  169F  3001               u1925:
  3803  16A0                     	clrc
  3804  16A0  1003               	rlf	(??_KeypadBegin+0)+0,f
  3805  16A1  0DF6               	addlw	-1
  3806  16A2  3EFF               	skipz
  3807  16A3  1D03               	goto	u1925
  3808  16A4  2EA0               	clrc
  3809  16A5  1003               	rlf	(??_KeypadBegin+0)+0,w
  3810  16A6  0D76               	addwf	(KeypadBegin@data),w
  3811  16A7  0775               	movwf	(??_KeypadBegin+1)+0
  3812  16A8  00F7               	movf	(KeypadBegin@k),w
  3813  16A9  0841               	addwf	0+(??_KeypadBegin+1)+0,w
  3814  16AA  0777               	movwf	(??_KeypadBegin+2)+0
  3815  16AB  00F8               	movf	0+(??_KeypadBegin+2)+0,w
  3816  16AC  0878               	movwf	fsr0
  3817  16AD  0084               	bcf	status, 7	;select IRP bank0
  3818  16AE  1383               	movf	indf,w
  3819  16AF  0800               	movwf	(??_KeypadBegin+3)+0
  3820  16B0  00F9               	movf	(KeypadBegin@j),w
  3821  16B1  083F               	movwf	(??_KeypadBegin+4)+0
  3822  16B2  00FA               	movlw	02h
  3823  16B3  3002               u1935:
  3824  16B4                     	clrc
  3825  16B4  1003               	rlf	(??_KeypadBegin+4)+0,f
  3826  16B5  0DFA               	addlw	-1
  3827  16B6  3EFF               	skipz
  3828  16B7  1D03               	goto	u1935
  3829  16B8  2EB4               	movlw	(low(_characters|((0x0)<<8)))&0ffh
  3830  16B9  30C0               	addwf	0+(??_KeypadBegin+4)+0,w
  3831  16BA  077A               	movwf	(??_KeypadBegin+5)+0
  3832  16BB  00FB               	movf	(KeypadBegin@k),w
  3833  16BC  0841               	addwf	0+(??_KeypadBegin+5)+0,w
  3834  16BD  077B               	movwf	(??_KeypadBegin+6)+0
  3835  16BE  00FC               	movf	0+(??_KeypadBegin+6)+0,w
  3836  16BF  087C               	movwf	fsr0
  3837  16C0  0084               	movf	(??_KeypadBegin+3)+0,w
  3838  16C1  0879               	movwf	indf
  3839  16C2  0080               	line	29
  3840                           	
  3841                           l3686:	
  3842  16C3                     ;Keypad4x4.c: 29:         }
  3843                           	movlw	01h
  3844  16C3  3001               	addwf	(KeypadBegin@k),f
  3845  16C4  07C1               	skipnc
  3846  16C5  1803               	incf	(KeypadBegin@k+1),f
  3847  16C6  0AC2               	movlw	0
  3848  16C7  3000               	addwf	(KeypadBegin@k+1),f
  3849  16C8  07C2               	
  3850                           l3688:	
  3851  16C9                     	movf	(KeypadBegin@k+1),w
  3852  16C9  0842               	xorlw	80h
  3853  16CA  3A80               	movwf	btemp+1
  3854  16CB  00FF               	movlw	(0)^80h
  3855  16CC  3080               	subwf	btemp+1,w
  3856  16CD  027F               	skipz
  3857  16CE  1D03               	goto	u1945
  3858  16CF  2ED2               	movlw	04h
  3859  16D0  3004               	subwf	(KeypadBegin@k),w
  3860  16D1  0241               u1945:
  3861  16D2                     
  3862                           	skipc
  3863  16D2  1C03               	goto	u1941
  3864  16D3  2ED5               	goto	u1940
  3865  16D4  2ED6               u1941:
  3866  16D5                     	goto	l3684
  3867  16D5  2E9B               u1940:
  3868  16D6                     	goto	l3690
  3869  16D6  2ED7               	
  3870                           l590:	
  3871  16D7                     	line	30
  3872                           	
  3873                           l3690:	
  3874  16D7                     ;Keypad4x4.c: 30:     }
  3875                           	movlw	01h
  3876  16D7  3001               	bcf	status, 5	;RP0=0, select bank0
  3877  16D8  1283               	bcf	status, 6	;RP1=0, select bank0
  3878  16D9  1303               	addwf	(KeypadBegin@j),f
  3879  16DA  07BF               	skipnc
  3880  16DB  1803               	incf	(KeypadBegin@j+1),f
  3881  16DC  0AC0               	movlw	0
  3882  16DD  3000               	addwf	(KeypadBegin@j+1),f
  3883  16DE  07C0               	
  3884                           l3692:	
  3885  16DF                     	movf	(KeypadBegin@j+1),w
  3886  16DF  0840               	xorlw	80h
  3887  16E0  3A80               	movwf	btemp+1
  3888  16E1  00FF               	movlw	(0)^80h
  3889  16E2  3080               	subwf	btemp+1,w
  3890  16E3  027F               	skipz
  3891  16E4  1D03               	goto	u1955
  3892  16E5  2EE8               	movlw	04h
  3893  16E6  3004               	subwf	(KeypadBegin@j),w
  3894  16E7  023F               u1955:
  3895  16E8                     
  3896                           	skipc
  3897  16E8  1C03               	goto	u1951
  3898  16E9  2EEB               	goto	u1950
  3899  16EA  2EEC               u1951:
  3900  16EB                     	goto	l3678
  3901  16EB  2E88               u1950:
  3902  16EC                     	goto	l591
  3903  16EC  2EED               	
  3904                           l588:	
  3905  16ED                     	line	31
  3906                           	
  3907                           l591:	
  3908  16ED                     	return
  3909  16ED  0008               	opt stack 0
  3910                           GLOBAL	__end_of_KeypadBegin
  3911                           	__end_of_KeypadBegin:
  3912  16EE                     	signat	_KeypadBegin,12409
  3913                           	global	_IOConfiguration
  3914                           
  3915 ;; *************** function _IOConfiguration *****************
  3916 ;; Defined at:
  3917 ;;		line 311 in file "ContadoraCanicas.c"
  3918 ;; Parameters:    Size  Location     Type
  3919 ;;		None
  3920 ;; Auto vars:     Size  Location     Type
  3921 ;;		None
  3922 ;; Return value:  Size  Location     Type
  3923 ;;                  1    wreg      void 
  3924 ;; Registers used:
  3925 ;;		wreg, fsr0l, fsr0h, status,2, status,0, pclath, cstack
  3926 ;; Tracked objects:
  3927 ;;		On entry : 0/0
  3928 ;;		On exit  : 0/0
  3929 ;;		Unchanged: 0/0
  3930 ;; Data sizes:     COMMON   BANK0   BANK1   BANK3   BANK2
  3931 ;;      Params:         0       0       0       0       0
  3932 ;;      Locals:         0       0       0       0       0
  3933 ;;      Temps:          0       0       0       0       0
  3934 ;;      Totals:         0       0       0       0       0
  3935 ;;Total ram usage:        0 bytes
  3936 ;; Hardware stack levels used:    1
  3937 ;; Hardware stack levels required when called:    1
  3938 ;; This function calls:
  3939 ;;		_digitalWrite
  3940 ;;		_pinMode
  3941 ;; This function is called by:
  3942 ;;		_setup
  3943 ;; This function uses a non-reentrant model
  3944 ;;
  3945                           psect	text6,local,class=CODE,delta=2,merge=1,group=0
  3946                           	file	"ContadoraCanicas.c"
  3947                           	line	311
  3948                           global __ptext6
  3949                           __ptext6:	;psect for function _IOConfiguration
  3950  142A                     psect	text6
  3951                           	file	"ContadoraCanicas.c"
  3952                           	line	311
  3953                           	global	__size_of_IOConfiguration
  3954                           	__size_of_IOConfiguration	equ	__end_of_IOConfiguration-_IOConfiguration
  3955  0085                     	
  3956                           _IOConfiguration:	
  3957  142A                     ;incstack = 0
  3958                           	opt	stack 5
  3959                           ; Regs used in _IOConfiguration: [wreg-fsr0h+status,2+status,0+pclath+cstack]
  3960                           	line	314
  3961                           	
  3962                           l3696:	
  3963  142A                     ;ContadoraCanicas.c: 314:  pinMode(Banda,0);
  3964                           	clrf	(pinMode@mode)
  3965  142A  01F0               	movlw	low((_Banda-__stringbase))
  3966  142B  300F               	movwf	fsr0
  3967  142C  0084               	fcall	stringdir
  3968  142D  160A  118A  200A  160A  118A  	fcall	_pinMode
  3969  1432  120A  158A  21E5  160A  118A  	line	315
  3970                           ;ContadoraCanicas.c: 315:  pinMode(MotorCanicas,0);
  3971                           	clrf	(pinMode@mode)
  3972  1437  01F0               	movlw	low((_MotorCanicas-__stringbase))
  3973  1438  3010               	movwf	fsr0
  3974  1439  0084               	fcall	stringdir
  3975  143A  160A  118A  200A  160A  118A  	fcall	_pinMode
  3976  143F  120A  158A  21E5  160A  118A  	line	316
  3977                           ;ContadoraCanicas.c: 316:  pinMode(IndicadorCanicas,0);
  3978                           	clrf	(pinMode@mode)
  3979  1444  01F0               	movlw	low((_IndicadorCanicas-__stringbase))
  3980  1445  300D               	movwf	fsr0
  3981  1446  0084               	fcall	stringdir
  3982  1447  160A  118A  200A  160A  118A  	fcall	_pinMode
  3983  144C  120A  158A  21E5  160A  118A  	line	317
  3984                           ;ContadoraCanicas.c: 317:  pinMode(Alarma,0);
  3985                           	clrf	(pinMode@mode)
  3986  1451  01F0               	movlw	low((_Alarma-__stringbase))
  3987  1452  300E               	movwf	fsr0
  3988  1453  0084               	fcall	stringdir
  3989  1454  160A  118A  200A  160A  118A  	fcall	_pinMode
  3990  1459  120A  158A  21E5  160A  118A  	line	318
  3991                           ;ContadoraCanicas.c: 318:  pinMode(SensorCanicas,1);
  3992                           	clrf	(pinMode@mode)
  3993  145E  01F0               	incf	(pinMode@mode),f
  3994  145F  0AF0               	movlw	low((_SensorCanicas-__stringbase))
  3995  1460  300C               	movwf	fsr0
  3996  1461  0084               	fcall	stringdir
  3997  1462  160A  118A  200A  160A  118A  	fcall	_pinMode
  3998  1467  120A  158A  21E5  160A  118A  	line	319
  3999                           ;ContadoraCanicas.c: 319:  pinMode(SensorCajas,1);
  4000                           	clrf	(pinMode@mode)
  4001  146C  01F0               	incf	(pinMode@mode),f
  4002  146D  0AF0               	movlw	low((_SensorCajas-__stringbase))
  4003  146E  300B               	movwf	fsr0
  4004  146F  0084               	fcall	stringdir
  4005  1470  160A  118A  200A  160A  118A  	fcall	_pinMode
  4006  1475  120A  158A  21E5  160A  118A  	line	321
  4007                           ;ContadoraCanicas.c: 321:     digitalWrite(MotorCanicas,0);
  4008                           	clrf	(digitalWrite@value)
  4009  147A  01F0               	movlw	low((_MotorCanicas-__stringbase))
  4010  147B  3010               	movwf	fsr0
  4011  147C  0084               	fcall	stringdir
  4012  147D  160A  118A  200A  160A  118A  	fcall	_digitalWrite
  4013  1482  120A  158A  2306  160A  118A  	line	322
  4014                           ;ContadoraCanicas.c: 322:     digitalWrite(Banda,0);
  4015                           	clrf	(digitalWrite@value)
  4016  1487  01F0               	movlw	low((_Banda-__stringbase))
  4017  1488  300F               	movwf	fsr0
  4018  1489  0084               	fcall	stringdir
  4019  148A  160A  118A  200A  160A  118A  	fcall	_digitalWrite
  4020  148F  120A  158A  2306  160A  118A  	line	323
  4021                           ;ContadoraCanicas.c: 323:  digitalWrite(Alarma,0);
  4022                           	clrf	(digitalWrite@value)
  4023  1494  01F0               	movlw	low((_Alarma-__stringbase))
  4024  1495  300E               	movwf	fsr0
  4025  1496  0084               	fcall	stringdir
  4026  1497  160A  118A  200A  160A  118A  	fcall	_digitalWrite
  4027  149C  120A  158A  2306  160A  118A  	line	324
  4028                           ;ContadoraCanicas.c: 324:  digitalWrite(IndicadorCanicas,0);
  4029                           	clrf	(digitalWrite@value)
  4030  14A1  01F0               	movlw	low((_IndicadorCanicas-__stringbase))
  4031  14A2  300D               	movwf	fsr0
  4032  14A3  0084               	fcall	stringdir
  4033  14A4  160A  118A  200A  160A  118A  	fcall	_digitalWrite
  4034  14A9  120A  158A  2306  160A  118A  	line	325
  4035                           	
  4036                           l552:	
  4037  14AE                     	return
  4038  14AE  0008               	opt stack 0
  4039                           GLOBAL	__end_of_IOConfiguration
  4040                           	__end_of_IOConfiguration:
  4041  14AF                     	signat	_IOConfiguration,89
  4042                           	global	_pinMode
  4043                           
  4044 ;; *************** function _pinMode *****************
  4045 ;; Defined at:
  4046 ;;		line 63 in file "source.c"
  4047 ;; Parameters:    Size  Location     Type
  4048 ;;  pin             1    wreg     unsigned char 
  4049 ;;  mode            1    0[COMMON] unsigned char 
  4050 ;; Auto vars:     Size  Location     Type
  4051 ;;  pin             1    3[COMMON] unsigned char 
  4052 ;; Return value:  Size  Location     Type
  4053 ;;                  1    wreg      void 
  4054 ;; Registers used:
  4055 ;;		wreg, fsr0l, fsr0h, status,2, status,0
  4056 ;; Tracked objects:
  4057 ;;		On entry : 0/0
  4058 ;;		On exit  : 0/0
  4059 ;;		Unchanged: 0/0
  4060 ;; Data sizes:     COMMON   BANK0   BANK1   BANK3   BANK2
  4061 ;;      Params:         1       0       0       0       0
  4062 ;;      Locals:         1       0       0       0       0
  4063 ;;      Temps:          2       0       0       0       0
  4064 ;;      Totals:         4       0       0       0       0
  4065 ;;Total ram usage:        4 bytes
  4066 ;; Hardware stack levels used:    1
  4067 ;; This function calls:
  4068 ;;		Nothing
  4069 ;; This function is called by:
  4070 ;;		_IOConfiguration
  4071 ;;		_KeypadBegin
  4072 ;;		_lcdBegin
  4073 ;; This function uses a non-reentrant model
  4074 ;;
  4075                           psect	text7,local,class=CODE,delta=2,merge=1,group=0
  4076                           	file	"source.c"
  4077                           	line	63
  4078                           global __ptext7
  4079                           __ptext7:	;psect for function _pinMode
  4080  09E5                     psect	text7
  4081                           	file	"source.c"
  4082                           	line	63
  4083                           	global	__size_of_pinMode
  4084                           	__size_of_pinMode	equ	__end_of_pinMode-_pinMode
  4085  0121                     	
  4086                           _pinMode:	
  4087  09E5                     ;incstack = 0
  4088                           	opt	stack 5
  4089                           ; Regs used in _pinMode: [wreg-fsr0h+status,2+status,0]
  4090                           ;pinMode@pin stored from wreg
  4091                           	movwf	(pinMode@pin)
  4092  09E5  00F3               	line	65
  4093                           	
  4094                           l3230:	
  4095  09E6                     ;source.c: 63: void pinMode(char pin, char mode);source.c: 64: {;source.c: 65:     switc
                                 h(pin)
  4096                           	goto	l3284
  4097  09E6  2AB0               	line	67
  4098                           ;source.c: 66:     {;source.c: 67:         case 0:
  4099                           	
  4100                           l153:	
  4101  09E7                     	line	68
  4102                           	
  4103                           l3232:	
  4104  09E7                     ;source.c: 68:             TRISCbits.TRISC7 = mode;
  4105                           	rrf	(pinMode@mode),w
  4106  09E7  0C70               	bsf	status, 5	;RP0=1, select bank1
  4107  09E8  1683               	bcf	status, 6	;RP1=0, select bank1
  4108  09E9  1303               	skipc
  4109  09EA  1C03               	bcf	(135)^080h,7	;volatile
  4110  09EB  1387               	skipnc
  4111  09EC  1803               	bsf	(135)^080h,7	;volatile
  4112  09ED  1787               	line	69
  4113                           ;source.c: 69:             break;
  4114                           	goto	l179
  4115  09EE  2B05               	line	70
  4116                           ;source.c: 70:         case 1:
  4117                           	
  4118                           l155:	
  4119  09EF                     	line	71
  4120                           	
  4121                           l3234:	
  4122  09EF                     ;source.c: 71:             TRISCbits.TRISC6 = mode;
  4123                           	rrf	(pinMode@mode),w
  4124  09EF  0C70               	bsf	status, 5	;RP0=1, select bank1
  4125  09F0  1683               	bcf	status, 6	;RP1=0, select bank1
  4126  09F1  1303               	skipc
  4127  09F2  1C03               	bcf	(135)^080h,6	;volatile
  4128  09F3  1307               	skipnc
  4129  09F4  1803               	bsf	(135)^080h,6	;volatile
  4130  09F5  1707               	line	72
  4131                           ;source.c: 72:             break;
  4132                           	goto	l179
  4133  09F6  2B05               	line	73
  4134                           ;source.c: 73:         case 2:
  4135                           	
  4136                           l156:	
  4137  09F7                     	line	74
  4138                           	
  4139                           l3236:	
  4140  09F7                     ;source.c: 74:             TRISCbits.TRISC5 = mode;
  4141                           	rrf	(pinMode@mode),w
  4142  09F7  0C70               	bsf	status, 5	;RP0=1, select bank1
  4143  09F8  1683               	bcf	status, 6	;RP1=0, select bank1
  4144  09F9  1303               	skipc
  4145  09FA  1C03               	bcf	(135)^080h,5	;volatile
  4146  09FB  1287               	skipnc
  4147  09FC  1803               	bsf	(135)^080h,5	;volatile
  4148  09FD  1687               	line	75
  4149                           ;source.c: 75:             break;
  4150                           	goto	l179
  4151  09FE  2B05               	line	76
  4152                           ;source.c: 76:         case 3:
  4153                           	
  4154                           l157:	
  4155  09FF                     	line	77
  4156                           	
  4157                           l3238:	
  4158  09FF                     ;source.c: 77:             TRISCbits.TRISC4 = mode;
  4159                           	rrf	(pinMode@mode),w
  4160  09FF  0C70               	bsf	status, 5	;RP0=1, select bank1
  4161  0A00  1683               	bcf	status, 6	;RP1=0, select bank1
  4162  0A01  1303               	skipc
  4163  0A02  1C03               	bcf	(135)^080h,4	;volatile
  4164  0A03  1207               	skipnc
  4165  0A04  1803               	bsf	(135)^080h,4	;volatile
  4166  0A05  1607               	line	78
  4167                           ;source.c: 78:             break;
  4168                           	goto	l179
  4169  0A06  2B05               	line	79
  4170                           ;source.c: 79:         case 4:
  4171                           	
  4172                           l158:	
  4173  0A07                     	line	80
  4174                           	
  4175                           l3240:	
  4176  0A07                     ;source.c: 80:             TRISCbits.TRISC3 = mode;
  4177                           	rrf	(pinMode@mode),w
  4178  0A07  0C70               	bsf	status, 5	;RP0=1, select bank1
  4179  0A08  1683               	bcf	status, 6	;RP1=0, select bank1
  4180  0A09  1303               	skipc
  4181  0A0A  1C03               	bcf	(135)^080h,3	;volatile
  4182  0A0B  1187               	skipnc
  4183  0A0C  1803               	bsf	(135)^080h,3	;volatile
  4184  0A0D  1587               	line	81
  4185                           ;source.c: 81:             break;
  4186                           	goto	l179
  4187  0A0E  2B05               	line	82
  4188                           ;source.c: 82:         case 5:
  4189                           	
  4190                           l159:	
  4191  0A0F                     	line	83
  4192                           	
  4193                           l3242:	
  4194  0A0F                     ;source.c: 83:             TRISCbits.TRISC2 = mode;
  4195                           	rrf	(pinMode@mode),w
  4196  0A0F  0C70               	bsf	status, 5	;RP0=1, select bank1
  4197  0A10  1683               	bcf	status, 6	;RP1=0, select bank1
  4198  0A11  1303               	skipc
  4199  0A12  1C03               	bcf	(135)^080h,2	;volatile
  4200  0A13  1107               	skipnc
  4201  0A14  1803               	bsf	(135)^080h,2	;volatile
  4202  0A15  1507               	line	85
  4203                           ;source.c: 85:             break;
  4204                           	goto	l179
  4205  0A16  2B05               	line	86
  4206                           ;source.c: 86:         case 6:
  4207                           	
  4208                           l160:	
  4209  0A17                     	line	87
  4210                           	
  4211                           l3244:	
  4212  0A17                     ;source.c: 87:             TRISCbits.TRISC1 = mode;
  4213                           	rrf	(pinMode@mode),w
  4214  0A17  0C70               	bsf	status, 5	;RP0=1, select bank1
  4215  0A18  1683               	bcf	status, 6	;RP1=0, select bank1
  4216  0A19  1303               	skipc
  4217  0A1A  1C03               	bcf	(135)^080h,1	;volatile
  4218  0A1B  1087               	skipnc
  4219  0A1C  1803               	bsf	(135)^080h,1	;volatile
  4220  0A1D  1487               	line	89
  4221                           ;source.c: 89:             break;
  4222                           	goto	l179
  4223  0A1E  2B05               	line	90
  4224                           ;source.c: 90:         case 7:
  4225                           	
  4226                           l161:	
  4227  0A1F                     	line	91
  4228                           	
  4229                           l3246:	
  4230  0A1F                     ;source.c: 91:             TRISCbits.TRISC0 = mode;
  4231                           	rrf	(pinMode@mode),w
  4232  0A1F  0C70               	bsf	status, 5	;RP0=1, select bank1
  4233  0A20  1683               	bcf	status, 6	;RP1=0, select bank1
  4234  0A21  1303               	skipc
  4235  0A22  1C03               	bcf	(135)^080h,0	;volatile
  4236  0A23  1007               	skipnc
  4237  0A24  1803               	bsf	(135)^080h,0	;volatile
  4238  0A25  1407               	line	92
  4239                           ;source.c: 92:             break;
  4240                           	goto	l179
  4241  0A26  2B05               	line	93
  4242                           ;source.c: 93:         case 8:
  4243                           	
  4244                           l162:	
  4245  0A27                     	line	94
  4246                           	
  4247                           l3248:	
  4248  0A27                     ;source.c: 94:             TRISBbits.TRISB0 = mode;
  4249                           	rrf	(pinMode@mode),w
  4250  0A27  0C70               	bsf	status, 5	;RP0=1, select bank1
  4251  0A28  1683               	bcf	status, 6	;RP1=0, select bank1
  4252  0A29  1303               	skipc
  4253  0A2A  1C03               	bcf	(134)^080h,0	;volatile
  4254  0A2B  1006               	skipnc
  4255  0A2C  1803               	bsf	(134)^080h,0	;volatile
  4256  0A2D  1406               	line	95
  4257                           ;source.c: 95:             break;
  4258                           	goto	l179
  4259  0A2E  2B05               	line	96
  4260                           ;source.c: 96:         case 9:
  4261                           	
  4262                           l163:	
  4263  0A2F                     	line	97
  4264                           	
  4265                           l3250:	
  4266  0A2F                     ;source.c: 97:             TRISBbits.TRISB1 = mode;
  4267                           	rrf	(pinMode@mode),w
  4268  0A2F  0C70               	bsf	status, 5	;RP0=1, select bank1
  4269  0A30  1683               	bcf	status, 6	;RP1=0, select bank1
  4270  0A31  1303               	skipc
  4271  0A32  1C03               	bcf	(134)^080h,1	;volatile
  4272  0A33  1086               	skipnc
  4273  0A34  1803               	bsf	(134)^080h,1	;volatile
  4274  0A35  1486               	line	98
  4275                           ;source.c: 98:             break;
  4276                           	goto	l179
  4277  0A36  2B05               	line	99
  4278                           ;source.c: 99:         case 10:
  4279                           	
  4280                           l164:	
  4281  0A37                     	line	100
  4282                           	
  4283                           l3252:	
  4284  0A37                     ;source.c: 100:             TRISBbits.TRISB2 = mode;
  4285                           	rrf	(pinMode@mode),w
  4286  0A37  0C70               	bsf	status, 5	;RP0=1, select bank1
  4287  0A38  1683               	bcf	status, 6	;RP1=0, select bank1
  4288  0A39  1303               	skipc
  4289  0A3A  1C03               	bcf	(134)^080h,2	;volatile
  4290  0A3B  1106               	skipnc
  4291  0A3C  1803               	bsf	(134)^080h,2	;volatile
  4292  0A3D  1506               	line	101
  4293                           ;source.c: 101:             break;
  4294                           	goto	l179
  4295  0A3E  2B05               	line	102
  4296                           ;source.c: 102:         case 11:
  4297                           	
  4298                           l165:	
  4299  0A3F                     	line	103
  4300                           	
  4301                           l3254:	
  4302  0A3F                     ;source.c: 103:             TRISBbits.TRISB3 = mode;
  4303                           	rrf	(pinMode@mode),w
  4304  0A3F  0C70               	bsf	status, 5	;RP0=1, select bank1
  4305  0A40  1683               	bcf	status, 6	;RP1=0, select bank1
  4306  0A41  1303               	skipc
  4307  0A42  1C03               	bcf	(134)^080h,3	;volatile
  4308  0A43  1186               	skipnc
  4309  0A44  1803               	bsf	(134)^080h,3	;volatile
  4310  0A45  1586               	line	104
  4311                           ;source.c: 104:             break;
  4312                           	goto	l179
  4313  0A46  2B05               	line	105
  4314                           ;source.c: 105:         case 12:
  4315                           	
  4316                           l166:	
  4317  0A47                     	line	106
  4318                           	
  4319                           l3256:	
  4320  0A47                     ;source.c: 106:             TRISBbits.TRISB4 = mode;
  4321                           	rrf	(pinMode@mode),w
  4322  0A47  0C70               	bsf	status, 5	;RP0=1, select bank1
  4323  0A48  1683               	bcf	status, 6	;RP1=0, select bank1
  4324  0A49  1303               	skipc
  4325  0A4A  1C03               	bcf	(134)^080h,4	;volatile
  4326  0A4B  1206               	skipnc
  4327  0A4C  1803               	bsf	(134)^080h,4	;volatile
  4328  0A4D  1606               	line	107
  4329                           ;source.c: 107:             break;
  4330                           	goto	l179
  4331  0A4E  2B05               	line	108
  4332                           ;source.c: 108:         case 13:
  4333                           	
  4334                           l167:	
  4335  0A4F                     	line	109
  4336                           	
  4337                           l3258:	
  4338  0A4F                     ;source.c: 109:             TRISBbits.TRISB5 = mode;
  4339                           	rrf	(pinMode@mode),w
  4340  0A4F  0C70               	bsf	status, 5	;RP0=1, select bank1
  4341  0A50  1683               	bcf	status, 6	;RP1=0, select bank1
  4342  0A51  1303               	skipc
  4343  0A52  1C03               	bcf	(134)^080h,5	;volatile
  4344  0A53  1286               	skipnc
  4345  0A54  1803               	bsf	(134)^080h,5	;volatile
  4346  0A55  1686               	line	110
  4347                           ;source.c: 110:             break;
  4348                           	goto	l179
  4349  0A56  2B05               	line	111
  4350                           ;source.c: 111:         case 14:
  4351                           	
  4352                           l168:	
  4353  0A57                     	line	112
  4354                           	
  4355                           l3260:	
  4356  0A57                     ;source.c: 112:             TRISBbits.TRISB6 = mode;
  4357                           	rrf	(pinMode@mode),w
  4358  0A57  0C70               	bsf	status, 5	;RP0=1, select bank1
  4359  0A58  1683               	bcf	status, 6	;RP1=0, select bank1
  4360  0A59  1303               	skipc
  4361  0A5A  1C03               	bcf	(134)^080h,6	;volatile
  4362  0A5B  1306               	skipnc
  4363  0A5C  1803               	bsf	(134)^080h,6	;volatile
  4364  0A5D  1706               	line	113
  4365                           ;source.c: 113:             break;
  4366                           	goto	l179
  4367  0A5E  2B05               	line	114
  4368                           ;source.c: 114:         case 15:
  4369                           	
  4370                           l169:	
  4371  0A5F                     	line	115
  4372                           	
  4373                           l3262:	
  4374  0A5F                     ;source.c: 115:             TRISBbits.TRISB7 = mode;
  4375                           	rrf	(pinMode@mode),w
  4376  0A5F  0C70               	bsf	status, 5	;RP0=1, select bank1
  4377  0A60  1683               	bcf	status, 6	;RP1=0, select bank1
  4378  0A61  1303               	skipc
  4379  0A62  1C03               	bcf	(134)^080h,7	;volatile
  4380  0A63  1386               	skipnc
  4381  0A64  1803               	bsf	(134)^080h,7	;volatile
  4382  0A65  1786               	line	116
  4383                           ;source.c: 116:             break;
  4384                           	goto	l179
  4385  0A66  2B05               	line	117
  4386                           ;source.c: 117:         case 16:
  4387                           	
  4388                           l170:	
  4389  0A67                     	line	118
  4390                           	
  4391                           l3264:	
  4392  0A67                     ;source.c: 118:             TRISDbits.TRISD0 = mode;
  4393                           	rrf	(pinMode@mode),w
  4394  0A67  0C70               	bsf	status, 5	;RP0=1, select bank1
  4395  0A68  1683               	bcf	status, 6	;RP1=0, select bank1
  4396  0A69  1303               	skipc
  4397  0A6A  1C03               	bcf	(136)^080h,0	;volatile
  4398  0A6B  1008               	skipnc
  4399  0A6C  1803               	bsf	(136)^080h,0	;volatile
  4400  0A6D  1408               	line	119
  4401                           ;source.c: 119:             break;
  4402                           	goto	l179
  4403  0A6E  2B05               	line	120
  4404                           ;source.c: 120:         case 17:
  4405                           	
  4406                           l171:	
  4407  0A6F                     	line	121
  4408                           	
  4409                           l3266:	
  4410  0A6F                     ;source.c: 121:             TRISDbits.TRISD1 = mode;
  4411                           	rrf	(pinMode@mode),w
  4412  0A6F  0C70               	bsf	status, 5	;RP0=1, select bank1
  4413  0A70  1683               	bcf	status, 6	;RP1=0, select bank1
  4414  0A71  1303               	skipc
  4415  0A72  1C03               	bcf	(136)^080h,1	;volatile
  4416  0A73  1088               	skipnc
  4417  0A74  1803               	bsf	(136)^080h,1	;volatile
  4418  0A75  1488               	line	122
  4419                           ;source.c: 122:             break;
  4420                           	goto	l179
  4421  0A76  2B05               	line	123
  4422                           ;source.c: 123:         case 18:
  4423                           	
  4424                           l172:	
  4425  0A77                     	line	124
  4426                           	
  4427                           l3268:	
  4428  0A77                     ;source.c: 124:             TRISDbits.TRISD2 = mode;
  4429                           	rrf	(pinMode@mode),w
  4430  0A77  0C70               	bsf	status, 5	;RP0=1, select bank1
  4431  0A78  1683               	bcf	status, 6	;RP1=0, select bank1
  4432  0A79  1303               	skipc
  4433  0A7A  1C03               	bcf	(136)^080h,2	;volatile
  4434  0A7B  1108               	skipnc
  4435  0A7C  1803               	bsf	(136)^080h,2	;volatile
  4436  0A7D  1508               	line	125
  4437                           ;source.c: 125:             break;
  4438                           	goto	l179
  4439  0A7E  2B05               	line	126
  4440                           ;source.c: 126:         case 19:
  4441                           	
  4442                           l173:	
  4443  0A7F                     	line	127
  4444                           	
  4445                           l3270:	
  4446  0A7F                     ;source.c: 127:             TRISDbits.TRISD3 = mode;
  4447                           	rrf	(pinMode@mode),w
  4448  0A7F  0C70               	bsf	status, 5	;RP0=1, select bank1
  4449  0A80  1683               	bcf	status, 6	;RP1=0, select bank1
  4450  0A81  1303               	skipc
  4451  0A82  1C03               	bcf	(136)^080h,3	;volatile
  4452  0A83  1188               	skipnc
  4453  0A84  1803               	bsf	(136)^080h,3	;volatile
  4454  0A85  1588               	line	128
  4455                           ;source.c: 128:             break;
  4456                           	goto	l179
  4457  0A86  2B05               	line	129
  4458                           ;source.c: 129:         case 20:
  4459                           	
  4460                           l174:	
  4461  0A87                     	line	130
  4462                           	
  4463                           l3272:	
  4464  0A87                     ;source.c: 130:    TRISDbits.TRISD4 = mode;
  4465                           	rrf	(pinMode@mode),w
  4466  0A87  0C70               	bsf	status, 5	;RP0=1, select bank1
  4467  0A88  1683               	bcf	status, 6	;RP1=0, select bank1
  4468  0A89  1303               	skipc
  4469  0A8A  1C03               	bcf	(136)^080h,4	;volatile
  4470  0A8B  1208               	skipnc
  4471  0A8C  1803               	bsf	(136)^080h,4	;volatile
  4472  0A8D  1608               	line	140
  4473                           ;source.c: 140:    break;
  4474                           	goto	l179
  4475  0A8E  2B05               	line	141
  4476                           ;source.c: 141:         case 21:
  4477                           	
  4478                           l175:	
  4479  0A8F                     	line	142
  4480                           	
  4481                           l3274:	
  4482  0A8F                     ;source.c: 142:             TRISDbits.TRISD5 = mode;
  4483                           	rrf	(pinMode@mode),w
  4484  0A8F  0C70               	bsf	status, 5	;RP0=1, select bank1
  4485  0A90  1683               	bcf	status, 6	;RP1=0, select bank1
  4486  0A91  1303               	skipc
  4487  0A92  1C03               	bcf	(136)^080h,5	;volatile
  4488  0A93  1288               	skipnc
  4489  0A94  1803               	bsf	(136)^080h,5	;volatile
  4490  0A95  1688               	line	143
  4491                           ;source.c: 143:             break;
  4492                           	goto	l179
  4493  0A96  2B05               	line	144
  4494                           ;source.c: 144:         case 22:
  4495                           	
  4496                           l176:	
  4497  0A97                     	line	145
  4498                           	
  4499                           l3276:	
  4500  0A97                     ;source.c: 145:             TRISDbits.TRISD6 = mode;
  4501                           	rrf	(pinMode@mode),w
  4502  0A97  0C70               	bsf	status, 5	;RP0=1, select bank1
  4503  0A98  1683               	bcf	status, 6	;RP1=0, select bank1
  4504  0A99  1303               	skipc
  4505  0A9A  1C03               	bcf	(136)^080h,6	;volatile
  4506  0A9B  1308               	skipnc
  4507  0A9C  1803               	bsf	(136)^080h,6	;volatile
  4508  0A9D  1708               	line	146
  4509                           ;source.c: 146:             break;
  4510                           	goto	l179
  4511  0A9E  2B05               	line	147
  4512                           ;source.c: 147:         case 23:
  4513                           	
  4514                           l177:	
  4515  0A9F                     	line	148
  4516                           	
  4517                           l3278:	
  4518  0A9F                     ;source.c: 148:             TRISDbits.TRISD7 = mode;
  4519                           	rrf	(pinMode@mode),w
  4520  0A9F  0C70               	bsf	status, 5	;RP0=1, select bank1
  4521  0AA0  1683               	bcf	status, 6	;RP1=0, select bank1
  4522  0AA1  1303               	skipc
  4523  0AA2  1C03               	bcf	(136)^080h,7	;volatile
  4524  0AA3  1388               	skipnc
  4525  0AA4  1803               	bsf	(136)^080h,7	;volatile
  4526  0AA5  1788               	line	149
  4527                           ;source.c: 149:             break;
  4528                           	goto	l179
  4529  0AA6  2B05               	line	150
  4530                           ;source.c: 150:         case 24:
  4531                           	
  4532                           l178:	
  4533  0AA7                     	line	151
  4534                           	
  4535                           l3280:	
  4536  0AA7                     ;source.c: 151:             TRISAbits.TRISA4 = mode;
  4537                           	rrf	(pinMode@mode),w
  4538  0AA7  0C70               	bsf	status, 5	;RP0=1, select bank1
  4539  0AA8  1683               	bcf	status, 6	;RP1=0, select bank1
  4540  0AA9  1303               	skipc
  4541  0AAA  1C03               	bcf	(133)^080h,4	;volatile
  4542  0AAB  1205               	skipnc
  4543  0AAC  1803               	bsf	(133)^080h,4	;volatile
  4544  0AAD  1605               	line	152
  4545                           ;source.c: 152:             break;
  4546                           	goto	l179
  4547  0AAE  2B05               	line	167
  4548                           	
  4549                           l3282:	
  4550  0AAF                     ;source.c: 167:     }
  4551                           	goto	l179
  4552  0AAF  2B05               	
  4553                           l152:	
  4554  0AB0                     	
  4555                           l3284:	
  4556  0AB0                     	movf	(pinMode@pin),w
  4557  0AB0  0873               	movwf	(??_pinMode+0)+0
  4558  0AB1  00F1               	clrf	(??_pinMode+0)+0+1
  4559  0AB2  01F2               	; Switch on 2 bytes has been partitioned into a top level switch of size 1, and 1 sub-s
                                 witches
  4560                           ; Switch size 1, requested type "space"
  4561                           ; Number of cases is 1, Range of values is 0 to 0
  4562                           ; switch strategies available:
  4563                           ; Name         Instructions Cycles
  4564                           ; simple_byte            4     3 (average)
  4565                           ; direct_byte           11     8 (fixed)
  4566                           ; jumptable            260     6 (fixed)
  4567                           ;	Chosen strategy is simple_byte
  4568                           
  4569                           	movf 1+(??_pinMode+0)+0,w
  4570  0AB3  0872               	opt asmopt_push
  4571                           	opt asmopt_off
  4572                           	xorlw	0^0	; case 0
  4573  0AB4  3A00               	skipnz
  4574  0AB5  1903               	goto	l4516
  4575  0AB6  2AB8               	goto	l179
  4576  0AB7  2B05               	opt asmopt_pop
  4577                           	
  4578                           l4516:	
  4579  0AB8                     ; Switch size 1, requested type "space"
  4580                           ; Number of cases is 25, Range of values is 0 to 24
  4581                           ; switch strategies available:
  4582                           ; Name         Instructions Cycles
  4583                           ; simple_byte           76    39 (average)
  4584                           ; direct_byte           83     8 (fixed)
  4585                           ; jumptable            260     6 (fixed)
  4586                           ;	Chosen strategy is simple_byte
  4587                           
  4588                           	movf 0+(??_pinMode+0)+0,w
  4589  0AB8  0871               	opt asmopt_push
  4590                           	opt asmopt_off
  4591                           	xorlw	0^0	; case 0
  4592  0AB9  3A00               	skipnz
  4593  0ABA  1903               	goto	l3232
  4594  0ABB  29E7               	xorlw	1^0	; case 1
  4595  0ABC  3A01               	skipnz
  4596  0ABD  1903               	goto	l3234
  4597  0ABE  29EF               	xorlw	2^1	; case 2
  4598  0ABF  3A03               	skipnz
  4599  0AC0  1903               	goto	l3236
  4600  0AC1  29F7               	xorlw	3^2	; case 3
  4601  0AC2  3A01               	skipnz
  4602  0AC3  1903               	goto	l3238
  4603  0AC4  29FF               	xorlw	4^3	; case 4
  4604  0AC5  3A07               	skipnz
  4605  0AC6  1903               	goto	l3240
  4606  0AC7  2A07               	xorlw	5^4	; case 5
  4607  0AC8  3A01               	skipnz
  4608  0AC9  1903               	goto	l3242
  4609  0ACA  2A0F               	xorlw	6^5	; case 6
  4610  0ACB  3A03               	skipnz
  4611  0ACC  1903               	goto	l3244
  4612  0ACD  2A17               	xorlw	7^6	; case 7
  4613  0ACE  3A01               	skipnz
  4614  0ACF  1903               	goto	l3246
  4615  0AD0  2A1F               	xorlw	8^7	; case 8
  4616  0AD1  3A0F               	skipnz
  4617  0AD2  1903               	goto	l3248
  4618  0AD3  2A27               	xorlw	9^8	; case 9
  4619  0AD4  3A01               	skipnz
  4620  0AD5  1903               	goto	l3250
  4621  0AD6  2A2F               	xorlw	10^9	; case 10
  4622  0AD7  3A03               	skipnz
  4623  0AD8  1903               	goto	l3252
  4624  0AD9  2A37               	xorlw	11^10	; case 11
  4625  0ADA  3A01               	skipnz
  4626  0ADB  1903               	goto	l3254
  4627  0ADC  2A3F               	xorlw	12^11	; case 12
  4628  0ADD  3A07               	skipnz
  4629  0ADE  1903               	goto	l3256
  4630  0ADF  2A47               	xorlw	13^12	; case 13
  4631  0AE0  3A01               	skipnz
  4632  0AE1  1903               	goto	l3258
  4633  0AE2  2A4F               	xorlw	14^13	; case 14
  4634  0AE3  3A03               	skipnz
  4635  0AE4  1903               	goto	l3260
  4636  0AE5  2A57               	xorlw	15^14	; case 15
  4637  0AE6  3A01               	skipnz
  4638  0AE7  1903               	goto	l3262
  4639  0AE8  2A5F               	xorlw	16^15	; case 16
  4640  0AE9  3A1F               	skipnz
  4641  0AEA  1903               	goto	l3264
  4642  0AEB  2A67               	xorlw	17^16	; case 17
  4643  0AEC  3A01               	skipnz
  4644  0AED  1903               	goto	l3266
  4645  0AEE  2A6F               	xorlw	18^17	; case 18
  4646  0AEF  3A03               	skipnz
  4647  0AF0  1903               	goto	l3268
  4648  0AF1  2A77               	xorlw	19^18	; case 19
  4649  0AF2  3A01               	skipnz
  4650  0AF3  1903               	goto	l3270
  4651  0AF4  2A7F               	xorlw	20^19	; case 20
  4652  0AF5  3A07               	skipnz
  4653  0AF6  1903               	goto	l3272
  4654  0AF7  2A87               	xorlw	21^20	; case 21
  4655  0AF8  3A01               	skipnz
  4656  0AF9  1903               	goto	l3274
  4657  0AFA  2A8F               	xorlw	22^21	; case 22
  4658  0AFB  3A03               	skipnz
  4659  0AFC  1903               	goto	l3276
  4660  0AFD  2A97               	xorlw	23^22	; case 23
  4661  0AFE  3A01               	skipnz
  4662  0AFF  1903               	goto	l3278
  4663  0B00  2A9F               	xorlw	24^23	; case 24
  4664  0B01  3A0F               	skipnz
  4665  0B02  1903               	goto	l3280
  4666  0B03  2AA7               	goto	l179
  4667  0B04  2B05               	opt asmopt_pop
  4668                           
  4669                           	
  4670                           l154:	
  4671  0B05                     	line	168
  4672                           	
  4673                           l179:	
  4674  0B05                     	return
  4675  0B05  0008               	opt stack 0
  4676                           GLOBAL	__end_of_pinMode
  4677                           	__end_of_pinMode:
  4678  0B06                     	signat	_pinMode,8313
  4679                           	global	_ContadorBegin
  4680                           
  4681 ;; *************** function _ContadorBegin *****************
  4682 ;; Defined at:
  4683 ;;		line 355 in file "ContadoraCanicas.c"
  4684 ;; Parameters:    Size  Location     Type
  4685 ;;		None
  4686 ;; Auto vars:     Size  Location     Type
  4687 ;;		None
  4688 ;; Return value:  Size  Location     Type
  4689 ;;                  1    wreg      void 
  4690 ;; Registers used:
  4691 ;;		None
  4692 ;; Tracked objects:
  4693 ;;		On entry : 0/0
  4694 ;;		On exit  : 0/0
  4695 ;;		Unchanged: 0/0
  4696 ;; Data sizes:     COMMON   BANK0   BANK1   BANK3   BANK2
  4697 ;;      Params:         0       0       0       0       0
  4698 ;;      Locals:         0       0       0       0       0
  4699 ;;      Temps:          0       0       0       0       0
  4700 ;;      Totals:         0       0       0       0       0
  4701 ;;Total ram usage:        0 bytes
  4702 ;; Hardware stack levels used:    1
  4703 ;; This function calls:
  4704 ;;		Nothing
  4705 ;; This function is called by:
  4706 ;;		_setup
  4707 ;; This function uses a non-reentrant model
  4708 ;;
  4709                           psect	text8,local,class=CODE,delta=2,merge=1,group=0
  4710                           	file	"ContadoraCanicas.c"
  4711                           	line	355
  4712                           global __ptext8
  4713                           __ptext8:	;psect for function _ContadorBegin
  4714  118F                     psect	text8
  4715                           	file	"ContadoraCanicas.c"
  4716                           	line	355
  4717                           	global	__size_of_ContadorBegin
  4718                           	__size_of_ContadorBegin	equ	__end_of_ContadorBegin-_ContadorBegin
  4719  0009                     	
  4720                           _ContadorBegin:	
  4721  118F                     ;incstack = 0
  4722                           	opt	stack 6
  4723                           ; Regs used in _ContadorBegin: []
  4724                           	line	357
  4725                           	
  4726                           l3694:	
  4727  118F                     ;ContadoraCanicas.c: 357:  OPTION_REGbits.T0CS = 1;
  4728                           	bsf	status, 5	;RP0=1, select bank1
  4729  118F  1683               	bcf	status, 6	;RP1=0, select bank1
  4730  1190  1303               	bsf	(129)^080h,5	;volatile
  4731  1191  1681               	line	358
  4732                           ;ContadoraCanicas.c: 358:  OPTION_REGbits.T0SE = 0;
  4733                           	bcf	(129)^080h,4	;volatile
  4734  1192  1201               	line	359
  4735                           ;ContadoraCanicas.c: 359:  OPTION_REGbits.PSA = 1;
  4736                           	bsf	(129)^080h,3	;volatile
  4737  1193  1581               	line	360
  4738                           ;ContadoraCanicas.c: 360:  OPTION_REGbits.PS2 = 0;
  4739                           	bcf	(129)^080h,2	;volatile
  4740  1194  1101               	line	361
  4741                           ;ContadoraCanicas.c: 361:  OPTION_REGbits.PS1 = 0;
  4742                           	bcf	(129)^080h,1	;volatile
  4743  1195  1081               	line	362
  4744                           ;ContadoraCanicas.c: 362:  OPTION_REGbits.PS0 = 0;
  4745                           	bcf	(129)^080h,0	;volatile
  4746  1196  1001               	line	363
  4747                           	
  4748                           l566:	
  4749  1197                     	return
  4750  1197  0008               	opt stack 0
  4751                           GLOBAL	__end_of_ContadorBegin
  4752                           	__end_of_ContadorBegin:
  4753  1198                     	signat	_ContadorBegin,89
  4754                           	global	_loop
  4755                           
  4756 ;; *************** function _loop *****************
  4757 ;; Defined at:
  4758 ;;		line 102 in file "ContadoraCanicas.c"
  4759 ;; Parameters:    Size  Location     Type
  4760 ;;		None
  4761 ;; Auto vars:     Size  Location     Type
  4762 ;;		None
  4763 ;; Return value:  Size  Location     Type
  4764 ;;                  1    wreg      void 
  4765 ;; Registers used:
  4766 ;;		wreg, fsr0l, fsr0h, status,2, status,0, btemp+1, pclath, cstack
  4767 ;; Tracked objects:
  4768 ;;		On entry : 0/0
  4769 ;;		On exit  : 0/0
  4770 ;;		Unchanged: 0/0
  4771 ;; Data sizes:     COMMON   BANK0   BANK1   BANK3   BANK2
  4772 ;;      Params:         0       0       0       0       0
  4773 ;;      Locals:         0       0       0       0       0
  4774 ;;      Temps:          0       5       0       0       0
  4775 ;;      Totals:         0       5       0       0       0
  4776 ;;Total ram usage:        5 bytes
  4777 ;; Hardware stack levels used:    1
  4778 ;; Hardware stack levels required when called:    5
  4779 ;; This function calls:
  4780 ;;		_Contador
  4781 ;;		_KeypadRead
  4782 ;;		___bmul
  4783 ;;		_delay
  4784 ;;		_digitalRead
  4785 ;;		_digitalWrite
  4786 ;;		_lcdClear
  4787 ;;		_lcdPrint
  4788 ;;		_lcdSetCursor
  4789 ;;		_sprintf
  4790 ;; This function is called by:
  4791 ;;		_main
  4792 ;; This function uses a non-reentrant model
  4793 ;;
  4794                           psect	text9,local,class=CODE,delta=2,merge=1,group=0
  4795                           	line	102
  4796                           global __ptext9
  4797                           __ptext9:	;psect for function _loop
  4798  03B7                     psect	text9
  4799                           	file	"ContadoraCanicas.c"
  4800                           	line	102
  4801                           	global	__size_of_loop
  4802                           	__size_of_loop	equ	__end_of_loop-_loop
  4803  041A                     	
  4804                           _loop:	
  4805  03B7                     ;incstack = 0
  4806                           	opt	stack 2
  4807                           ; Regs used in _loop: [wreg-fsr0h+status,2+status,0+btemp+1+pclath+cstack]
  4808                           	line	104
  4809                           	
  4810                           l4038:	
  4811  03B7                     ;ContadoraCanicas.c: 104:   switch(Estado)
  4812                           	goto	l4298
  4813  03B7  2FBE               	line	106
  4814                           ;ContadoraCanicas.c: 105:   {;ContadoraCanicas.c: 106:    case Apagado:
  4815                           	
  4816                           l495:	
  4817  03B8                     	line	107
  4818                           	
  4819                           l4040:	
  4820  03B8                     ;ContadoraCanicas.c: 107:     lcdClear();
  4821                           	fcall	_lcdClear
  4822  03B8  160A  118A  2180  120A  118A  	line	108
  4823                           ;ContadoraCanicas.c: 108:     lcdSetCursor(2,1);
  4824                           	clrf	(lcdSetCursor@column)
  4825  03BD  01FC               	incf	(lcdSetCursor@column),f
  4826  03BE  0AFC               	movlw	low(02h)
  4827  03BF  3002               	fcall	_lcdSetCursor
  4828  03C0  160A  118A  2225  120A  118A  	line	109
  4829                           ;ContadoraCanicas.c: 109:     lcdPrint(" 'A'  to  Start ");
  4830                           	movlw	(low((((STR_3)-__stringbase)|8000h)))&0ffh
  4831  03C5  307D               	bcf	status, 5	;RP0=0, select bank0
  4832  03C6  1283               	bcf	status, 6	;RP1=0, select bank0
  4833  03C7  1303               	movwf	(lcdPrint@string)
  4834  03C8  00BE               	movlw	80h
  4835  03C9  3080               	movwf	(lcdPrint@string+1)
  4836  03CA  00BF               	fcall	_lcdPrint
  4837  03CB  160A  118A  2292  120A  118A  	line	110
  4838                           ;ContadoraCanicas.c: 110:     while(Latch != 1)
  4839                           	goto	l4048
  4840  03D0  2BE5               	
  4841                           l497:	
  4842  03D1                     	line	112
  4843                           	
  4844                           l4042:	
  4845  03D1                     ;ContadoraCanicas.c: 111:     {;ContadoraCanicas.c: 112:      Tecla = KeypadRead();
  4846                           	fcall	_KeypadRead
  4847  03D1  120A  118A  2060  120A  118A  	bcf	status, 5	;RP0=0, select bank0
  4848  03D6  1283               	bcf	status, 6	;RP1=0, select bank0
  4849  03D7  1303               	movwf	(??_loop+0)+0
  4850  03D8  00CD               	movf	(??_loop+0)+0,w
  4851  03D9  084D               	movwf	(_Tecla)
  4852  03DA  00E3               	line	113
  4853                           	
  4854                           l4044:	
  4855  03DB                     ;ContadoraCanicas.c: 113:      if(Tecla == 'A')
  4856                           		movlw	65
  4857  03DB  3041               	xorwf	((_Tecla)),w
  4858  03DC  0663               	btfss	status,2
  4859  03DD  1D03               	goto	u2501
  4860  03DE  2BE0               	goto	u2500
  4861  03DF  2BE1               u2501:
  4862  03E0                     	goto	l4048
  4863  03E0  2BE5               u2500:
  4864  03E1                     	line	115
  4865                           	
  4866                           l4046:	
  4867  03E1                     ;ContadoraCanicas.c: 114:      {;ContadoraCanicas.c: 115:       Latch = 1;
  4868                           	clrf	(_Latch)
  4869  03E1  01BB               	incf	(_Latch),f
  4870  03E2  0ABB               	goto	l4048
  4871  03E3  2BE5               	line	116
  4872                           ;ContadoraCanicas.c: 116:      }
  4873                           	
  4874                           l498:	
  4875  03E4                     	goto	l4048
  4876  03E4  2BE5               	line	117
  4877                           ;ContadoraCanicas.c: 117:     }
  4878                           	
  4879                           l496:	
  4880  03E5                     	line	110
  4881                           	
  4882                           l4048:	
  4883  03E5                     ;ContadoraCanicas.c: 110:     while(Latch != 1)
  4884                           	bcf	status, 5	;RP0=0, select bank0
  4885  03E5  1283               	bcf	status, 6	;RP1=0, select bank0
  4886  03E6  1303               		decf	((_Latch)),w
  4887  03E7  033B               	btfss	status,2
  4888  03E8  1D03               	goto	u2511
  4889  03E9  2BEB               	goto	u2510
  4890  03EA  2BEC               u2511:
  4891  03EB                     	goto	l4042
  4892  03EB  2BD1               u2510:
  4893  03EC                     	goto	l4050
  4894  03EC  2BED               	
  4895                           l499:	
  4896  03ED                     	line	118
  4897                           	
  4898                           l4050:	
  4899  03ED                     ;ContadoraCanicas.c: 118:     Latch = 0;
  4900                           	clrf	(_Latch)
  4901  03ED  01BB               	line	119
  4902                           ;ContadoraCanicas.c: 119:     Estado = Encendido;
  4903                           	clrf	(_Estado)
  4904  03EE  01E0               	line	120
  4905                           ;ContadoraCanicas.c: 120:    break;
  4906                           	goto	l549
  4907  03EF  2FD0               	line	121
  4908                           ;ContadoraCanicas.c: 121:    case Encendido:
  4909                           	
  4910                           l501:	
  4911  03F0                     	line	122
  4912                           	
  4913                           l4052:	
  4914  03F0                     ;ContadoraCanicas.c: 122:     lcdClear();
  4915                           	fcall	_lcdClear
  4916  03F0  160A  118A  2180  120A  118A  	line	123
  4917                           	
  4918                           l4054:	
  4919  03F5                     ;ContadoraCanicas.c: 123:     Modo = Paro;
  4920                           	bcf	status, 5	;RP0=0, select bank0
  4921  03F5  1283               	bcf	status, 6	;RP1=0, select bank0
  4922  03F6  1303               	clrf	(_Modo)
  4923  03F7  01B4               	line	124
  4924                           ;ContadoraCanicas.c: 124:     while(Latch != 1)
  4925                           	goto	l4288
  4926  03F8  2FAC               	
  4927                           l503:	
  4928  03F9                     	line	126
  4929                           ;ContadoraCanicas.c: 125:     {;ContadoraCanicas.c: 126:      switch(Modo)
  4930                           	goto	l4286
  4931  03F9  2F98               	line	128
  4932                           ;ContadoraCanicas.c: 127:      {;ContadoraCanicas.c: 128:       case Paro:
  4933                           	
  4934                           l505:	
  4935  03FA                     	line	129
  4936                           	
  4937                           l4056:	
  4938  03FA                     ;ContadoraCanicas.c: 129:        lcdSetCursor(1,1);
  4939                           	clrf	(lcdSetCursor@column)
  4940  03FA  01FC               	incf	(lcdSetCursor@column),f
  4941  03FB  0AFC               	movlw	low(01h)
  4942  03FC  3001               	fcall	_lcdSetCursor
  4943  03FD  160A  118A  2225  120A  118A  	line	130
  4944                           ;ContadoraCanicas.c: 130:        lcdPrint(" * --> Configur ");
  4945                           	movlw	(low((((STR_4)-__stringbase)|8000h)))&0ffh
  4946  0402  306C               	bcf	status, 5	;RP0=0, select bank0
  4947  0403  1283               	bcf	status, 6	;RP1=0, select bank0
  4948  0404  1303               	movwf	(lcdPrint@string)
  4949  0405  00BE               	movlw	80h
  4950  0406  3080               	movwf	(lcdPrint@string+1)
  4951  0407  00BF               	fcall	_lcdPrint
  4952  0408  160A  118A  2292  120A  118A  	line	131
  4953                           ;ContadoraCanicas.c: 131:        lcdSetCursor(2,1);
  4954                           	clrf	(lcdSetCursor@column)
  4955  040D  01FC               	incf	(lcdSetCursor@column),f
  4956  040E  0AFC               	movlw	low(02h)
  4957  040F  3002               	fcall	_lcdSetCursor
  4958  0410  160A  118A  2225  120A  118A  	line	132
  4959                           ;ContadoraCanicas.c: 132:        lcdPrint(" # ---> Apagar  ");
  4960                           	movlw	(low((((STR_5)-__stringbase)|8000h)))&0ffh
  4961  0415  3039               	bcf	status, 5	;RP0=0, select bank0
  4962  0416  1283               	bcf	status, 6	;RP1=0, select bank0
  4963  0417  1303               	movwf	(lcdPrint@string)
  4964  0418  00BE               	movlw	80h
  4965  0419  3080               	movwf	(lcdPrint@string+1)
  4966  041A  00BF               	fcall	_lcdPrint
  4967  041B  160A  118A  2292  120A  118A  	line	133
  4968                           	
  4969                           l4058:	
  4970  0420                     ;ContadoraCanicas.c: 133:                             Contador(0x15);
  4971                           	movlw	low(015h)
  4972  0420  3015               	fcall	_Contador
  4973  0421  160A  118A  21EA  120A  118A  	line	134
  4974                           ;ContadoraCanicas.c: 134:        while(LatchB != 1)
  4975                           	goto	l4076
  4976  0426  2C4C               	
  4977                           l507:	
  4978  0427                     	line	136
  4979                           	
  4980                           l4060:	
  4981  0427                     ;ContadoraCanicas.c: 135:        {;ContadoraCanicas.c: 136:         Tecla = KeypadRead()
                                 ;
  4982                           	fcall	_KeypadRead
  4983  0427  120A  118A  2060  120A  118A  	bcf	status, 5	;RP0=0, select bank0
  4984  042C  1283               	bcf	status, 6	;RP1=0, select bank0
  4985  042D  1303               	movwf	(??_loop+0)+0
  4986  042E  00CD               	movf	(??_loop+0)+0,w
  4987  042F  084D               	movwf	(_Tecla)
  4988  0430  00E3               	line	137
  4989                           	
  4990                           l4062:	
  4991  0431                     ;ContadoraCanicas.c: 137:         if(Tecla == '*')
  4992                           		movlw	42
  4993  0431  302A               	xorwf	((_Tecla)),w
  4994  0432  0663               	btfss	status,2
  4995  0433  1D03               	goto	u2521
  4996  0434  2C36               	goto	u2520
  4997  0435  2C37               u2521:
  4998  0436                     	goto	l4068
  4999  0436  2C3E               u2520:
  5000  0437                     	line	139
  5001                           	
  5002                           l4064:	
  5003  0437                     ;ContadoraCanicas.c: 138:         {;ContadoraCanicas.c: 139:          Modo = Configuraci
                                 on;
  5004                           	movlw	low(02h)
  5005  0437  3002               	movwf	(??_loop+0)+0
  5006  0438  00CD               	movf	(??_loop+0)+0,w
  5007  0439  084D               	movwf	(_Modo)
  5008  043A  00B4               	line	140
  5009                           	
  5010                           l4066:	
  5011  043B                     ;ContadoraCanicas.c: 140:          LatchB = 1;
  5012                           	clrf	(_LatchB)
  5013  043B  01BA               	incf	(_LatchB),f
  5014  043C  0ABA               	line	141
  5015                           ;ContadoraCanicas.c: 141:         }
  5016                           	goto	l4076
  5017  043D  2C4C               	line	142
  5018                           ;ContadoraCanicas.c: 142:         else if(Tecla == '#')
  5019                           	
  5020                           l508:	
  5021  043E                     	
  5022                           l4068:	
  5023  043E                     		movlw	35
  5024  043E  3023               	xorwf	((_Tecla)),w
  5025  043F  0663               	btfss	status,2
  5026  0440  1D03               	goto	u2531
  5027  0441  2C43               	goto	u2530
  5028  0442  2C44               u2531:
  5029  0443                     	goto	l4076
  5030  0443  2C4C               u2530:
  5031  0444                     	line	144
  5032                           	
  5033                           l4070:	
  5034  0444                     ;ContadoraCanicas.c: 143:         {;ContadoraCanicas.c: 144:          Modo = Paro;
  5035                           	clrf	(_Modo)
  5036  0444  01B4               	line	145
  5037                           	
  5038                           l4072:	
  5039  0445                     ;ContadoraCanicas.c: 145:          LatchB = 1;
  5040                           	clrf	(_LatchB)
  5041  0445  01BA               	incf	(_LatchB),f
  5042  0446  0ABA               	line	146
  5043                           	
  5044                           l4074:	
  5045  0447                     ;ContadoraCanicas.c: 146:          Latch = 1;
  5046                           	clrf	(_Latch)
  5047  0447  01BB               	incf	(_Latch),f
  5048  0448  0ABB               	goto	l4076
  5049  0449  2C4C               	line	147
  5050                           ;ContadoraCanicas.c: 147:         }
  5051                           	
  5052                           l510:	
  5053  044A                     	goto	l4076
  5054  044A  2C4C               	
  5055                           l509:	
  5056  044B                     	goto	l4076
  5057  044B  2C4C               	line	148
  5058                           ;ContadoraCanicas.c: 148:        }
  5059                           	
  5060                           l506:	
  5061  044C                     	line	134
  5062                           	
  5063                           l4076:	
  5064  044C                     ;ContadoraCanicas.c: 134:        while(LatchB != 1)
  5065                           	bcf	status, 5	;RP0=0, select bank0
  5066  044C  1283               	bcf	status, 6	;RP1=0, select bank0
  5067  044D  1303               		decf	((_LatchB)),w
  5068  044E  033A               	btfss	status,2
  5069  044F  1D03               	goto	u2541
  5070  0450  2C52               	goto	u2540
  5071  0451  2C53               u2541:
  5072  0452                     	goto	l4060
  5073  0452  2C27               u2540:
  5074  0453                     	goto	l4078
  5075  0453  2C54               	
  5076                           l511:	
  5077  0454                     	line	149
  5078                           	
  5079                           l4078:	
  5080  0454                     ;ContadoraCanicas.c: 149:        counter = 0;
  5081                           	clrf	(_counter)
  5082  0454  01B8               	line	150
  5083                           	
  5084                           l4080:	
  5085  0455                     ;ContadoraCanicas.c: 150:        lcdClear();
  5086                           	fcall	_lcdClear
  5087  0455  160A  118A  2180  120A  118A  	line	151
  5088                           	
  5089                           l4082:	
  5090  045A                     ;ContadoraCanicas.c: 151:        LatchB = 0;
  5091                           	bcf	status, 5	;RP0=0, select bank0
  5092  045A  1283               	bcf	status, 6	;RP1=0, select bank0
  5093  045B  1303               	clrf	(_LatchB)
  5094  045C  01BA               	line	152
  5095                           ;ContadoraCanicas.c: 152:       break;
  5096                           	goto	l4288
  5097  045D  2FAC               	line	153
  5098                           ;ContadoraCanicas.c: 153:       case Arranque:
  5099                           	
  5100                           l513:	
  5101  045E                     	line	154
  5102                           	
  5103                           l4084:	
  5104  045E                     ;ContadoraCanicas.c: 154:        lcdPrint("Modo Arranque");
  5105                           	movlw	(low((((STR_6)-__stringbase)|8000h)))&0ffh
  5106  045E  30CF               	movwf	(lcdPrint@string)
  5107  045F  00BE               	movlw	80h
  5108  0460  3080               	movwf	(lcdPrint@string+1)
  5109  0461  00BF               	fcall	_lcdPrint
  5110  0462  160A  118A  2292  120A  118A  	line	155
  5111                           	
  5112                           l4086:	
  5113  0467                     ;ContadoraCanicas.c: 155:        delay(100);
  5114                           	movlw	064h
  5115  0467  3064               	movwf	(delay@milis)
  5116  0468  00F0               	movlw	0
  5117  0469  3000               	movwf	((delay@milis))+1
  5118  046A  00F1               	fcall	_delay
  5119  046B  120A  118A  2012  120A  118A  	line	156
  5120                           	
  5121                           l4088:	
  5122  0470                     ;ContadoraCanicas.c: 156:        lcdClear();
  5123                           	fcall	_lcdClear
  5124  0470  160A  118A  2180  120A  118A  	line	157
  5125                           	
  5126                           l4090:	
  5127  0475                     ;ContadoraCanicas.c: 157:        lcdSetCursor(1,1);
  5128                           	clrf	(lcdSetCursor@column)
  5129  0475  01FC               	incf	(lcdSetCursor@column),f
  5130  0476  0AFC               	movlw	low(01h)
  5131  0477  3001               	fcall	_lcdSetCursor
  5132  0478  160A  118A  2225  120A  118A  	line	158
  5133                           	
  5134                           l4092:	
  5135  047D                     ;ContadoraCanicas.c: 158:        sprintf(FirstROW,"iMQ:%i  TMC:%i",Number,ContadorCanica
                                 sGlobal);
  5136                           	movlw	(low((((STR_7)-__stringbase)|8000h)))&0ffh
  5137  047D  30C0               	bcf	status, 5	;RP0=0, select bank0
  5138  047E  1283               	bcf	status, 6	;RP1=0, select bank0
  5139  047F  1303               	movwf	(??_loop+0)+0
  5140  0480  00CD               	movf	(??_loop+0)+0,w
  5141  0481  084D               	movwf	(sprintf@f)
  5142  0482  00BE               	movf	(_Number),w
  5143  0483  0837               	movwf	(??_loop+1)+0
  5144  0484  00CE               	clrf	(??_loop+1)+0+1
  5145  0485  01CF               	movf	0+(??_loop+1)+0,w
  5146  0486  084E               	movwf	0+(?_sprintf)+01h
  5147  0487  00BF               	movf	1+(??_loop+1)+0,w
  5148  0488  084F               	movwf	1+(?_sprintf)+01h
  5149  0489  00C0               	movf	(_ContadorCanicasGlobal+1),w
  5150  048A  0831               	movwf	1+(?_sprintf)+03h
  5151  048B  00C2               	movf	(_ContadorCanicasGlobal),w
  5152  048C  0830               	movwf	0+(?_sprintf)+03h
  5153  048D  00C1               	movlw	(low(_FirstROW|((0x0)<<8)))&0ffh
  5154  048E  30B0               	fcall	_sprintf
  5155  048F  120A  158A  20CE  120A  118A  	line	159
  5156                           	
  5157                           l4094:	
  5158  0494                     ;ContadoraCanicas.c: 159:        lcdPrint(FirstROW);
  5159                           	movlw	(low(_FirstROW|((0x0)<<8))&0ffh)
  5160  0494  30B0               	bcf	status, 5	;RP0=0, select bank0
  5161  0495  1283               	bcf	status, 6	;RP1=0, select bank0
  5162  0496  1303               	movwf	(lcdPrint@string)
  5163  0497  00BE               	movlw	(0x0)
  5164  0498  3000               	movwf	(lcdPrint@string+1)
  5165  0499  00BF               	fcall	_lcdPrint
  5166  049A  160A  118A  2292  120A  118A  	line	160
  5167                           	
  5168                           l4096:	
  5169  049F                     ;ContadoraCanicas.c: 160:        lcdSetCursor(2,1);
  5170                           	clrf	(lcdSetCursor@column)
  5171  049F  01FC               	incf	(lcdSetCursor@column),f
  5172  04A0  0AFC               	movlw	low(02h)
  5173  04A1  3002               	fcall	_lcdSetCursor
  5174  04A2  160A  118A  2225  120A  118A  	line	161
  5175                           	
  5176                           l4098:	
  5177  04A7                     ;ContadoraCanicas.c: 161:        sprintf(SecondROW,"iMC:%i    Box:%i",CanicasActuales,Ca
                                 jasCompletas);
  5178                           	movlw	(low((((STR_8)-__stringbase)|8000h)))&0ffh
  5179  04A7  308E               	bcf	status, 5	;RP0=0, select bank0
  5180  04A8  1283               	bcf	status, 6	;RP1=0, select bank0
  5181  04A9  1303               	movwf	(??_loop+0)+0
  5182  04AA  00CD               	movf	(??_loop+0)+0,w
  5183  04AB  084D               	movwf	(sprintf@f)
  5184  04AC  00BE               	movf	(_CanicasActuales),w
  5185  04AD  0836               	movwf	(??_loop+1)+0
  5186  04AE  00CE               	clrf	(??_loop+1)+0+1
  5187  04AF  01CF               	movf	0+(??_loop+1)+0,w
  5188  04B0  084E               	movwf	0+(?_sprintf)+01h
  5189  04B1  00BF               	movf	1+(??_loop+1)+0,w
  5190  04B2  084F               	movwf	1+(?_sprintf)+01h
  5191  04B3  00C0               	movf	(_CajasCompletas),w
  5192  04B4  0835               	movwf	(??_loop+3)+0
  5193  04B5  00D0               	clrf	(??_loop+3)+0+1
  5194  04B6  01D1               	movf	0+(??_loop+3)+0,w
  5195  04B7  0850               	movwf	0+(?_sprintf)+03h
  5196  04B8  00C1               	movf	1+(??_loop+3)+0,w
  5197  04B9  0851               	movwf	1+(?_sprintf)+03h
  5198  04BA  00C2               	movlw	(low(_SecondROW|((0x0)<<8)))&0ffh
  5199  04BB  30A0               	fcall	_sprintf
  5200  04BC  120A  158A  20CE  120A  118A  	line	162
  5201                           	
  5202                           l4100:	
  5203  04C1                     ;ContadoraCanicas.c: 162:        lcdPrint(SecondROW);
  5204                           	movlw	(low(_SecondROW|((0x0)<<8))&0ffh)
  5205  04C1  30A0               	bcf	status, 5	;RP0=0, select bank0
  5206  04C2  1283               	bcf	status, 6	;RP1=0, select bank0
  5207  04C3  1303               	movwf	(lcdPrint@string)
  5208  04C4  00BE               	movlw	(0x0)
  5209  04C5  3000               	movwf	(lcdPrint@string+1)
  5210  04C6  00BF               	fcall	_lcdPrint
  5211  04C7  160A  118A  2292  120A  118A  	line	163
  5212                           	
  5213                           l4102:	
  5214  04CC                     ;ContadoraCanicas.c: 163:        Paso = MoverCaja;
  5215                           	bcf	status, 5	;RP0=0, select bank0
  5216  04CC  1283               	bcf	status, 6	;RP1=0, select bank0
  5217  04CD  1303               	clrf	(_Paso)
  5218  04CE  01B3               	line	164
  5219                           ;ContadoraCanicas.c: 164:        while(LatchB != 1)
  5220                           	goto	l4226
  5221  04CF  2EB6               	
  5222                           l515:	
  5223  04D0                     	line	166
  5224                           ;ContadoraCanicas.c: 165:        {;ContadoraCanicas.c: 166:         switch(Paso)
  5225                           	goto	l4224
  5226  04D0  2EA5               	line	168
  5227                           ;ContadoraCanicas.c: 167:         {;ContadoraCanicas.c: 168:          case MoverCaja:
  5228                           	
  5229                           l517:	
  5230  04D1                     	line	169
  5231                           	
  5232                           l4104:	
  5233  04D1                     ;ContadoraCanicas.c: 169:           digitalWrite(Banda,1);
  5234                           	clrf	(digitalWrite@value)
  5235  04D1  01F0               	incf	(digitalWrite@value),f
  5236  04D2  0AF0               	movlw	low((_Banda-__stringbase))
  5237  04D3  300F               	movwf	fsr0
  5238  04D4  0084               	fcall	stringdir
  5239  04D5  160A  118A  200A  120A  118A  	fcall	_digitalWrite
  5240  04DA  120A  158A  2306  120A  118A  	line	170
  5241                           ;ContadoraCanicas.c: 170:           digitalWrite(MotorCanicas,0);
  5242                           	clrf	(digitalWrite@value)
  5243  04DF  01F0               	movlw	low((_MotorCanicas-__stringbase))
  5244  04E0  3010               	movwf	fsr0
  5245  04E1  0084               	fcall	stringdir
  5246  04E2  160A  118A  200A  120A  118A  	fcall	_digitalWrite
  5247  04E7  120A  158A  2306  120A  118A  	line	171
  5248                           ;ContadoraCanicas.c: 171:           while(LatchC != 1)
  5249                           	goto	l4140
  5250  04EC  2D83               	
  5251                           l519:	
  5252  04ED                     	line	173
  5253                           	
  5254                           l4106:	
  5255  04ED                     ;ContadoraCanicas.c: 172:           {;ContadoraCanicas.c: 173:            Contador(0x15)
                                 ;
  5256                           	movlw	low(015h)
  5257  04ED  3015               	fcall	_Contador
  5258  04EE  160A  118A  21EA  120A  118A  	line	174
  5259                           	
  5260                           l4108:	
  5261  04F3                     ;ContadoraCanicas.c: 174:            if(digitalRead(SensorCajas) == 1)
  5262                           	movlw	low((_SensorCajas-__stringbase))
  5263  04F3  300B               	movwf	fsr0
  5264  04F4  0084               	fcall	stringdir
  5265  04F5  160A  118A  200A  120A  118A  	fcall	_digitalRead
  5266  04FA  120A  158A  2429  120A  118A  	xorlw	01h
  5267  04FF  3A01               	skipz
  5268  0500  1D03               	goto	u2551
  5269  0501  2D03               	goto	u2550
  5270  0502  2D04               u2551:
  5271  0503                     	goto	l4118
  5272  0503  2D3E               u2550:
  5273  0504                     	line	176
  5274                           	
  5275                           l4110:	
  5276  0504                     ;ContadoraCanicas.c: 175:            {;ContadoraCanicas.c: 176:             delay(250);

  5277                           	movlw	0FAh
  5278  0504  30FA               	movwf	(delay@milis)
  5279  0505  00F0               	movlw	0
  5280  0506  3000               	movwf	((delay@milis))+1
  5281  0507  00F1               	fcall	_delay
  5282  0508  120A  118A  2012  120A  118A  	line	177
  5283                           	
  5284                           l4112:	
  5285  050D                     ;ContadoraCanicas.c: 177:             if(digitalRead(SensorCajas) == 1)
  5286                           	movlw	low((_SensorCajas-__stringbase))
  5287  050D  300B               	movwf	fsr0
  5288  050E  0084               	fcall	stringdir
  5289  050F  160A  118A  200A  120A  118A  	fcall	_digitalRead
  5290  0514  120A  158A  2429  120A  118A  	xorlw	01h
  5291  0519  3A01               	skipz
  5292  051A  1D03               	goto	u2561
  5293  051B  2D1D               	goto	u2560
  5294  051C  2D1E               u2561:
  5295  051D                     	goto	l4118
  5296  051D  2D3E               u2560:
  5297  051E                     	line	179
  5298                           	
  5299                           l4114:	
  5300  051E                     ;ContadoraCanicas.c: 178:             {;ContadoraCanicas.c: 179:              LatchC = 1
                                 ;
  5301                           	bcf	status, 5	;RP0=0, select bank0
  5302  051E  1283               	bcf	status, 6	;RP1=0, select bank0
  5303  051F  1303               	clrf	(_LatchC)
  5304  0520  01B9               	incf	(_LatchC),f
  5305  0521  0AB9               	line	180
  5306                           	
  5307                           l4116:	
  5308  0522                     ;ContadoraCanicas.c: 180:              digitalWrite(Banda,0);
  5309                           	clrf	(digitalWrite@value)
  5310  0522  01F0               	movlw	low((_Banda-__stringbase))
  5311  0523  300F               	movwf	fsr0
  5312  0524  0084               	fcall	stringdir
  5313  0525  160A  118A  200A  120A  118A  	fcall	_digitalWrite
  5314  052A  120A  158A  2306  120A  118A  	line	181
  5315                           ;ContadoraCanicas.c: 181:              digitalWrite(MotorCanicas,0);
  5316                           	clrf	(digitalWrite@value)
  5317  052F  01F0               	movlw	low((_MotorCanicas-__stringbase))
  5318  0530  3010               	movwf	fsr0
  5319  0531  0084               	fcall	stringdir
  5320  0532  160A  118A  200A  120A  118A  	fcall	_digitalWrite
  5321  0537  120A  158A  2306  120A  118A  	goto	l4118
  5322  053C  2D3E               	line	182
  5323                           ;ContadoraCanicas.c: 182:             }
  5324                           	
  5325                           l521:	
  5326  053D                     	goto	l4118
  5327  053D  2D3E               	line	183
  5328                           ;ContadoraCanicas.c: 183:            }
  5329                           	
  5330                           l520:	
  5331  053E                     	line	184
  5332                           	
  5333                           l4118:	
  5334  053E                     ;ContadoraCanicas.c: 184:            Tecla = KeypadRead();
  5335                           	fcall	_KeypadRead
  5336  053E  120A  118A  2060  120A  118A  	bcf	status, 5	;RP0=0, select bank0
  5337  0543  1283               	bcf	status, 6	;RP1=0, select bank0
  5338  0544  1303               	movwf	(??_loop+0)+0
  5339  0545  00CD               	movf	(??_loop+0)+0,w
  5340  0546  084D               	movwf	(_Tecla)
  5341  0547  00E3               	line	185
  5342                           	
  5343                           l4120:	
  5344  0548                     ;ContadoraCanicas.c: 185:            if(Tecla == '#')
  5345                           		movlw	35
  5346  0548  3023               	xorwf	((_Tecla)),w
  5347  0549  0663               	btfss	status,2
  5348  054A  1D03               	goto	u2571
  5349  054B  2D4D               	goto	u2570
  5350  054C  2D4E               u2571:
  5351  054D                     	goto	l4130
  5352  054D  2D63               u2570:
  5353  054E                     	line	187
  5354                           	
  5355                           l4122:	
  5356  054E                     ;ContadoraCanicas.c: 186:            {;ContadoraCanicas.c: 187:             digitalWrite
                                 (Banda,0);
  5357                           	clrf	(digitalWrite@value)
  5358  054E  01F0               	movlw	low((_Banda-__stringbase))
  5359  054F  300F               	movwf	fsr0
  5360  0550  0084               	fcall	stringdir
  5361  0551  160A  118A  200A  120A  118A  	fcall	_digitalWrite
  5362  0556  120A  158A  2306  120A  118A  	line	188
  5363                           	
  5364                           l4124:	
  5365  055B                     ;ContadoraCanicas.c: 188:             LatchC = 1;
  5366                           	bcf	status, 5	;RP0=0, select bank0
  5367  055B  1283               	bcf	status, 6	;RP1=0, select bank0
  5368  055C  1303               	clrf	(_LatchC)
  5369  055D  01B9               	incf	(_LatchC),f
  5370  055E  0AB9               	line	189
  5371                           	
  5372                           l4126:	
  5373  055F                     ;ContadoraCanicas.c: 189:             LatchB = 1;
  5374                           	clrf	(_LatchB)
  5375  055F  01BA               	incf	(_LatchB),f
  5376  0560  0ABA               	line	190
  5377                           	
  5378                           l4128:	
  5379  0561                     ;ContadoraCanicas.c: 190:             Modo = Paro;
  5380                           	clrf	(_Modo)
  5381  0561  01B4               	line	191
  5382                           ;ContadoraCanicas.c: 191:            }
  5383                           	goto	l4140
  5384  0562  2D83               	line	192
  5385                           ;ContadoraCanicas.c: 192:            else if(Tecla == '*')
  5386                           	
  5387                           l522:	
  5388  0563                     	
  5389                           l4130:	
  5390  0563                     		movlw	42
  5391  0563  302A               	xorwf	((_Tecla)),w
  5392  0564  0663               	btfss	status,2
  5393  0565  1D03               	goto	u2581
  5394  0566  2D68               	goto	u2580
  5395  0567  2D69               u2581:
  5396  0568                     	goto	l4140
  5397  0568  2D83               u2580:
  5398  0569                     	line	194
  5399                           	
  5400                           l4132:	
  5401  0569                     ;ContadoraCanicas.c: 193:            {;ContadoraCanicas.c: 194:             digitalWrite
                                 (Banda,0);
  5402                           	clrf	(digitalWrite@value)
  5403  0569  01F0               	movlw	low((_Banda-__stringbase))
  5404  056A  300F               	movwf	fsr0
  5405  056B  0084               	fcall	stringdir
  5406  056C  160A  118A  200A  120A  118A  	fcall	_digitalWrite
  5407  0571  120A  158A  2306  120A  118A  	line	195
  5408                           	
  5409                           l4134:	
  5410  0576                     ;ContadoraCanicas.c: 195:             LatchC = 1;
  5411                           	bcf	status, 5	;RP0=0, select bank0
  5412  0576  1283               	bcf	status, 6	;RP1=0, select bank0
  5413  0577  1303               	clrf	(_LatchC)
  5414  0578  01B9               	incf	(_LatchC),f
  5415  0579  0AB9               	line	196
  5416                           	
  5417                           l4136:	
  5418  057A                     ;ContadoraCanicas.c: 196:             LatchB = 1;
  5419                           	clrf	(_LatchB)
  5420  057A  01BA               	incf	(_LatchB),f
  5421  057B  0ABA               	line	197
  5422                           	
  5423                           l4138:	
  5424  057C                     ;ContadoraCanicas.c: 197:             Modo = Configuracion;
  5425                           	movlw	low(02h)
  5426  057C  3002               	movwf	(??_loop+0)+0
  5427  057D  00CD               	movf	(??_loop+0)+0,w
  5428  057E  084D               	movwf	(_Modo)
  5429  057F  00B4               	goto	l4140
  5430  0580  2D83               	line	198
  5431                           ;ContadoraCanicas.c: 198:            }
  5432                           	
  5433                           l524:	
  5434  0581                     	goto	l4140
  5435  0581  2D83               	
  5436                           l523:	
  5437  0582                     	goto	l4140
  5438  0582  2D83               	line	199
  5439                           ;ContadoraCanicas.c: 199:           }
  5440                           	
  5441                           l518:	
  5442  0583                     	line	171
  5443                           	
  5444                           l4140:	
  5445  0583                     ;ContadoraCanicas.c: 171:           while(LatchC != 1)
  5446                           	bcf	status, 5	;RP0=0, select bank0
  5447  0583  1283               	bcf	status, 6	;RP1=0, select bank0
  5448  0584  1303               		decf	((_LatchC)),w
  5449  0585  0339               	btfss	status,2
  5450  0586  1D03               	goto	u2591
  5451  0587  2D89               	goto	u2590
  5452  0588  2D8A               u2591:
  5453  0589                     	goto	l4106
  5454  0589  2CED               u2590:
  5455  058A                     	goto	l4142
  5456  058A  2D8B               	
  5457                           l525:	
  5458  058B                     	line	200
  5459                           	
  5460                           l4142:	
  5461  058B                     ;ContadoraCanicas.c: 200:           LatchC = 0;
  5462                           	clrf	(_LatchC)
  5463  058B  01B9               	line	201
  5464                           	
  5465                           l4144:	
  5466  058C                     ;ContadoraCanicas.c: 201:           Paso = ContarCanicas;
  5467                           	clrf	(_Paso)
  5468  058C  01B3               	incf	(_Paso),f
  5469  058D  0AB3               	line	202
  5470                           ;ContadoraCanicas.c: 202:          break;
  5471                           	goto	l4226
  5472  058E  2EB6               	line	203
  5473                           ;ContadoraCanicas.c: 203:          case ContarCanicas:
  5474                           	
  5475                           l527:	
  5476  058F                     	line	204
  5477                           	
  5478                           l4146:	
  5479  058F                     ;ContadoraCanicas.c: 204:           digitalWrite(MotorCanicas,1);
  5480                           	clrf	(digitalWrite@value)
  5481  058F  01F0               	incf	(digitalWrite@value),f
  5482  0590  0AF0               	movlw	low((_MotorCanicas-__stringbase))
  5483  0591  3010               	movwf	fsr0
  5484  0592  0084               	fcall	stringdir
  5485  0593  160A  118A  200A  120A  118A  	fcall	_digitalWrite
  5486  0598  120A  158A  2306  120A  118A  	line	205
  5487                           ;ContadoraCanicas.c: 205:           digitalWrite(Banda,0);
  5488                           	clrf	(digitalWrite@value)
  5489  059D  01F0               	movlw	low((_Banda-__stringbase))
  5490  059E  300F               	movwf	fsr0
  5491  059F  0084               	fcall	stringdir
  5492  05A0  160A  118A  200A  120A  118A  	fcall	_digitalWrite
  5493  05A5  120A  158A  2306  120A  118A  	line	206
  5494                           	
  5495                           l4148:	
  5496  05AA                     ;ContadoraCanicas.c: 206:           lcdClear();
  5497                           	fcall	_lcdClear
  5498  05AA  160A  118A  2180  120A  118A  	line	207
  5499                           ;ContadoraCanicas.c: 207:           while(LatchC != 1)
  5500                           	goto	l4218
  5501  05AF  2E99               	
  5502                           l529:	
  5503  05B0                     	line	209
  5504                           	
  5505                           l4150:	
  5506  05B0                     ;ContadoraCanicas.c: 208:           {;ContadoraCanicas.c: 209:            CanicasActuale
                                 s = Contador(0x10);
  5507                           	movlw	low(010h)
  5508  05B0  3010               	fcall	_Contador
  5509  05B1  160A  118A  21EA  120A  118A  	bcf	status, 5	;RP0=0, select bank0
  5510  05B6  1283               	bcf	status, 6	;RP1=0, select bank0
  5511  05B7  1303               	movwf	(??_loop+0)+0
  5512  05B8  00CD               	movf	(??_loop+0)+0,w
  5513  05B9  084D               	movwf	(_CanicasActuales)
  5514  05BA  00B6               	line	210
  5515                           	
  5516                           l4152:	
  5517  05BB                     ;ContadoraCanicas.c: 210:            Tecla = KeypadRead();
  5518                           	fcall	_KeypadRead
  5519  05BB  120A  118A  2060  120A  118A  	bcf	status, 5	;RP0=0, select bank0
  5520  05C0  1283               	bcf	status, 6	;RP1=0, select bank0
  5521  05C1  1303               	movwf	(??_loop+0)+0
  5522  05C2  00CD               	movf	(??_loop+0)+0,w
  5523  05C3  084D               	movwf	(_Tecla)
  5524  05C4  00E3               	line	211
  5525                           	
  5526                           l4154:	
  5527  05C5                     ;ContadoraCanicas.c: 211:            if(CanicasActuales >= Number)
  5528                           	movf	(_Number),w
  5529  05C5  0837               	subwf	(_CanicasActuales),w
  5530  05C6  0236               	skipc
  5531  05C7  1C03               	goto	u2601
  5532  05C8  2DCA               	goto	u2600
  5533  05C9  2DCB               u2601:
  5534  05CA                     	goto	l4170
  5535  05CA  2DF4               u2600:
  5536  05CB                     	line	213
  5537                           	
  5538                           l4156:	
  5539  05CB                     ;ContadoraCanicas.c: 212:            {;ContadoraCanicas.c: 213:             digitalWrite
                                 (MotorCanicas,0);
  5540                           	clrf	(digitalWrite@value)
  5541  05CB  01F0               	movlw	low((_MotorCanicas-__stringbase))
  5542  05CC  3010               	movwf	fsr0
  5543  05CD  0084               	fcall	stringdir
  5544  05CE  160A  118A  200A  120A  118A  	fcall	_digitalWrite
  5545  05D3  120A  158A  2306  120A  118A  	line	214
  5546                           	
  5547                           l4158:	
  5548  05D8                     ;ContadoraCanicas.c: 214:             CajasCompletas++;
  5549                           	movlw	low(01h)
  5550  05D8  3001               	bcf	status, 5	;RP0=0, select bank0
  5551  05D9  1283               	bcf	status, 6	;RP1=0, select bank0
  5552  05DA  1303               	movwf	(??_loop+0)+0
  5553  05DB  00CD               	movf	(??_loop+0)+0,w
  5554  05DC  084D               	addwf	(_CajasCompletas),f
  5555  05DD  07B5               	line	215
  5556                           	
  5557                           l4160:	
  5558  05DE                     ;ContadoraCanicas.c: 215:             ContadorCanicasGlobal += CanicasActuales;
  5559                           	movf	(_CanicasActuales),w
  5560  05DE  0836               	movwf	(??_loop+0)+0
  5561  05DF  00CD               	clrf	(??_loop+0)+0+1
  5562  05E0  01CE               	movf	0+(??_loop+0)+0,w
  5563  05E1  084D               	addwf	(_ContadorCanicasGlobal),f
  5564  05E2  07B0               	skipnc
  5565  05E3  1803               	incf	(_ContadorCanicasGlobal+1),f
  5566  05E4  0AB1               	movf	1+(??_loop+0)+0,w
  5567  05E5  084E               	addwf	(_ContadorCanicasGlobal+1),f
  5568  05E6  07B1               	line	216
  5569                           	
  5570                           l4162:	
  5571  05E7                     ;ContadoraCanicas.c: 216:             CanicasActuales = 0;
  5572                           	clrf	(_CanicasActuales)
  5573  05E7  01B6               	line	217
  5574                           	
  5575                           l4164:	
  5576  05E8                     ;ContadoraCanicas.c: 217:             Paso = MoverCaja;
  5577                           	clrf	(_Paso)
  5578  05E8  01B3               	line	218
  5579                           	
  5580                           l4166:	
  5581  05E9                     ;ContadoraCanicas.c: 218:             Contador(0x15);
  5582                           	movlw	low(015h)
  5583  05E9  3015               	fcall	_Contador
  5584  05EA  160A  118A  21EA  120A  118A  	line	219
  5585                           	
  5586                           l4168:	
  5587  05EF                     ;ContadoraCanicas.c: 219:             LatchC = 1;
  5588                           	bcf	status, 5	;RP0=0, select bank0
  5589  05EF  1283               	bcf	status, 6	;RP1=0, select bank0
  5590  05F0  1303               	clrf	(_LatchC)
  5591  05F1  01B9               	incf	(_LatchC),f
  5592  05F2  0AB9               	line	220
  5593                           ;ContadoraCanicas.c: 220:            }
  5594                           	goto	l4206
  5595  05F3  2E41               	line	221
  5596                           ;ContadoraCanicas.c: 221:            else if(Tecla == '#')
  5597                           	
  5598                           l530:	
  5599  05F4                     	
  5600                           l4170:	
  5601  05F4                     		movlw	35
  5602  05F4  3023               	xorwf	((_Tecla)),w
  5603  05F5  0663               	btfss	status,2
  5604  05F6  1D03               	goto	u2611
  5605  05F7  2DF9               	goto	u2610
  5606  05F8  2DFA               u2611:
  5607  05F9                     	goto	l4188
  5608  05F9  2E18               u2610:
  5609  05FA                     	line	223
  5610                           	
  5611                           l4172:	
  5612  05FA                     ;ContadoraCanicas.c: 222:            {;ContadoraCanicas.c: 223:             digitalWrite
                                 (MotorCanicas,0);
  5613                           	clrf	(digitalWrite@value)
  5614  05FA  01F0               	movlw	low((_MotorCanicas-__stringbase))
  5615  05FB  3010               	movwf	fsr0
  5616  05FC  0084               	fcall	stringdir
  5617  05FD  160A  118A  200A  120A  118A  	fcall	_digitalWrite
  5618  0602  120A  158A  2306  120A  118A  	line	224
  5619                           	
  5620                           l4174:	
  5621  0607                     ;ContadoraCanicas.c: 224:             Contador(0x15);
  5622                           	movlw	low(015h)
  5623  0607  3015               	fcall	_Contador
  5624  0608  160A  118A  21EA  120A  118A  	line	225
  5625                           	
  5626                           l4176:	
  5627  060D                     ;ContadoraCanicas.c: 225:             Number = 0;
  5628                           	bcf	status, 5	;RP0=0, select bank0
  5629  060D  1283               	bcf	status, 6	;RP1=0, select bank0
  5630  060E  1303               	clrf	(_Number)
  5631  060F  01B7               	line	226
  5632                           	
  5633                           l4178:	
  5634  0610                     ;ContadoraCanicas.c: 226:             CajasCompletas = 0;
  5635                           	clrf	(_CajasCompletas)
  5636  0610  01B5               	line	227
  5637                           	
  5638                           l4180:	
  5639  0611                     ;ContadoraCanicas.c: 227:             Paso = MoverCaja;
  5640                           	clrf	(_Paso)
  5641  0611  01B3               	line	228
  5642                           	
  5643                           l4182:	
  5644  0612                     ;ContadoraCanicas.c: 228:             LatchC = 1;
  5645                           	clrf	(_LatchC)
  5646  0612  01B9               	incf	(_LatchC),f
  5647  0613  0AB9               	line	229
  5648                           	
  5649                           l4184:	
  5650  0614                     ;ContadoraCanicas.c: 229:             LatchB = 1;
  5651                           	clrf	(_LatchB)
  5652  0614  01BA               	incf	(_LatchB),f
  5653  0615  0ABA               	line	230
  5654                           	
  5655                           l4186:	
  5656  0616                     ;ContadoraCanicas.c: 230:             Modo = Paro;
  5657                           	clrf	(_Modo)
  5658  0616  01B4               	line	232
  5659                           ;ContadoraCanicas.c: 232:            }
  5660                           	goto	l4206
  5661  0617  2E41               	line	233
  5662                           ;ContadoraCanicas.c: 233:            else if(Tecla == '*')
  5663                           	
  5664                           l532:	
  5665  0618                     	
  5666                           l4188:	
  5667  0618                     		movlw	42
  5668  0618  302A               	xorwf	((_Tecla)),w
  5669  0619  0663               	btfss	status,2
  5670  061A  1D03               	goto	u2621
  5671  061B  2E1D               	goto	u2620
  5672  061C  2E1E               u2621:
  5673  061D                     	goto	l4206
  5674  061D  2E41               u2620:
  5675  061E                     	line	235
  5676                           	
  5677                           l4190:	
  5678  061E                     ;ContadoraCanicas.c: 234:            {;ContadoraCanicas.c: 235:             digitalWrite
                                 (MotorCanicas,0);
  5679                           	clrf	(digitalWrite@value)
  5680  061E  01F0               	movlw	low((_MotorCanicas-__stringbase))
  5681  061F  3010               	movwf	fsr0
  5682  0620  0084               	fcall	stringdir
  5683  0621  160A  118A  200A  120A  118A  	fcall	_digitalWrite
  5684  0626  120A  158A  2306  120A  118A  	line	236
  5685                           	
  5686                           l4192:	
  5687  062B                     ;ContadoraCanicas.c: 236:             Contador(0x15);
  5688                           	movlw	low(015h)
  5689  062B  3015               	fcall	_Contador
  5690  062C  160A  118A  21EA  120A  118A  	line	237
  5691                           	
  5692                           l4194:	
  5693  0631                     ;ContadoraCanicas.c: 237:             Number = 0;
  5694                           	bcf	status, 5	;RP0=0, select bank0
  5695  0631  1283               	bcf	status, 6	;RP1=0, select bank0
  5696  0632  1303               	clrf	(_Number)
  5697  0633  01B7               	line	238
  5698                           	
  5699                           l4196:	
  5700  0634                     ;ContadoraCanicas.c: 238:             CajasCompletas = 0;
  5701                           	clrf	(_CajasCompletas)
  5702  0634  01B5               	line	239
  5703                           	
  5704                           l4198:	
  5705  0635                     ;ContadoraCanicas.c: 239:             Paso = MoverCaja;
  5706                           	clrf	(_Paso)
  5707  0635  01B3               	line	240
  5708                           	
  5709                           l4200:	
  5710  0636                     ;ContadoraCanicas.c: 240:             LatchC = 1;
  5711                           	clrf	(_LatchC)
  5712  0636  01B9               	incf	(_LatchC),f
  5713  0637  0AB9               	line	241
  5714                           	
  5715                           l4202:	
  5716  0638                     ;ContadoraCanicas.c: 241:             LatchB = 1;
  5717                           	clrf	(_LatchB)
  5718  0638  01BA               	incf	(_LatchB),f
  5719  0639  0ABA               	line	242
  5720                           	
  5721                           l4204:	
  5722  063A                     ;ContadoraCanicas.c: 242:             Modo = Configuracion;
  5723                           	movlw	low(02h)
  5724  063A  3002               	movwf	(??_loop+0)+0
  5725  063B  00CD               	movf	(??_loop+0)+0,w
  5726  063C  084D               	movwf	(_Modo)
  5727  063D  00B4               	goto	l4206
  5728  063E  2E41               	line	243
  5729                           ;ContadoraCanicas.c: 243:            }
  5730                           	
  5731                           l534:	
  5732  063F                     	goto	l4206
  5733  063F  2E41               	
  5734                           l533:	
  5735  0640                     	goto	l4206
  5736  0640  2E41               	
  5737                           l531:	
  5738  0641                     	line	244
  5739                           	
  5740                           l4206:	
  5741  0641                     ;ContadoraCanicas.c: 244:            lcdSetCursor(1,1);
  5742                           	clrf	(lcdSetCursor@column)
  5743  0641  01FC               	incf	(lcdSetCursor@column),f
  5744  0642  0AFC               	movlw	low(01h)
  5745  0643  3001               	fcall	_lcdSetCursor
  5746  0644  160A  118A  2225  120A  118A  	line	245
  5747                           	
  5748                           l4208:	
  5749  0649                     ;ContadoraCanicas.c: 245:            sprintf(FirstROW,"MQ:%i  TMC:%i",Number,ContadorCan
                                 icasGlobal);
  5750                           	movlw	(low((((STR_9)-__stringbase)|8000h)))&0ffh
  5751  0649  30C1               	bcf	status, 5	;RP0=0, select bank0
  5752  064A  1283               	bcf	status, 6	;RP1=0, select bank0
  5753  064B  1303               	movwf	(??_loop+0)+0
  5754  064C  00CD               	movf	(??_loop+0)+0,w
  5755  064D  084D               	movwf	(sprintf@f)
  5756  064E  00BE               	movf	(_Number),w
  5757  064F  0837               	movwf	(??_loop+1)+0
  5758  0650  00CE               	clrf	(??_loop+1)+0+1
  5759  0651  01CF               	movf	0+(??_loop+1)+0,w
  5760  0652  084E               	movwf	0+(?_sprintf)+01h
  5761  0653  00BF               	movf	1+(??_loop+1)+0,w
  5762  0654  084F               	movwf	1+(?_sprintf)+01h
  5763  0655  00C0               	movf	(_ContadorCanicasGlobal+1),w
  5764  0656  0831               	movwf	1+(?_sprintf)+03h
  5765  0657  00C2               	movf	(_ContadorCanicasGlobal),w
  5766  0658  0830               	movwf	0+(?_sprintf)+03h
  5767  0659  00C1               	movlw	(low(_FirstROW|((0x0)<<8)))&0ffh
  5768  065A  30B0               	fcall	_sprintf
  5769  065B  120A  158A  20CE  120A  118A  	line	246
  5770                           	
  5771                           l4210:	
  5772  0660                     ;ContadoraCanicas.c: 246:            lcdPrint(FirstROW);
  5773                           	movlw	(low(_FirstROW|((0x0)<<8))&0ffh)
  5774  0660  30B0               	bcf	status, 5	;RP0=0, select bank0
  5775  0661  1283               	bcf	status, 6	;RP1=0, select bank0
  5776  0662  1303               	movwf	(lcdPrint@string)
  5777  0663  00BE               	movlw	(0x0)
  5778  0664  3000               	movwf	(lcdPrint@string+1)
  5779  0665  00BF               	fcall	_lcdPrint
  5780  0666  160A  118A  2292  120A  118A  	line	247
  5781                           	
  5782                           l4212:	
  5783  066B                     ;ContadoraCanicas.c: 247:            lcdSetCursor(2,1);
  5784                           	clrf	(lcdSetCursor@column)
  5785  066B  01FC               	incf	(lcdSetCursor@column),f
  5786  066C  0AFC               	movlw	low(02h)
  5787  066D  3002               	fcall	_lcdSetCursor
  5788  066E  160A  118A  2225  120A  118A  	line	248
  5789                           	
  5790                           l4214:	
  5791  0673                     ;ContadoraCanicas.c: 248:            sprintf(SecondROW,"MC:%i    Box:%u",CanicasActuales
                                 ,CajasCompletas);
  5792                           	movlw	(low((((STR_10)-__stringbase)|8000h)))&0ffh
  5793  0673  30B0               	bcf	status, 5	;RP0=0, select bank0
  5794  0674  1283               	bcf	status, 6	;RP1=0, select bank0
  5795  0675  1303               	movwf	(??_loop+0)+0
  5796  0676  00CD               	movf	(??_loop+0)+0,w
  5797  0677  084D               	movwf	(sprintf@f)
  5798  0678  00BE               	movf	(_CanicasActuales),w
  5799  0679  0836               	movwf	(??_loop+1)+0
  5800  067A  00CE               	clrf	(??_loop+1)+0+1
  5801  067B  01CF               	movf	0+(??_loop+1)+0,w
  5802  067C  084E               	movwf	0+(?_sprintf)+01h
  5803  067D  00BF               	movf	1+(??_loop+1)+0,w
  5804  067E  084F               	movwf	1+(?_sprintf)+01h
  5805  067F  00C0               	movf	(_CajasCompletas),w
  5806  0680  0835               	movwf	(??_loop+3)+0
  5807  0681  00D0               	clrf	(??_loop+3)+0+1
  5808  0682  01D1               	movf	0+(??_loop+3)+0,w
  5809  0683  0850               	movwf	0+(?_sprintf)+03h
  5810  0684  00C1               	movf	1+(??_loop+3)+0,w
  5811  0685  0851               	movwf	1+(?_sprintf)+03h
  5812  0686  00C2               	movlw	(low(_SecondROW|((0x0)<<8)))&0ffh
  5813  0687  30A0               	fcall	_sprintf
  5814  0688  120A  158A  20CE  120A  118A  	line	249
  5815                           	
  5816                           l4216:	
  5817  068D                     ;ContadoraCanicas.c: 249:            lcdPrint(SecondROW);
  5818                           	movlw	(low(_SecondROW|((0x0)<<8))&0ffh)
  5819  068D  30A0               	bcf	status, 5	;RP0=0, select bank0
  5820  068E  1283               	bcf	status, 6	;RP1=0, select bank0
  5821  068F  1303               	movwf	(lcdPrint@string)
  5822  0690  00BE               	movlw	(0x0)
  5823  0691  3000               	movwf	(lcdPrint@string+1)
  5824  0692  00BF               	fcall	_lcdPrint
  5825  0693  160A  118A  2292  120A  118A  	goto	l4218
  5826  0698  2E99               	line	250
  5827                           ;ContadoraCanicas.c: 250:           }
  5828                           	
  5829                           l528:	
  5830  0699                     	line	207
  5831                           	
  5832                           l4218:	
  5833  0699                     ;ContadoraCanicas.c: 207:           while(LatchC != 1)
  5834                           	bcf	status, 5	;RP0=0, select bank0
  5835  0699  1283               	bcf	status, 6	;RP1=0, select bank0
  5836  069A  1303               		decf	((_LatchC)),w
  5837  069B  0339               	btfss	status,2
  5838  069C  1D03               	goto	u2631
  5839  069D  2E9F               	goto	u2630
  5840  069E  2EA0               u2631:
  5841  069F                     	goto	l4150
  5842  069F  2DB0               u2630:
  5843  06A0                     	goto	l4220
  5844  06A0  2EA1               	
  5845                           l535:	
  5846  06A1                     	line	251
  5847                           	
  5848                           l4220:	
  5849  06A1                     ;ContadoraCanicas.c: 251:           LatchC = 0;
  5850                           	clrf	(_LatchC)
  5851  06A1  01B9               	line	252
  5852                           ;ContadoraCanicas.c: 252:           CanicasActuales = 0;
  5853                           	clrf	(_CanicasActuales)
  5854  06A2  01B6               	line	253
  5855                           ;ContadoraCanicas.c: 253:          break;
  5856                           	goto	l4226
  5857  06A3  2EB6               	line	254
  5858                           	
  5859                           l4222:	
  5860  06A4                     ;ContadoraCanicas.c: 254:         }
  5861                           	goto	l4226
  5862  06A4  2EB6               	
  5863                           l516:	
  5864  06A5                     	
  5865                           l4224:	
  5866  06A5                     	movf	(_Paso),w
  5867  06A5  0833               	movwf	(??_loop+0)+0
  5868  06A6  00CD               	clrf	(??_loop+0)+0+1
  5869  06A7  01CE               	; Switch on 2 bytes has been partitioned into a top level switch of size 1, and 1 sub-s
                                 witches
  5870                           ; Switch size 1, requested type "space"
  5871                           ; Number of cases is 1, Range of values is 0 to 0
  5872                           ; switch strategies available:
  5873                           ; Name         Instructions Cycles
  5874                           ; simple_byte            4     3 (average)
  5875                           ; direct_byte           11     8 (fixed)
  5876                           ; jumptable            260     6 (fixed)
  5877                           ;	Chosen strategy is simple_byte
  5878                           
  5879                           	movf 1+(??_loop+0)+0,w
  5880  06A8  084E               	opt asmopt_push
  5881                           	opt asmopt_off
  5882                           	xorlw	0^0	; case 0
  5883  06A9  3A00               	skipnz
  5884  06AA  1903               	goto	l4518
  5885  06AB  2EAD               	goto	l4226
  5886  06AC  2EB6               	opt asmopt_pop
  5887                           	
  5888                           l4518:	
  5889  06AD                     ; Switch size 1, requested type "space"
  5890                           ; Number of cases is 2, Range of values is 0 to 1
  5891                           ; switch strategies available:
  5892                           ; Name         Instructions Cycles
  5893                           ; simple_byte            7     4 (average)
  5894                           ; direct_byte           14     8 (fixed)
  5895                           ; jumptable            260     6 (fixed)
  5896                           ;	Chosen strategy is simple_byte
  5897                           
  5898                           	movf 0+(??_loop+0)+0,w
  5899  06AD  084D               	opt asmopt_push
  5900                           	opt asmopt_off
  5901                           	xorlw	0^0	; case 0
  5902  06AE  3A00               	skipnz
  5903  06AF  1903               	goto	l4104
  5904  06B0  2CD1               	xorlw	1^0	; case 1
  5905  06B1  3A01               	skipnz
  5906  06B2  1903               	goto	l4146
  5907  06B3  2D8F               	goto	l4226
  5908  06B4  2EB6               	opt asmopt_pop
  5909                           
  5910                           	
  5911                           l526:	
  5912  06B5                     	goto	l4226
  5913  06B5  2EB6               	line	255
  5914                           ;ContadoraCanicas.c: 255:        }
  5915                           	
  5916                           l514:	
  5917  06B6                     	line	164
  5918                           	
  5919                           l4226:	
  5920  06B6                     ;ContadoraCanicas.c: 164:        while(LatchB != 1)
  5921                           		decf	((_LatchB)),w
  5922  06B6  033A               	btfss	status,2
  5923  06B7  1D03               	goto	u2641
  5924  06B8  2EBA               	goto	u2640
  5925  06B9  2EBB               u2641:
  5926  06BA                     	goto	l4224
  5927  06BA  2EA5               u2640:
  5928  06BB                     	goto	l4228
  5929  06BB  2EBC               	
  5930                           l536:	
  5931  06BC                     	line	256
  5932                           	
  5933                           l4228:	
  5934  06BC                     ;ContadoraCanicas.c: 256:        Number = 0;
  5935                           	clrf	(_Number)
  5936  06BC  01B7               	line	257
  5937                           ;ContadoraCanicas.c: 257:        counter = 0;
  5938                           	clrf	(_counter)
  5939  06BD  01B8               	line	258
  5940                           	
  5941                           l4230:	
  5942  06BE                     ;ContadoraCanicas.c: 258:        lcdClear();
  5943                           	fcall	_lcdClear
  5944  06BE  160A  118A  2180  120A  118A  	line	259
  5945                           	
  5946                           l4232:	
  5947  06C3                     ;ContadoraCanicas.c: 259:        LatchB = 0;
  5948                           	bcf	status, 5	;RP0=0, select bank0
  5949  06C3  1283               	bcf	status, 6	;RP1=0, select bank0
  5950  06C4  1303               	clrf	(_LatchB)
  5951  06C5  01BA               	line	260
  5952                           ;ContadoraCanicas.c: 260:       break;
  5953                           	goto	l4288
  5954  06C6  2FAC               	line	261
  5955                           ;ContadoraCanicas.c: 261:       case Configuracion:
  5956                           	
  5957                           l537:	
  5958  06C7                     	line	262
  5959                           	
  5960                           l4234:	
  5961  06C7                     ;ContadoraCanicas.c: 262:        lcdSetCursor(1,1);
  5962                           	clrf	(lcdSetCursor@column)
  5963  06C7  01FC               	incf	(lcdSetCursor@column),f
  5964  06C8  0AFC               	movlw	low(01h)
  5965  06C9  3001               	fcall	_lcdSetCursor
  5966  06CA  160A  118A  2225  120A  118A  	line	263
  5967                           ;ContadoraCanicas.c: 263:        lcdPrint("Cantidad Canicas");
  5968                           	movlw	(low((((STR_11)-__stringbase)|8000h)))&0ffh
  5969  06CF  309F               	bcf	status, 5	;RP0=0, select bank0
  5970  06D0  1283               	bcf	status, 6	;RP1=0, select bank0
  5971  06D1  1303               	movwf	(lcdPrint@string)
  5972  06D2  00BE               	movlw	80h
  5973  06D3  3080               	movwf	(lcdPrint@string+1)
  5974  06D4  00BF               	fcall	_lcdPrint
  5975  06D5  160A  118A  2292  120A  118A  	line	264
  5976                           ;ContadoraCanicas.c: 264:        while(LatchB != 1)
  5977                           	goto	l4272
  5978  06DA  2F73               	
  5979                           l539:	
  5980  06DB                     	line	266
  5981                           	
  5982                           l4236:	
  5983  06DB                     ;ContadoraCanicas.c: 265:        {;ContadoraCanicas.c: 266:         Tecla = KeypadRead()
                                 ;
  5984                           	fcall	_KeypadRead
  5985  06DB  120A  118A  2060  120A  118A  	bcf	status, 5	;RP0=0, select bank0
  5986  06E0  1283               	bcf	status, 6	;RP1=0, select bank0
  5987  06E1  1303               	movwf	(??_loop+0)+0
  5988  06E2  00CD               	movf	(??_loop+0)+0,w
  5989  06E3  084D               	movwf	(_Tecla)
  5990  06E4  00E3               	line	267
  5991                           	
  5992                           l4238:	
  5993  06E5                     ;ContadoraCanicas.c: 267:         if((Tecla != 'n') & (Tecla != '#') & (Tecla != '*'))
  5994                           		movlw	110
  5995  06E5  306E               	xorwf	((_Tecla)),w
  5996  06E6  0663               	btfsc	status,2
  5997  06E7  1903               	goto	u2651
  5998  06E8  2EEA               	goto	u2650
  5999  06E9  2EEB               u2651:
  6000  06EA                     	goto	l4262
  6001  06EA  2F5B               u2650:
  6002  06EB                     	
  6003                           l4240:	
  6004  06EB                     		movlw	35
  6005  06EB  3023               	xorwf	((_Tecla)),w
  6006  06EC  0663               	btfsc	status,2
  6007  06ED  1903               	goto	u2661
  6008  06EE  2EF0               	goto	u2660
  6009  06EF  2EF1               u2661:
  6010  06F0                     	goto	l4262
  6011  06F0  2F5B               u2660:
  6012  06F1                     	
  6013                           l4242:	
  6014  06F1                     		movlw	42
  6015  06F1  302A               	xorwf	((_Tecla)),w
  6016  06F2  0663               	btfsc	status,2
  6017  06F3  1903               	goto	u2671
  6018  06F4  2EF6               	goto	u2670
  6019  06F5  2EF7               u2671:
  6020  06F6                     	goto	l4262
  6021  06F6  2F5B               u2670:
  6022  06F7                     	line	269
  6023                           	
  6024                           l4244:	
  6025  06F7                     ;ContadoraCanicas.c: 268:         {;ContadoraCanicas.c: 269:          if(counter < 2)
  6026                           	movlw	low(02h)
  6027  06F7  3002               	subwf	(_counter),w
  6028  06F8  0238               	skipnc
  6029  06F9  1803               	goto	u2681
  6030  06FA  2EFC               	goto	u2680
  6031  06FB  2EFD               u2681:
  6032  06FC                     	goto	l4258
  6033  06FC  2F43               u2680:
  6034  06FD                     	line	271
  6035                           	
  6036                           l4246:	
  6037  06FD                     ;ContadoraCanicas.c: 270:          {;ContadoraCanicas.c: 271:           lcdSetCursor(2,1
                                 );
  6038                           	clrf	(lcdSetCursor@column)
  6039  06FD  01FC               	incf	(lcdSetCursor@column),f
  6040  06FE  0AFC               	movlw	low(02h)
  6041  06FF  3002               	fcall	_lcdSetCursor
  6042  0700  160A  118A  2225  120A  118A  	line	272
  6043                           	
  6044                           l4248:	
  6045  0705                     ;ContadoraCanicas.c: 272:           DataStorage[counter] = Tecla - 48;
  6046                           	bcf	status, 5	;RP0=0, select bank0
  6047  0705  1283               	bcf	status, 6	;RP1=0, select bank0
  6048  0706  1303               	movf	(_Tecla),w
  6049  0707  0863               	addlw	0D0h
  6050  0708  3ED0               	movwf	(??_loop+0)+0
  6051  0709  00CD               	movf	(_counter),w
  6052  070A  0838               	addlw	low(_DataStorage|((0x0)<<8))&0ffh
  6053  070B  3E3C               	movwf	fsr0
  6054  070C  0084               	movf	(??_loop+0)+0,w
  6055  070D  084D               	bcf	status, 7	;select IRP bank0
  6056  070E  1383               	movwf	indf
  6057  070F  0080               	line	273
  6058                           	
  6059                           l4250:	
  6060  0710                     ;ContadoraCanicas.c: 273:           Number = (DataStorage[0] * 10) + DataStorage[1];
  6061                           	movlw	low(0Ah)
  6062  0710  300A               	movwf	(??_loop+0)+0
  6063  0711  00CD               	movf	(??_loop+0)+0,w
  6064  0712  084D               	movwf	(___bmul@multiplicand)
  6065  0713  00F0               	movf	(_DataStorage),w
  6066  0714  083C               	fcall	___bmul
  6067  0715  160A  118A  21D1  120A  118A  	bcf	status, 5	;RP0=0, select bank0
  6068  071A  1283               	bcf	status, 6	;RP1=0, select bank0
  6069  071B  1303               	addwf	0+(_DataStorage)+01h,w
  6070  071C  073D               	movwf	(??_loop+1)+0
  6071  071D  00CE               	movf	(??_loop+1)+0,w
  6072  071E  084E               	movwf	(_Number)
  6073  071F  00B7               	line	274
  6074                           	
  6075                           l4252:	
  6076  0720                     ;ContadoraCanicas.c: 274:           sprintf(SecondROW,"%i Canicas",Number);
  6077                           	movlw	(low((((STR_12)-__stringbase)|8000h)))&0ffh
  6078  0720  30DD               	movwf	(??_loop+0)+0
  6079  0721  00CD               	movf	(??_loop+0)+0,w
  6080  0722  084D               	movwf	(sprintf@f)
  6081  0723  00BE               	movf	(_Number),w
  6082  0724  0837               	movwf	(??_loop+1)+0
  6083  0725  00CE               	clrf	(??_loop+1)+0+1
  6084  0726  01CF               	movf	0+(??_loop+1)+0,w
  6085  0727  084E               	movwf	0+(?_sprintf)+01h
  6086  0728  00BF               	movf	1+(??_loop+1)+0,w
  6087  0729  084F               	movwf	1+(?_sprintf)+01h
  6088  072A  00C0               	movlw	(low(_SecondROW|((0x0)<<8)))&0ffh
  6089  072B  30A0               	fcall	_sprintf
  6090  072C  120A  158A  20CE  120A  118A  	line	275
  6091                           	
  6092                           l4254:	
  6093  0731                     ;ContadoraCanicas.c: 275:           lcdPrint(SecondROW);
  6094                           	movlw	(low(_SecondROW|((0x0)<<8))&0ffh)
  6095  0731  30A0               	bcf	status, 5	;RP0=0, select bank0
  6096  0732  1283               	bcf	status, 6	;RP1=0, select bank0
  6097  0733  1303               	movwf	(lcdPrint@string)
  6098  0734  00BE               	movlw	(0x0)
  6099  0735  3000               	movwf	(lcdPrint@string+1)
  6100  0736  00BF               	fcall	_lcdPrint
  6101  0737  160A  118A  2292  120A  118A  	line	276
  6102                           	
  6103                           l4256:	
  6104  073C                     ;ContadoraCanicas.c: 276:                                         counter++;
  6105                           	movlw	low(01h)
  6106  073C  3001               	bcf	status, 5	;RP0=0, select bank0
  6107  073D  1283               	bcf	status, 6	;RP1=0, select bank0
  6108  073E  1303               	movwf	(??_loop+0)+0
  6109  073F  00CD               	movf	(??_loop+0)+0,w
  6110  0740  084D               	addwf	(_counter),f
  6111  0741  07B8               	line	277
  6112                           ;ContadoraCanicas.c: 277:          }
  6113                           	goto	l4272
  6114  0742  2F73               	line	278
  6115                           ;ContadoraCanicas.c: 278:          else
  6116                           	
  6117                           l541:	
  6118  0743                     	line	280
  6119                           	
  6120                           l4258:	
  6121  0743                     ;ContadoraCanicas.c: 279:          {;ContadoraCanicas.c: 280:           lcdSetCursor(2,1
                                 );
  6122                           	clrf	(lcdSetCursor@column)
  6123  0743  01FC               	incf	(lcdSetCursor@column),f
  6124  0744  0AFC               	movlw	low(02h)
  6125  0745  3002               	fcall	_lcdSetCursor
  6126  0746  160A  118A  2225  120A  118A  	line	281
  6127                           ;ContadoraCanicas.c: 281:                                         lcdPrint("            
                                     ");
  6128                           	movlw	(low((((STR_13)-__stringbase)|8000h)))&0ffh
  6129  074B  3028               	bcf	status, 5	;RP0=0, select bank0
  6130  074C  1283               	bcf	status, 6	;RP1=0, select bank0
  6131  074D  1303               	movwf	(lcdPrint@string)
  6132  074E  00BE               	movlw	80h
  6133  074F  3080               	movwf	(lcdPrint@string+1)
  6134  0750  00BF               	fcall	_lcdPrint
  6135  0751  160A  118A  2292  120A  118A  	line	282
  6136                           	
  6137                           l4260:	
  6138  0756                     ;ContadoraCanicas.c: 282:           counter = 0;
  6139                           	bcf	status, 5	;RP0=0, select bank0
  6140  0756  1283               	bcf	status, 6	;RP1=0, select bank0
  6141  0757  1303               	clrf	(_counter)
  6142  0758  01B8               	goto	l4272
  6143  0759  2F73               	line	283
  6144                           ;ContadoraCanicas.c: 283:          }
  6145                           	
  6146                           l542:	
  6147  075A                     	line	284
  6148                           ;ContadoraCanicas.c: 284:         }
  6149                           	goto	l4272
  6150  075A  2F73               	line	285
  6151                           ;ContadoraCanicas.c: 285:         else if(Tecla == '#')
  6152                           	
  6153                           l540:	
  6154  075B                     	
  6155                           l4262:	
  6156  075B                     		movlw	35
  6157  075B  3023               	xorwf	((_Tecla)),w
  6158  075C  0663               	btfss	status,2
  6159  075D  1D03               	goto	u2691
  6160  075E  2F60               	goto	u2690
  6161  075F  2F61               u2691:
  6162  0760                     	goto	l4268
  6163  0760  2F65               u2690:
  6164  0761                     	line	287
  6165                           	
  6166                           l4264:	
  6167  0761                     ;ContadoraCanicas.c: 286:         {;ContadoraCanicas.c: 287:          Modo = Paro;
  6168                           	clrf	(_Modo)
  6169  0761  01B4               	line	288
  6170                           	
  6171                           l4266:	
  6172  0762                     ;ContadoraCanicas.c: 288:          LatchB = 1;
  6173                           	clrf	(_LatchB)
  6174  0762  01BA               	incf	(_LatchB),f
  6175  0763  0ABA               	line	289
  6176                           ;ContadoraCanicas.c: 289:         }
  6177                           	goto	l4272
  6178  0764  2F73               	line	290
  6179                           ;ContadoraCanicas.c: 290:         else if(Tecla == '*')
  6180                           	
  6181                           l544:	
  6182  0765                     	
  6183                           l4268:	
  6184  0765                     		movlw	42
  6185  0765  302A               	xorwf	((_Tecla)),w
  6186  0766  0663               	btfss	status,2
  6187  0767  1D03               	goto	u2701
  6188  0768  2F6A               	goto	u2700
  6189  0769  2F6B               u2701:
  6190  076A                     	goto	l4272
  6191  076A  2F73               u2700:
  6192  076B                     	line	292
  6193                           	
  6194                           l4270:	
  6195  076B                     ;ContadoraCanicas.c: 291:         {;ContadoraCanicas.c: 292:          Modo = Arranque;
  6196                           	clrf	(_Modo)
  6197  076B  01B4               	incf	(_Modo),f
  6198  076C  0AB4               	line	293
  6199                           ;ContadoraCanicas.c: 293:          LatchB = 1;
  6200                           	clrf	(_LatchB)
  6201  076D  01BA               	incf	(_LatchB),f
  6202  076E  0ABA               	goto	l4272
  6203  076F  2F73               	line	294
  6204                           ;ContadoraCanicas.c: 294:         }
  6205                           	
  6206                           l546:	
  6207  0770                     	goto	l4272
  6208  0770  2F73               	
  6209                           l545:	
  6210  0771                     	goto	l4272
  6211  0771  2F73               	
  6212                           l543:	
  6213  0772                     	goto	l4272
  6214  0772  2F73               	line	295
  6215                           ;ContadoraCanicas.c: 295:        }
  6216                           	
  6217                           l538:	
  6218  0773                     	line	264
  6219                           	
  6220                           l4272:	
  6221  0773                     ;ContadoraCanicas.c: 264:        while(LatchB != 1)
  6222                           	bcf	status, 5	;RP0=0, select bank0
  6223  0773  1283               	bcf	status, 6	;RP1=0, select bank0
  6224  0774  1303               		decf	((_LatchB)),w
  6225  0775  033A               	btfss	status,2
  6226  0776  1D03               	goto	u2711
  6227  0777  2F79               	goto	u2710
  6228  0778  2F7A               u2711:
  6229  0779                     	goto	l4236
  6230  0779  2EDB               u2710:
  6231  077A                     	goto	l4274
  6232  077A  2F7B               	
  6233                           l547:	
  6234  077B                     	line	296
  6235                           	
  6236                           l4274:	
  6237  077B                     ;ContadoraCanicas.c: 296:        Number = (DataStorage[0] * 10) + DataStorage[1];
  6238                           	movlw	low(0Ah)
  6239  077B  300A               	movwf	(??_loop+0)+0
  6240  077C  00CD               	movf	(??_loop+0)+0,w
  6241  077D  084D               	movwf	(___bmul@multiplicand)
  6242  077E  00F0               	movf	(_DataStorage),w
  6243  077F  083C               	fcall	___bmul
  6244  0780  160A  118A  21D1  120A  118A  	bcf	status, 5	;RP0=0, select bank0
  6245  0785  1283               	bcf	status, 6	;RP1=0, select bank0
  6246  0786  1303               	addwf	0+(_DataStorage)+01h,w
  6247  0787  073D               	movwf	(??_loop+1)+0
  6248  0788  00CE               	movf	(??_loop+1)+0,w
  6249  0789  084E               	movwf	(_Number)
  6250  078A  00B7               	line	297
  6251                           	
  6252                           l4276:	
  6253  078B                     ;ContadoraCanicas.c: 297:        lcdClear();
  6254                           	fcall	_lcdClear
  6255  078B  160A  118A  2180  120A  118A  	line	298
  6256                           	
  6257                           l4278:	
  6258  0790                     ;ContadoraCanicas.c: 298:        LatchC = 0;
  6259                           	bcf	status, 5	;RP0=0, select bank0
  6260  0790  1283               	bcf	status, 6	;RP1=0, select bank0
  6261  0791  1303               	clrf	(_LatchC)
  6262  0792  01B9               	line	299
  6263                           	
  6264                           l4280:	
  6265  0793                     ;ContadoraCanicas.c: 299:        LatchB = 0;
  6266                           	clrf	(_LatchB)
  6267  0793  01BA               	line	300
  6268                           	
  6269                           l4282:	
  6270  0794                     ;ContadoraCanicas.c: 300:        Modo = Arranque;
  6271                           	clrf	(_Modo)
  6272  0794  01B4               	incf	(_Modo),f
  6273  0795  0AB4               	line	301
  6274                           ;ContadoraCanicas.c: 301:       break;
  6275                           	goto	l4288
  6276  0796  2FAC               	line	302
  6277                           	
  6278                           l4284:	
  6279  0797                     ;ContadoraCanicas.c: 302:      }
  6280                           	goto	l4288
  6281  0797  2FAC               	
  6282                           l504:	
  6283  0798                     	
  6284                           l4286:	
  6285  0798                     	movf	(_Modo),w
  6286  0798  0834               	movwf	(??_loop+0)+0
  6287  0799  00CD               	clrf	(??_loop+0)+0+1
  6288  079A  01CE               	; Switch on 2 bytes has been partitioned into a top level switch of size 1, and 1 sub-s
                                 witches
  6289                           ; Switch size 1, requested type "space"
  6290                           ; Number of cases is 1, Range of values is 0 to 0
  6291                           ; switch strategies available:
  6292                           ; Name         Instructions Cycles
  6293                           ; simple_byte            4     3 (average)
  6294                           ; direct_byte           11     8 (fixed)
  6295                           ; jumptable            260     6 (fixed)
  6296                           ;	Chosen strategy is simple_byte
  6297                           
  6298                           	movf 1+(??_loop+0)+0,w
  6299  079B  084E               	opt asmopt_push
  6300                           	opt asmopt_off
  6301                           	xorlw	0^0	; case 0
  6302  079C  3A00               	skipnz
  6303  079D  1903               	goto	l4520
  6304  079E  2FA0               	goto	l4288
  6305  079F  2FAC               	opt asmopt_pop
  6306                           	
  6307                           l4520:	
  6308  07A0                     ; Switch size 1, requested type "space"
  6309                           ; Number of cases is 3, Range of values is 0 to 2
  6310                           ; switch strategies available:
  6311                           ; Name         Instructions Cycles
  6312                           ; simple_byte           10     6 (average)
  6313                           ; direct_byte           17     8 (fixed)
  6314                           ; jumptable            260     6 (fixed)
  6315                           ;	Chosen strategy is simple_byte
  6316                           
  6317                           	movf 0+(??_loop+0)+0,w
  6318  07A0  084D               	opt asmopt_push
  6319                           	opt asmopt_off
  6320                           	xorlw	0^0	; case 0
  6321  07A1  3A00               	skipnz
  6322  07A2  1903               	goto	l4056
  6323  07A3  2BFA               	xorlw	1^0	; case 1
  6324  07A4  3A01               	skipnz
  6325  07A5  1903               	goto	l4084
  6326  07A6  2C5E               	xorlw	2^1	; case 2
  6327  07A7  3A03               	skipnz
  6328  07A8  1903               	goto	l4234
  6329  07A9  2EC7               	goto	l4288
  6330  07AA  2FAC               	opt asmopt_pop
  6331                           
  6332                           	
  6333                           l512:	
  6334  07AB                     	goto	l4288
  6335  07AB  2FAC               	line	303
  6336                           ;ContadoraCanicas.c: 303:     }
  6337                           	
  6338                           l502:	
  6339  07AC                     	line	124
  6340                           	
  6341                           l4288:	
  6342  07AC                     ;ContadoraCanicas.c: 124:     while(Latch != 1)
  6343                           		decf	((_Latch)),w
  6344  07AC  033B               	btfss	status,2
  6345  07AD  1D03               	goto	u2721
  6346  07AE  2FB0               	goto	u2720
  6347  07AF  2FB1               u2721:
  6348  07B0                     	goto	l4286
  6349  07B0  2F98               u2720:
  6350  07B1                     	goto	l4290
  6351  07B1  2FB2               	
  6352                           l548:	
  6353  07B2                     	line	304
  6354                           	
  6355                           l4290:	
  6356  07B2                     ;ContadoraCanicas.c: 304:     lcdClear();
  6357                           	fcall	_lcdClear
  6358  07B2  160A  118A  2180  120A  118A  	line	305
  6359                           	
  6360                           l4292:	
  6361  07B7                     ;ContadoraCanicas.c: 305:     Latch = 0;
  6362                           	bcf	status, 5	;RP0=0, select bank0
  6363  07B7  1283               	bcf	status, 6	;RP1=0, select bank0
  6364  07B8  1303               	clrf	(_Latch)
  6365  07B9  01BB               	line	306
  6366                           	
  6367                           l4294:	
  6368  07BA                     ;ContadoraCanicas.c: 306:     Estado = Apagado;
  6369                           	clrf	(_Estado)
  6370  07BA  01E0               	incf	(_Estado),f
  6371  07BB  0AE0               	line	307
  6372                           ;ContadoraCanicas.c: 307:    break;
  6373                           	goto	l549
  6374  07BC  2FD0               	line	308
  6375                           	
  6376                           l4296:	
  6377  07BD                     ;ContadoraCanicas.c: 308:   }
  6378                           	goto	l549
  6379  07BD  2FD0               	
  6380                           l494:	
  6381  07BE                     	
  6382                           l4298:	
  6383  07BE                     	bcf	status, 5	;RP0=0, select bank0
  6384  07BE  1283               	bcf	status, 6	;RP1=0, select bank0
  6385  07BF  1303               	movf	(_Estado),w
  6386  07C0  0860               	movwf	(??_loop+0)+0
  6387  07C1  00CD               	clrf	(??_loop+0)+0+1
  6388  07C2  01CE               	; Switch on 2 bytes has been partitioned into a top level switch of size 1, and 1 sub-s
                                 witches
  6389                           ; Switch size 1, requested type "space"
  6390                           ; Number of cases is 1, Range of values is 0 to 0
  6391                           ; switch strategies available:
  6392                           ; Name         Instructions Cycles
  6393                           ; simple_byte            4     3 (average)
  6394                           ; direct_byte           11     8 (fixed)
  6395                           ; jumptable            260     6 (fixed)
  6396                           ;	Chosen strategy is simple_byte
  6397                           
  6398                           	movf 1+(??_loop+0)+0,w
  6399  07C3  084E               	opt asmopt_push
  6400                           	opt asmopt_off
  6401                           	xorlw	0^0	; case 0
  6402  07C4  3A00               	skipnz
  6403  07C5  1903               	goto	l4522
  6404  07C6  2FC8               	goto	l549
  6405  07C7  2FD0               	opt asmopt_pop
  6406                           	
  6407                           l4522:	
  6408  07C8                     ; Switch size 1, requested type "space"
  6409                           ; Number of cases is 2, Range of values is 0 to 1
  6410                           ; switch strategies available:
  6411                           ; Name         Instructions Cycles
  6412                           ; simple_byte            7     4 (average)
  6413                           ; direct_byte           14     8 (fixed)
  6414                           ; jumptable            260     6 (fixed)
  6415                           ;	Chosen strategy is simple_byte
  6416                           
  6417                           	movf 0+(??_loop+0)+0,w
  6418  07C8  084D               	opt asmopt_push
  6419                           	opt asmopt_off
  6420                           	xorlw	0^0	; case 0
  6421  07C9  3A00               	skipnz
  6422  07CA  1903               	goto	l4052
  6423  07CB  2BF0               	xorlw	1^0	; case 1
  6424  07CC  3A01               	skipnz
  6425  07CD  1903               	goto	l4040
  6426  07CE  2BB8               	goto	l549
  6427  07CF  2FD0               	opt asmopt_pop
  6428                           
  6429                           	
  6430                           l500:	
  6431  07D0                     	line	309
  6432                           	
  6433                           l549:	
  6434  07D0                     	return
  6435  07D0  0008               	opt stack 0
  6436                           GLOBAL	__end_of_loop
  6437                           	__end_of_loop:
  6438  07D1                     	signat	_loop,89
  6439                           	global	_sprintf
  6440                           
  6441 ;; *************** function _sprintf *****************
  6442 ;; Defined at:
  6443 ;;		line 500 in file "C:\Program Files (x86)\Microchip\xc8\v2.00\pic\sources\c90\common\doprnt.c"
  6444 ;; Parameters:    Size  Location     Type
  6445 ;;  sp              1    wreg     PTR unsigned char 
  6446 ;;		 -> SecondROW(16), FirstROW(16), 
  6447 ;;  f               1    0[BANK0 ] PTR const unsigned char 
  6448 ;;		 -> STR_12(11), STR_10(16), STR_9(14), STR_8(17), 
  6449 ;;		 -> STR_7(15), 
  6450 ;; Auto vars:     Size  Location     Type
  6451 ;;  sp              1   13[BANK0 ] PTR unsigned char 
  6452 ;;		 -> SecondROW(16), FirstROW(16), 
  6453 ;;  tmpval          4    0        struct .
  6454 ;;  val             2   11[BANK0 ] unsigned int 
  6455 ;;  cp              2    0        PTR const unsigned char 
  6456 ;;  len             2    0        unsigned int 
  6457 ;;  c               1   14[BANK0 ] unsigned char 
  6458 ;;  flag            1   10[BANK0 ] unsigned char 
  6459 ;;  ap              1    9[BANK0 ] PTR void [1]
  6460 ;;		 -> ?_sprintf(2), 
  6461 ;;  prec            1    8[BANK0 ] char 
  6462 ;; Return value:  Size  Location     Type
  6463 ;;                  2    0[BANK0 ] int 
  6464 ;; Registers used:
  6465 ;;		wreg, fsr0l, fsr0h, status,2, status,0, btemp+1, pclath, cstack
  6466 ;; Tracked objects:
  6467 ;;		On entry : 0/0
  6468 ;;		On exit  : 0/0
  6469 ;;		Unchanged: 0/0
  6470 ;; Data sizes:     COMMON   BANK0   BANK1   BANK3   BANK2
  6471 ;;      Params:         0       5       0       0       0
  6472 ;;      Locals:         0       7       0       0       0
  6473 ;;      Temps:          0       3       0       0       0
  6474 ;;      Totals:         0      15       0       0       0
  6475 ;;Total ram usage:       15 bytes
  6476 ;; Hardware stack levels used:    1
  6477 ;; Hardware stack levels required when called:    1
  6478 ;; This function calls:
  6479 ;;		___lwdiv
  6480 ;;		___lwmod
  6481 ;; This function is called by:
  6482 ;;		_loop
  6483 ;; This function uses a non-reentrant model
  6484 ;;
  6485                           psect	text10,local,class=CODE,delta=2,merge=1,group=0
  6486                           	file	"C:\Program Files (x86)\Microchip\xc8\v2.00\pic\sources\c90\common\doprnt.c"
  6487                           	line	500
  6488                           global __ptext10
  6489                           __ptext10:	;psect for function _sprintf
  6490  08CE                     psect	text10
  6491                           	file	"C:\Program Files (x86)\Microchip\xc8\v2.00\pic\sources\c90\common\doprnt.c"
  6492                           	line	500
  6493                           	global	__size_of_sprintf
  6494                           	__size_of_sprintf	equ	__end_of_sprintf-_sprintf
  6495  0117                     	
  6496                           _sprintf:	
  6497  08CE                     ;incstack = 0
  6498                           	opt	stack 5
  6499                           ; Regs used in _sprintf: [wreg-fsr0h+status,2+status,0+btemp+1+pclath+cstack]
  6500                           ;sprintf@sp stored from wreg
  6501                           	bcf	status, 5	;RP0=0, select bank0
  6502  08CE  1283               	bcf	status, 6	;RP1=0, select bank0
  6503  08CF  1303               	movwf	(sprintf@sp)
  6504  08D0  00CB               	line	545
  6505                           	
  6506                           l3902:	
  6507  08D1                     ;C:\Program Files (x86)\Microchip\xc8\v2.00\pic\sources\c90\common\doprnt.c: 500: sprint
                                 f(char * sp, const char * f, ...);C:\Program Files (x86)\Microchip\xc8\v2.00\pic\sources
                                 \c90\common\doprnt.c: 501: {;C:\Program Files (x86)\Microchip\xc8\v2.00\pic\sources\c90\
                                 common\doprnt.c: 502:  va_list ap;;C:\Program Files (x86)\Microchip\xc8\v2.00\pic\source
                                 s\c90\common\doprnt.c: 507:  char c;;C:\Program Files (x86)\Microchip\xc8\v2.00\pic\sour
                                 ces\c90\common\doprnt.c: 516:  signed char prec;;C:\Program Files (x86)\Microchip\xc8\v2
                                 .00\pic\sources\c90\common\doprnt.c: 520:  unsigned char flag;
  6508                           	movlw	(low(?_sprintf|((0x0)<<8)+01h))&0ffh
  6509  08D1  303F               	movwf	(??_sprintf+0)+0
  6510  08D2  00C3               	movf	(??_sprintf+0)+0,w
  6511  08D3  0843               	movwf	(sprintf@ap)
  6512  08D4  00C7               	line	548
  6513                           ;C:\Program Files (x86)\Microchip\xc8\v2.00\pic\sources\c90\common\doprnt.c: 548:  while
                                 ((c = *f++)) {
  6514                           	goto	l3958
  6515  08D5  29CB               	
  6516                           l828:	
  6517  08D6                     	line	550
  6518                           	
  6519                           l3904:	
  6520  08D6                     ;C:\Program Files (x86)\Microchip\xc8\v2.00\pic\sources\c90\common\doprnt.c: 550:   if(c
                                  != '%')
  6521                           		movlw	37
  6522  08D6  3025               	xorwf	((sprintf@c)),w
  6523  08D7  064C               	btfsc	status,2
  6524  08D8  1903               	goto	u2351
  6525  08D9  28DB               	goto	u2350
  6526  08DA  28DC               u2351:
  6527  08DB                     	goto	l3910
  6528  08DB  28E8               u2350:
  6529  08DC                     	line	553
  6530                           	
  6531                           l3906:	
  6532  08DC                     ;C:\Program Files (x86)\Microchip\xc8\v2.00\pic\sources\c90\common\doprnt.c: 552:   {;C:
                                 \Program Files (x86)\Microchip\xc8\v2.00\pic\sources\c90\common\doprnt.c: 553:    ((*sp+
                                 + = (c)));
  6533                           	movf	(sprintf@c),w
  6534  08DC  084C               	movwf	(??_sprintf+0)+0
  6535  08DD  00C3               	movf	(sprintf@sp),w
  6536  08DE  084B               	movwf	fsr0
  6537  08DF  0084               	movf	(??_sprintf+0)+0,w
  6538  08E0  0843               	bcf	status, 7	;select IRP bank0
  6539  08E1  1383               	movwf	indf
  6540  08E2  0080               	
  6541                           l3908:	
  6542  08E3                     	movlw	low(01h)
  6543  08E3  3001               	movwf	(??_sprintf+0)+0
  6544  08E4  00C3               	movf	(??_sprintf+0)+0,w
  6545  08E5  0843               	addwf	(sprintf@sp),f
  6546  08E6  07CB               	line	554
  6547                           ;C:\Program Files (x86)\Microchip\xc8\v2.00\pic\sources\c90\common\doprnt.c: 554:    con
                                 tinue;
  6548                           	goto	l3958
  6549  08E7  29CB               	line	555
  6550                           ;C:\Program Files (x86)\Microchip\xc8\v2.00\pic\sources\c90\common\doprnt.c: 555:   }
  6551                           	
  6552                           l829:	
  6553  08E8                     	line	560
  6554                           	
  6555                           l3910:	
  6556  08E8                     ;C:\Program Files (x86)\Microchip\xc8\v2.00\pic\sources\c90\common\doprnt.c: 560:   flag
                                  = 0;
  6557                           	clrf	(sprintf@flag)
  6558  08E8  01C8               	line	654
  6559                           ;C:\Program Files (x86)\Microchip\xc8\v2.00\pic\sources\c90\common\doprnt.c: 654:   swit
                                 ch(c = *f++) {
  6560                           	goto	l3914
  6561  08E9  28F1               	line	656
  6562                           ;C:\Program Files (x86)\Microchip\xc8\v2.00\pic\sources\c90\common\doprnt.c: 656:   case
                                  0:
  6563                           	
  6564                           l831:	
  6565  08EA                     	line	657
  6566                           ;C:\Program Files (x86)\Microchip\xc8\v2.00\pic\sources\c90\common\doprnt.c: 657:    got
                                 o alldone;
  6567                           	goto	l3960
  6568  08EA  29DF               	line	716
  6569                           ;C:\Program Files (x86)\Microchip\xc8\v2.00\pic\sources\c90\common\doprnt.c: 716:   case
                                  'd':
  6570                           	
  6571                           l833:	
  6572  08EB                     	goto	l835
  6573  08EB  2911               	line	717
  6574                           ;C:\Program Files (x86)\Microchip\xc8\v2.00\pic\sources\c90\common\doprnt.c: 717:   case
                                  'i':
  6575                           	
  6576                           l834:	
  6577  08EC                     	line	718
  6578                           ;C:\Program Files (x86)\Microchip\xc8\v2.00\pic\sources\c90\common\doprnt.c: 718:    bre
                                 ak;
  6579                           	goto	l835
  6580  08EC  2911               	line	821
  6581                           ;C:\Program Files (x86)\Microchip\xc8\v2.00\pic\sources\c90\common\doprnt.c: 821:   defa
                                 ult:
  6582                           	
  6583                           l836:	
  6584  08ED                     	line	832
  6585                           ;C:\Program Files (x86)\Microchip\xc8\v2.00\pic\sources\c90\common\doprnt.c: 832:    con
                                 tinue;
  6586                           	goto	l3958
  6587  08ED  29CB               	line	836
  6588                           ;C:\Program Files (x86)\Microchip\xc8\v2.00\pic\sources\c90\common\doprnt.c: 836:   case
                                  'u':
  6589                           	
  6590                           l837:	
  6591  08EE                     	line	837
  6592                           ;C:\Program Files (x86)\Microchip\xc8\v2.00\pic\sources\c90\common\doprnt.c: 837:    fla
                                 g |= 0x40;
  6593                           	bsf	(sprintf@flag)+(6/8),(6)&7
  6594  08EE  1748               	line	838
  6595                           ;C:\Program Files (x86)\Microchip\xc8\v2.00\pic\sources\c90\common\doprnt.c: 838:    bre
                                 ak;
  6596                           	goto	l835
  6597  08EF  2911               	line	841
  6598                           	
  6599                           l3912:	
  6600  08F0                     ;C:\Program Files (x86)\Microchip\xc8\v2.00\pic\sources\c90\common\doprnt.c: 841:   }
  6601                           	goto	l835
  6602  08F0  2911               	
  6603                           l830:	
  6604  08F1                     	
  6605                           l3914:	
  6606  08F1                     	movlw	01h
  6607  08F1  3001               	addwf	(sprintf@f),f
  6608  08F2  07BE               	movlw	-01h
  6609  08F3  30FF               	addwf	(sprintf@f),w
  6610  08F4  073E               	movwf	fsr0
  6611  08F5  0084               	fcall	stringdir
  6612  08F6  160A  118A  200A  120A  158A  	movwf	(sprintf@c)
  6613  08FB  00CC               	movwf	(??_sprintf+0)+0
  6614  08FC  00C3               	clrf	(??_sprintf+0)+0+1
  6615  08FD  01C4               	; Switch on 2 bytes has been partitioned into a top level switch of size 1, and 1 sub-s
                                 witches
  6616                           ; Switch size 1, requested type "space"
  6617                           ; Number of cases is 1, Range of values is 0 to 0
  6618                           ; switch strategies available:
  6619                           ; Name         Instructions Cycles
  6620                           ; simple_byte            4     3 (average)
  6621                           ; direct_byte           11     8 (fixed)
  6622                           ; jumptable            260     6 (fixed)
  6623                           ;	Chosen strategy is simple_byte
  6624                           
  6625                           	movf 1+(??_sprintf+0)+0,w
  6626  08FE  0844               	opt asmopt_push
  6627                           	opt asmopt_off
  6628                           	xorlw	0^0	; case 0
  6629  08FF  3A00               	skipnz
  6630  0900  1903               	goto	l4524
  6631  0901  2903               	goto	l3958
  6632  0902  29CB               	opt asmopt_pop
  6633                           	
  6634                           l4524:	
  6635  0903                     ; Switch size 1, requested type "space"
  6636                           ; Number of cases is 4, Range of values is 0 to 117
  6637                           ; switch strategies available:
  6638                           ; Name         Instructions Cycles
  6639                           ; simple_byte           13     7 (average)
  6640                           ; jumptable            260     6 (fixed)
  6641                           ;	Chosen strategy is simple_byte
  6642                           
  6643                           	movf 0+(??_sprintf+0)+0,w
  6644  0903  0843               	opt asmopt_push
  6645                           	opt asmopt_off
  6646                           	xorlw	0^0	; case 0
  6647  0904  3A00               	skipnz
  6648  0905  1903               	goto	l3960
  6649  0906  29DF               	xorlw	100^0	; case 100
  6650  0907  3A64               	skipnz
  6651  0908  1903               	goto	l835
  6652  0909  2911               	xorlw	105^100	; case 105
  6653  090A  3A0D               	skipnz
  6654  090B  1903               	goto	l835
  6655  090C  2911               	xorlw	117^105	; case 117
  6656  090D  3A1C               	skipnz
  6657  090E  1903               	goto	l837
  6658  090F  28EE               	goto	l3958
  6659  0910  29CB               	opt asmopt_pop
  6660                           
  6661                           	
  6662                           l835:	
  6663  0911                     	line	1270
  6664                           ;C:\Program Files (x86)\Microchip\xc8\v2.00\pic\sources\c90\common\doprnt.c: 1270:   if(
                                 (flag & 0x40) == 0x00)
  6665                           	btfsc	(sprintf@flag),(6)&7
  6666  0911  1B48               	goto	u2361
  6667  0912  2914               	goto	u2360
  6668  0913  2915               u2361:
  6669  0914                     	goto	l3926
  6670  0914  2930               u2360:
  6671  0915                     	line	1278
  6672                           	
  6673                           l3916:	
  6674  0915                     ;C:\Program Files (x86)\Microchip\xc8\v2.00\pic\sources\c90\common\doprnt.c: 1272:   {;C
                                 :\Program Files (x86)\Microchip\xc8\v2.00\pic\sources\c90\common\doprnt.c: 1278:     val
                                  = (int)(*(int *)__va_arg((*(int **)ap), (int)0));
  6675                           	movf	(sprintf@ap),w
  6676  0915  0847               	movwf	fsr0
  6677  0916  0084               	bcf	status, 7	;select IRP bank0
  6678  0917  1383               	movf	indf,w
  6679  0918  0800               	movwf	(sprintf@val)
  6680  0919  00C9               	incf	fsr0,f
  6681  091A  0A84               	movf	indf,w
  6682  091B  0800               	movwf	(sprintf@val+1)
  6683  091C  00CA               	
  6684                           l3918:	
  6685  091D                     	movlw	low(02h)
  6686  091D  3002               	movwf	(??_sprintf+0)+0
  6687  091E  00C3               	movf	(??_sprintf+0)+0,w
  6688  091F  0843               	addwf	(sprintf@ap),f
  6689  0920  07C7               	line	1280
  6690                           	
  6691                           l3920:	
  6692  0921                     ;C:\Program Files (x86)\Microchip\xc8\v2.00\pic\sources\c90\common\doprnt.c: 1280:    if
                                 ((int)val < 0) {
  6693                           	btfss	(sprintf@val+1),7
  6694  0921  1FCA               	goto	u2371
  6695  0922  2924               	goto	u2370
  6696  0923  2925               u2371:
  6697  0924                     	goto	l3930
  6698  0924  293D               u2370:
  6699  0925                     	line	1281
  6700                           	
  6701                           l3922:	
  6702  0925                     ;C:\Program Files (x86)\Microchip\xc8\v2.00\pic\sources\c90\common\doprnt.c: 1281:     f
                                 lag |= 0x03;
  6703                           	movlw	low(03h)
  6704  0925  3003               	movwf	(??_sprintf+0)+0
  6705  0926  00C3               	movf	(??_sprintf+0)+0,w
  6706  0927  0843               	iorwf	(sprintf@flag),f
  6707  0928  04C8               	line	1282
  6708                           	
  6709                           l3924:	
  6710  0929                     ;C:\Program Files (x86)\Microchip\xc8\v2.00\pic\sources\c90\common\doprnt.c: 1282:     v
                                 al = -val;
  6711                           	comf	(sprintf@val),f
  6712  0929  09C9               	comf	(sprintf@val+1),f
  6713  092A  09CA               	incf	(sprintf@val),f
  6714  092B  0AC9               	skipnz
  6715  092C  1903               	incf	(sprintf@val+1),f
  6716  092D  0ACA               	goto	l3930
  6717  092E  293D               	line	1283
  6718                           ;C:\Program Files (x86)\Microchip\xc8\v2.00\pic\sources\c90\common\doprnt.c: 1283:    }

  6719                           	
  6720                           l839:	
  6721  092F                     	line	1285
  6722                           ;C:\Program Files (x86)\Microchip\xc8\v2.00\pic\sources\c90\common\doprnt.c: 1285:   }
  6723                           	goto	l3930
  6724  092F  293D               	line	1287
  6725                           ;C:\Program Files (x86)\Microchip\xc8\v2.00\pic\sources\c90\common\doprnt.c: 1287:   els
                                 e
  6726                           	
  6727                           l838:	
  6728  0930                     	line	1305
  6729                           	
  6730                           l3926:	
  6731  0930                     ;C:\Program Files (x86)\Microchip\xc8\v2.00\pic\sources\c90\common\doprnt.c: 1292:   {;C
                                 :\Program Files (x86)\Microchip\xc8\v2.00\pic\sources\c90\common\doprnt.c: 1305:     val
                                  = (*(unsigned *)__va_arg((*(unsigned **)ap), (unsigned)0));
  6732                           	movf	(sprintf@ap),w
  6733  0930  0847               	movwf	fsr0
  6734  0931  0084               	bcf	status, 7	;select IRP bank0
  6735  0932  1383               	movf	indf,w
  6736  0933  0800               	movwf	(sprintf@val)
  6737  0934  00C9               	incf	fsr0,f
  6738  0935  0A84               	movf	indf,w
  6739  0936  0800               	movwf	(sprintf@val+1)
  6740  0937  00CA               	
  6741                           l3928:	
  6742  0938                     	movlw	low(02h)
  6743  0938  3002               	movwf	(??_sprintf+0)+0
  6744  0939  00C3               	movf	(??_sprintf+0)+0,w
  6745  093A  0843               	addwf	(sprintf@ap),f
  6746  093B  07C7               	goto	l3930
  6747  093C  293D               	line	1306
  6748                           ;C:\Program Files (x86)\Microchip\xc8\v2.00\pic\sources\c90\common\doprnt.c: 1306:   }
  6749                           	
  6750                           l840:	
  6751  093D                     	line	1324
  6752                           	
  6753                           l3930:	
  6754  093D                     ;C:\Program Files (x86)\Microchip\xc8\v2.00\pic\sources\c90\common\doprnt.c: 1324:    fo
                                 r(c = 1 ; c != sizeof dpowers/sizeof dpowers[0] ; c++)
  6755                           	clrf	(sprintf@c)
  6756  093D  01CC               	incf	(sprintf@c),f
  6757  093E  0ACC               	
  6758                           l3932:	
  6759  093F                     		movlw	5
  6760  093F  3005               	xorwf	((sprintf@c)),w
  6761  0940  064C               	btfss	status,2
  6762  0941  1D03               	goto	u2381
  6763  0942  2944               	goto	u2380
  6764  0943  2945               u2381:
  6765  0944                     	goto	l3936
  6766  0944  2947               u2380:
  6767  0945                     	goto	l3942
  6768  0945  296F               	
  6769                           l3934:	
  6770  0946                     	goto	l3942
  6771  0946  296F               	
  6772                           l841:	
  6773  0947                     	line	1325
  6774                           	
  6775                           l3936:	
  6776  0947                     ;C:\Program Files (x86)\Microchip\xc8\v2.00\pic\sources\c90\common\doprnt.c: 1325:     i
                                 f(val < dpowers[c])
  6777                           	movf	(sprintf@c),w
  6778  0947  084C               	movwf	(??_sprintf+0)+0
  6779  0948  00C3               	addwf	(??_sprintf+0)+0,w
  6780  0949  0743               	addlw	low((((_dpowers)-__stringbase)|8000h))
  6781  094A  3E01               	movwf	fsr0
  6782  094B  0084               	fcall	stringdir
  6783  094C  160A  118A  200A  120A  158A  	movwf	(??_sprintf+1)+0
  6784  0951  00C4               	fcall	stringdir
  6785  0952  160A  118A  200A  120A  158A  	movwf	(??_sprintf+1)+0+1
  6786  0957  00C5               	movf	1+(??_sprintf+1)+0,w
  6787  0958  0845               	subwf	(sprintf@val+1),w
  6788  0959  024A               	skipz
  6789  095A  1D03               	goto	u2395
  6790  095B  295E               	movf	0+(??_sprintf+1)+0,w
  6791  095C  0844               	subwf	(sprintf@val),w
  6792  095D  0249               u2395:
  6793  095E                     	skipnc
  6794  095E  1803               	goto	u2391
  6795  095F  2961               	goto	u2390
  6796  0960  2962               u2391:
  6797  0961                     	goto	l3940
  6798  0961  2964               u2390:
  6799  0962                     	goto	l3942
  6800  0962  296F               	line	1326
  6801                           	
  6802                           l3938:	
  6803  0963                     ;C:\Program Files (x86)\Microchip\xc8\v2.00\pic\sources\c90\common\doprnt.c: 1326:      
                                 break;
  6804                           	goto	l3942
  6805  0963  296F               	
  6806                           l843:	
  6807  0964                     	
  6808                           l3940:	
  6809  0964                     	movlw	low(01h)
  6810  0964  3001               	movwf	(??_sprintf+0)+0
  6811  0965  00C3               	movf	(??_sprintf+0)+0,w
  6812  0966  0843               	addwf	(sprintf@c),f
  6813  0967  07CC               		movlw	5
  6814  0968  3005               	xorwf	((sprintf@c)),w
  6815  0969  064C               	btfss	status,2
  6816  096A  1D03               	goto	u2401
  6817  096B  296D               	goto	u2400
  6818  096C  296E               u2401:
  6819  096D                     	goto	l3936
  6820  096D  2947               u2400:
  6821  096E                     	goto	l3942
  6822  096E  296F               	
  6823                           l842:	
  6824  096F                     	line	1457
  6825                           	
  6826                           l3942:	
  6827  096F                     ;C:\Program Files (x86)\Microchip\xc8\v2.00\pic\sources\c90\common\doprnt.c: 1441:   {;C
                                 :\Program Files (x86)\Microchip\xc8\v2.00\pic\sources\c90\common\doprnt.c: 1457:    if(f
                                 lag & 0x03)
  6828                           	movf	(sprintf@flag),w
  6829  096F  0848               	andlw	03h
  6830  0970  3903               	btfsc	status,2
  6831  0971  1903               	goto	u2411
  6832  0972  2974               	goto	u2410
  6833  0973  2975               u2411:
  6834  0974                     	goto	l3948
  6835  0974  2981               u2410:
  6836  0975                     	line	1458
  6837                           	
  6838                           l3944:	
  6839  0975                     ;C:\Program Files (x86)\Microchip\xc8\v2.00\pic\sources\c90\common\doprnt.c: 1458:     (
                                 (*sp++ = ('-')));
  6840                           	movlw	low(02Dh)
  6841  0975  302D               	movwf	(??_sprintf+0)+0
  6842  0976  00C3               	movf	(sprintf@sp),w
  6843  0977  084B               	movwf	fsr0
  6844  0978  0084               	movf	(??_sprintf+0)+0,w
  6845  0979  0843               	bcf	status, 7	;select IRP bank0
  6846  097A  1383               	movwf	indf
  6847  097B  0080               	
  6848                           l3946:	
  6849  097C                     	movlw	low(01h)
  6850  097C  3001               	movwf	(??_sprintf+0)+0
  6851  097D  00C3               	movf	(??_sprintf+0)+0,w
  6852  097E  0843               	addwf	(sprintf@sp),f
  6853  097F  07CB               	goto	l3948
  6854  0980  2981               	
  6855                           l844:	
  6856  0981                     	line	1491
  6857                           	
  6858                           l3948:	
  6859  0981                     ;C:\Program Files (x86)\Microchip\xc8\v2.00\pic\sources\c90\common\doprnt.c: 1488:   };C
                                 :\Program Files (x86)\Microchip\xc8\v2.00\pic\sources\c90\common\doprnt.c: 1491:   prec 
                                 = c;
  6860                           	movf	(sprintf@c),w
  6861  0981  084C               	movwf	(??_sprintf+0)+0
  6862  0982  00C3               	movf	(??_sprintf+0)+0,w
  6863  0983  0843               	movwf	(sprintf@prec)
  6864  0984  00C6               	line	1493
  6865                           ;C:\Program Files (x86)\Microchip\xc8\v2.00\pic\sources\c90\common\doprnt.c: 1493:   whi
                                 le(prec--) {
  6866                           	goto	l3956
  6867  0985  29C0               	
  6868                           l846:	
  6869  0986                     	line	1508
  6870                           	
  6871                           l3950:	
  6872  0986                     ;C:\Program Files (x86)\Microchip\xc8\v2.00\pic\sources\c90\common\doprnt.c: 1497:    {;
                                 C:\Program Files (x86)\Microchip\xc8\v2.00\pic\sources\c90\common\doprnt.c: 1508:     c 
                                 = (val / dpowers[prec]) % 10 + '0';
  6873                           	movlw	0Ah
  6874  0986  300A               	movwf	(___lwmod@divisor)
  6875  0987  00F8               	movlw	0
  6876  0988  3000               	movwf	((___lwmod@divisor))+1
  6877  0989  00F9               	movf	(sprintf@prec),w
  6878  098A  0846               	movwf	(??_sprintf+0)+0
  6879  098B  00C3               	addwf	(??_sprintf+0)+0,w
  6880  098C  0743               	addlw	low((((_dpowers)-__stringbase)|8000h))
  6881  098D  3E01               	movwf	fsr0
  6882  098E  0084               	fcall	stringdir
  6883  098F  160A  118A  200A  120A  158A  	movwf	(___lwdiv@divisor)
  6884  0994  00F0               	fcall	stringdir
  6885  0995  160A  118A  200A  120A  158A  	movwf	(___lwdiv@divisor+1)
  6886  099A  00F1               	movf	(sprintf@val+1),w
  6887  099B  084A               	movwf	(___lwdiv@dividend+1)
  6888  099C  00F3               	movf	(sprintf@val),w
  6889  099D  0849               	movwf	(___lwdiv@dividend)
  6890  099E  00F2               	fcall	___lwdiv
  6891  099F  160A  118A  22DA  120A  158A  	movf	(1+(?___lwdiv)),w
  6892  09A4  0871               	movwf	(___lwmod@dividend+1)
  6893  09A5  00FB               	movf	(0+(?___lwdiv)),w
  6894  09A6  0870               	movwf	(___lwmod@dividend)
  6895  09A7  00FA               	fcall	___lwmod
  6896  09A8  160A  118A  2251  120A  158A  	movf	(0+(?___lwmod)),w
  6897  09AD  0878               	addlw	030h
  6898  09AE  3E30               	bcf	status, 5	;RP0=0, select bank0
  6899  09AF  1283               	bcf	status, 6	;RP1=0, select bank0
  6900  09B0  1303               	movwf	(??_sprintf+1)+0
  6901  09B1  00C4               	movf	(??_sprintf+1)+0,w
  6902  09B2  0844               	movwf	(sprintf@c)
  6903  09B3  00CC               	line	1543
  6904                           	
  6905                           l3952:	
  6906  09B4                     ;C:\Program Files (x86)\Microchip\xc8\v2.00\pic\sources\c90\common\doprnt.c: 1542:    };
                                 C:\Program Files (x86)\Microchip\xc8\v2.00\pic\sources\c90\common\doprnt.c: 1543:    ((*
                                 sp++ = (c)));
  6907                           	movf	(sprintf@c),w
  6908  09B4  084C               	movwf	(??_sprintf+0)+0
  6909  09B5  00C3               	movf	(sprintf@sp),w
  6910  09B6  084B               	movwf	fsr0
  6911  09B7  0084               	movf	(??_sprintf+0)+0,w
  6912  09B8  0843               	bcf	status, 7	;select IRP bank0
  6913  09B9  1383               	movwf	indf
  6914  09BA  0080               	
  6915                           l3954:	
  6916  09BB                     	movlw	low(01h)
  6917  09BB  3001               	movwf	(??_sprintf+0)+0
  6918  09BC  00C3               	movf	(??_sprintf+0)+0,w
  6919  09BD  0843               	addwf	(sprintf@sp),f
  6920  09BE  07CB               	goto	l3956
  6921  09BF  29C0               	line	1544
  6922                           ;C:\Program Files (x86)\Microchip\xc8\v2.00\pic\sources\c90\common\doprnt.c: 1544:   }
  6923                           	
  6924                           l845:	
  6925  09C0                     	line	1493
  6926                           	
  6927                           l3956:	
  6928  09C0                     ;C:\Program Files (x86)\Microchip\xc8\v2.00\pic\sources\c90\common\doprnt.c: 1493:   whi
                                 le(prec--) {
  6929                           	movlw	low(-1)
  6930  09C0  30FF               	movwf	(??_sprintf+0)+0
  6931  09C1  00C3               	movf	(??_sprintf+0)+0,w
  6932  09C2  0843               	addwf	(sprintf@prec),f
  6933  09C3  07C6               		incf	(((sprintf@prec))),w
  6934  09C4  0A46               	btfss	status,2
  6935  09C5  1D03               	goto	u2421
  6936  09C6  29C8               	goto	u2420
  6937  09C7  29C9               u2421:
  6938  09C8                     	goto	l3950
  6939  09C8  2986               u2420:
  6940  09C9                     	goto	l3958
  6941  09C9  29CB               	
  6942                           l847:	
  6943  09CA                     	goto	l3958
  6944  09CA  29CB               	line	1552
  6945                           ;C:\Program Files (x86)\Microchip\xc8\v2.00\pic\sources\c90\common\doprnt.c: 1552:  }
  6946                           	
  6947                           l827:	
  6948  09CB                     	line	548
  6949                           	
  6950                           l3958:	
  6951  09CB                     ;C:\Program Files (x86)\Microchip\xc8\v2.00\pic\sources\c90\common\doprnt.c: 548:  while
                                 ((c = *f++)) {
  6952                           	movlw	01h
  6953  09CB  3001               	addwf	(sprintf@f),f
  6954  09CC  07BE               	movlw	-01h
  6955  09CD  30FF               	addwf	(sprintf@f),w
  6956  09CE  073E               	movwf	fsr0
  6957  09CF  0084               	fcall	stringdir
  6958  09D0  160A  118A  200A  120A  158A  	movwf	(??_sprintf+0)+0
  6959  09D5  00C3               	movf	(??_sprintf+0)+0,w
  6960  09D6  0843               	movwf	(sprintf@c)
  6961  09D7  00CC               	movf	(((sprintf@c))),w
  6962  09D8  084C               	btfss	status,2
  6963  09D9  1D03               	goto	u2431
  6964  09DA  29DC               	goto	u2430
  6965  09DB  29DD               u2431:
  6966  09DC                     	goto	l3904
  6967  09DC  28D6               u2430:
  6968  09DD                     	goto	l3960
  6969  09DD  29DF               	
  6970                           l848:	
  6971  09DE                     	goto	l3960
  6972  09DE  29DF               	line	1554
  6973                           ;C:\Program Files (x86)\Microchip\xc8\v2.00\pic\sources\c90\common\doprnt.c: 1554: alldo
                                 ne:
  6974                           	
  6975                           l832:	
  6976  09DF                     	line	1557
  6977                           	
  6978                           l3960:	
  6979  09DF                     ;C:\Program Files (x86)\Microchip\xc8\v2.00\pic\sources\c90\common\doprnt.c: 1557:  *sp 
                                 = 0;
  6980                           	movf	(sprintf@sp),w
  6981  09DF  084B               	movwf	fsr0
  6982  09E0  0084               	bcf	status, 7	;select IRP bank0
  6983  09E1  1383               	clrf	indf
  6984  09E2  0180               	goto	l849
  6985  09E3  29E4               	line	1559
  6986                           	
  6987                           l3962:	
  6988  09E4                     	line	1560
  6989                           ;C:\Program Files (x86)\Microchip\xc8\v2.00\pic\sources\c90\common\doprnt.c: 1559:  retu
                                 rn 0;;	Return value of _sprintf is never used
  6990                           	
  6991                           l849:	
  6992  09E4                     	return
  6993  09E4  0008               	opt stack 0
  6994                           GLOBAL	__end_of_sprintf
  6995                           	__end_of_sprintf:
  6996  09E5                     	signat	_sprintf,4698
  6997                           	global	___lwmod
  6998                           
  6999 ;; *************** function ___lwmod *****************
  7000 ;; Defined at:
  7001 ;;		line 5 in file "C:\Program Files (x86)\Microchip\xc8\v2.00\pic\sources\c90\common\lwmod.c"
  7002 ;; Parameters:    Size  Location     Type
  7003 ;;  divisor         2    8[COMMON] unsigned int 
  7004 ;;  dividend        2   10[COMMON] unsigned int 
  7005 ;; Auto vars:     Size  Location     Type
  7006 ;;  counter         1   13[COMMON] unsigned char 
  7007 ;; Return value:  Size  Location     Type
  7008 ;;                  2    8[COMMON] unsigned int 
  7009 ;; Registers used:
  7010 ;;		wreg, status,2, status,0
  7011 ;; Tracked objects:
  7012 ;;		On entry : 0/0
  7013 ;;		On exit  : 0/0
  7014 ;;		Unchanged: 0/0
  7015 ;; Data sizes:     COMMON   BANK0   BANK1   BANK3   BANK2
  7016 ;;      Params:         4       0       0       0       0
  7017 ;;      Locals:         1       0       0       0       0
  7018 ;;      Temps:          1       0       0       0       0
  7019 ;;      Totals:         6       0       0       0       0
  7020 ;;Total ram usage:        6 bytes
  7021 ;; Hardware stack levels used:    1
  7022 ;; This function calls:
  7023 ;;		Nothing
  7024 ;; This function is called by:
  7025 ;;		_sprintf
  7026 ;; This function uses a non-reentrant model
  7027 ;;
  7028                           psect	text11,local,class=CODE,delta=2,merge=1,group=1
  7029                           	file	"C:\Program Files (x86)\Microchip\xc8\v2.00\pic\sources\c90\common\lwmod.c"
  7030                           	line	5
  7031                           global __ptext11
  7032                           __ptext11:	;psect for function ___lwmod
  7033  1251                     psect	text11
  7034                           	file	"C:\Program Files (x86)\Microchip\xc8\v2.00\pic\sources\c90\common\lwmod.c"
  7035                           	line	5
  7036                           	global	__size_of___lwmod
  7037                           	__size_of___lwmod	equ	__end_of___lwmod-___lwmod
  7038  0041                     	
  7039                           ___lwmod:	
  7040  1251                     ;incstack = 0
  7041                           	opt	stack 5
  7042                           ; Regs used in ___lwmod: [wreg+status,2+status,0]
  7043                           	line	12
  7044                           	
  7045                           l3552:	
  7046  1251                     	movf	((___lwmod@divisor)),w
  7047  1251  0878               iorwf	((___lwmod@divisor+1)),w
  7048  1252  0479               	btfsc	status,2
  7049  1253  1903               	goto	u1791
  7050  1254  2A56               	goto	u1790
  7051  1255  2A57               u1791:
  7052  1256                     	goto	l3570
  7053  1256  2A8C               u1790:
  7054  1257                     	line	13
  7055                           	
  7056                           l3554:	
  7057  1257                     	clrf	(___lwmod@counter)
  7058  1257  01FD               	incf	(___lwmod@counter),f
  7059  1258  0AFD               	line	14
  7060                           	goto	l3560
  7061  1259  2A66               	
  7062                           l1130:	
  7063  125A                     	line	15
  7064                           	
  7065                           l3556:	
  7066  125A                     	movlw	01h
  7067  125A  3001               	
  7068                           u1805:
  7069  125B                     	clrc
  7070  125B  1003               	rlf	(___lwmod@divisor),f
  7071  125C  0DF8               	rlf	(___lwmod@divisor+1),f
  7072  125D  0DF9               	addlw	-1
  7073  125E  3EFF               	skipz
  7074  125F  1D03               	goto	u1805
  7075  1260  2A5B               	line	16
  7076                           	
  7077                           l3558:	
  7078  1261                     	movlw	low(01h)
  7079  1261  3001               	movwf	(??___lwmod+0)+0
  7080  1262  00FC               	movf	(??___lwmod+0)+0,w
  7081  1263  087C               	addwf	(___lwmod@counter),f
  7082  1264  07FD               	goto	l3560
  7083  1265  2A66               	line	17
  7084                           	
  7085                           l1129:	
  7086  1266                     	line	14
  7087                           	
  7088                           l3560:	
  7089  1266                     	btfss	(___lwmod@divisor+1),(15)&7
  7090  1266  1FF9               	goto	u1811
  7091  1267  2A69               	goto	u1810
  7092  1268  2A6A               u1811:
  7093  1269                     	goto	l3556
  7094  1269  2A5A               u1810:
  7095  126A                     	goto	l3562
  7096  126A  2A6C               	
  7097                           l1131:	
  7098  126B                     	goto	l3562
  7099  126B  2A6C               	line	18
  7100                           	
  7101                           l1132:	
  7102  126C                     	line	19
  7103                           	
  7104                           l3562:	
  7105  126C                     	movf	(___lwmod@divisor+1),w
  7106  126C  0879               	subwf	(___lwmod@dividend+1),w
  7107  126D  027B               	skipz
  7108  126E  1D03               	goto	u1825
  7109  126F  2A72               	movf	(___lwmod@divisor),w
  7110  1270  0878               	subwf	(___lwmod@dividend),w
  7111  1271  027A               u1825:
  7112  1272                     	skipc
  7113  1272  1C03               	goto	u1821
  7114  1273  2A75               	goto	u1820
  7115  1274  2A76               u1821:
  7116  1275                     	goto	l3566
  7117  1275  2A7D               u1820:
  7118  1276                     	line	20
  7119                           	
  7120                           l3564:	
  7121  1276                     	movf	(___lwmod@divisor),w
  7122  1276  0878               	subwf	(___lwmod@dividend),f
  7123  1277  02FA               	movf	(___lwmod@divisor+1),w
  7124  1278  0879               	skipc
  7125  1279  1C03               	decf	(___lwmod@dividend+1),f
  7126  127A  03FB               	subwf	(___lwmod@dividend+1),f
  7127  127B  02FB               	goto	l3566
  7128  127C  2A7D               	
  7129                           l1133:	
  7130  127D                     	line	21
  7131                           	
  7132                           l3566:	
  7133  127D                     	movlw	01h
  7134  127D  3001               	
  7135                           u1835:
  7136  127E                     	clrc
  7137  127E  1003               	rrf	(___lwmod@divisor+1),f
  7138  127F  0CF9               	rrf	(___lwmod@divisor),f
  7139  1280  0CF8               	addlw	-1
  7140  1281  3EFF               	skipz
  7141  1282  1D03               	goto	u1835
  7142  1283  2A7E               	line	22
  7143                           	
  7144                           l3568:	
  7145  1284                     	movlw	01h
  7146  1284  3001               	subwf	(___lwmod@counter),f
  7147  1285  02FD               	btfss	status,2
  7148  1286  1D03               	goto	u1841
  7149  1287  2A89               	goto	u1840
  7150  1288  2A8A               u1841:
  7151  1289                     	goto	l3562
  7152  1289  2A6C               u1840:
  7153  128A                     	goto	l3570
  7154  128A  2A8C               	
  7155                           l1134:	
  7156  128B                     	goto	l3570
  7157  128B  2A8C               	line	23
  7158                           	
  7159                           l1128:	
  7160  128C                     	line	24
  7161                           	
  7162                           l3570:	
  7163  128C                     	movf	(___lwmod@dividend+1),w
  7164  128C  087B               	movwf	(?___lwmod+1)
  7165  128D  00F9               	movf	(___lwmod@dividend),w
  7166  128E  087A               	movwf	(?___lwmod)
  7167  128F  00F8               	goto	l1135
  7168  1290  2A91               	
  7169                           l3572:	
  7170  1291                     	line	25
  7171                           	
  7172                           l1135:	
  7173  1291                     	return
  7174  1291  0008               	opt stack 0
  7175                           GLOBAL	__end_of___lwmod
  7176                           	__end_of___lwmod:
  7177  1292                     	signat	___lwmod,8314
  7178                           	global	___lwdiv
  7179                           
  7180 ;; *************** function ___lwdiv *****************
  7181 ;; Defined at:
  7182 ;;		line 5 in file "C:\Program Files (x86)\Microchip\xc8\v2.00\pic\sources\c90\common\lwdiv.c"
  7183 ;; Parameters:    Size  Location     Type
  7184 ;;  divisor         2    0[COMMON] unsigned int 
  7185 ;;  dividend        2    2[COMMON] unsigned int 
  7186 ;; Auto vars:     Size  Location     Type
  7187 ;;  quotient        2    5[COMMON] unsigned int 
  7188 ;;  counter         1    7[COMMON] unsigned char 
  7189 ;; Return value:  Size  Location     Type
  7190 ;;                  2    0[COMMON] unsigned int 
  7191 ;; Registers used:
  7192 ;;		wreg, status,2, status,0
  7193 ;; Tracked objects:
  7194 ;;		On entry : 0/0
  7195 ;;		On exit  : 0/0
  7196 ;;		Unchanged: 0/0
  7197 ;; Data sizes:     COMMON   BANK0   BANK1   BANK3   BANK2
  7198 ;;      Params:         4       0       0       0       0
  7199 ;;      Locals:         3       0       0       0       0
  7200 ;;      Temps:          1       0       0       0       0
  7201 ;;      Totals:         8       0       0       0       0
  7202 ;;Total ram usage:        8 bytes
  7203 ;; Hardware stack levels used:    1
  7204 ;; This function calls:
  7205 ;;		Nothing
  7206 ;; This function is called by:
  7207 ;;		_sprintf
  7208 ;; This function uses a non-reentrant model
  7209 ;;
  7210                           psect	text12,local,class=CODE,delta=2,merge=1,group=1
  7211                           	file	"C:\Program Files (x86)\Microchip\xc8\v2.00\pic\sources\c90\common\lwdiv.c"
  7212                           	line	5
  7213                           global __ptext12
  7214                           __ptext12:	;psect for function ___lwdiv
  7215  12DA                     psect	text12
  7216                           	file	"C:\Program Files (x86)\Microchip\xc8\v2.00\pic\sources\c90\common\lwdiv.c"
  7217                           	line	5
  7218                           	global	__size_of___lwdiv
  7219                           	__size_of___lwdiv	equ	__end_of___lwdiv-___lwdiv
  7220  004B                     	
  7221                           ___lwdiv:	
  7222  12DA                     ;incstack = 0
  7223                           	opt	stack 5
  7224                           ; Regs used in ___lwdiv: [wreg+status,2+status,0]
  7225                           	line	13
  7226                           	
  7227                           l3526:	
  7228  12DA                     	clrf	(___lwdiv@quotient)
  7229  12DA  01F5               	clrf	(___lwdiv@quotient+1)
  7230  12DB  01F6               	line	14
  7231                           	
  7232                           l3528:	
  7233  12DC                     	movf	((___lwdiv@divisor)),w
  7234  12DC  0870               iorwf	((___lwdiv@divisor+1)),w
  7235  12DD  0471               	btfsc	status,2
  7236  12DE  1903               	goto	u1721
  7237  12DF  2AE1               	goto	u1720
  7238  12E0  2AE2               u1721:
  7239  12E1                     	goto	l3548
  7240  12E1  2B1F               u1720:
  7241  12E2                     	line	15
  7242                           	
  7243                           l3530:	
  7244  12E2                     	clrf	(___lwdiv@counter)
  7245  12E2  01F7               	incf	(___lwdiv@counter),f
  7246  12E3  0AF7               	line	16
  7247                           	goto	l3536
  7248  12E4  2AF1               	
  7249                           l1120:	
  7250  12E5                     	line	17
  7251                           	
  7252                           l3532:	
  7253  12E5                     	movlw	01h
  7254  12E5  3001               	
  7255                           u1735:
  7256  12E6                     	clrc
  7257  12E6  1003               	rlf	(___lwdiv@divisor),f
  7258  12E7  0DF0               	rlf	(___lwdiv@divisor+1),f
  7259  12E8  0DF1               	addlw	-1
  7260  12E9  3EFF               	skipz
  7261  12EA  1D03               	goto	u1735
  7262  12EB  2AE6               	line	18
  7263                           	
  7264                           l3534:	
  7265  12EC                     	movlw	low(01h)
  7266  12EC  3001               	movwf	(??___lwdiv+0)+0
  7267  12ED  00F4               	movf	(??___lwdiv+0)+0,w
  7268  12EE  0874               	addwf	(___lwdiv@counter),f
  7269  12EF  07F7               	goto	l3536
  7270  12F0  2AF1               	line	19
  7271                           	
  7272                           l1119:	
  7273  12F1                     	line	16
  7274                           	
  7275                           l3536:	
  7276  12F1                     	btfss	(___lwdiv@divisor+1),(15)&7
  7277  12F1  1FF1               	goto	u1741
  7278  12F2  2AF4               	goto	u1740
  7279  12F3  2AF5               u1741:
  7280  12F4                     	goto	l3532
  7281  12F4  2AE5               u1740:
  7282  12F5                     	goto	l3538
  7283  12F5  2AF7               	
  7284                           l1121:	
  7285  12F6                     	goto	l3538
  7286  12F6  2AF7               	line	20
  7287                           	
  7288                           l1122:	
  7289  12F7                     	line	21
  7290                           	
  7291                           l3538:	
  7292  12F7                     	movlw	01h
  7293  12F7  3001               	
  7294                           u1755:
  7295  12F8                     	clrc
  7296  12F8  1003               	rlf	(___lwdiv@quotient),f
  7297  12F9  0DF5               	rlf	(___lwdiv@quotient+1),f
  7298  12FA  0DF6               	addlw	-1
  7299  12FB  3EFF               	skipz
  7300  12FC  1D03               	goto	u1755
  7301  12FD  2AF8               	line	22
  7302                           	movf	(___lwdiv@divisor+1),w
  7303  12FE  0871               	subwf	(___lwdiv@dividend+1),w
  7304  12FF  0273               	skipz
  7305  1300  1D03               	goto	u1765
  7306  1301  2B04               	movf	(___lwdiv@divisor),w
  7307  1302  0870               	subwf	(___lwdiv@dividend),w
  7308  1303  0272               u1765:
  7309  1304                     	skipc
  7310  1304  1C03               	goto	u1761
  7311  1305  2B07               	goto	u1760
  7312  1306  2B08               u1761:
  7313  1307                     	goto	l3544
  7314  1307  2B10               u1760:
  7315  1308                     	line	23
  7316                           	
  7317                           l3540:	
  7318  1308                     	movf	(___lwdiv@divisor),w
  7319  1308  0870               	subwf	(___lwdiv@dividend),f
  7320  1309  02F2               	movf	(___lwdiv@divisor+1),w
  7321  130A  0871               	skipc
  7322  130B  1C03               	decf	(___lwdiv@dividend+1),f
  7323  130C  03F3               	subwf	(___lwdiv@dividend+1),f
  7324  130D  02F3               	line	24
  7325                           	
  7326                           l3542:	
  7327  130E                     	bsf	(___lwdiv@quotient)+(0/8),(0)&7
  7328  130E  1475               	goto	l3544
  7329  130F  2B10               	line	25
  7330                           	
  7331                           l1123:	
  7332  1310                     	line	26
  7333                           	
  7334                           l3544:	
  7335  1310                     	movlw	01h
  7336  1310  3001               	
  7337                           u1775:
  7338  1311                     	clrc
  7339  1311  1003               	rrf	(___lwdiv@divisor+1),f
  7340  1312  0CF1               	rrf	(___lwdiv@divisor),f
  7341  1313  0CF0               	addlw	-1
  7342  1314  3EFF               	skipz
  7343  1315  1D03               	goto	u1775
  7344  1316  2B11               	line	27
  7345                           	
  7346                           l3546:	
  7347  1317                     	movlw	01h
  7348  1317  3001               	subwf	(___lwdiv@counter),f
  7349  1318  02F7               	btfss	status,2
  7350  1319  1D03               	goto	u1781
  7351  131A  2B1C               	goto	u1780
  7352  131B  2B1D               u1781:
  7353  131C                     	goto	l3538
  7354  131C  2AF7               u1780:
  7355  131D                     	goto	l3548
  7356  131D  2B1F               	
  7357                           l1124:	
  7358  131E                     	goto	l3548
  7359  131E  2B1F               	line	28
  7360                           	
  7361                           l1118:	
  7362  131F                     	line	29
  7363                           	
  7364                           l3548:	
  7365  131F                     	movf	(___lwdiv@quotient+1),w
  7366  131F  0876               	movwf	(?___lwdiv+1)
  7367  1320  00F1               	movf	(___lwdiv@quotient),w
  7368  1321  0875               	movwf	(?___lwdiv)
  7369  1322  00F0               	goto	l1125
  7370  1323  2B24               	
  7371                           l3550:	
  7372  1324                     	line	30
  7373                           	
  7374                           l1125:	
  7375  1324                     	return
  7376  1324  0008               	opt stack 0
  7377                           GLOBAL	__end_of___lwdiv
  7378                           	__end_of___lwdiv:
  7379  1325                     	signat	___lwdiv,8314
  7380                           	global	_lcdSetCursor
  7381                           
  7382 ;; *************** function _lcdSetCursor *****************
  7383 ;; Defined at:
  7384 ;;		line 46 in file "LCD16x2.c"
  7385 ;; Parameters:    Size  Location     Type
  7386 ;;  row             1    wreg     unsigned char 
  7387 ;;  column          1   12[COMMON] unsigned char 
  7388 ;; Auto vars:     Size  Location     Type
  7389 ;;  row             1    0[BANK0 ] unsigned char 
  7390 ;;  location        1    1[BANK0 ] unsigned char 
  7391 ;; Return value:  Size  Location     Type
  7392 ;;                  1    wreg      void 
  7393 ;; Registers used:
  7394 ;;		wreg, fsr0l, fsr0h, status,2, status,0, btemp+1, pclath, cstack
  7395 ;; Tracked objects:
  7396 ;;		On entry : 0/0
  7397 ;;		On exit  : 0/0
  7398 ;;		Unchanged: 0/0
  7399 ;; Data sizes:     COMMON   BANK0   BANK1   BANK3   BANK2
  7400 ;;      Params:         1       0       0       0       0
  7401 ;;      Locals:         0       2       0       0       0
  7402 ;;      Temps:          1       0       0       0       0
  7403 ;;      Totals:         2       2       0       0       0
  7404 ;;Total ram usage:        4 bytes
  7405 ;; Hardware stack levels used:    1
  7406 ;; Hardware stack levels required when called:    3
  7407 ;; This function calls:
  7408 ;;		_WriteInstruction
  7409 ;; This function is called by:
  7410 ;;		_setup
  7411 ;;		_loop
  7412 ;;		_PruebaLCD_Keypad
  7413 ;; This function uses a non-reentrant model
  7414 ;;
  7415                           psect	text13,local,class=CODE,delta=2,merge=1,group=0
  7416                           	file	"LCD16x2.c"
  7417                           	line	46
  7418                           global __ptext13
  7419                           __ptext13:	;psect for function _lcdSetCursor
  7420  1225                     psect	text13
  7421                           	file	"LCD16x2.c"
  7422                           	line	46
  7423                           	global	__size_of_lcdSetCursor
  7424                           	__size_of_lcdSetCursor	equ	__end_of_lcdSetCursor-_lcdSetCursor
  7425  002C                     	
  7426                           _lcdSetCursor:	
  7427  1225                     ;incstack = 0
  7428                           	opt	stack 3
  7429                           ; Regs used in _lcdSetCursor: [wreg-fsr0h+status,2+status,0+btemp+1+pclath+cstack]
  7430                           ;lcdSetCursor@row stored from wreg
  7431                           	bcf	status, 5	;RP0=0, select bank0
  7432  1225  1283               	bcf	status, 6	;RP1=0, select bank0
  7433  1226  1303               	movwf	(lcdSetCursor@row)
  7434  1227  00BE               	line	48
  7435                           	
  7436                           l3700:	
  7437  1228                     ;LCD16x2.c: 46: void lcdSetCursor(char row, char column);LCD16x2.c: 47: {;LCD16x2.c: 48:
                                      char location = 0;
  7438                           	clrf	(lcdSetCursor@location)
  7439  1228  01BF               	line	49
  7440                           	
  7441                           l3702:	
  7442  1229                     ;LCD16x2.c: 49:     if(row == 1)
  7443                           		decf	((lcdSetCursor@row)),w
  7444  1229  033E               	btfss	status,2
  7445  122A  1D03               	goto	u1961
  7446  122B  2A2D               	goto	u1960
  7447  122C  2A2E               u1961:
  7448  122D                     	goto	l3708
  7449  122D  2A3A               u1960:
  7450  122E                     	line	51
  7451                           	
  7452                           l3704:	
  7453  122E                     ;LCD16x2.c: 50:     {;LCD16x2.c: 51:         location = (0x80) + (column - 1);
  7454                           	movf	(lcdSetCursor@column),w
  7455  122E  087C               	addlw	07Fh
  7456  122F  3E7F               	movwf	(??_lcdSetCursor+0)+0
  7457  1230  00FD               	movf	(??_lcdSetCursor+0)+0,w
  7458  1231  087D               	movwf	(lcdSetCursor@location)
  7459  1232  00BF               	line	52
  7460                           	
  7461                           l3706:	
  7462  1233                     ;LCD16x2.c: 52:         WriteInstruction(location);
  7463                           	movf	(lcdSetCursor@location),w
  7464  1233  083F               	fcall	_WriteInstruction
  7465  1234  160A  118A  2325  160A  118A  	line	53
  7466                           ;LCD16x2.c: 53:     }
  7467                           	goto	l683
  7468  1239  2A50               	line	54
  7469                           ;LCD16x2.c: 54:     else if(row == 2)
  7470                           	
  7471                           l679:	
  7472  123A                     	
  7473                           l3708:	
  7474  123A                     		movlw	2
  7475  123A  3002               	bcf	status, 5	;RP0=0, select bank0
  7476  123B  1283               	bcf	status, 6	;RP1=0, select bank0
  7477  123C  1303               	xorwf	((lcdSetCursor@row)),w
  7478  123D  063E               	btfss	status,2
  7479  123E  1D03               	goto	u1971
  7480  123F  2A41               	goto	u1970
  7481  1240  2A42               u1971:
  7482  1241                     	goto	l683
  7483  1241  2A50               u1970:
  7484  1242                     	line	56
  7485                           	
  7486                           l3710:	
  7487  1242                     ;LCD16x2.c: 55:     {;LCD16x2.c: 56:         location = 0xC0 + (column - 1);
  7488                           	movf	(lcdSetCursor@column),w
  7489  1242  087C               	addlw	0BFh
  7490  1243  3EBF               	movwf	(??_lcdSetCursor+0)+0
  7491  1244  00FD               	movf	(??_lcdSetCursor+0)+0,w
  7492  1245  087D               	movwf	(lcdSetCursor@location)
  7493  1246  00BF               	line	57
  7494                           	
  7495                           l3712:	
  7496  1247                     ;LCD16x2.c: 57:         WriteInstruction(location);
  7497                           	movf	(lcdSetCursor@location),w
  7498  1247  083F               	fcall	_WriteInstruction
  7499  1248  160A  118A  2325  160A  118A  	line	58
  7500                           ;LCD16x2.c: 58:     }
  7501                           	goto	l683
  7502  124D  2A50               	line	59
  7503                           ;LCD16x2.c: 59:     else
  7504                           	
  7505                           l681:	
  7506  124E                     	line	61
  7507                           ;LCD16x2.c: 60:     {;LCD16x2.c: 61:         return;
  7508                           	goto	l683
  7509  124E  2A50               	line	62
  7510                           ;LCD16x2.c: 62:     }
  7511                           	
  7512                           l682:	
  7513  124F                     	goto	l683
  7514  124F  2A50               	
  7515                           l680:	
  7516  1250                     	line	63
  7517                           	
  7518                           l683:	
  7519  1250                     	return
  7520  1250  0008               	opt stack 0
  7521                           GLOBAL	__end_of_lcdSetCursor
  7522                           	__end_of_lcdSetCursor:
  7523  1251                     	signat	_lcdSetCursor,8313
  7524                           	global	_lcdPrint
  7525                           
  7526 ;; *************** function _lcdPrint *****************
  7527 ;; Defined at:
  7528 ;;		line 69 in file "LCD16x2.c"
  7529 ;; Parameters:    Size  Location     Type
  7530 ;;  string          2    0[BANK0 ] PTR unsigned char 
  7531 ;;		 -> STR_13(17), STR_11(17), SecondROW(16), FirstROW(16), 
  7532 ;;		 -> STR_6(14), STR_5(17), STR_4(17), STR_3(17), 
  7533 ;;		 -> STR_2(17), STR_1(17), 
  7534 ;; Auto vars:     Size  Location     Type
  7535 ;;  i               2    5[BANK0 ] int 
  7536 ;; Return value:  Size  Location     Type
  7537 ;;                  1    wreg      void 
  7538 ;; Registers used:
  7539 ;;		wreg, fsr0l, fsr0h, status,2, status,0, btemp+1, pclath, cstack
  7540 ;; Tracked objects:
  7541 ;;		On entry : 0/0
  7542 ;;		On exit  : 0/0
  7543 ;;		Unchanged: 0/0
  7544 ;; Data sizes:     COMMON   BANK0   BANK1   BANK3   BANK2
  7545 ;;      Params:         0       2       0       0       0
  7546 ;;      Locals:         0       2       0       0       0
  7547 ;;      Temps:          0       3       0       0       0
  7548 ;;      Totals:         0       7       0       0       0
  7549 ;;Total ram usage:        7 bytes
  7550 ;; Hardware stack levels used:    1
  7551 ;; Hardware stack levels required when called:    4
  7552 ;; This function calls:
  7553 ;;		_lcdWrite
  7554 ;; This function is called by:
  7555 ;;		_setup
  7556 ;;		_loop
  7557 ;; This function uses a non-reentrant model
  7558 ;;
  7559                           psect	text14,local,class=CODE,delta=2,merge=1,group=0
  7560                           	line	69
  7561                           global __ptext14
  7562                           __ptext14:	;psect for function _lcdPrint
  7563  1292                     psect	text14
  7564                           	file	"LCD16x2.c"
  7565                           	line	69
  7566                           	global	__size_of_lcdPrint
  7567                           	__size_of_lcdPrint	equ	__end_of_lcdPrint-_lcdPrint
  7568  0048                     	
  7569                           _lcdPrint:	
  7570  1292                     ;incstack = 0
  7571                           	opt	stack 2
  7572                           ; Regs used in _lcdPrint: [wreg-fsr0h+status,2+status,0+btemp+1+pclath+cstack]
  7573                           	line	71
  7574                           	
  7575                           l3714:	
  7576  1292                     ;LCD16x2.c: 69: void lcdPrint(char *string);LCD16x2.c: 70: {;LCD16x2.c: 71:     for(int 
                                 i=0;string[i] != '\0';i++)
  7577                           	bcf	status, 5	;RP0=0, select bank0
  7578  1292  1283               	bcf	status, 6	;RP1=0, select bank0
  7579  1293  1303               	clrf	(lcdPrint@i)
  7580  1294  01C3               	clrf	(lcdPrint@i+1)
  7581  1295  01C4               	goto	l3720
  7582  1296  2ABC               	
  7583                           l690:	
  7584  1297                     	line	73
  7585                           	
  7586                           l3716:	
  7587  1297                     ;LCD16x2.c: 72:     {;LCD16x2.c: 73:         lcdWrite(string[i]);
  7588                           	movf	(lcdPrint@i),w
  7589  1297  0843               	addwf	(lcdPrint@string),w
  7590  1298  073E               	movwf	(??_lcdPrint+1)+0
  7591  1299  00C1               	movf	(lcdPrint@string+1),w
  7592  129A  083F               	movwf	(??_lcdPrint+0)+0
  7593  129B  00C0               	skipnc
  7594  129C  1803               	incf	(??_lcdPrint+0)+0,f
  7595  129D  0AC0               	btfss	(lcdPrint@i),7
  7596  129E  1FC3               	goto	u1980
  7597  129F  2AA1               	decf	(??_lcdPrint+0)+0,f
  7598  12A0  03C0               u1980:
  7599  12A1                     	bcf	status, 5	;RP0=0, select bank0
  7600  12A1  1283               	bcf	status, 6	;RP1=0, select bank0
  7601  12A2  1303               	movf	(??_lcdPrint+0)+0,w
  7602  12A3  0840               	movwf	0+((??_lcdPrint+1)+0)+1
  7603  12A4  00C2               	movf	1+(??_lcdPrint+1)+0,w
  7604  12A5  0842               	movwf	btemp+1
  7605  12A6  00FF               	movf	0+(??_lcdPrint+1)+0,w
  7606  12A7  0841               	movwf	fsr0
  7607  12A8  0084               	fcall	stringtab
  7608  12A9  160A  118A  2000  160A  118A  	fcall	_lcdWrite
  7609  12AE  160A  118A  2198  160A  118A  	line	74
  7610                           	
  7611                           l3718:	
  7612  12B3                     ;LCD16x2.c: 74:     }
  7613                           	movlw	01h
  7614  12B3  3001               	bcf	status, 5	;RP0=0, select bank0
  7615  12B4  1283               	bcf	status, 6	;RP1=0, select bank0
  7616  12B5  1303               	addwf	(lcdPrint@i),f
  7617  12B6  07C3               	skipnc
  7618  12B7  1803               	incf	(lcdPrint@i+1),f
  7619  12B8  0AC4               	movlw	0
  7620  12B9  3000               	addwf	(lcdPrint@i+1),f
  7621  12BA  07C4               	goto	l3720
  7622  12BB  2ABC               	
  7623                           l689:	
  7624  12BC                     	
  7625                           l3720:	
  7626  12BC                     	movf	(lcdPrint@i),w
  7627  12BC  0843               	addwf	(lcdPrint@string),w
  7628  12BD  073E               	movwf	(??_lcdPrint+1)+0
  7629  12BE  00C1               	movf	(lcdPrint@string+1),w
  7630  12BF  083F               	movwf	(??_lcdPrint+0)+0
  7631  12C0  00C0               	skipnc
  7632  12C1  1803               	incf	(??_lcdPrint+0)+0,f
  7633  12C2  0AC0               	btfss	(lcdPrint@i),7
  7634  12C3  1FC3               	goto	u1990
  7635  12C4  2AC6               	decf	(??_lcdPrint+0)+0,f
  7636  12C5  03C0               u1990:
  7637  12C6                     	bcf	status, 5	;RP0=0, select bank0
  7638  12C6  1283               	bcf	status, 6	;RP1=0, select bank0
  7639  12C7  1303               	movf	(??_lcdPrint+0)+0,w
  7640  12C8  0840               	movwf	0+((??_lcdPrint+1)+0)+1
  7641  12C9  00C2               	movf	1+(??_lcdPrint+1)+0,w
  7642  12CA  0842               	movwf	btemp+1
  7643  12CB  00FF               	movf	0+(??_lcdPrint+1)+0,w
  7644  12CC  0841               	movwf	fsr0
  7645  12CD  0084               	fcall	stringtab
  7646  12CE  160A  118A  2000  160A  118A  	xorlw	0
  7647  12D3  3A00               	skipz
  7648  12D4  1D03               	goto	u2001
  7649  12D5  2AD7               	goto	u2000
  7650  12D6  2AD8               u2001:
  7651  12D7                     	goto	l3716
  7652  12D7  2A97               u2000:
  7653  12D8                     	goto	l692
  7654  12D8  2AD9               	
  7655                           l691:	
  7656  12D9                     	line	75
  7657                           	
  7658                           l692:	
  7659  12D9                     	return
  7660  12D9  0008               	opt stack 0
  7661                           GLOBAL	__end_of_lcdPrint
  7662                           	__end_of_lcdPrint:
  7663  12DA                     	signat	_lcdPrint,4217
  7664                           	global	_lcdWrite
  7665                           
  7666 ;; *************** function _lcdWrite *****************
  7667 ;; Defined at:
  7668 ;;		line 64 in file "LCD16x2.c"
  7669 ;; Parameters:    Size  Location     Type
  7670 ;;  data            1    wreg     unsigned char 
  7671 ;; Auto vars:     Size  Location     Type
  7672 ;;  data            1   12[COMMON] unsigned char 
  7673 ;; Return value:  Size  Location     Type
  7674 ;;                  1    wreg      void 
  7675 ;; Registers used:
  7676 ;;		wreg, fsr0l, fsr0h, status,2, status,0, btemp+1, pclath, cstack
  7677 ;; Tracked objects:
  7678 ;;		On entry : 0/0
  7679 ;;		On exit  : 0/0
  7680 ;;		Unchanged: 0/0
  7681 ;; Data sizes:     COMMON   BANK0   BANK1   BANK3   BANK2
  7682 ;;      Params:         0       0       0       0       0
  7683 ;;      Locals:         1       0       0       0       0
  7684 ;;      Temps:          0       0       0       0       0
  7685 ;;      Totals:         1       0       0       0       0
  7686 ;;Total ram usage:        1 bytes
  7687 ;; Hardware stack levels used:    1
  7688 ;; Hardware stack levels required when called:    3
  7689 ;; This function calls:
  7690 ;;		_WriteData
  7691 ;;		_delay
  7692 ;; This function is called by:
  7693 ;;		_setup
  7694 ;;		_lcdPrint
  7695 ;;		_PruebaLCD_Keypad
  7696 ;; This function uses a non-reentrant model
  7697 ;;
  7698                           psect	text15,local,class=CODE,delta=2,merge=1,group=0
  7699                           	line	64
  7700                           global __ptext15
  7701                           __ptext15:	;psect for function _lcdWrite
  7702  1198                     psect	text15
  7703                           	file	"LCD16x2.c"
  7704                           	line	64
  7705                           	global	__size_of_lcdWrite
  7706                           	__size_of_lcdWrite	equ	__end_of_lcdWrite-_lcdWrite
  7707  0011                     	
  7708                           _lcdWrite:	
  7709  1198                     ;incstack = 0
  7710                           	opt	stack 3
  7711                           ; Regs used in _lcdWrite: [wreg-fsr0h+status,2+status,0+btemp+1+pclath+cstack]
  7712                           ;lcdWrite@data stored from wreg
  7713                           	movwf	(lcdWrite@data)
  7714  1198  00FC               	line	66
  7715                           	
  7716                           l3450:	
  7717  1199                     ;LCD16x2.c: 64: void lcdWrite(char data);LCD16x2.c: 65: {;LCD16x2.c: 66:     delay(8);
  7718                           	movlw	08h
  7719  1199  3008               	movwf	(delay@milis)
  7720  119A  00F0               	movlw	0
  7721  119B  3000               	movwf	((delay@milis))+1
  7722  119C  00F1               	fcall	_delay
  7723  119D  120A  118A  2012  160A  118A  	line	67
  7724                           	
  7725                           l3452:	
  7726  11A2                     ;LCD16x2.c: 67:     WriteData(data);
  7727                           	movf	(lcdWrite@data),w
  7728  11A2  087C               	fcall	_WriteData
  7729  11A3  160A  118A  23A7  160A  118A  	line	68
  7730                           	
  7731                           l686:	
  7732  11A8                     	return
  7733  11A8  0008               	opt stack 0
  7734                           GLOBAL	__end_of_lcdWrite
  7735                           	__end_of_lcdWrite:
  7736  11A9                     	signat	_lcdWrite,4217
  7737                           	global	_WriteData
  7738                           
  7739 ;; *************** function _WriteData *****************
  7740 ;; Defined at:
  7741 ;;		line 148 in file "LCD16x2.c"
  7742 ;; Parameters:    Size  Location     Type
  7743 ;;  data            1    wreg     unsigned char 
  7744 ;; Auto vars:     Size  Location     Type
  7745 ;;  data            1   10[COMMON] unsigned char 
  7746 ;;  MSNibble        1   11[COMMON] unsigned char 
  7747 ;;  LSNibble        1    9[COMMON] unsigned char 
  7748 ;; Return value:  Size  Location     Type
  7749 ;;                  1    wreg      void 
  7750 ;; Registers used:
  7751 ;;		wreg, fsr0l, fsr0h, status,2, status,0, btemp+1, pclath, cstack
  7752 ;; Tracked objects:
  7753 ;;		On entry : 0/0
  7754 ;;		On exit  : 0/0
  7755 ;;		Unchanged: 0/0
  7756 ;; Data sizes:     COMMON   BANK0   BANK1   BANK3   BANK2
  7757 ;;      Params:         0       0       0       0       0
  7758 ;;      Locals:         3       0       0       0       0
  7759 ;;      Temps:          2       0       0       0       0
  7760 ;;      Totals:         5       0       0       0       0
  7761 ;;Total ram usage:        5 bytes
  7762 ;; Hardware stack levels used:    1
  7763 ;; Hardware stack levels required when called:    2
  7764 ;; This function calls:
  7765 ;;		_ByteByNibble
  7766 ;;		_delay
  7767 ;;		_digitalWrite
  7768 ;; This function is called by:
  7769 ;;		_lcdWrite
  7770 ;; This function uses a non-reentrant model
  7771 ;;
  7772                           psect	text16,local,class=CODE,delta=2,merge=1,group=0
  7773                           	line	148
  7774                           global __ptext16
  7775                           __ptext16:	;psect for function _WriteData
  7776  13A7                     psect	text16
  7777                           	file	"LCD16x2.c"
  7778                           	line	148
  7779                           	global	__size_of_WriteData
  7780                           	__size_of_WriteData	equ	__end_of_WriteData-_WriteData
  7781  0083                     	
  7782                           _WriteData:	
  7783  13A7                     ;incstack = 0
  7784                           	opt	stack 3
  7785                           ; Regs used in _WriteData: [wreg-fsr0h+status,2+status,0+btemp+1+pclath+cstack]
  7786                           ;WriteData@data stored from wreg
  7787                           	movwf	(WriteData@data)
  7788  13A7  00FA               	line	150
  7789                           	
  7790                           l3198:	
  7791  13A8                     ;LCD16x2.c: 148: void WriteData(char data);LCD16x2.c: 149: {;LCD16x2.c: 150:     char MS
                                 Nibble = 0;
  7792                           	clrf	(WriteData@MSNibble)
  7793  13A8  01FB               	line	151
  7794                           ;LCD16x2.c: 151:     char LSNibble = 0;
  7795                           	clrf	(WriteData@LSNibble)
  7796  13A9  01F9               	line	152
  7797                           	
  7798                           l3200:	
  7799  13AA                     ;LCD16x2.c: 152:     MSNibble = data & 0xF0;
  7800                           	movf	(WriteData@data),w
  7801  13AA  087A               	andlw	0F0h
  7802  13AB  39F0               	movwf	(??_WriteData+0)+0
  7803  13AC  00F7               	movf	(??_WriteData+0)+0,w
  7804  13AD  0877               	movwf	(WriteData@MSNibble)
  7805  13AE  00FB               	line	153
  7806                           	
  7807                           l3202:	
  7808  13AF                     ;LCD16x2.c: 153:     MSNibble = (MSNibble >> 4);
  7809                           	movf	(WriteData@MSNibble),w
  7810  13AF  087B               	movwf	(??_WriteData+0)+0
  7811  13B0  00F7               	movlw	04h
  7812  13B1  3004               u1605:
  7813  13B2                     	clrc
  7814  13B2  1003               	rrf	(??_WriteData+0)+0,f
  7815  13B3  0CF7               	addlw	-1
  7816  13B4  3EFF               	skipz
  7817  13B5  1D03               	goto	u1605
  7818  13B6  2BB2               	movf	0+(??_WriteData+0)+0,w
  7819  13B7  0877               	movwf	(??_WriteData+1)+0
  7820  13B8  00F8               	movf	(??_WriteData+1)+0,w
  7821  13B9  0878               	movwf	(WriteData@MSNibble)
  7822  13BA  00FB               	line	154
  7823                           	
  7824                           l3204:	
  7825  13BB                     ;LCD16x2.c: 154:     LSNibble = data & 0x0F;
  7826                           	movf	(WriteData@data),w
  7827  13BB  087A               	andlw	0Fh
  7828  13BC  390F               	movwf	(??_WriteData+0)+0
  7829  13BD  00F7               	movf	(??_WriteData+0)+0,w
  7830  13BE  0877               	movwf	(WriteData@LSNibble)
  7831  13BF  00F9               	line	155
  7832                           	
  7833                           l3206:	
  7834  13C0                     ;LCD16x2.c: 155:     ByteByNibble(MSNibble);
  7835                           	movf	(WriteData@MSNibble),w
  7836  13C0  087B               	fcall	_ByteByNibble
  7837  13C1  120A  158A  2552  160A  118A  	line	156
  7838                           	
  7839                           l3208:	
  7840  13C6                     ;LCD16x2.c: 156:     digitalWrite(RSPin,1);
  7841                           	clrf	(digitalWrite@value)
  7842  13C6  01F0               	incf	(digitalWrite@value),f
  7843  13C7  0AF0               	bcf	status, 5	;RP0=0, select bank0
  7844  13C8  1283               	bcf	status, 6	;RP1=0, select bank0
  7845  13C9  1303               	movf	(_RSPin),w
  7846  13CA  085E               	fcall	_digitalWrite
  7847  13CB  120A  158A  2306  160A  118A  	line	157
  7848                           	
  7849                           l3210:	
  7850  13D0                     ;LCD16x2.c: 157:     digitalWrite(RWPin,0);
  7851                           	clrf	(digitalWrite@value)
  7852  13D0  01F0               	bcf	status, 5	;RP0=0, select bank0
  7853  13D1  1283               	bcf	status, 6	;RP1=0, select bank0
  7854  13D2  1303               	movf	(_RWPin),w
  7855  13D3  085A               	fcall	_digitalWrite
  7856  13D4  120A  158A  2306  160A  118A  	line	158
  7857                           	
  7858                           l3212:	
  7859  13D9                     ;LCD16x2.c: 158:     digitalWrite(ENPin,1);
  7860                           	clrf	(digitalWrite@value)
  7861  13D9  01F0               	incf	(digitalWrite@value),f
  7862  13DA  0AF0               	bcf	status, 5	;RP0=0, select bank0
  7863  13DB  1283               	bcf	status, 6	;RP1=0, select bank0
  7864  13DC  1303               	movf	(_ENPin),w
  7865  13DD  085C               	fcall	_digitalWrite
  7866  13DE  120A  158A  2306  160A  118A  	line	159
  7867                           	
  7868                           l3214:	
  7869  13E3                     ;LCD16x2.c: 159:     delay(5);
  7870                           	movlw	05h
  7871  13E3  3005               	movwf	(delay@milis)
  7872  13E4  00F0               	movlw	0
  7873  13E5  3000               	movwf	((delay@milis))+1
  7874  13E6  00F1               	fcall	_delay
  7875  13E7  120A  118A  2012  160A  118A  	line	161
  7876                           	
  7877                           l3216:	
  7878  13EC                     ;LCD16x2.c: 161:     digitalWrite(ENPin,0);
  7879                           	clrf	(digitalWrite@value)
  7880  13EC  01F0               	bcf	status, 5	;RP0=0, select bank0
  7881  13ED  1283               	bcf	status, 6	;RP1=0, select bank0
  7882  13EE  1303               	movf	(_ENPin),w
  7883  13EF  085C               	fcall	_digitalWrite
  7884  13F0  120A  158A  2306  160A  118A  	line	162
  7885                           	
  7886                           l3218:	
  7887  13F5                     ;LCD16x2.c: 162:     delay(5);
  7888                           	movlw	05h
  7889  13F5  3005               	movwf	(delay@milis)
  7890  13F6  00F0               	movlw	0
  7891  13F7  3000               	movwf	((delay@milis))+1
  7892  13F8  00F1               	fcall	_delay
  7893  13F9  120A  118A  2012  160A  118A  	line	163
  7894                           	
  7895                           l3220:	
  7896  13FE                     ;LCD16x2.c: 163:     ByteByNibble(LSNibble);
  7897                           	movf	(WriteData@LSNibble),w
  7898  13FE  0879               	fcall	_ByteByNibble
  7899  13FF  120A  158A  2552  160A  118A  	line	164
  7900                           	
  7901                           l3222:	
  7902  1404                     ;LCD16x2.c: 164:     digitalWrite(ENPin,1);
  7903                           	clrf	(digitalWrite@value)
  7904  1404  01F0               	incf	(digitalWrite@value),f
  7905  1405  0AF0               	bcf	status, 5	;RP0=0, select bank0
  7906  1406  1283               	bcf	status, 6	;RP1=0, select bank0
  7907  1407  1303               	movf	(_ENPin),w
  7908  1408  085C               	fcall	_digitalWrite
  7909  1409  120A  158A  2306  160A  118A  	line	165
  7910                           	
  7911                           l3224:	
  7912  140E                     ;LCD16x2.c: 165:     delay(5);
  7913                           	movlw	05h
  7914  140E  3005               	movwf	(delay@milis)
  7915  140F  00F0               	movlw	0
  7916  1410  3000               	movwf	((delay@milis))+1
  7917  1411  00F1               	fcall	_delay
  7918  1412  120A  118A  2012  160A  118A  	line	167
  7919                           	
  7920                           l3226:	
  7921  1417                     ;LCD16x2.c: 167:     digitalWrite(ENPin,0);
  7922                           	clrf	(digitalWrite@value)
  7923  1417  01F0               	bcf	status, 5	;RP0=0, select bank0
  7924  1418  1283               	bcf	status, 6	;RP1=0, select bank0
  7925  1419  1303               	movf	(_ENPin),w
  7926  141A  085C               	fcall	_digitalWrite
  7927  141B  120A  158A  2306  160A  118A  	line	168
  7928                           	
  7929                           l3228:	
  7930  1420                     ;LCD16x2.c: 168:     delay(3);
  7931                           	movlw	03h
  7932  1420  3003               	movwf	(delay@milis)
  7933  1421  00F0               	movlw	0
  7934  1422  3000               	movwf	((delay@milis))+1
  7935  1423  00F1               	fcall	_delay
  7936  1424  120A  118A  2012  160A  118A  	line	169
  7937                           	
  7938                           l715:	
  7939  1429                     	return
  7940  1429  0008               	opt stack 0
  7941                           GLOBAL	__end_of_WriteData
  7942                           	__end_of_WriteData:
  7943  142A                     	signat	_WriteData,4217
  7944                           	global	_lcdClear
  7945                           
  7946 ;; *************** function _lcdClear *****************
  7947 ;; Defined at:
  7948 ;;		line 42 in file "LCD16x2.c"
  7949 ;; Parameters:    Size  Location     Type
  7950 ;;		None
  7951 ;; Auto vars:     Size  Location     Type
  7952 ;;		None
  7953 ;; Return value:  Size  Location     Type
  7954 ;;                  1    wreg      void 
  7955 ;; Registers used:
  7956 ;;		wreg, fsr0l, fsr0h, status,2, status,0, btemp+1, pclath, cstack
  7957 ;; Tracked objects:
  7958 ;;		On entry : 0/0
  7959 ;;		On exit  : 0/0
  7960 ;;		Unchanged: 0/0
  7961 ;; Data sizes:     COMMON   BANK0   BANK1   BANK3   BANK2
  7962 ;;      Params:         0       0       0       0       0
  7963 ;;      Locals:         0       0       0       0       0
  7964 ;;      Temps:          0       0       0       0       0
  7965 ;;      Totals:         0       0       0       0       0
  7966 ;;Total ram usage:        0 bytes
  7967 ;; Hardware stack levels used:    1
  7968 ;; Hardware stack levels required when called:    3
  7969 ;; This function calls:
  7970 ;;		_WriteInstruction
  7971 ;; This function is called by:
  7972 ;;		_setup
  7973 ;;		_loop
  7974 ;;		_PruebaLCD_Keypad
  7975 ;; This function uses a non-reentrant model
  7976 ;;
  7977                           psect	text17,local,class=CODE,delta=2,merge=1,group=0
  7978                           	line	42
  7979                           global __ptext17
  7980                           __ptext17:	;psect for function _lcdClear
  7981  1180                     psect	text17
  7982                           	file	"LCD16x2.c"
  7983                           	line	42
  7984                           	global	__size_of_lcdClear
  7985                           	__size_of_lcdClear	equ	__end_of_lcdClear-_lcdClear
  7986  0007                     	
  7987                           _lcdClear:	
  7988  1180                     ;incstack = 0
  7989                           	opt	stack 3
  7990                           ; Regs used in _lcdClear: [wreg-fsr0h+status,2+status,0+btemp+1+pclath+cstack]
  7991                           	line	44
  7992                           	
  7993                           l3698:	
  7994  1180                     ;LCD16x2.c: 44:     WriteInstruction(0x01);
  7995                           	movlw	low(01h)
  7996  1180  3001               	fcall	_WriteInstruction
  7997  1181  160A  118A  2325  160A  118A  	line	45
  7998                           	
  7999                           l676:	
  8000  1186                     	return
  8001  1186  0008               	opt stack 0
  8002                           GLOBAL	__end_of_lcdClear
  8003                           	__end_of_lcdClear:
  8004  1187                     	signat	_lcdClear,89
  8005                           	global	_WriteInstruction
  8006                           
  8007 ;; *************** function _WriteInstruction *****************
  8008 ;; Defined at:
  8009 ;;		line 125 in file "LCD16x2.c"
  8010 ;; Parameters:    Size  Location     Type
  8011 ;;  instruction     1    wreg     unsigned char 
  8012 ;; Auto vars:     Size  Location     Type
  8013 ;;  instruction     1   10[COMMON] unsigned char 
  8014 ;;  MSNibble        1   11[COMMON] unsigned char 
  8015 ;;  LSNibble        1    9[COMMON] unsigned char 
  8016 ;; Return value:  Size  Location     Type
  8017 ;;                  1    wreg      void 
  8018 ;; Registers used:
  8019 ;;		wreg, fsr0l, fsr0h, status,2, status,0, btemp+1, pclath, cstack
  8020 ;; Tracked objects:
  8021 ;;		On entry : 0/0
  8022 ;;		On exit  : 0/0
  8023 ;;		Unchanged: 0/0
  8024 ;; Data sizes:     COMMON   BANK0   BANK1   BANK3   BANK2
  8025 ;;      Params:         0       0       0       0       0
  8026 ;;      Locals:         3       0       0       0       0
  8027 ;;      Temps:          2       0       0       0       0
  8028 ;;      Totals:         5       0       0       0       0
  8029 ;;Total ram usage:        5 bytes
  8030 ;; Hardware stack levels used:    1
  8031 ;; Hardware stack levels required when called:    2
  8032 ;; This function calls:
  8033 ;;		_ByteByNibble
  8034 ;;		_delay
  8035 ;;		_digitalWrite
  8036 ;; This function is called by:
  8037 ;;		_lcdBegin
  8038 ;;		_lcdClear
  8039 ;;		_lcdSetCursor
  8040 ;; This function uses a non-reentrant model
  8041 ;;
  8042                           psect	text18,local,class=CODE,delta=2,merge=1,group=0
  8043                           	line	125
  8044                           global __ptext18
  8045                           __ptext18:	;psect for function _WriteInstruction
  8046  1325                     psect	text18
  8047                           	file	"LCD16x2.c"
  8048                           	line	125
  8049                           	global	__size_of_WriteInstruction
  8050                           	__size_of_WriteInstruction	equ	__end_of_WriteInstruction-_WriteInstruction
  8051  0082                     	
  8052                           _WriteInstruction:	
  8053  1325                     ;incstack = 0
  8054                           	opt	stack 3
  8055                           ; Regs used in _WriteInstruction: [wreg-fsr0h+status,2+status,0+btemp+1+pclath+cstack]
  8056                           ;WriteInstruction@instruction stored from wreg
  8057                           	movwf	(WriteInstruction@instruction)
  8058  1325  00FA               	line	127
  8059                           	
  8060                           l3454:	
  8061  1326                     ;LCD16x2.c: 125: void WriteInstruction(char instruction);LCD16x2.c: 126: {;LCD16x2.c: 12
                                 7:     char MSNibble = 0;
  8062                           	clrf	(WriteInstruction@MSNibble)
  8063  1326  01FB               	line	128
  8064                           ;LCD16x2.c: 128:     char LSNibble = 0;
  8065                           	clrf	(WriteInstruction@LSNibble)
  8066  1327  01F9               	line	129
  8067                           	
  8068                           l3456:	
  8069  1328                     ;LCD16x2.c: 129:     MSNibble = instruction & 0xF0;
  8070                           	movf	(WriteInstruction@instruction),w
  8071  1328  087A               	andlw	0F0h
  8072  1329  39F0               	movwf	(??_WriteInstruction+0)+0
  8073  132A  00F7               	movf	(??_WriteInstruction+0)+0,w
  8074  132B  0877               	movwf	(WriteInstruction@MSNibble)
  8075  132C  00FB               	line	130
  8076                           	
  8077                           l3458:	
  8078  132D                     ;LCD16x2.c: 130:     MSNibble = (MSNibble >> 4);
  8079                           	movf	(WriteInstruction@MSNibble),w
  8080  132D  087B               	movwf	(??_WriteInstruction+0)+0
  8081  132E  00F7               	movlw	04h
  8082  132F  3004               u1615:
  8083  1330                     	clrc
  8084  1330  1003               	rrf	(??_WriteInstruction+0)+0,f
  8085  1331  0CF7               	addlw	-1
  8086  1332  3EFF               	skipz
  8087  1333  1D03               	goto	u1615
  8088  1334  2B30               	movf	0+(??_WriteInstruction+0)+0,w
  8089  1335  0877               	movwf	(??_WriteInstruction+1)+0
  8090  1336  00F8               	movf	(??_WriteInstruction+1)+0,w
  8091  1337  0878               	movwf	(WriteInstruction@MSNibble)
  8092  1338  00FB               	line	131
  8093                           	
  8094                           l3460:	
  8095  1339                     ;LCD16x2.c: 131:     LSNibble = instruction & 0x0F;
  8096                           	movf	(WriteInstruction@instruction),w
  8097  1339  087A               	andlw	0Fh
  8098  133A  390F               	movwf	(??_WriteInstruction+0)+0
  8099  133B  00F7               	movf	(??_WriteInstruction+0)+0,w
  8100  133C  0877               	movwf	(WriteInstruction@LSNibble)
  8101  133D  00F9               	line	132
  8102                           	
  8103                           l3462:	
  8104  133E                     ;LCD16x2.c: 132:     ByteByNibble(MSNibble);
  8105                           	movf	(WriteInstruction@MSNibble),w
  8106  133E  087B               	fcall	_ByteByNibble
  8107  133F  120A  158A  2552  160A  118A  	line	133
  8108                           	
  8109                           l3464:	
  8110  1344                     ;LCD16x2.c: 133:     digitalWrite(RSPin,0);
  8111                           	clrf	(digitalWrite@value)
  8112  1344  01F0               	bcf	status, 5	;RP0=0, select bank0
  8113  1345  1283               	bcf	status, 6	;RP1=0, select bank0
  8114  1346  1303               	movf	(_RSPin),w
  8115  1347  085E               	fcall	_digitalWrite
  8116  1348  120A  158A  2306  160A  118A  	line	134
  8117                           	
  8118                           l3466:	
  8119  134D                     ;LCD16x2.c: 134:     digitalWrite(RWPin,0);
  8120                           	clrf	(digitalWrite@value)
  8121  134D  01F0               	bcf	status, 5	;RP0=0, select bank0
  8122  134E  1283               	bcf	status, 6	;RP1=0, select bank0
  8123  134F  1303               	movf	(_RWPin),w
  8124  1350  085A               	fcall	_digitalWrite
  8125  1351  120A  158A  2306  160A  118A  	line	135
  8126                           	
  8127                           l3468:	
  8128  1356                     ;LCD16x2.c: 135:     digitalWrite(ENPin,1);
  8129                           	clrf	(digitalWrite@value)
  8130  1356  01F0               	incf	(digitalWrite@value),f
  8131  1357  0AF0               	bcf	status, 5	;RP0=0, select bank0
  8132  1358  1283               	bcf	status, 6	;RP1=0, select bank0
  8133  1359  1303               	movf	(_ENPin),w
  8134  135A  085C               	fcall	_digitalWrite
  8135  135B  120A  158A  2306  160A  118A  	line	136
  8136                           	
  8137                           l3470:	
  8138  1360                     ;LCD16x2.c: 136:     delay(5);
  8139                           	movlw	05h
  8140  1360  3005               	movwf	(delay@milis)
  8141  1361  00F0               	movlw	0
  8142  1362  3000               	movwf	((delay@milis))+1
  8143  1363  00F1               	fcall	_delay
  8144  1364  120A  118A  2012  160A  118A  	line	138
  8145                           	
  8146                           l3472:	
  8147  1369                     ;LCD16x2.c: 138:     digitalWrite(ENPin,0);
  8148                           	clrf	(digitalWrite@value)
  8149  1369  01F0               	bcf	status, 5	;RP0=0, select bank0
  8150  136A  1283               	bcf	status, 6	;RP1=0, select bank0
  8151  136B  1303               	movf	(_ENPin),w
  8152  136C  085C               	fcall	_digitalWrite
  8153  136D  120A  158A  2306  160A  118A  	line	139
  8154                           	
  8155                           l3474:	
  8156  1372                     ;LCD16x2.c: 139:     delay(5);
  8157                           	movlw	05h
  8158  1372  3005               	movwf	(delay@milis)
  8159  1373  00F0               	movlw	0
  8160  1374  3000               	movwf	((delay@milis))+1
  8161  1375  00F1               	fcall	_delay
  8162  1376  120A  118A  2012  160A  118A  	line	140
  8163                           	
  8164                           l3476:	
  8165  137B                     ;LCD16x2.c: 140:     ByteByNibble(LSNibble);
  8166                           	movf	(WriteInstruction@LSNibble),w
  8167  137B  0879               	fcall	_ByteByNibble
  8168  137C  120A  158A  2552  160A  118A  	line	141
  8169                           	
  8170                           l3478:	
  8171  1381                     ;LCD16x2.c: 141:     digitalWrite(ENPin,1);
  8172                           	clrf	(digitalWrite@value)
  8173  1381  01F0               	incf	(digitalWrite@value),f
  8174  1382  0AF0               	bcf	status, 5	;RP0=0, select bank0
  8175  1383  1283               	bcf	status, 6	;RP1=0, select bank0
  8176  1384  1303               	movf	(_ENPin),w
  8177  1385  085C               	fcall	_digitalWrite
  8178  1386  120A  158A  2306  160A  118A  	line	142
  8179                           	
  8180                           l3480:	
  8181  138B                     ;LCD16x2.c: 142:     delay(5);
  8182                           	movlw	05h
  8183  138B  3005               	movwf	(delay@milis)
  8184  138C  00F0               	movlw	0
  8185  138D  3000               	movwf	((delay@milis))+1
  8186  138E  00F1               	fcall	_delay
  8187  138F  120A  118A  2012  160A  118A  	line	144
  8188                           	
  8189                           l3482:	
  8190  1394                     ;LCD16x2.c: 144:     digitalWrite(ENPin,0);
  8191                           	clrf	(digitalWrite@value)
  8192  1394  01F0               	bcf	status, 5	;RP0=0, select bank0
  8193  1395  1283               	bcf	status, 6	;RP1=0, select bank0
  8194  1396  1303               	movf	(_ENPin),w
  8195  1397  085C               	fcall	_digitalWrite
  8196  1398  120A  158A  2306  160A  118A  	line	145
  8197                           	
  8198                           l3484:	
  8199  139D                     ;LCD16x2.c: 145:     delay(3);
  8200                           	movlw	03h
  8201  139D  3003               	movwf	(delay@milis)
  8202  139E  00F0               	movlw	0
  8203  139F  3000               	movwf	((delay@milis))+1
  8204  13A0  00F1               	fcall	_delay
  8205  13A1  120A  118A  2012  160A  118A  	line	146
  8206                           	
  8207                           l712:	
  8208  13A6                     	return
  8209  13A6  0008               	opt stack 0
  8210                           GLOBAL	__end_of_WriteInstruction
  8211                           	__end_of_WriteInstruction:
  8212  13A7                     	signat	_WriteInstruction,4217
  8213                           	global	_ByteByNibble
  8214                           
  8215 ;; *************** function _ByteByNibble *****************
  8216 ;; Defined at:
  8217 ;;		line 171 in file "LCD16x2.c"
  8218 ;; Parameters:    Size  Location     Type
  8219 ;;  NibbleValue     1    wreg     unsigned char 
  8220 ;; Auto vars:     Size  Location     Type
  8221 ;;  NibbleValue     1    6[COMMON] unsigned char 
  8222 ;; Return value:  Size  Location     Type
  8223 ;;                  1    wreg      void 
  8224 ;; Registers used:
  8225 ;;		wreg, fsr0l, fsr0h, status,2, status,0, pclath, cstack
  8226 ;; Tracked objects:
  8227 ;;		On entry : 0/0
  8228 ;;		On exit  : 0/0
  8229 ;;		Unchanged: 0/0
  8230 ;; Data sizes:     COMMON   BANK0   BANK1   BANK3   BANK2
  8231 ;;      Params:         0       0       0       0       0
  8232 ;;      Locals:         1       0       0       0       0
  8233 ;;      Temps:          2       0       0       0       0
  8234 ;;      Totals:         3       0       0       0       0
  8235 ;;Total ram usage:        3 bytes
  8236 ;; Hardware stack levels used:    1
  8237 ;; Hardware stack levels required when called:    1
  8238 ;; This function calls:
  8239 ;;		_digitalWrite
  8240 ;; This function is called by:
  8241 ;;		_WriteInstruction
  8242 ;;		_WriteData
  8243 ;; This function uses a non-reentrant model
  8244 ;;
  8245                           psect	text19,local,class=CODE,delta=2,merge=1,group=0
  8246                           	line	171
  8247                           global __ptext19
  8248                           __ptext19:	;psect for function _ByteByNibble
  8249  0D52                     psect	text19
  8250                           	file	"LCD16x2.c"
  8251                           	line	171
  8252                           	global	__size_of_ByteByNibble
  8253                           	__size_of_ByteByNibble	equ	__end_of_ByteByNibble-_ByteByNibble
  8254  02AE                     	
  8255                           _ByteByNibble:	
  8256  0D52                     ;incstack = 0
  8257                           	opt	stack 3
  8258                           ; Regs used in _ByteByNibble: [wreg-fsr0h+status,2+status,0+pclath+cstack]
  8259                           ;ByteByNibble@NibbleValue stored from wreg
  8260                           	movwf	(ByteByNibble@NibbleValue)
  8261  0D52  00F6               	line	173
  8262                           	
  8263                           l3156:	
  8264  0D53                     ;LCD16x2.c: 171: void ByteByNibble(char NibbleValue);LCD16x2.c: 172: {;LCD16x2.c: 173:  
                                    switch(NibbleValue)
  8265                           	goto	l3192
  8266  0D53  2FC5               	line	175
  8267                           ;LCD16x2.c: 174:     {;LCD16x2.c: 175:         case 0x00:
  8268                           	
  8269                           l719:	
  8270  0D54                     	line	176
  8271                           	
  8272                           l3158:	
  8273  0D54                     ;LCD16x2.c: 176:             digitalWrite(d7Pin,0);
  8274                           	clrf	(digitalWrite@value)
  8275  0D54  01F0               	bcf	status, 5	;RP0=0, select bank0
  8276  0D55  1283               	bcf	status, 6	;RP1=0, select bank0
  8277  0D56  1303               	movf	(_d7Pin),w
  8278  0D57  0852               	fcall	_digitalWrite
  8279  0D58  120A  158A  2306  120A  158A  	line	177
  8280                           ;LCD16x2.c: 177:             digitalWrite(d6Pin,0);
  8281                           	clrf	(digitalWrite@value)
  8282  0D5D  01F0               	bcf	status, 5	;RP0=0, select bank0
  8283  0D5E  1283               	bcf	status, 6	;RP1=0, select bank0
  8284  0D5F  1303               	movf	(_d6Pin),w
  8285  0D60  0854               	fcall	_digitalWrite
  8286  0D61  120A  158A  2306  120A  158A  	line	178
  8287                           ;LCD16x2.c: 178:             digitalWrite(d5Pin,0);
  8288                           	clrf	(digitalWrite@value)
  8289  0D66  01F0               	bcf	status, 5	;RP0=0, select bank0
  8290  0D67  1283               	bcf	status, 6	;RP1=0, select bank0
  8291  0D68  1303               	movf	(_d5Pin),w
  8292  0D69  0856               	fcall	_digitalWrite
  8293  0D6A  120A  158A  2306  120A  158A  	line	179
  8294                           ;LCD16x2.c: 179:             digitalWrite(d4Pin,0);
  8295                           	clrf	(digitalWrite@value)
  8296  0D6F  01F0               	bcf	status, 5	;RP0=0, select bank0
  8297  0D70  1283               	bcf	status, 6	;RP1=0, select bank0
  8298  0D71  1303               	movf	(_d4Pin),w
  8299  0D72  0858               	fcall	_digitalWrite
  8300  0D73  120A  158A  2306  120A  158A  	line	180
  8301                           ;LCD16x2.c: 180:             break;
  8302                           	goto	l736
  8303  0D78  2FFF               	line	181
  8304                           ;LCD16x2.c: 181:         case 0x01:
  8305                           	
  8306                           l721:	
  8307  0D79                     	line	182
  8308                           	
  8309                           l3160:	
  8310  0D79                     ;LCD16x2.c: 182:             digitalWrite(d7Pin,0);
  8311                           	clrf	(digitalWrite@value)
  8312  0D79  01F0               	bcf	status, 5	;RP0=0, select bank0
  8313  0D7A  1283               	bcf	status, 6	;RP1=0, select bank0
  8314  0D7B  1303               	movf	(_d7Pin),w
  8315  0D7C  0852               	fcall	_digitalWrite
  8316  0D7D  120A  158A  2306  120A  158A  	line	183
  8317                           ;LCD16x2.c: 183:             digitalWrite(d6Pin,0);
  8318                           	clrf	(digitalWrite@value)
  8319  0D82  01F0               	bcf	status, 5	;RP0=0, select bank0
  8320  0D83  1283               	bcf	status, 6	;RP1=0, select bank0
  8321  0D84  1303               	movf	(_d6Pin),w
  8322  0D85  0854               	fcall	_digitalWrite
  8323  0D86  120A  158A  2306  120A  158A  	line	184
  8324                           ;LCD16x2.c: 184:             digitalWrite(d5Pin,0);
  8325                           	clrf	(digitalWrite@value)
  8326  0D8B  01F0               	bcf	status, 5	;RP0=0, select bank0
  8327  0D8C  1283               	bcf	status, 6	;RP1=0, select bank0
  8328  0D8D  1303               	movf	(_d5Pin),w
  8329  0D8E  0856               	fcall	_digitalWrite
  8330  0D8F  120A  158A  2306  120A  158A  	line	185
  8331                           ;LCD16x2.c: 185:             digitalWrite(d4Pin,1);
  8332                           	clrf	(digitalWrite@value)
  8333  0D94  01F0               	incf	(digitalWrite@value),f
  8334  0D95  0AF0               	bcf	status, 5	;RP0=0, select bank0
  8335  0D96  1283               	bcf	status, 6	;RP1=0, select bank0
  8336  0D97  1303               	movf	(_d4Pin),w
  8337  0D98  0858               	fcall	_digitalWrite
  8338  0D99  120A  158A  2306  120A  158A  	line	186
  8339                           ;LCD16x2.c: 186:             break;
  8340                           	goto	l736
  8341  0D9E  2FFF               	line	187
  8342                           ;LCD16x2.c: 187:         case 0x02:
  8343                           	
  8344                           l722:	
  8345  0D9F                     	line	188
  8346                           	
  8347                           l3162:	
  8348  0D9F                     ;LCD16x2.c: 188:             digitalWrite(d7Pin,0);
  8349                           	clrf	(digitalWrite@value)
  8350  0D9F  01F0               	bcf	status, 5	;RP0=0, select bank0
  8351  0DA0  1283               	bcf	status, 6	;RP1=0, select bank0
  8352  0DA1  1303               	movf	(_d7Pin),w
  8353  0DA2  0852               	fcall	_digitalWrite
  8354  0DA3  120A  158A  2306  120A  158A  	line	189
  8355                           ;LCD16x2.c: 189:             digitalWrite(d6Pin,0);
  8356                           	clrf	(digitalWrite@value)
  8357  0DA8  01F0               	bcf	status, 5	;RP0=0, select bank0
  8358  0DA9  1283               	bcf	status, 6	;RP1=0, select bank0
  8359  0DAA  1303               	movf	(_d6Pin),w
  8360  0DAB  0854               	fcall	_digitalWrite
  8361  0DAC  120A  158A  2306  120A  158A  	line	190
  8362                           ;LCD16x2.c: 190:             digitalWrite(d5Pin,1);
  8363                           	clrf	(digitalWrite@value)
  8364  0DB1  01F0               	incf	(digitalWrite@value),f
  8365  0DB2  0AF0               	bcf	status, 5	;RP0=0, select bank0
  8366  0DB3  1283               	bcf	status, 6	;RP1=0, select bank0
  8367  0DB4  1303               	movf	(_d5Pin),w
  8368  0DB5  0856               	fcall	_digitalWrite
  8369  0DB6  120A  158A  2306  120A  158A  	line	191
  8370                           ;LCD16x2.c: 191:             digitalWrite(d4Pin,0);
  8371                           	clrf	(digitalWrite@value)
  8372  0DBB  01F0               	bcf	status, 5	;RP0=0, select bank0
  8373  0DBC  1283               	bcf	status, 6	;RP1=0, select bank0
  8374  0DBD  1303               	movf	(_d4Pin),w
  8375  0DBE  0858               	fcall	_digitalWrite
  8376  0DBF  120A  158A  2306  120A  158A  	line	192
  8377                           ;LCD16x2.c: 192:             break;
  8378                           	goto	l736
  8379  0DC4  2FFF               	line	193
  8380                           ;LCD16x2.c: 193:         case 0x03:
  8381                           	
  8382                           l723:	
  8383  0DC5                     	line	194
  8384                           	
  8385                           l3164:	
  8386  0DC5                     ;LCD16x2.c: 194:             digitalWrite(d7Pin,0);
  8387                           	clrf	(digitalWrite@value)
  8388  0DC5  01F0               	bcf	status, 5	;RP0=0, select bank0
  8389  0DC6  1283               	bcf	status, 6	;RP1=0, select bank0
  8390  0DC7  1303               	movf	(_d7Pin),w
  8391  0DC8  0852               	fcall	_digitalWrite
  8392  0DC9  120A  158A  2306  120A  158A  	line	195
  8393                           ;LCD16x2.c: 195:             digitalWrite(d6Pin,0);
  8394                           	clrf	(digitalWrite@value)
  8395  0DCE  01F0               	bcf	status, 5	;RP0=0, select bank0
  8396  0DCF  1283               	bcf	status, 6	;RP1=0, select bank0
  8397  0DD0  1303               	movf	(_d6Pin),w
  8398  0DD1  0854               	fcall	_digitalWrite
  8399  0DD2  120A  158A  2306  120A  158A  	line	196
  8400                           ;LCD16x2.c: 196:             digitalWrite(d5Pin,1);
  8401                           	clrf	(digitalWrite@value)
  8402  0DD7  01F0               	incf	(digitalWrite@value),f
  8403  0DD8  0AF0               	bcf	status, 5	;RP0=0, select bank0
  8404  0DD9  1283               	bcf	status, 6	;RP1=0, select bank0
  8405  0DDA  1303               	movf	(_d5Pin),w
  8406  0DDB  0856               	fcall	_digitalWrite
  8407  0DDC  120A  158A  2306  120A  158A  	line	197
  8408                           ;LCD16x2.c: 197:             digitalWrite(d4Pin,1);
  8409                           	clrf	(digitalWrite@value)
  8410  0DE1  01F0               	incf	(digitalWrite@value),f
  8411  0DE2  0AF0               	bcf	status, 5	;RP0=0, select bank0
  8412  0DE3  1283               	bcf	status, 6	;RP1=0, select bank0
  8413  0DE4  1303               	movf	(_d4Pin),w
  8414  0DE5  0858               	fcall	_digitalWrite
  8415  0DE6  120A  158A  2306  120A  158A  	line	198
  8416                           ;LCD16x2.c: 198:             break;
  8417                           	goto	l736
  8418  0DEB  2FFF               	line	199
  8419                           ;LCD16x2.c: 199:         case 0x04:
  8420                           	
  8421                           l724:	
  8422  0DEC                     	line	200
  8423                           	
  8424                           l3166:	
  8425  0DEC                     ;LCD16x2.c: 200:             digitalWrite(d7Pin,0);
  8426                           	clrf	(digitalWrite@value)
  8427  0DEC  01F0               	bcf	status, 5	;RP0=0, select bank0
  8428  0DED  1283               	bcf	status, 6	;RP1=0, select bank0
  8429  0DEE  1303               	movf	(_d7Pin),w
  8430  0DEF  0852               	fcall	_digitalWrite
  8431  0DF0  120A  158A  2306  120A  158A  	line	201
  8432                           ;LCD16x2.c: 201:             digitalWrite(d6Pin,1);
  8433                           	clrf	(digitalWrite@value)
  8434  0DF5  01F0               	incf	(digitalWrite@value),f
  8435  0DF6  0AF0               	bcf	status, 5	;RP0=0, select bank0
  8436  0DF7  1283               	bcf	status, 6	;RP1=0, select bank0
  8437  0DF8  1303               	movf	(_d6Pin),w
  8438  0DF9  0854               	fcall	_digitalWrite
  8439  0DFA  120A  158A  2306  120A  158A  	line	202
  8440                           ;LCD16x2.c: 202:             digitalWrite(d5Pin,0);
  8441                           	clrf	(digitalWrite@value)
  8442  0DFF  01F0               	bcf	status, 5	;RP0=0, select bank0
  8443  0E00  1283               	bcf	status, 6	;RP1=0, select bank0
  8444  0E01  1303               	movf	(_d5Pin),w
  8445  0E02  0856               	fcall	_digitalWrite
  8446  0E03  120A  158A  2306  120A  158A  	line	203
  8447                           ;LCD16x2.c: 203:             digitalWrite(d4Pin,0);
  8448                           	clrf	(digitalWrite@value)
  8449  0E08  01F0               	bcf	status, 5	;RP0=0, select bank0
  8450  0E09  1283               	bcf	status, 6	;RP1=0, select bank0
  8451  0E0A  1303               	movf	(_d4Pin),w
  8452  0E0B  0858               	fcall	_digitalWrite
  8453  0E0C  120A  158A  2306  120A  158A  	line	204
  8454                           ;LCD16x2.c: 204:             break;
  8455                           	goto	l736
  8456  0E11  2FFF               	line	205
  8457                           ;LCD16x2.c: 205:         case 0x05:
  8458                           	
  8459                           l725:	
  8460  0E12                     	line	206
  8461                           	
  8462                           l3168:	
  8463  0E12                     ;LCD16x2.c: 206:             digitalWrite(d7Pin,0);
  8464                           	clrf	(digitalWrite@value)
  8465  0E12  01F0               	bcf	status, 5	;RP0=0, select bank0
  8466  0E13  1283               	bcf	status, 6	;RP1=0, select bank0
  8467  0E14  1303               	movf	(_d7Pin),w
  8468  0E15  0852               	fcall	_digitalWrite
  8469  0E16  120A  158A  2306  120A  158A  	line	207
  8470                           ;LCD16x2.c: 207:             digitalWrite(d6Pin,1);
  8471                           	clrf	(digitalWrite@value)
  8472  0E1B  01F0               	incf	(digitalWrite@value),f
  8473  0E1C  0AF0               	bcf	status, 5	;RP0=0, select bank0
  8474  0E1D  1283               	bcf	status, 6	;RP1=0, select bank0
  8475  0E1E  1303               	movf	(_d6Pin),w
  8476  0E1F  0854               	fcall	_digitalWrite
  8477  0E20  120A  158A  2306  120A  158A  	line	208
  8478                           ;LCD16x2.c: 208:             digitalWrite(d5Pin,0);
  8479                           	clrf	(digitalWrite@value)
  8480  0E25  01F0               	bcf	status, 5	;RP0=0, select bank0
  8481  0E26  1283               	bcf	status, 6	;RP1=0, select bank0
  8482  0E27  1303               	movf	(_d5Pin),w
  8483  0E28  0856               	fcall	_digitalWrite
  8484  0E29  120A  158A  2306  120A  158A  	line	209
  8485                           ;LCD16x2.c: 209:             digitalWrite(d4Pin,1);
  8486                           	clrf	(digitalWrite@value)
  8487  0E2E  01F0               	incf	(digitalWrite@value),f
  8488  0E2F  0AF0               	bcf	status, 5	;RP0=0, select bank0
  8489  0E30  1283               	bcf	status, 6	;RP1=0, select bank0
  8490  0E31  1303               	movf	(_d4Pin),w
  8491  0E32  0858               	fcall	_digitalWrite
  8492  0E33  120A  158A  2306  120A  158A  	line	210
  8493                           ;LCD16x2.c: 210:             break;
  8494                           	goto	l736
  8495  0E38  2FFF               	line	211
  8496                           ;LCD16x2.c: 211:         case 0x06:
  8497                           	
  8498                           l726:	
  8499  0E39                     	line	212
  8500                           	
  8501                           l3170:	
  8502  0E39                     ;LCD16x2.c: 212:             digitalWrite(d7Pin,0);
  8503                           	clrf	(digitalWrite@value)
  8504  0E39  01F0               	bcf	status, 5	;RP0=0, select bank0
  8505  0E3A  1283               	bcf	status, 6	;RP1=0, select bank0
  8506  0E3B  1303               	movf	(_d7Pin),w
  8507  0E3C  0852               	fcall	_digitalWrite
  8508  0E3D  120A  158A  2306  120A  158A  	line	213
  8509                           ;LCD16x2.c: 213:             digitalWrite(d6Pin,1);
  8510                           	clrf	(digitalWrite@value)
  8511  0E42  01F0               	incf	(digitalWrite@value),f
  8512  0E43  0AF0               	bcf	status, 5	;RP0=0, select bank0
  8513  0E44  1283               	bcf	status, 6	;RP1=0, select bank0
  8514  0E45  1303               	movf	(_d6Pin),w
  8515  0E46  0854               	fcall	_digitalWrite
  8516  0E47  120A  158A  2306  120A  158A  	line	214
  8517                           ;LCD16x2.c: 214:             digitalWrite(d5Pin,1);
  8518                           	clrf	(digitalWrite@value)
  8519  0E4C  01F0               	incf	(digitalWrite@value),f
  8520  0E4D  0AF0               	bcf	status, 5	;RP0=0, select bank0
  8521  0E4E  1283               	bcf	status, 6	;RP1=0, select bank0
  8522  0E4F  1303               	movf	(_d5Pin),w
  8523  0E50  0856               	fcall	_digitalWrite
  8524  0E51  120A  158A  2306  120A  158A  	line	215
  8525                           ;LCD16x2.c: 215:             digitalWrite(d4Pin,0);
  8526                           	clrf	(digitalWrite@value)
  8527  0E56  01F0               	bcf	status, 5	;RP0=0, select bank0
  8528  0E57  1283               	bcf	status, 6	;RP1=0, select bank0
  8529  0E58  1303               	movf	(_d4Pin),w
  8530  0E59  0858               	fcall	_digitalWrite
  8531  0E5A  120A  158A  2306  120A  158A  	line	216
  8532                           ;LCD16x2.c: 216:             break;
  8533                           	goto	l736
  8534  0E5F  2FFF               	line	217
  8535                           ;LCD16x2.c: 217:         case 0x07:
  8536                           	
  8537                           l727:	
  8538  0E60                     	line	218
  8539                           	
  8540                           l3172:	
  8541  0E60                     ;LCD16x2.c: 218:             digitalWrite(d7Pin,0);
  8542                           	clrf	(digitalWrite@value)
  8543  0E60  01F0               	bcf	status, 5	;RP0=0, select bank0
  8544  0E61  1283               	bcf	status, 6	;RP1=0, select bank0
  8545  0E62  1303               	movf	(_d7Pin),w
  8546  0E63  0852               	fcall	_digitalWrite
  8547  0E64  120A  158A  2306  120A  158A  	line	219
  8548                           ;LCD16x2.c: 219:             digitalWrite(d6Pin,1);
  8549                           	clrf	(digitalWrite@value)
  8550  0E69  01F0               	incf	(digitalWrite@value),f
  8551  0E6A  0AF0               	bcf	status, 5	;RP0=0, select bank0
  8552  0E6B  1283               	bcf	status, 6	;RP1=0, select bank0
  8553  0E6C  1303               	movf	(_d6Pin),w
  8554  0E6D  0854               	fcall	_digitalWrite
  8555  0E6E  120A  158A  2306  120A  158A  	line	220
  8556                           ;LCD16x2.c: 220:             digitalWrite(d5Pin,1);
  8557                           	clrf	(digitalWrite@value)
  8558  0E73  01F0               	incf	(digitalWrite@value),f
  8559  0E74  0AF0               	bcf	status, 5	;RP0=0, select bank0
  8560  0E75  1283               	bcf	status, 6	;RP1=0, select bank0
  8561  0E76  1303               	movf	(_d5Pin),w
  8562  0E77  0856               	fcall	_digitalWrite
  8563  0E78  120A  158A  2306  120A  158A  	line	221
  8564                           ;LCD16x2.c: 221:             digitalWrite(d4Pin,1);
  8565                           	clrf	(digitalWrite@value)
  8566  0E7D  01F0               	incf	(digitalWrite@value),f
  8567  0E7E  0AF0               	bcf	status, 5	;RP0=0, select bank0
  8568  0E7F  1283               	bcf	status, 6	;RP1=0, select bank0
  8569  0E80  1303               	movf	(_d4Pin),w
  8570  0E81  0858               	fcall	_digitalWrite
  8571  0E82  120A  158A  2306  120A  158A  	line	222
  8572                           ;LCD16x2.c: 222:             break;
  8573                           	goto	l736
  8574  0E87  2FFF               	line	223
  8575                           ;LCD16x2.c: 223:         case 0x08:
  8576                           	
  8577                           l728:	
  8578  0E88                     	line	224
  8579                           	
  8580                           l3174:	
  8581  0E88                     ;LCD16x2.c: 224:             digitalWrite(d7Pin,1);
  8582                           	clrf	(digitalWrite@value)
  8583  0E88  01F0               	incf	(digitalWrite@value),f
  8584  0E89  0AF0               	bcf	status, 5	;RP0=0, select bank0
  8585  0E8A  1283               	bcf	status, 6	;RP1=0, select bank0
  8586  0E8B  1303               	movf	(_d7Pin),w
  8587  0E8C  0852               	fcall	_digitalWrite
  8588  0E8D  120A  158A  2306  120A  158A  	line	225
  8589                           ;LCD16x2.c: 225:             digitalWrite(d6Pin,0);
  8590                           	clrf	(digitalWrite@value)
  8591  0E92  01F0               	bcf	status, 5	;RP0=0, select bank0
  8592  0E93  1283               	bcf	status, 6	;RP1=0, select bank0
  8593  0E94  1303               	movf	(_d6Pin),w
  8594  0E95  0854               	fcall	_digitalWrite
  8595  0E96  120A  158A  2306  120A  158A  	line	226
  8596                           ;LCD16x2.c: 226:             digitalWrite(d5Pin,0);
  8597                           	clrf	(digitalWrite@value)
  8598  0E9B  01F0               	bcf	status, 5	;RP0=0, select bank0
  8599  0E9C  1283               	bcf	status, 6	;RP1=0, select bank0
  8600  0E9D  1303               	movf	(_d5Pin),w
  8601  0E9E  0856               	fcall	_digitalWrite
  8602  0E9F  120A  158A  2306  120A  158A  	line	227
  8603                           ;LCD16x2.c: 227:             digitalWrite(d4Pin,0);
  8604                           	clrf	(digitalWrite@value)
  8605  0EA4  01F0               	bcf	status, 5	;RP0=0, select bank0
  8606  0EA5  1283               	bcf	status, 6	;RP1=0, select bank0
  8607  0EA6  1303               	movf	(_d4Pin),w
  8608  0EA7  0858               	fcall	_digitalWrite
  8609  0EA8  120A  158A  2306  120A  158A  	line	228
  8610                           ;LCD16x2.c: 228:             break;
  8611                           	goto	l736
  8612  0EAD  2FFF               	line	229
  8613                           ;LCD16x2.c: 229:         case 0x09:
  8614                           	
  8615                           l729:	
  8616  0EAE                     	line	230
  8617                           	
  8618                           l3176:	
  8619  0EAE                     ;LCD16x2.c: 230:             digitalWrite(d7Pin,1);
  8620                           	clrf	(digitalWrite@value)
  8621  0EAE  01F0               	incf	(digitalWrite@value),f
  8622  0EAF  0AF0               	bcf	status, 5	;RP0=0, select bank0
  8623  0EB0  1283               	bcf	status, 6	;RP1=0, select bank0
  8624  0EB1  1303               	movf	(_d7Pin),w
  8625  0EB2  0852               	fcall	_digitalWrite
  8626  0EB3  120A  158A  2306  120A  158A  	line	231
  8627                           ;LCD16x2.c: 231:             digitalWrite(d6Pin,0);
  8628                           	clrf	(digitalWrite@value)
  8629  0EB8  01F0               	bcf	status, 5	;RP0=0, select bank0
  8630  0EB9  1283               	bcf	status, 6	;RP1=0, select bank0
  8631  0EBA  1303               	movf	(_d6Pin),w
  8632  0EBB  0854               	fcall	_digitalWrite
  8633  0EBC  120A  158A  2306  120A  158A  	line	232
  8634                           ;LCD16x2.c: 232:             digitalWrite(d5Pin,0);
  8635                           	clrf	(digitalWrite@value)
  8636  0EC1  01F0               	bcf	status, 5	;RP0=0, select bank0
  8637  0EC2  1283               	bcf	status, 6	;RP1=0, select bank0
  8638  0EC3  1303               	movf	(_d5Pin),w
  8639  0EC4  0856               	fcall	_digitalWrite
  8640  0EC5  120A  158A  2306  120A  158A  	line	233
  8641                           ;LCD16x2.c: 233:             digitalWrite(d4Pin,1);
  8642                           	clrf	(digitalWrite@value)
  8643  0ECA  01F0               	incf	(digitalWrite@value),f
  8644  0ECB  0AF0               	bcf	status, 5	;RP0=0, select bank0
  8645  0ECC  1283               	bcf	status, 6	;RP1=0, select bank0
  8646  0ECD  1303               	movf	(_d4Pin),w
  8647  0ECE  0858               	fcall	_digitalWrite
  8648  0ECF  120A  158A  2306  120A  158A  	line	234
  8649                           ;LCD16x2.c: 234:             break;
  8650                           	goto	l736
  8651  0ED4  2FFF               	line	235
  8652                           ;LCD16x2.c: 235:         case 0x0A:
  8653                           	
  8654                           l730:	
  8655  0ED5                     	line	236
  8656                           	
  8657                           l3178:	
  8658  0ED5                     ;LCD16x2.c: 236:             digitalWrite(d7Pin,1);
  8659                           	clrf	(digitalWrite@value)
  8660  0ED5  01F0               	incf	(digitalWrite@value),f
  8661  0ED6  0AF0               	bcf	status, 5	;RP0=0, select bank0
  8662  0ED7  1283               	bcf	status, 6	;RP1=0, select bank0
  8663  0ED8  1303               	movf	(_d7Pin),w
  8664  0ED9  0852               	fcall	_digitalWrite
  8665  0EDA  120A  158A  2306  120A  158A  	line	237
  8666                           ;LCD16x2.c: 237:             digitalWrite(d6Pin,0);
  8667                           	clrf	(digitalWrite@value)
  8668  0EDF  01F0               	bcf	status, 5	;RP0=0, select bank0
  8669  0EE0  1283               	bcf	status, 6	;RP1=0, select bank0
  8670  0EE1  1303               	movf	(_d6Pin),w
  8671  0EE2  0854               	fcall	_digitalWrite
  8672  0EE3  120A  158A  2306  120A  158A  	line	238
  8673                           ;LCD16x2.c: 238:             digitalWrite(d5Pin,1);
  8674                           	clrf	(digitalWrite@value)
  8675  0EE8  01F0               	incf	(digitalWrite@value),f
  8676  0EE9  0AF0               	bcf	status, 5	;RP0=0, select bank0
  8677  0EEA  1283               	bcf	status, 6	;RP1=0, select bank0
  8678  0EEB  1303               	movf	(_d5Pin),w
  8679  0EEC  0856               	fcall	_digitalWrite
  8680  0EED  120A  158A  2306  120A  158A  	line	239
  8681                           ;LCD16x2.c: 239:             digitalWrite(d4Pin,0);
  8682                           	clrf	(digitalWrite@value)
  8683  0EF2  01F0               	bcf	status, 5	;RP0=0, select bank0
  8684  0EF3  1283               	bcf	status, 6	;RP1=0, select bank0
  8685  0EF4  1303               	movf	(_d4Pin),w
  8686  0EF5  0858               	fcall	_digitalWrite
  8687  0EF6  120A  158A  2306  120A  158A  	line	240
  8688                           ;LCD16x2.c: 240:             break;
  8689                           	goto	l736
  8690  0EFB  2FFF               	line	241
  8691                           ;LCD16x2.c: 241:         case 0x0B:
  8692                           	
  8693                           l731:	
  8694  0EFC                     	line	242
  8695                           	
  8696                           l3180:	
  8697  0EFC                     ;LCD16x2.c: 242:             digitalWrite(d7Pin,1);
  8698                           	clrf	(digitalWrite@value)
  8699  0EFC  01F0               	incf	(digitalWrite@value),f
  8700  0EFD  0AF0               	bcf	status, 5	;RP0=0, select bank0
  8701  0EFE  1283               	bcf	status, 6	;RP1=0, select bank0
  8702  0EFF  1303               	movf	(_d7Pin),w
  8703  0F00  0852               	fcall	_digitalWrite
  8704  0F01  120A  158A  2306  120A  158A  	line	243
  8705                           ;LCD16x2.c: 243:             digitalWrite(d6Pin,0);
  8706                           	clrf	(digitalWrite@value)
  8707  0F06  01F0               	bcf	status, 5	;RP0=0, select bank0
  8708  0F07  1283               	bcf	status, 6	;RP1=0, select bank0
  8709  0F08  1303               	movf	(_d6Pin),w
  8710  0F09  0854               	fcall	_digitalWrite
  8711  0F0A  120A  158A  2306  120A  158A  	line	244
  8712                           ;LCD16x2.c: 244:             digitalWrite(d5Pin,1);
  8713                           	clrf	(digitalWrite@value)
  8714  0F0F  01F0               	incf	(digitalWrite@value),f
  8715  0F10  0AF0               	bcf	status, 5	;RP0=0, select bank0
  8716  0F11  1283               	bcf	status, 6	;RP1=0, select bank0
  8717  0F12  1303               	movf	(_d5Pin),w
  8718  0F13  0856               	fcall	_digitalWrite
  8719  0F14  120A  158A  2306  120A  158A  	line	245
  8720                           ;LCD16x2.c: 245:             digitalWrite(d4Pin,1);
  8721                           	clrf	(digitalWrite@value)
  8722  0F19  01F0               	incf	(digitalWrite@value),f
  8723  0F1A  0AF0               	bcf	status, 5	;RP0=0, select bank0
  8724  0F1B  1283               	bcf	status, 6	;RP1=0, select bank0
  8725  0F1C  1303               	movf	(_d4Pin),w
  8726  0F1D  0858               	fcall	_digitalWrite
  8727  0F1E  120A  158A  2306  120A  158A  	line	246
  8728                           ;LCD16x2.c: 246:             break;
  8729                           	goto	l736
  8730  0F23  2FFF               	line	247
  8731                           ;LCD16x2.c: 247:         case 0x0C:
  8732                           	
  8733                           l732:	
  8734  0F24                     	line	248
  8735                           	
  8736                           l3182:	
  8737  0F24                     ;LCD16x2.c: 248:             digitalWrite(d7Pin,1);
  8738                           	clrf	(digitalWrite@value)
  8739  0F24  01F0               	incf	(digitalWrite@value),f
  8740  0F25  0AF0               	bcf	status, 5	;RP0=0, select bank0
  8741  0F26  1283               	bcf	status, 6	;RP1=0, select bank0
  8742  0F27  1303               	movf	(_d7Pin),w
  8743  0F28  0852               	fcall	_digitalWrite
  8744  0F29  120A  158A  2306  120A  158A  	line	249
  8745                           ;LCD16x2.c: 249:             digitalWrite(d6Pin,1);
  8746                           	clrf	(digitalWrite@value)
  8747  0F2E  01F0               	incf	(digitalWrite@value),f
  8748  0F2F  0AF0               	bcf	status, 5	;RP0=0, select bank0
  8749  0F30  1283               	bcf	status, 6	;RP1=0, select bank0
  8750  0F31  1303               	movf	(_d6Pin),w
  8751  0F32  0854               	fcall	_digitalWrite
  8752  0F33  120A  158A  2306  120A  158A  	line	250
  8753                           ;LCD16x2.c: 250:             digitalWrite(d5Pin,0);
  8754                           	clrf	(digitalWrite@value)
  8755  0F38  01F0               	bcf	status, 5	;RP0=0, select bank0
  8756  0F39  1283               	bcf	status, 6	;RP1=0, select bank0
  8757  0F3A  1303               	movf	(_d5Pin),w
  8758  0F3B  0856               	fcall	_digitalWrite
  8759  0F3C  120A  158A  2306  120A  158A  	line	251
  8760                           ;LCD16x2.c: 251:             digitalWrite(d4Pin,0);
  8761                           	clrf	(digitalWrite@value)
  8762  0F41  01F0               	bcf	status, 5	;RP0=0, select bank0
  8763  0F42  1283               	bcf	status, 6	;RP1=0, select bank0
  8764  0F43  1303               	movf	(_d4Pin),w
  8765  0F44  0858               	fcall	_digitalWrite
  8766  0F45  120A  158A  2306  120A  158A  	line	252
  8767                           ;LCD16x2.c: 252:             break;
  8768                           	goto	l736
  8769  0F4A  2FFF               	line	253
  8770                           ;LCD16x2.c: 253:         case 0x0D:
  8771                           	
  8772                           l733:	
  8773  0F4B                     	line	254
  8774                           	
  8775                           l3184:	
  8776  0F4B                     ;LCD16x2.c: 254:             digitalWrite(d7Pin,1);
  8777                           	clrf	(digitalWrite@value)
  8778  0F4B  01F0               	incf	(digitalWrite@value),f
  8779  0F4C  0AF0               	bcf	status, 5	;RP0=0, select bank0
  8780  0F4D  1283               	bcf	status, 6	;RP1=0, select bank0
  8781  0F4E  1303               	movf	(_d7Pin),w
  8782  0F4F  0852               	fcall	_digitalWrite
  8783  0F50  120A  158A  2306  120A  158A  	line	255
  8784                           ;LCD16x2.c: 255:             digitalWrite(d6Pin,1);
  8785                           	clrf	(digitalWrite@value)
  8786  0F55  01F0               	incf	(digitalWrite@value),f
  8787  0F56  0AF0               	bcf	status, 5	;RP0=0, select bank0
  8788  0F57  1283               	bcf	status, 6	;RP1=0, select bank0
  8789  0F58  1303               	movf	(_d6Pin),w
  8790  0F59  0854               	fcall	_digitalWrite
  8791  0F5A  120A  158A  2306  120A  158A  	line	256
  8792                           ;LCD16x2.c: 256:             digitalWrite(d5Pin,0);
  8793                           	clrf	(digitalWrite@value)
  8794  0F5F  01F0               	bcf	status, 5	;RP0=0, select bank0
  8795  0F60  1283               	bcf	status, 6	;RP1=0, select bank0
  8796  0F61  1303               	movf	(_d5Pin),w
  8797  0F62  0856               	fcall	_digitalWrite
  8798  0F63  120A  158A  2306  120A  158A  	line	257
  8799                           ;LCD16x2.c: 257:             digitalWrite(d4Pin,1);
  8800                           	clrf	(digitalWrite@value)
  8801  0F68  01F0               	incf	(digitalWrite@value),f
  8802  0F69  0AF0               	bcf	status, 5	;RP0=0, select bank0
  8803  0F6A  1283               	bcf	status, 6	;RP1=0, select bank0
  8804  0F6B  1303               	movf	(_d4Pin),w
  8805  0F6C  0858               	fcall	_digitalWrite
  8806  0F6D  120A  158A  2306  120A  158A  	line	258
  8807                           ;LCD16x2.c: 258:             break;
  8808                           	goto	l736
  8809  0F72  2FFF               	line	259
  8810                           ;LCD16x2.c: 259:         case 0x0E:
  8811                           	
  8812                           l734:	
  8813  0F73                     	line	260
  8814                           	
  8815                           l3186:	
  8816  0F73                     ;LCD16x2.c: 260:             digitalWrite(d7Pin,1);
  8817                           	clrf	(digitalWrite@value)
  8818  0F73  01F0               	incf	(digitalWrite@value),f
  8819  0F74  0AF0               	bcf	status, 5	;RP0=0, select bank0
  8820  0F75  1283               	bcf	status, 6	;RP1=0, select bank0
  8821  0F76  1303               	movf	(_d7Pin),w
  8822  0F77  0852               	fcall	_digitalWrite
  8823  0F78  120A  158A  2306  120A  158A  	line	261
  8824                           ;LCD16x2.c: 261:             digitalWrite(d6Pin,1);
  8825                           	clrf	(digitalWrite@value)
  8826  0F7D  01F0               	incf	(digitalWrite@value),f
  8827  0F7E  0AF0               	bcf	status, 5	;RP0=0, select bank0
  8828  0F7F  1283               	bcf	status, 6	;RP1=0, select bank0
  8829  0F80  1303               	movf	(_d6Pin),w
  8830  0F81  0854               	fcall	_digitalWrite
  8831  0F82  120A  158A  2306  120A  158A  	line	262
  8832                           ;LCD16x2.c: 262:             digitalWrite(d5Pin,1);
  8833                           	clrf	(digitalWrite@value)
  8834  0F87  01F0               	incf	(digitalWrite@value),f
  8835  0F88  0AF0               	bcf	status, 5	;RP0=0, select bank0
  8836  0F89  1283               	bcf	status, 6	;RP1=0, select bank0
  8837  0F8A  1303               	movf	(_d5Pin),w
  8838  0F8B  0856               	fcall	_digitalWrite
  8839  0F8C  120A  158A  2306  120A  158A  	line	263
  8840                           ;LCD16x2.c: 263:             digitalWrite(d4Pin,0);
  8841                           	clrf	(digitalWrite@value)
  8842  0F91  01F0               	bcf	status, 5	;RP0=0, select bank0
  8843  0F92  1283               	bcf	status, 6	;RP1=0, select bank0
  8844  0F93  1303               	movf	(_d4Pin),w
  8845  0F94  0858               	fcall	_digitalWrite
  8846  0F95  120A  158A  2306  120A  158A  	line	264
  8847                           ;LCD16x2.c: 264:             break;
  8848                           	goto	l736
  8849  0F9A  2FFF               	line	265
  8850                           ;LCD16x2.c: 265:         case 0x0F:
  8851                           	
  8852                           l735:	
  8853  0F9B                     	line	266
  8854                           	
  8855                           l3188:	
  8856  0F9B                     ;LCD16x2.c: 266:             digitalWrite(d7Pin,1);
  8857                           	clrf	(digitalWrite@value)
  8858  0F9B  01F0               	incf	(digitalWrite@value),f
  8859  0F9C  0AF0               	bcf	status, 5	;RP0=0, select bank0
  8860  0F9D  1283               	bcf	status, 6	;RP1=0, select bank0
  8861  0F9E  1303               	movf	(_d7Pin),w
  8862  0F9F  0852               	fcall	_digitalWrite
  8863  0FA0  120A  158A  2306  120A  158A  	line	267
  8864                           ;LCD16x2.c: 267:             digitalWrite(d6Pin,1);
  8865                           	clrf	(digitalWrite@value)
  8866  0FA5  01F0               	incf	(digitalWrite@value),f
  8867  0FA6  0AF0               	bcf	status, 5	;RP0=0, select bank0
  8868  0FA7  1283               	bcf	status, 6	;RP1=0, select bank0
  8869  0FA8  1303               	movf	(_d6Pin),w
  8870  0FA9  0854               	fcall	_digitalWrite
  8871  0FAA  120A  158A  2306  120A  158A  	line	268
  8872                           ;LCD16x2.c: 268:             digitalWrite(d5Pin,1);
  8873                           	clrf	(digitalWrite@value)
  8874  0FAF  01F0               	incf	(digitalWrite@value),f
  8875  0FB0  0AF0               	bcf	status, 5	;RP0=0, select bank0
  8876  0FB1  1283               	bcf	status, 6	;RP1=0, select bank0
  8877  0FB2  1303               	movf	(_d5Pin),w
  8878  0FB3  0856               	fcall	_digitalWrite
  8879  0FB4  120A  158A  2306  120A  158A  	line	269
  8880                           ;LCD16x2.c: 269:             digitalWrite(d4Pin,1);
  8881                           	clrf	(digitalWrite@value)
  8882  0FB9  01F0               	incf	(digitalWrite@value),f
  8883  0FBA  0AF0               	bcf	status, 5	;RP0=0, select bank0
  8884  0FBB  1283               	bcf	status, 6	;RP1=0, select bank0
  8885  0FBC  1303               	movf	(_d4Pin),w
  8886  0FBD  0858               	fcall	_digitalWrite
  8887  0FBE  120A  158A  2306  120A  158A  	line	270
  8888                           ;LCD16x2.c: 270:             break;
  8889                           	goto	l736
  8890  0FC3  2FFF               	line	271
  8891                           	
  8892                           l3190:	
  8893  0FC4                     ;LCD16x2.c: 271:     }
  8894                           	goto	l736
  8895  0FC4  2FFF               	
  8896                           l718:	
  8897  0FC5                     	
  8898                           l3192:	
  8899  0FC5                     	movf	(ByteByNibble@NibbleValue),w
  8900  0FC5  0876               	movwf	(??_ByteByNibble+0)+0
  8901  0FC6  00F4               	clrf	(??_ByteByNibble+0)+0+1
  8902  0FC7  01F5               	; Switch on 2 bytes has been partitioned into a top level switch of size 1, and 1 sub-s
                                 witches
  8903                           ; Switch size 1, requested type "space"
  8904                           ; Number of cases is 1, Range of values is 0 to 0
  8905                           ; switch strategies available:
  8906                           ; Name         Instructions Cycles
  8907                           ; simple_byte            4     3 (average)
  8908                           ; direct_byte           11     8 (fixed)
  8909                           ; jumptable            260     6 (fixed)
  8910                           ;	Chosen strategy is simple_byte
  8911                           
  8912                           	movf 1+(??_ByteByNibble+0)+0,w
  8913  0FC8  0875               	opt asmopt_push
  8914                           	opt asmopt_off
  8915                           	xorlw	0^0	; case 0
  8916  0FC9  3A00               	skipnz
  8917  0FCA  1903               	goto	l4526
  8918  0FCB  2FCD               	goto	l736
  8919  0FCC  2FFF               	opt asmopt_pop
  8920                           	
  8921                           l4526:	
  8922  0FCD                     ; Switch size 1, requested type "space"
  8923                           ; Number of cases is 16, Range of values is 0 to 15
  8924                           ; switch strategies available:
  8925                           ; Name         Instructions Cycles
  8926                           ; simple_byte           49    25 (average)
  8927                           ; direct_byte           56     8 (fixed)
  8928                           ; jumptable            260     6 (fixed)
  8929                           ;	Chosen strategy is simple_byte
  8930                           
  8931                           	movf 0+(??_ByteByNibble+0)+0,w
  8932  0FCD  0874               	opt asmopt_push
  8933                           	opt asmopt_off
  8934                           	xorlw	0^0	; case 0
  8935  0FCE  3A00               	skipnz
  8936  0FCF  1903               	goto	l3158
  8937  0FD0  2D54               	xorlw	1^0	; case 1
  8938  0FD1  3A01               	skipnz
  8939  0FD2  1903               	goto	l3160
  8940  0FD3  2D79               	xorlw	2^1	; case 2
  8941  0FD4  3A03               	skipnz
  8942  0FD5  1903               	goto	l3162
  8943  0FD6  2D9F               	xorlw	3^2	; case 3
  8944  0FD7  3A01               	skipnz
  8945  0FD8  1903               	goto	l3164
  8946  0FD9  2DC5               	xorlw	4^3	; case 4
  8947  0FDA  3A07               	skipnz
  8948  0FDB  1903               	goto	l3166
  8949  0FDC  2DEC               	xorlw	5^4	; case 5
  8950  0FDD  3A01               	skipnz
  8951  0FDE  1903               	goto	l3168
  8952  0FDF  2E12               	xorlw	6^5	; case 6
  8953  0FE0  3A03               	skipnz
  8954  0FE1  1903               	goto	l3170
  8955  0FE2  2E39               	xorlw	7^6	; case 7
  8956  0FE3  3A01               	skipnz
  8957  0FE4  1903               	goto	l3172
  8958  0FE5  2E60               	xorlw	8^7	; case 8
  8959  0FE6  3A0F               	skipnz
  8960  0FE7  1903               	goto	l3174
  8961  0FE8  2E88               	xorlw	9^8	; case 9
  8962  0FE9  3A01               	skipnz
  8963  0FEA  1903               	goto	l3176
  8964  0FEB  2EAE               	xorlw	10^9	; case 10
  8965  0FEC  3A03               	skipnz
  8966  0FED  1903               	goto	l3178
  8967  0FEE  2ED5               	xorlw	11^10	; case 11
  8968  0FEF  3A01               	skipnz
  8969  0FF0  1903               	goto	l3180
  8970  0FF1  2EFC               	xorlw	12^11	; case 12
  8971  0FF2  3A07               	skipnz
  8972  0FF3  1903               	goto	l3182
  8973  0FF4  2F24               	xorlw	13^12	; case 13
  8974  0FF5  3A01               	skipnz
  8975  0FF6  1903               	goto	l3184
  8976  0FF7  2F4B               	xorlw	14^13	; case 14
  8977  0FF8  3A03               	skipnz
  8978  0FF9  1903               	goto	l3186
  8979  0FFA  2F73               	xorlw	15^14	; case 15
  8980  0FFB  3A01               	skipnz
  8981  0FFC  1903               	goto	l3188
  8982  0FFD  2F9B               	goto	l736
  8983  0FFE  2FFF               	opt asmopt_pop
  8984                           
  8985                           	
  8986                           l720:	
  8987  0FFF                     	line	272
  8988                           	
  8989                           l736:	
  8990  0FFF                     	return
  8991  0FFF  0008               	opt stack 0
  8992                           GLOBAL	__end_of_ByteByNibble
  8993                           	__end_of_ByteByNibble:
  8994  1000                     	signat	_ByteByNibble,4217
  8995                           	global	___bmul
  8996                           
  8997 ;; *************** function ___bmul *****************
  8998 ;; Defined at:
  8999 ;;		line 4 in file "C:\Program Files (x86)\Microchip\xc8\v2.00\pic\sources\c90\common\Umul8.c"
  9000 ;; Parameters:    Size  Location     Type
  9001 ;;  multiplier      1    wreg     unsigned char 
  9002 ;;  multiplicand    1    0[COMMON] unsigned char 
  9003 ;; Auto vars:     Size  Location     Type
  9004 ;;  multiplier      1    3[COMMON] unsigned char 
  9005 ;;  product         1    2[COMMON] unsigned char 
  9006 ;; Return value:  Size  Location     Type
  9007 ;;                  1    wreg      unsigned char 
  9008 ;; Registers used:
  9009 ;;		wreg, status,2, status,0
  9010 ;; Tracked objects:
  9011 ;;		On entry : 0/0
  9012 ;;		On exit  : 0/0
  9013 ;;		Unchanged: 0/0
  9014 ;; Data sizes:     COMMON   BANK0   BANK1   BANK3   BANK2
  9015 ;;      Params:         1       0       0       0       0
  9016 ;;      Locals:         2       0       0       0       0
  9017 ;;      Temps:          1       0       0       0       0
  9018 ;;      Totals:         4       0       0       0       0
  9019 ;;Total ram usage:        4 bytes
  9020 ;; Hardware stack levels used:    1
  9021 ;; This function calls:
  9022 ;;		Nothing
  9023 ;; This function is called by:
  9024 ;;		_loop
  9025 ;; This function uses a non-reentrant model
  9026 ;;
  9027                           psect	text20,local,class=CODE,delta=2,merge=1,group=1
  9028                           	file	"C:\Program Files (x86)\Microchip\xc8\v2.00\pic\sources\c90\common\Umul8.c"
  9029                           	line	4
  9030                           global __ptext20
  9031                           __ptext20:	;psect for function ___bmul
  9032  11D1                     psect	text20
  9033                           	file	"C:\Program Files (x86)\Microchip\xc8\v2.00\pic\sources\c90\common\Umul8.c"
  9034                           	line	4
  9035                           	global	__size_of___bmul
  9036                           	__size_of___bmul	equ	__end_of___bmul-___bmul
  9037  0019                     	
  9038                           ___bmul:	
  9039  11D1                     ;incstack = 0
  9040                           	opt	stack 6
  9041                           ; Regs used in ___bmul: [wreg+status,2+status,0]
  9042                           ;___bmul@multiplier stored from wreg
  9043                           	movwf	(___bmul@multiplier)
  9044  11D1  00F3               	line	6
  9045                           	
  9046                           l3968:	
  9047  11D2                     	clrf	(___bmul@product)
  9048  11D2  01F2               	goto	l3970
  9049  11D3  29D4               	line	42
  9050                           	
  9051                           l876:	
  9052  11D4                     	line	43
  9053                           	
  9054                           l3970:	
  9055  11D4                     	btfss	(___bmul@multiplier),(0)&7
  9056  11D4  1C73               	goto	u2441
  9057  11D5  29D7               	goto	u2440
  9058  11D6  29D8               u2441:
  9059  11D7                     	goto	l3974
  9060  11D7  29DD               u2440:
  9061  11D8                     	line	44
  9062                           	
  9063                           l3972:	
  9064  11D8                     	movf	(___bmul@multiplicand),w
  9065  11D8  0870               	movwf	(??___bmul+0)+0
  9066  11D9  00F1               	movf	(??___bmul+0)+0,w
  9067  11DA  0871               	addwf	(___bmul@product),f
  9068  11DB  07F2               	goto	l3974
  9069  11DC  29DD               	
  9070                           l877:	
  9071  11DD                     	line	45
  9072                           	
  9073                           l3974:	
  9074  11DD                     	clrc
  9075  11DD  1003               	rlf	(___bmul@multiplicand),f
  9076  11DE  0DF0               
  9077                           	line	46
  9078                           	
  9079                           l3976:	
  9080  11DF                     	clrc
  9081  11DF  1003               	rrf	(___bmul@multiplier),f
  9082  11E0  0CF3               
  9083                           	line	47
  9084                           	movf	((___bmul@multiplier)),w
  9085  11E1  0873               	btfss	status,2
  9086  11E2  1D03               	goto	u2451
  9087  11E3  29E5               	goto	u2450
  9088  11E4  29E6               u2451:
  9089  11E5                     	goto	l3970
  9090  11E5  29D4               u2450:
  9091  11E6                     	goto	l3978
  9092  11E6  29E7               	
  9093                           l878:	
  9094  11E7                     	line	50
  9095                           	
  9096                           l3978:	
  9097  11E7                     	movf	(___bmul@product),w
  9098  11E7  0872               	goto	l879
  9099  11E8  29E9               	
  9100                           l3980:	
  9101  11E9                     	line	51
  9102                           	
  9103                           l879:	
  9104  11E9                     	return
  9105  11E9  0008               	opt stack 0
  9106                           GLOBAL	__end_of___bmul
  9107                           	__end_of___bmul:
  9108  11EA                     	signat	___bmul,8313
  9109                           	global	_KeypadRead
  9110                           
  9111 ;; *************** function _KeypadRead *****************
  9112 ;; Defined at:
  9113 ;;		line 33 in file "Keypad4x4.c"
  9114 ;; Parameters:    Size  Location     Type
  9115 ;;		None
  9116 ;; Auto vars:     Size  Location     Type
  9117 ;;		None
  9118 ;; Return value:  Size  Location     Type
  9119 ;;                  1    wreg      unsigned char 
  9120 ;; Registers used:
  9121 ;;		wreg, fsr0l, fsr0h, status,2, status,0, btemp+1, pclath, cstack
  9122 ;; Tracked objects:
  9123 ;;		On entry : 0/0
  9124 ;;		On exit  : 0/0
  9125 ;;		Unchanged: 0/0
  9126 ;; Data sizes:     COMMON   BANK0   BANK1   BANK3   BANK2
  9127 ;;      Params:         0       0       0       0       0
  9128 ;;      Locals:         0       0       0       0       0
  9129 ;;      Temps:          0       0       0       0       0
  9130 ;;      Totals:         0       0       0       0       0
  9131 ;;Total ram usage:        0 bytes
  9132 ;; Hardware stack levels used:    1
  9133 ;; Hardware stack levels required when called:    1
  9134 ;; This function calls:
  9135 ;;		_delay
  9136 ;;		_digitalRead
  9137 ;;		_digitalWrite
  9138 ;; This function is called by:
  9139 ;;		_loop
  9140 ;;		_PruebaLCD_Keypad
  9141 ;; This function uses a non-reentrant model
  9142 ;;
  9143                           psect	text21,local,class=CODE,delta=2,merge=1,group=0
  9144                           	file	"Keypad4x4.c"
  9145                           	line	33
  9146                           global __ptext21
  9147                           __ptext21:	;psect for function _KeypadRead
  9148  0060                     psect	text21
  9149                           	file	"Keypad4x4.c"
  9150                           	line	33
  9151                           	global	__size_of_KeypadRead
  9152                           	__size_of_KeypadRead	equ	__end_of_KeypadRead-_KeypadRead
  9153  0357                     	
  9154                           _KeypadRead:	
  9155  0060                     ;incstack = 0
  9156                           	opt	stack 5
  9157                           ; Regs used in _KeypadRead: [wreg-fsr0h+status,2+status,0+btemp+1+pclath+cstack]
  9158                           	line	35
  9159                           	
  9160                           l3722:	
  9161  0060                     ;Keypad4x4.c: 35:     digitalWrite(ColPins[0],1);
  9162                           	clrf	(digitalWrite@value)
  9163  0060  01F0               	incf	(digitalWrite@value),f
  9164  0061  0AF0               	bcf	status, 5	;RP0=0, select bank0
  9165  0062  1283               	bcf	status, 6	;RP1=0, select bank0
  9166  0063  1303               	movf	(_ColPins),w
  9167  0064  0820               	fcall	_digitalWrite
  9168  0065  120A  158A  2306  120A  118A  	line	36
  9169                           ;Keypad4x4.c: 36:     digitalWrite(ColPins[1],0);
  9170                           	clrf	(digitalWrite@value)
  9171  006A  01F0               	bcf	status, 5	;RP0=0, select bank0
  9172  006B  1283               	bcf	status, 6	;RP1=0, select bank0
  9173  006C  1303               	movf	0+(_ColPins)+02h,w
  9174  006D  0822               	fcall	_digitalWrite
  9175  006E  120A  158A  2306  120A  118A  	line	37
  9176                           ;Keypad4x4.c: 37:     digitalWrite(ColPins[2],0);
  9177                           	clrf	(digitalWrite@value)
  9178  0073  01F0               	bcf	status, 5	;RP0=0, select bank0
  9179  0074  1283               	bcf	status, 6	;RP1=0, select bank0
  9180  0075  1303               	movf	0+(_ColPins)+04h,w
  9181  0076  0824               	fcall	_digitalWrite
  9182  0077  120A  158A  2306  120A  118A  	line	38
  9183                           ;Keypad4x4.c: 38:     digitalWrite(ColPins[3],0);
  9184                           	clrf	(digitalWrite@value)
  9185  007C  01F0               	bcf	status, 5	;RP0=0, select bank0
  9186  007D  1283               	bcf	status, 6	;RP1=0, select bank0
  9187  007E  1303               	movf	0+(_ColPins)+06h,w
  9188  007F  0826               	fcall	_digitalWrite
  9189  0080  120A  158A  2306  120A  118A  	line	39
  9190                           ;Keypad4x4.c: 39:     if(digitalRead(RowPins[0]))
  9191                           	bcf	status, 5	;RP0=0, select bank0
  9192  0085  1283               	bcf	status, 6	;RP1=0, select bank0
  9193  0086  1303               	movf	(_RowPins),w
  9194  0087  0828               	fcall	_digitalRead
  9195  0088  120A  158A  2429  120A  118A  	xorlw	0
  9196  008D  3A00               	skipnz
  9197  008E  1903               	goto	u2011
  9198  008F  2891               	goto	u2010
  9199  0090  2892               u2011:
  9200  0091                     	goto	l3732
  9201  0091  28B0               u2010:
  9202  0092                     	line	41
  9203                           	
  9204                           l3724:	
  9205  0092                     ;Keypad4x4.c: 40:     {;Keypad4x4.c: 41:         delay(delaying);
  9206                           	bcf	status, 5	;RP0=0, select bank0
  9207  0092  1283               	bcf	status, 6	;RP1=0, select bank0
  9208  0093  1303               	movf	(_delaying+1),w
  9209  0094  0862               	movwf	(delay@milis+1)
  9210  0095  00F1               	movf	(_delaying),w
  9211  0096  0861               	movwf	(delay@milis)
  9212  0097  00F0               	fcall	_delay
  9213  0098  120A  118A  2012  120A  118A  	line	42
  9214                           	
  9215                           l3726:	
  9216  009D                     ;Keypad4x4.c: 42:         if(digitalRead(RowPins[0]))
  9217                           	bcf	status, 5	;RP0=0, select bank0
  9218  009D  1283               	bcf	status, 6	;RP1=0, select bank0
  9219  009E  1303               	movf	(_RowPins),w
  9220  009F  0828               	fcall	_digitalRead
  9221  00A0  120A  158A  2429  120A  118A  	xorlw	0
  9222  00A5  3A00               	skipnz
  9223  00A6  1903               	goto	u2021
  9224  00A7  28A9               	goto	u2020
  9225  00A8  28AA               u2021:
  9226  00A9                     	goto	l596
  9227  00A9  2BB6               u2020:
  9228  00AA                     	line	44
  9229                           	
  9230                           l3728:	
  9231  00AA                     ;Keypad4x4.c: 43:         {;Keypad4x4.c: 44:             return characters[0][0];
  9232                           	bsf	status, 5	;RP0=1, select bank1
  9233  00AA  1683               	bcf	status, 6	;RP1=0, select bank1
  9234  00AB  1303               	movf	(_characters)^080h,w
  9235  00AC  0840               	goto	l596
  9236  00AD  2BB6               	
  9237                           l3730:	
  9238  00AE                     	goto	l596
  9239  00AE  2BB6               	line	45
  9240                           ;Keypad4x4.c: 45:         }
  9241                           	
  9242                           l595:	
  9243  00AF                     	line	46
  9244                           ;Keypad4x4.c: 46:     }
  9245                           	goto	l596
  9246  00AF  2BB6               	line	47
  9247                           ;Keypad4x4.c: 47:     else if(digitalRead(RowPins[1]))
  9248                           	
  9249                           l594:	
  9250  00B0                     	
  9251                           l3732:	
  9252  00B0                     	bcf	status, 5	;RP0=0, select bank0
  9253  00B0  1283               	bcf	status, 6	;RP1=0, select bank0
  9254  00B1  1303               	movf	0+(_RowPins)+02h,w
  9255  00B2  082A               	fcall	_digitalRead
  9256  00B3  120A  158A  2429  120A  118A  	xorlw	0
  9257  00B8  3A00               	skipnz
  9258  00B9  1903               	goto	u2031
  9259  00BA  28BC               	goto	u2030
  9260  00BB  28BD               u2031:
  9261  00BC                     	goto	l3742
  9262  00BC  28DB               u2030:
  9263  00BD                     	line	49
  9264                           	
  9265                           l3734:	
  9266  00BD                     ;Keypad4x4.c: 48:     {;Keypad4x4.c: 49:         delay(delaying);
  9267                           	bcf	status, 5	;RP0=0, select bank0
  9268  00BD  1283               	bcf	status, 6	;RP1=0, select bank0
  9269  00BE  1303               	movf	(_delaying+1),w
  9270  00BF  0862               	movwf	(delay@milis+1)
  9271  00C0  00F1               	movf	(_delaying),w
  9272  00C1  0861               	movwf	(delay@milis)
  9273  00C2  00F0               	fcall	_delay
  9274  00C3  120A  118A  2012  120A  118A  	line	50
  9275                           	
  9276                           l3736:	
  9277  00C8                     ;Keypad4x4.c: 50:         if(digitalRead(RowPins[1]))
  9278                           	bcf	status, 5	;RP0=0, select bank0
  9279  00C8  1283               	bcf	status, 6	;RP1=0, select bank0
  9280  00C9  1303               	movf	0+(_RowPins)+02h,w
  9281  00CA  082A               	fcall	_digitalRead
  9282  00CB  120A  158A  2429  120A  118A  	xorlw	0
  9283  00D0  3A00               	skipnz
  9284  00D1  1903               	goto	u2041
  9285  00D2  28D4               	goto	u2040
  9286  00D3  28D5               u2041:
  9287  00D4                     	goto	l596
  9288  00D4  2BB6               u2040:
  9289  00D5                     	line	52
  9290                           	
  9291                           l3738:	
  9292  00D5                     ;Keypad4x4.c: 51:         {;Keypad4x4.c: 52:             return characters[1][0];
  9293                           	bsf	status, 5	;RP0=1, select bank1
  9294  00D5  1683               	bcf	status, 6	;RP1=0, select bank1
  9295  00D6  1303               	movf	0+(_characters)^080h+04h,w
  9296  00D7  0844               	goto	l596
  9297  00D8  2BB6               	
  9298                           l3740:	
  9299  00D9                     	goto	l596
  9300  00D9  2BB6               	line	53
  9301                           ;Keypad4x4.c: 53:         }
  9302                           	
  9303                           l599:	
  9304  00DA                     	line	54
  9305                           ;Keypad4x4.c: 54:     }
  9306                           	goto	l596
  9307  00DA  2BB6               	line	55
  9308                           ;Keypad4x4.c: 55:     else if(digitalRead(RowPins[2]))
  9309                           	
  9310                           l598:	
  9311  00DB                     	
  9312                           l3742:	
  9313  00DB                     	bcf	status, 5	;RP0=0, select bank0
  9314  00DB  1283               	bcf	status, 6	;RP1=0, select bank0
  9315  00DC  1303               	movf	0+(_RowPins)+04h,w
  9316  00DD  082C               	fcall	_digitalRead
  9317  00DE  120A  158A  2429  120A  118A  	xorlw	0
  9318  00E3  3A00               	skipnz
  9319  00E4  1903               	goto	u2051
  9320  00E5  28E7               	goto	u2050
  9321  00E6  28E8               u2051:
  9322  00E7                     	goto	l3752
  9323  00E7  2906               u2050:
  9324  00E8                     	line	57
  9325                           	
  9326                           l3744:	
  9327  00E8                     ;Keypad4x4.c: 56:     {;Keypad4x4.c: 57:         delay(delaying);
  9328                           	bcf	status, 5	;RP0=0, select bank0
  9329  00E8  1283               	bcf	status, 6	;RP1=0, select bank0
  9330  00E9  1303               	movf	(_delaying+1),w
  9331  00EA  0862               	movwf	(delay@milis+1)
  9332  00EB  00F1               	movf	(_delaying),w
  9333  00EC  0861               	movwf	(delay@milis)
  9334  00ED  00F0               	fcall	_delay
  9335  00EE  120A  118A  2012  120A  118A  	line	58
  9336                           	
  9337                           l3746:	
  9338  00F3                     ;Keypad4x4.c: 58:         if(digitalRead(RowPins[2]))
  9339                           	bcf	status, 5	;RP0=0, select bank0
  9340  00F3  1283               	bcf	status, 6	;RP1=0, select bank0
  9341  00F4  1303               	movf	0+(_RowPins)+04h,w
  9342  00F5  082C               	fcall	_digitalRead
  9343  00F6  120A  158A  2429  120A  118A  	xorlw	0
  9344  00FB  3A00               	skipnz
  9345  00FC  1903               	goto	u2061
  9346  00FD  28FF               	goto	u2060
  9347  00FE  2900               u2061:
  9348  00FF                     	goto	l596
  9349  00FF  2BB6               u2060:
  9350  0100                     	line	60
  9351                           	
  9352                           l3748:	
  9353  0100                     ;Keypad4x4.c: 59:         {;Keypad4x4.c: 60:             return characters[2][0];
  9354                           	bsf	status, 5	;RP0=1, select bank1
  9355  0100  1683               	bcf	status, 6	;RP1=0, select bank1
  9356  0101  1303               	movf	0+(_characters)^080h+08h,w
  9357  0102  0848               	goto	l596
  9358  0103  2BB6               	
  9359                           l3750:	
  9360  0104                     	goto	l596
  9361  0104  2BB6               	line	61
  9362                           ;Keypad4x4.c: 61:         }
  9363                           	
  9364                           l602:	
  9365  0105                     	line	62
  9366                           ;Keypad4x4.c: 62:     }
  9367                           	goto	l596
  9368  0105  2BB6               	line	63
  9369                           ;Keypad4x4.c: 63:     else if(digitalRead(RowPins[3]))
  9370                           	
  9371                           l601:	
  9372  0106                     	
  9373                           l3752:	
  9374  0106                     	bcf	status, 5	;RP0=0, select bank0
  9375  0106  1283               	bcf	status, 6	;RP1=0, select bank0
  9376  0107  1303               	movf	0+(_RowPins)+06h,w
  9377  0108  082E               	fcall	_digitalRead
  9378  0109  120A  158A  2429  120A  118A  	xorlw	0
  9379  010E  3A00               	skipnz
  9380  010F  1903               	goto	u2071
  9381  0110  2912               	goto	u2070
  9382  0111  2913               u2071:
  9383  0112                     	goto	l3762
  9384  0112  2931               u2070:
  9385  0113                     	line	65
  9386                           	
  9387                           l3754:	
  9388  0113                     ;Keypad4x4.c: 64:     {;Keypad4x4.c: 65:         delay(delaying);
  9389                           	bcf	status, 5	;RP0=0, select bank0
  9390  0113  1283               	bcf	status, 6	;RP1=0, select bank0
  9391  0114  1303               	movf	(_delaying+1),w
  9392  0115  0862               	movwf	(delay@milis+1)
  9393  0116  00F1               	movf	(_delaying),w
  9394  0117  0861               	movwf	(delay@milis)
  9395  0118  00F0               	fcall	_delay
  9396  0119  120A  118A  2012  120A  118A  	line	66
  9397                           	
  9398                           l3756:	
  9399  011E                     ;Keypad4x4.c: 66:         if(digitalRead(RowPins[3]))
  9400                           	bcf	status, 5	;RP0=0, select bank0
  9401  011E  1283               	bcf	status, 6	;RP1=0, select bank0
  9402  011F  1303               	movf	0+(_RowPins)+06h,w
  9403  0120  082E               	fcall	_digitalRead
  9404  0121  120A  158A  2429  120A  118A  	xorlw	0
  9405  0126  3A00               	skipnz
  9406  0127  1903               	goto	u2081
  9407  0128  292A               	goto	u2080
  9408  0129  292B               u2081:
  9409  012A                     	goto	l596
  9410  012A  2BB6               u2080:
  9411  012B                     	line	68
  9412                           	
  9413                           l3758:	
  9414  012B                     ;Keypad4x4.c: 67:         {;Keypad4x4.c: 68:             return characters[3][0];
  9415                           	bsf	status, 5	;RP0=1, select bank1
  9416  012B  1683               	bcf	status, 6	;RP1=0, select bank1
  9417  012C  1303               	movf	0+(_characters)^080h+0Ch,w
  9418  012D  084C               	goto	l596
  9419  012E  2BB6               	
  9420                           l3760:	
  9421  012F                     	goto	l596
  9422  012F  2BB6               	line	69
  9423                           ;Keypad4x4.c: 69:         }
  9424                           	
  9425                           l605:	
  9426  0130                     	line	70
  9427                           ;Keypad4x4.c: 70:     }
  9428                           	goto	l596
  9429  0130  2BB6               	line	71
  9430                           ;Keypad4x4.c: 71:     else
  9431                           	
  9432                           l604:	
  9433  0131                     	line	73
  9434                           	
  9435                           l3762:	
  9436  0131                     ;Keypad4x4.c: 72:     {;Keypad4x4.c: 73:         digitalWrite(ColPins[0],0);
  9437                           	clrf	(digitalWrite@value)
  9438  0131  01F0               	bcf	status, 5	;RP0=0, select bank0
  9439  0132  1283               	bcf	status, 6	;RP1=0, select bank0
  9440  0133  1303               	movf	(_ColPins),w
  9441  0134  0820               	fcall	_digitalWrite
  9442  0135  120A  158A  2306  120A  118A  	line	74
  9443                           ;Keypad4x4.c: 74:         digitalWrite(ColPins[1],1);
  9444                           	clrf	(digitalWrite@value)
  9445  013A  01F0               	incf	(digitalWrite@value),f
  9446  013B  0AF0               	bcf	status, 5	;RP0=0, select bank0
  9447  013C  1283               	bcf	status, 6	;RP1=0, select bank0
  9448  013D  1303               	movf	0+(_ColPins)+02h,w
  9449  013E  0822               	fcall	_digitalWrite
  9450  013F  120A  158A  2306  120A  118A  	line	75
  9451                           ;Keypad4x4.c: 75:         digitalWrite(ColPins[2],0);
  9452                           	clrf	(digitalWrite@value)
  9453  0144  01F0               	bcf	status, 5	;RP0=0, select bank0
  9454  0145  1283               	bcf	status, 6	;RP1=0, select bank0
  9455  0146  1303               	movf	0+(_ColPins)+04h,w
  9456  0147  0824               	fcall	_digitalWrite
  9457  0148  120A  158A  2306  120A  118A  	line	76
  9458                           ;Keypad4x4.c: 76:         digitalWrite(ColPins[3],0);
  9459                           	clrf	(digitalWrite@value)
  9460  014D  01F0               	bcf	status, 5	;RP0=0, select bank0
  9461  014E  1283               	bcf	status, 6	;RP1=0, select bank0
  9462  014F  1303               	movf	0+(_ColPins)+06h,w
  9463  0150  0826               	fcall	_digitalWrite
  9464  0151  120A  158A  2306  120A  118A  	line	77
  9465                           ;Keypad4x4.c: 77:         if(digitalRead(RowPins[0]))
  9466                           	bcf	status, 5	;RP0=0, select bank0
  9467  0156  1283               	bcf	status, 6	;RP1=0, select bank0
  9468  0157  1303               	movf	(_RowPins),w
  9469  0158  0828               	fcall	_digitalRead
  9470  0159  120A  158A  2429  120A  118A  	xorlw	0
  9471  015E  3A00               	skipnz
  9472  015F  1903               	goto	u2091
  9473  0160  2962               	goto	u2090
  9474  0161  2963               u2091:
  9475  0162                     	goto	l3772
  9476  0162  2981               u2090:
  9477  0163                     	line	79
  9478                           	
  9479                           l3764:	
  9480  0163                     ;Keypad4x4.c: 78:         {;Keypad4x4.c: 79:             delay(delaying);
  9481                           	bcf	status, 5	;RP0=0, select bank0
  9482  0163  1283               	bcf	status, 6	;RP1=0, select bank0
  9483  0164  1303               	movf	(_delaying+1),w
  9484  0165  0862               	movwf	(delay@milis+1)
  9485  0166  00F1               	movf	(_delaying),w
  9486  0167  0861               	movwf	(delay@milis)
  9487  0168  00F0               	fcall	_delay
  9488  0169  120A  118A  2012  120A  118A  	line	80
  9489                           	
  9490                           l3766:	
  9491  016E                     ;Keypad4x4.c: 80:             if(digitalRead(RowPins[0]))
  9492                           	bcf	status, 5	;RP0=0, select bank0
  9493  016E  1283               	bcf	status, 6	;RP1=0, select bank0
  9494  016F  1303               	movf	(_RowPins),w
  9495  0170  0828               	fcall	_digitalRead
  9496  0171  120A  158A  2429  120A  118A  	xorlw	0
  9497  0176  3A00               	skipnz
  9498  0177  1903               	goto	u2101
  9499  0178  297A               	goto	u2100
  9500  0179  297B               u2101:
  9501  017A                     	goto	l596
  9502  017A  2BB6               u2100:
  9503  017B                     	line	82
  9504                           	
  9505                           l3768:	
  9506  017B                     ;Keypad4x4.c: 81:             {;Keypad4x4.c: 82:                 return characters[0][1]
                                 ;
  9507                           	bsf	status, 5	;RP0=1, select bank1
  9508  017B  1683               	bcf	status, 6	;RP1=0, select bank1
  9509  017C  1303               	movf	0+(_characters)^080h+01h,w
  9510  017D  0841               	goto	l596
  9511  017E  2BB6               	
  9512                           l3770:	
  9513  017F                     	goto	l596
  9514  017F  2BB6               	line	83
  9515                           ;Keypad4x4.c: 83:             }
  9516                           	
  9517                           l608:	
  9518  0180                     	line	84
  9519                           ;Keypad4x4.c: 84:         }
  9520                           	goto	l596
  9521  0180  2BB6               	line	85
  9522                           ;Keypad4x4.c: 85:         else if(digitalRead(RowPins[1]))
  9523                           	
  9524                           l607:	
  9525  0181                     	
  9526                           l3772:	
  9527  0181                     	bcf	status, 5	;RP0=0, select bank0
  9528  0181  1283               	bcf	status, 6	;RP1=0, select bank0
  9529  0182  1303               	movf	0+(_RowPins)+02h,w
  9530  0183  082A               	fcall	_digitalRead
  9531  0184  120A  158A  2429  120A  118A  	xorlw	0
  9532  0189  3A00               	skipnz
  9533  018A  1903               	goto	u2111
  9534  018B  298D               	goto	u2110
  9535  018C  298E               u2111:
  9536  018D                     	goto	l3782
  9537  018D  29AC               u2110:
  9538  018E                     	line	87
  9539                           	
  9540                           l3774:	
  9541  018E                     ;Keypad4x4.c: 86:         {;Keypad4x4.c: 87:             delay(delaying);
  9542                           	bcf	status, 5	;RP0=0, select bank0
  9543  018E  1283               	bcf	status, 6	;RP1=0, select bank0
  9544  018F  1303               	movf	(_delaying+1),w
  9545  0190  0862               	movwf	(delay@milis+1)
  9546  0191  00F1               	movf	(_delaying),w
  9547  0192  0861               	movwf	(delay@milis)
  9548  0193  00F0               	fcall	_delay
  9549  0194  120A  118A  2012  120A  118A  	line	88
  9550                           	
  9551                           l3776:	
  9552  0199                     ;Keypad4x4.c: 88:             if(digitalRead(RowPins[1]))
  9553                           	bcf	status, 5	;RP0=0, select bank0
  9554  0199  1283               	bcf	status, 6	;RP1=0, select bank0
  9555  019A  1303               	movf	0+(_RowPins)+02h,w
  9556  019B  082A               	fcall	_digitalRead
  9557  019C  120A  158A  2429  120A  118A  	xorlw	0
  9558  01A1  3A00               	skipnz
  9559  01A2  1903               	goto	u2121
  9560  01A3  29A5               	goto	u2120
  9561  01A4  29A6               u2121:
  9562  01A5                     	goto	l596
  9563  01A5  2BB6               u2120:
  9564  01A6                     	line	90
  9565                           	
  9566                           l3778:	
  9567  01A6                     ;Keypad4x4.c: 89:             {;Keypad4x4.c: 90:                 return characters[1][1]
                                 ;
  9568                           	bsf	status, 5	;RP0=1, select bank1
  9569  01A6  1683               	bcf	status, 6	;RP1=0, select bank1
  9570  01A7  1303               	movf	0+(_characters)^080h+05h,w
  9571  01A8  0845               	goto	l596
  9572  01A9  2BB6               	
  9573                           l3780:	
  9574  01AA                     	goto	l596
  9575  01AA  2BB6               	line	91
  9576                           ;Keypad4x4.c: 91:             }
  9577                           	
  9578                           l611:	
  9579  01AB                     	line	92
  9580                           ;Keypad4x4.c: 92:         }
  9581                           	goto	l596
  9582  01AB  2BB6               	line	93
  9583                           ;Keypad4x4.c: 93:         else if(digitalRead(RowPins[2]))
  9584                           	
  9585                           l610:	
  9586  01AC                     	
  9587                           l3782:	
  9588  01AC                     	bcf	status, 5	;RP0=0, select bank0
  9589  01AC  1283               	bcf	status, 6	;RP1=0, select bank0
  9590  01AD  1303               	movf	0+(_RowPins)+04h,w
  9591  01AE  082C               	fcall	_digitalRead
  9592  01AF  120A  158A  2429  120A  118A  	xorlw	0
  9593  01B4  3A00               	skipnz
  9594  01B5  1903               	goto	u2131
  9595  01B6  29B8               	goto	u2130
  9596  01B7  29B9               u2131:
  9597  01B8                     	goto	l3792
  9598  01B8  29D7               u2130:
  9599  01B9                     	line	95
  9600                           	
  9601                           l3784:	
  9602  01B9                     ;Keypad4x4.c: 94:         {;Keypad4x4.c: 95:             delay(delaying);
  9603                           	bcf	status, 5	;RP0=0, select bank0
  9604  01B9  1283               	bcf	status, 6	;RP1=0, select bank0
  9605  01BA  1303               	movf	(_delaying+1),w
  9606  01BB  0862               	movwf	(delay@milis+1)
  9607  01BC  00F1               	movf	(_delaying),w
  9608  01BD  0861               	movwf	(delay@milis)
  9609  01BE  00F0               	fcall	_delay
  9610  01BF  120A  118A  2012  120A  118A  	line	96
  9611                           	
  9612                           l3786:	
  9613  01C4                     ;Keypad4x4.c: 96:             if(digitalRead(RowPins[2]))
  9614                           	bcf	status, 5	;RP0=0, select bank0
  9615  01C4  1283               	bcf	status, 6	;RP1=0, select bank0
  9616  01C5  1303               	movf	0+(_RowPins)+04h,w
  9617  01C6  082C               	fcall	_digitalRead
  9618  01C7  120A  158A  2429  120A  118A  	xorlw	0
  9619  01CC  3A00               	skipnz
  9620  01CD  1903               	goto	u2141
  9621  01CE  29D0               	goto	u2140
  9622  01CF  29D1               u2141:
  9623  01D0                     	goto	l596
  9624  01D0  2BB6               u2140:
  9625  01D1                     	line	98
  9626                           	
  9627                           l3788:	
  9628  01D1                     ;Keypad4x4.c: 97:             {;Keypad4x4.c: 98:                 return characters[2][1]
                                 ;
  9629                           	bsf	status, 5	;RP0=1, select bank1
  9630  01D1  1683               	bcf	status, 6	;RP1=0, select bank1
  9631  01D2  1303               	movf	0+(_characters)^080h+09h,w
  9632  01D3  0849               	goto	l596
  9633  01D4  2BB6               	
  9634                           l3790:	
  9635  01D5                     	goto	l596
  9636  01D5  2BB6               	line	99
  9637                           ;Keypad4x4.c: 99:             }
  9638                           	
  9639                           l614:	
  9640  01D6                     	line	100
  9641                           ;Keypad4x4.c: 100:         }
  9642                           	goto	l596
  9643  01D6  2BB6               	line	101
  9644                           ;Keypad4x4.c: 101:         else if(digitalRead(RowPins[3]))
  9645                           	
  9646                           l613:	
  9647  01D7                     	
  9648                           l3792:	
  9649  01D7                     	bcf	status, 5	;RP0=0, select bank0
  9650  01D7  1283               	bcf	status, 6	;RP1=0, select bank0
  9651  01D8  1303               	movf	0+(_RowPins)+06h,w
  9652  01D9  082E               	fcall	_digitalRead
  9653  01DA  120A  158A  2429  120A  118A  	xorlw	0
  9654  01DF  3A00               	skipnz
  9655  01E0  1903               	goto	u2151
  9656  01E1  29E3               	goto	u2150
  9657  01E2  29E4               u2151:
  9658  01E3                     	goto	l3802
  9659  01E3  2A02               u2150:
  9660  01E4                     	line	103
  9661                           	
  9662                           l3794:	
  9663  01E4                     ;Keypad4x4.c: 102:         {;Keypad4x4.c: 103:             delay(delaying);
  9664                           	bcf	status, 5	;RP0=0, select bank0
  9665  01E4  1283               	bcf	status, 6	;RP1=0, select bank0
  9666  01E5  1303               	movf	(_delaying+1),w
  9667  01E6  0862               	movwf	(delay@milis+1)
  9668  01E7  00F1               	movf	(_delaying),w
  9669  01E8  0861               	movwf	(delay@milis)
  9670  01E9  00F0               	fcall	_delay
  9671  01EA  120A  118A  2012  120A  118A  	line	104
  9672                           	
  9673                           l3796:	
  9674  01EF                     ;Keypad4x4.c: 104:             if(digitalRead(RowPins[3]))
  9675                           	bcf	status, 5	;RP0=0, select bank0
  9676  01EF  1283               	bcf	status, 6	;RP1=0, select bank0
  9677  01F0  1303               	movf	0+(_RowPins)+06h,w
  9678  01F1  082E               	fcall	_digitalRead
  9679  01F2  120A  158A  2429  120A  118A  	xorlw	0
  9680  01F7  3A00               	skipnz
  9681  01F8  1903               	goto	u2161
  9682  01F9  29FB               	goto	u2160
  9683  01FA  29FC               u2161:
  9684  01FB                     	goto	l596
  9685  01FB  2BB6               u2160:
  9686  01FC                     	line	106
  9687                           	
  9688                           l3798:	
  9689  01FC                     ;Keypad4x4.c: 105:             {;Keypad4x4.c: 106:                 return characters[3][
                                 1];
  9690                           	bsf	status, 5	;RP0=1, select bank1
  9691  01FC  1683               	bcf	status, 6	;RP1=0, select bank1
  9692  01FD  1303               	movf	0+(_characters)^080h+0Dh,w
  9693  01FE  084D               	goto	l596
  9694  01FF  2BB6               	
  9695                           l3800:	
  9696  0200                     	goto	l596
  9697  0200  2BB6               	line	107
  9698                           ;Keypad4x4.c: 107:             }
  9699                           	
  9700                           l617:	
  9701  0201                     	line	108
  9702                           ;Keypad4x4.c: 108:         }
  9703                           	goto	l596
  9704  0201  2BB6               	line	109
  9705                           ;Keypad4x4.c: 109:         else
  9706                           	
  9707                           l616:	
  9708  0202                     	line	111
  9709                           	
  9710                           l3802:	
  9711  0202                     ;Keypad4x4.c: 110:         {;Keypad4x4.c: 111:             digitalWrite(ColPins[0],0);
  9712                           	clrf	(digitalWrite@value)
  9713  0202  01F0               	bcf	status, 5	;RP0=0, select bank0
  9714  0203  1283               	bcf	status, 6	;RP1=0, select bank0
  9715  0204  1303               	movf	(_ColPins),w
  9716  0205  0820               	fcall	_digitalWrite
  9717  0206  120A  158A  2306  120A  118A  	line	112
  9718                           ;Keypad4x4.c: 112:             digitalWrite(ColPins[1],0);
  9719                           	clrf	(digitalWrite@value)
  9720  020B  01F0               	bcf	status, 5	;RP0=0, select bank0
  9721  020C  1283               	bcf	status, 6	;RP1=0, select bank0
  9722  020D  1303               	movf	0+(_ColPins)+02h,w
  9723  020E  0822               	fcall	_digitalWrite
  9724  020F  120A  158A  2306  120A  118A  	line	113
  9725                           ;Keypad4x4.c: 113:             digitalWrite(ColPins[2],1);
  9726                           	clrf	(digitalWrite@value)
  9727  0214  01F0               	incf	(digitalWrite@value),f
  9728  0215  0AF0               	bcf	status, 5	;RP0=0, select bank0
  9729  0216  1283               	bcf	status, 6	;RP1=0, select bank0
  9730  0217  1303               	movf	0+(_ColPins)+04h,w
  9731  0218  0824               	fcall	_digitalWrite
  9732  0219  120A  158A  2306  120A  118A  	line	114
  9733                           ;Keypad4x4.c: 114:             digitalWrite(ColPins[3],0);
  9734                           	clrf	(digitalWrite@value)
  9735  021E  01F0               	bcf	status, 5	;RP0=0, select bank0
  9736  021F  1283               	bcf	status, 6	;RP1=0, select bank0
  9737  0220  1303               	movf	0+(_ColPins)+06h,w
  9738  0221  0826               	fcall	_digitalWrite
  9739  0222  120A  158A  2306  120A  118A  	line	115
  9740                           ;Keypad4x4.c: 115:             if(digitalRead(RowPins[0]))
  9741                           	bcf	status, 5	;RP0=0, select bank0
  9742  0227  1283               	bcf	status, 6	;RP1=0, select bank0
  9743  0228  1303               	movf	(_RowPins),w
  9744  0229  0828               	fcall	_digitalRead
  9745  022A  120A  158A  2429  120A  118A  	xorlw	0
  9746  022F  3A00               	skipnz
  9747  0230  1903               	goto	u2171
  9748  0231  2A33               	goto	u2170
  9749  0232  2A34               u2171:
  9750  0233                     	goto	l3812
  9751  0233  2A52               u2170:
  9752  0234                     	line	117
  9753                           	
  9754                           l3804:	
  9755  0234                     ;Keypad4x4.c: 116:             {;Keypad4x4.c: 117:                 delay(delaying);
  9756                           	bcf	status, 5	;RP0=0, select bank0
  9757  0234  1283               	bcf	status, 6	;RP1=0, select bank0
  9758  0235  1303               	movf	(_delaying+1),w
  9759  0236  0862               	movwf	(delay@milis+1)
  9760  0237  00F1               	movf	(_delaying),w
  9761  0238  0861               	movwf	(delay@milis)
  9762  0239  00F0               	fcall	_delay
  9763  023A  120A  118A  2012  120A  118A  	line	118
  9764                           	
  9765                           l3806:	
  9766  023F                     ;Keypad4x4.c: 118:                 if(digitalRead(RowPins[0]))
  9767                           	bcf	status, 5	;RP0=0, select bank0
  9768  023F  1283               	bcf	status, 6	;RP1=0, select bank0
  9769  0240  1303               	movf	(_RowPins),w
  9770  0241  0828               	fcall	_digitalRead
  9771  0242  120A  158A  2429  120A  118A  	xorlw	0
  9772  0247  3A00               	skipnz
  9773  0248  1903               	goto	u2181
  9774  0249  2A4B               	goto	u2180
  9775  024A  2A4C               u2181:
  9776  024B                     	goto	l596
  9777  024B  2BB6               u2180:
  9778  024C                     	line	120
  9779                           	
  9780                           l3808:	
  9781  024C                     ;Keypad4x4.c: 119:                 {;Keypad4x4.c: 120:                     return charac
                                 ters[0][2];
  9782                           	bsf	status, 5	;RP0=1, select bank1
  9783  024C  1683               	bcf	status, 6	;RP1=0, select bank1
  9784  024D  1303               	movf	0+(_characters)^080h+02h,w
  9785  024E  0842               	goto	l596
  9786  024F  2BB6               	
  9787                           l3810:	
  9788  0250                     	goto	l596
  9789  0250  2BB6               	line	121
  9790                           ;Keypad4x4.c: 121:                 }
  9791                           	
  9792                           l620:	
  9793  0251                     	line	122
  9794                           ;Keypad4x4.c: 122:             }
  9795                           	goto	l596
  9796  0251  2BB6               	line	123
  9797                           ;Keypad4x4.c: 123:             else if(digitalRead(RowPins[1]))
  9798                           	
  9799                           l619:	
  9800  0252                     	
  9801                           l3812:	
  9802  0252                     	bcf	status, 5	;RP0=0, select bank0
  9803  0252  1283               	bcf	status, 6	;RP1=0, select bank0
  9804  0253  1303               	movf	0+(_RowPins)+02h,w
  9805  0254  082A               	fcall	_digitalRead
  9806  0255  120A  158A  2429  120A  118A  	xorlw	0
  9807  025A  3A00               	skipnz
  9808  025B  1903               	goto	u2191
  9809  025C  2A5E               	goto	u2190
  9810  025D  2A5F               u2191:
  9811  025E                     	goto	l3822
  9812  025E  2A7D               u2190:
  9813  025F                     	line	125
  9814                           	
  9815                           l3814:	
  9816  025F                     ;Keypad4x4.c: 124:             {;Keypad4x4.c: 125:                 delay(delaying);
  9817                           	bcf	status, 5	;RP0=0, select bank0
  9818  025F  1283               	bcf	status, 6	;RP1=0, select bank0
  9819  0260  1303               	movf	(_delaying+1),w
  9820  0261  0862               	movwf	(delay@milis+1)
  9821  0262  00F1               	movf	(_delaying),w
  9822  0263  0861               	movwf	(delay@milis)
  9823  0264  00F0               	fcall	_delay
  9824  0265  120A  118A  2012  120A  118A  	line	126
  9825                           	
  9826                           l3816:	
  9827  026A                     ;Keypad4x4.c: 126:                 if(digitalRead(RowPins[1]))
  9828                           	bcf	status, 5	;RP0=0, select bank0
  9829  026A  1283               	bcf	status, 6	;RP1=0, select bank0
  9830  026B  1303               	movf	0+(_RowPins)+02h,w
  9831  026C  082A               	fcall	_digitalRead
  9832  026D  120A  158A  2429  120A  118A  	xorlw	0
  9833  0272  3A00               	skipnz
  9834  0273  1903               	goto	u2201
  9835  0274  2A76               	goto	u2200
  9836  0275  2A77               u2201:
  9837  0276                     	goto	l596
  9838  0276  2BB6               u2200:
  9839  0277                     	line	128
  9840                           	
  9841                           l3818:	
  9842  0277                     ;Keypad4x4.c: 127:                 {;Keypad4x4.c: 128:                     return charac
                                 ters[1][2];
  9843                           	bsf	status, 5	;RP0=1, select bank1
  9844  0277  1683               	bcf	status, 6	;RP1=0, select bank1
  9845  0278  1303               	movf	0+(_characters)^080h+06h,w
  9846  0279  0846               	goto	l596
  9847  027A  2BB6               	
  9848                           l3820:	
  9849  027B                     	goto	l596
  9850  027B  2BB6               	line	129
  9851                           ;Keypad4x4.c: 129:                 }
  9852                           	
  9853                           l623:	
  9854  027C                     	line	130
  9855                           ;Keypad4x4.c: 130:             }
  9856                           	goto	l596
  9857  027C  2BB6               	line	131
  9858                           ;Keypad4x4.c: 131:             else if(digitalRead(RowPins[2]))
  9859                           	
  9860                           l622:	
  9861  027D                     	
  9862                           l3822:	
  9863  027D                     	bcf	status, 5	;RP0=0, select bank0
  9864  027D  1283               	bcf	status, 6	;RP1=0, select bank0
  9865  027E  1303               	movf	0+(_RowPins)+04h,w
  9866  027F  082C               	fcall	_digitalRead
  9867  0280  120A  158A  2429  120A  118A  	xorlw	0
  9868  0285  3A00               	skipnz
  9869  0286  1903               	goto	u2211
  9870  0287  2A89               	goto	u2210
  9871  0288  2A8A               u2211:
  9872  0289                     	goto	l3832
  9873  0289  2AA8               u2210:
  9874  028A                     	line	133
  9875                           	
  9876                           l3824:	
  9877  028A                     ;Keypad4x4.c: 132:             {;Keypad4x4.c: 133:                 delay(delaying);
  9878                           	bcf	status, 5	;RP0=0, select bank0
  9879  028A  1283               	bcf	status, 6	;RP1=0, select bank0
  9880  028B  1303               	movf	(_delaying+1),w
  9881  028C  0862               	movwf	(delay@milis+1)
  9882  028D  00F1               	movf	(_delaying),w
  9883  028E  0861               	movwf	(delay@milis)
  9884  028F  00F0               	fcall	_delay
  9885  0290  120A  118A  2012  120A  118A  	line	134
  9886                           	
  9887                           l3826:	
  9888  0295                     ;Keypad4x4.c: 134:                 if(digitalRead(RowPins[2]))
  9889                           	bcf	status, 5	;RP0=0, select bank0
  9890  0295  1283               	bcf	status, 6	;RP1=0, select bank0
  9891  0296  1303               	movf	0+(_RowPins)+04h,w
  9892  0297  082C               	fcall	_digitalRead
  9893  0298  120A  158A  2429  120A  118A  	xorlw	0
  9894  029D  3A00               	skipnz
  9895  029E  1903               	goto	u2221
  9896  029F  2AA1               	goto	u2220
  9897  02A0  2AA2               u2221:
  9898  02A1                     	goto	l596
  9899  02A1  2BB6               u2220:
  9900  02A2                     	line	136
  9901                           	
  9902                           l3828:	
  9903  02A2                     ;Keypad4x4.c: 135:                 {;Keypad4x4.c: 136:                     return charac
                                 ters[2][2];
  9904                           	bsf	status, 5	;RP0=1, select bank1
  9905  02A2  1683               	bcf	status, 6	;RP1=0, select bank1
  9906  02A3  1303               	movf	0+(_characters)^080h+0Ah,w
  9907  02A4  084A               	goto	l596
  9908  02A5  2BB6               	
  9909                           l3830:	
  9910  02A6                     	goto	l596
  9911  02A6  2BB6               	line	137
  9912                           ;Keypad4x4.c: 137:                 }
  9913                           	
  9914                           l626:	
  9915  02A7                     	line	138
  9916                           ;Keypad4x4.c: 138:             }
  9917                           	goto	l596
  9918  02A7  2BB6               	line	139
  9919                           ;Keypad4x4.c: 139:             else if(digitalRead(RowPins[3]))
  9920                           	
  9921                           l625:	
  9922  02A8                     	
  9923                           l3832:	
  9924  02A8                     	bcf	status, 5	;RP0=0, select bank0
  9925  02A8  1283               	bcf	status, 6	;RP1=0, select bank0
  9926  02A9  1303               	movf	0+(_RowPins)+06h,w
  9927  02AA  082E               	fcall	_digitalRead
  9928  02AB  120A  158A  2429  120A  118A  	xorlw	0
  9929  02B0  3A00               	skipnz
  9930  02B1  1903               	goto	u2231
  9931  02B2  2AB4               	goto	u2230
  9932  02B3  2AB5               u2231:
  9933  02B4                     	goto	l3842
  9934  02B4  2AD3               u2230:
  9935  02B5                     	line	141
  9936                           	
  9937                           l3834:	
  9938  02B5                     ;Keypad4x4.c: 140:             {;Keypad4x4.c: 141:                 delay(delaying);
  9939                           	bcf	status, 5	;RP0=0, select bank0
  9940  02B5  1283               	bcf	status, 6	;RP1=0, select bank0
  9941  02B6  1303               	movf	(_delaying+1),w
  9942  02B7  0862               	movwf	(delay@milis+1)
  9943  02B8  00F1               	movf	(_delaying),w
  9944  02B9  0861               	movwf	(delay@milis)
  9945  02BA  00F0               	fcall	_delay
  9946  02BB  120A  118A  2012  120A  118A  	line	142
  9947                           	
  9948                           l3836:	
  9949  02C0                     ;Keypad4x4.c: 142:                 if(digitalRead(RowPins[3]))
  9950                           	bcf	status, 5	;RP0=0, select bank0
  9951  02C0  1283               	bcf	status, 6	;RP1=0, select bank0
  9952  02C1  1303               	movf	0+(_RowPins)+06h,w
  9953  02C2  082E               	fcall	_digitalRead
  9954  02C3  120A  158A  2429  120A  118A  	xorlw	0
  9955  02C8  3A00               	skipnz
  9956  02C9  1903               	goto	u2241
  9957  02CA  2ACC               	goto	u2240
  9958  02CB  2ACD               u2241:
  9959  02CC                     	goto	l596
  9960  02CC  2BB6               u2240:
  9961  02CD                     	line	144
  9962                           	
  9963                           l3838:	
  9964  02CD                     ;Keypad4x4.c: 143:                 {;Keypad4x4.c: 144:                     return charac
                                 ters[3][2];
  9965                           	bsf	status, 5	;RP0=1, select bank1
  9966  02CD  1683               	bcf	status, 6	;RP1=0, select bank1
  9967  02CE  1303               	movf	0+(_characters)^080h+0Eh,w
  9968  02CF  084E               	goto	l596
  9969  02D0  2BB6               	
  9970                           l3840:	
  9971  02D1                     	goto	l596
  9972  02D1  2BB6               	line	145
  9973                           ;Keypad4x4.c: 145:                 }
  9974                           	
  9975                           l629:	
  9976  02D2                     	line	146
  9977                           ;Keypad4x4.c: 146:             }
  9978                           	goto	l596
  9979  02D2  2BB6               	line	147
  9980                           ;Keypad4x4.c: 147:             else
  9981                           	
  9982                           l628:	
  9983  02D3                     	line	149
  9984                           	
  9985                           l3842:	
  9986  02D3                     ;Keypad4x4.c: 148:             {;Keypad4x4.c: 149:                 digitalWrite(ColPins[
                                 0],0);
  9987                           	clrf	(digitalWrite@value)
  9988  02D3  01F0               	bcf	status, 5	;RP0=0, select bank0
  9989  02D4  1283               	bcf	status, 6	;RP1=0, select bank0
  9990  02D5  1303               	movf	(_ColPins),w
  9991  02D6  0820               	fcall	_digitalWrite
  9992  02D7  120A  158A  2306  120A  118A  	line	150
  9993                           ;Keypad4x4.c: 150:                 digitalWrite(ColPins[1],0);
  9994                           	clrf	(digitalWrite@value)
  9995  02DC  01F0               	bcf	status, 5	;RP0=0, select bank0
  9996  02DD  1283               	bcf	status, 6	;RP1=0, select bank0
  9997  02DE  1303               	movf	0+(_ColPins)+02h,w
  9998  02DF  0822               	fcall	_digitalWrite
  9999  02E0  120A  158A  2306  120A  118A  	line	151
 10000                           ;Keypad4x4.c: 151:                 digitalWrite(ColPins[2],0);
 10001                           	clrf	(digitalWrite@value)
 10002  02E5  01F0               	bcf	status, 5	;RP0=0, select bank0
 10003  02E6  1283               	bcf	status, 6	;RP1=0, select bank0
 10004  02E7  1303               	movf	0+(_ColPins)+04h,w
 10005  02E8  0824               	fcall	_digitalWrite
 10006  02E9  120A  158A  2306  120A  118A  	line	152
 10007                           ;Keypad4x4.c: 152:                 digitalWrite(ColPins[3],1);
 10008                           	clrf	(digitalWrite@value)
 10009  02EE  01F0               	incf	(digitalWrite@value),f
 10010  02EF  0AF0               	bcf	status, 5	;RP0=0, select bank0
 10011  02F0  1283               	bcf	status, 6	;RP1=0, select bank0
 10012  02F1  1303               	movf	0+(_ColPins)+06h,w
 10013  02F2  0826               	fcall	_digitalWrite
 10014  02F3  120A  158A  2306  120A  118A  	line	153
 10015                           ;Keypad4x4.c: 153:                 if(digitalRead(RowPins[0]))
 10016                           	bcf	status, 5	;RP0=0, select bank0
 10017  02F8  1283               	bcf	status, 6	;RP1=0, select bank0
 10018  02F9  1303               	movf	(_RowPins),w
 10019  02FA  0828               	fcall	_digitalRead
 10020  02FB  120A  158A  2429  120A  118A  	xorlw	0
 10021  0300  3A00               	skipnz
 10022  0301  1903               	goto	u2251
 10023  0302  2B04               	goto	u2250
 10024  0303  2B05               u2251:
 10025  0304                     	goto	l3852
 10026  0304  2B23               u2250:
 10027  0305                     	line	155
 10028                           	
 10029                           l3844:	
 10030  0305                     ;Keypad4x4.c: 154:                 {;Keypad4x4.c: 155:                     delay(delayin
                                 g);
 10031                           	bcf	status, 5	;RP0=0, select bank0
 10032  0305  1283               	bcf	status, 6	;RP1=0, select bank0
 10033  0306  1303               	movf	(_delaying+1),w
 10034  0307  0862               	movwf	(delay@milis+1)
 10035  0308  00F1               	movf	(_delaying),w
 10036  0309  0861               	movwf	(delay@milis)
 10037  030A  00F0               	fcall	_delay
 10038  030B  120A  118A  2012  120A  118A  	line	156
 10039                           	
 10040                           l3846:	
 10041  0310                     ;Keypad4x4.c: 156:                     if(digitalRead(RowPins[0]))
 10042                           	bcf	status, 5	;RP0=0, select bank0
 10043  0310  1283               	bcf	status, 6	;RP1=0, select bank0
 10044  0311  1303               	movf	(_RowPins),w
 10045  0312  0828               	fcall	_digitalRead
 10046  0313  120A  158A  2429  120A  118A  	xorlw	0
 10047  0318  3A00               	skipnz
 10048  0319  1903               	goto	u2261
 10049  031A  2B1C               	goto	u2260
 10050  031B  2B1D               u2261:
 10051  031C                     	goto	l596
 10052  031C  2BB6               u2260:
 10053  031D                     	line	158
 10054                           	
 10055                           l3848:	
 10056  031D                     ;Keypad4x4.c: 157:                     {;Keypad4x4.c: 158:                         retur
                                 n characters[0][3];
 10057                           	bsf	status, 5	;RP0=1, select bank1
 10058  031D  1683               	bcf	status, 6	;RP1=0, select bank1
 10059  031E  1303               	movf	0+(_characters)^080h+03h,w
 10060  031F  0843               	goto	l596
 10061  0320  2BB6               	
 10062                           l3850:	
 10063  0321                     	goto	l596
 10064  0321  2BB6               	line	159
 10065                           ;Keypad4x4.c: 159:                     }
 10066                           	
 10067                           l632:	
 10068  0322                     	line	160
 10069                           ;Keypad4x4.c: 160:                 }
 10070                           	goto	l596
 10071  0322  2BB6               	line	161
 10072                           ;Keypad4x4.c: 161:                 else if(digitalRead(RowPins[1]))
 10073                           	
 10074                           l631:	
 10075  0323                     	
 10076                           l3852:	
 10077  0323                     	bcf	status, 5	;RP0=0, select bank0
 10078  0323  1283               	bcf	status, 6	;RP1=0, select bank0
 10079  0324  1303               	movf	0+(_RowPins)+02h,w
 10080  0325  082A               	fcall	_digitalRead
 10081  0326  120A  158A  2429  120A  118A  	xorlw	0
 10082  032B  3A00               	skipnz
 10083  032C  1903               	goto	u2271
 10084  032D  2B2F               	goto	u2270
 10085  032E  2B30               u2271:
 10086  032F                     	goto	l3862
 10087  032F  2B4E               u2270:
 10088  0330                     	line	163
 10089                           	
 10090                           l3854:	
 10091  0330                     ;Keypad4x4.c: 162:                 {;Keypad4x4.c: 163:                     delay(delayin
                                 g);
 10092                           	bcf	status, 5	;RP0=0, select bank0
 10093  0330  1283               	bcf	status, 6	;RP1=0, select bank0
 10094  0331  1303               	movf	(_delaying+1),w
 10095  0332  0862               	movwf	(delay@milis+1)
 10096  0333  00F1               	movf	(_delaying),w
 10097  0334  0861               	movwf	(delay@milis)
 10098  0335  00F0               	fcall	_delay
 10099  0336  120A  118A  2012  120A  118A  	line	164
 10100                           	
 10101                           l3856:	
 10102  033B                     ;Keypad4x4.c: 164:                     if(digitalRead(RowPins[1]))
 10103                           	bcf	status, 5	;RP0=0, select bank0
 10104  033B  1283               	bcf	status, 6	;RP1=0, select bank0
 10105  033C  1303               	movf	0+(_RowPins)+02h,w
 10106  033D  082A               	fcall	_digitalRead
 10107  033E  120A  158A  2429  120A  118A  	xorlw	0
 10108  0343  3A00               	skipnz
 10109  0344  1903               	goto	u2281
 10110  0345  2B47               	goto	u2280
 10111  0346  2B48               u2281:
 10112  0347                     	goto	l596
 10113  0347  2BB6               u2280:
 10114  0348                     	line	166
 10115                           	
 10116                           l3858:	
 10117  0348                     ;Keypad4x4.c: 165:                     {;Keypad4x4.c: 166:                         retur
                                 n characters[1][3];
 10118                           	bsf	status, 5	;RP0=1, select bank1
 10119  0348  1683               	bcf	status, 6	;RP1=0, select bank1
 10120  0349  1303               	movf	0+(_characters)^080h+07h,w
 10121  034A  0847               	goto	l596
 10122  034B  2BB6               	
 10123                           l3860:	
 10124  034C                     	goto	l596
 10125  034C  2BB6               	line	167
 10126                           ;Keypad4x4.c: 167:                     }
 10127                           	
 10128                           l635:	
 10129  034D                     	line	168
 10130                           ;Keypad4x4.c: 168:                 }
 10131                           	goto	l596
 10132  034D  2BB6               	line	169
 10133                           ;Keypad4x4.c: 169:                 else if(digitalRead(RowPins[2]))
 10134                           	
 10135                           l634:	
 10136  034E                     	
 10137                           l3862:	
 10138  034E                     	bcf	status, 5	;RP0=0, select bank0
 10139  034E  1283               	bcf	status, 6	;RP1=0, select bank0
 10140  034F  1303               	movf	0+(_RowPins)+04h,w
 10141  0350  082C               	fcall	_digitalRead
 10142  0351  120A  158A  2429  120A  118A  	xorlw	0
 10143  0356  3A00               	skipnz
 10144  0357  1903               	goto	u2291
 10145  0358  2B5A               	goto	u2290
 10146  0359  2B5B               u2291:
 10147  035A                     	goto	l3872
 10148  035A  2B79               u2290:
 10149  035B                     	line	171
 10150                           	
 10151                           l3864:	
 10152  035B                     ;Keypad4x4.c: 170:                 {;Keypad4x4.c: 171:                     delay(delayin
                                 g);
 10153                           	bcf	status, 5	;RP0=0, select bank0
 10154  035B  1283               	bcf	status, 6	;RP1=0, select bank0
 10155  035C  1303               	movf	(_delaying+1),w
 10156  035D  0862               	movwf	(delay@milis+1)
 10157  035E  00F1               	movf	(_delaying),w
 10158  035F  0861               	movwf	(delay@milis)
 10159  0360  00F0               	fcall	_delay
 10160  0361  120A  118A  2012  120A  118A  	line	172
 10161                           	
 10162                           l3866:	
 10163  0366                     ;Keypad4x4.c: 172:                     if(digitalRead(RowPins[2]))
 10164                           	bcf	status, 5	;RP0=0, select bank0
 10165  0366  1283               	bcf	status, 6	;RP1=0, select bank0
 10166  0367  1303               	movf	0+(_RowPins)+04h,w
 10167  0368  082C               	fcall	_digitalRead
 10168  0369  120A  158A  2429  120A  118A  	xorlw	0
 10169  036E  3A00               	skipnz
 10170  036F  1903               	goto	u2301
 10171  0370  2B72               	goto	u2300
 10172  0371  2B73               u2301:
 10173  0372                     	goto	l596
 10174  0372  2BB6               u2300:
 10175  0373                     	line	174
 10176                           	
 10177                           l3868:	
 10178  0373                     ;Keypad4x4.c: 173:                     {;Keypad4x4.c: 174:                         retur
                                 n characters[2][3];
 10179                           	bsf	status, 5	;RP0=1, select bank1
 10180  0373  1683               	bcf	status, 6	;RP1=0, select bank1
 10181  0374  1303               	movf	0+(_characters)^080h+0Bh,w
 10182  0375  084B               	goto	l596
 10183  0376  2BB6               	
 10184                           l3870:	
 10185  0377                     	goto	l596
 10186  0377  2BB6               	line	175
 10187                           ;Keypad4x4.c: 175:                     }
 10188                           	
 10189                           l638:	
 10190  0378                     	line	176
 10191                           ;Keypad4x4.c: 176:                 }
 10192                           	goto	l596
 10193  0378  2BB6               	line	177
 10194                           ;Keypad4x4.c: 177:                 else if(digitalRead(RowPins[3]))
 10195                           	
 10196                           l637:	
 10197  0379                     	
 10198                           l3872:	
 10199  0379                     	bcf	status, 5	;RP0=0, select bank0
 10200  0379  1283               	bcf	status, 6	;RP1=0, select bank0
 10201  037A  1303               	movf	0+(_RowPins)+06h,w
 10202  037B  082E               	fcall	_digitalRead
 10203  037C  120A  158A  2429  120A  118A  	xorlw	0
 10204  0381  3A00               	skipnz
 10205  0382  1903               	goto	u2311
 10206  0383  2B85               	goto	u2310
 10207  0384  2B86               u2311:
 10208  0385                     	goto	l3882
 10209  0385  2BA4               u2310:
 10210  0386                     	line	179
 10211                           	
 10212                           l3874:	
 10213  0386                     ;Keypad4x4.c: 178:                 {;Keypad4x4.c: 179:                     delay(delayin
                                 g);
 10214                           	bcf	status, 5	;RP0=0, select bank0
 10215  0386  1283               	bcf	status, 6	;RP1=0, select bank0
 10216  0387  1303               	movf	(_delaying+1),w
 10217  0388  0862               	movwf	(delay@milis+1)
 10218  0389  00F1               	movf	(_delaying),w
 10219  038A  0861               	movwf	(delay@milis)
 10220  038B  00F0               	fcall	_delay
 10221  038C  120A  118A  2012  120A  118A  	line	180
 10222                           	
 10223                           l3876:	
 10224  0391                     ;Keypad4x4.c: 180:                     if(digitalRead(RowPins[3]))
 10225                           	bcf	status, 5	;RP0=0, select bank0
 10226  0391  1283               	bcf	status, 6	;RP1=0, select bank0
 10227  0392  1303               	movf	0+(_RowPins)+06h,w
 10228  0393  082E               	fcall	_digitalRead
 10229  0394  120A  158A  2429  120A  118A  	xorlw	0
 10230  0399  3A00               	skipnz
 10231  039A  1903               	goto	u2321
 10232  039B  2B9D               	goto	u2320
 10233  039C  2B9E               u2321:
 10234  039D                     	goto	l596
 10235  039D  2BB6               u2320:
 10236  039E                     	line	182
 10237                           	
 10238                           l3878:	
 10239  039E                     ;Keypad4x4.c: 181:                     {;Keypad4x4.c: 182:                         retur
                                 n characters[3][3];
 10240                           	bsf	status, 5	;RP0=1, select bank1
 10241  039E  1683               	bcf	status, 6	;RP1=0, select bank1
 10242  039F  1303               	movf	0+(_characters)^080h+0Fh,w
 10243  03A0  084F               	goto	l596
 10244  03A1  2BB6               	
 10245                           l3880:	
 10246  03A2                     	goto	l596
 10247  03A2  2BB6               	line	183
 10248                           ;Keypad4x4.c: 183:                     }
 10249                           	
 10250                           l641:	
 10251  03A3                     	line	184
 10252                           ;Keypad4x4.c: 184:                 }
 10253                           	goto	l596
 10254  03A3  2BB6               	line	185
 10255                           ;Keypad4x4.c: 185:                 else
 10256                           	
 10257                           l640:	
 10258  03A4                     	line	187
 10259                           	
 10260                           l3882:	
 10261  03A4                     ;Keypad4x4.c: 186:                 {;Keypad4x4.c: 187:                     return 'n';
 10262                           	movlw	low(06Eh)
 10263  03A4  306E               	goto	l596
 10264  03A5  2BB6               	
 10265                           l3884:	
 10266  03A6                     	goto	l596
 10267  03A6  2BB6               	line	188
 10268                           ;Keypad4x4.c: 188:                 }
 10269                           	
 10270                           l642:	
 10271  03A7                     	goto	l596
 10272  03A7  2BB6               	
 10273                           l639:	
 10274  03A8                     	goto	l596
 10275  03A8  2BB6               	
 10276                           l636:	
 10277  03A9                     	goto	l596
 10278  03A9  2BB6               	
 10279                           l633:	
 10280  03AA                     	goto	l596
 10281  03AA  2BB6               	line	189
 10282                           ;Keypad4x4.c: 189:             }
 10283                           	
 10284                           l630:	
 10285  03AB                     	goto	l596
 10286  03AB  2BB6               	
 10287                           l627:	
 10288  03AC                     	goto	l596
 10289  03AC  2BB6               	
 10290                           l624:	
 10291  03AD                     	goto	l596
 10292  03AD  2BB6               	
 10293                           l621:	
 10294  03AE                     	goto	l596
 10295  03AE  2BB6               	line	190
 10296                           ;Keypad4x4.c: 190:         }
 10297                           	
 10298                           l618:	
 10299  03AF                     	goto	l596
 10300  03AF  2BB6               	
 10301                           l615:	
 10302  03B0                     	goto	l596
 10303  03B0  2BB6               	
 10304                           l612:	
 10305  03B1                     	goto	l596
 10306  03B1  2BB6               	
 10307                           l609:	
 10308  03B2                     	goto	l596
 10309  03B2  2BB6               	line	191
 10310                           ;Keypad4x4.c: 191:     }
 10311                           	
 10312                           l606:	
 10313  03B3                     	goto	l596
 10314  03B3  2BB6               	
 10315                           l603:	
 10316  03B4                     	goto	l596
 10317  03B4  2BB6               	
 10318                           l600:	
 10319  03B5                     	goto	l596
 10320  03B5  2BB6               	
 10321                           l597:	
 10322  03B6                     	line	192
 10323                           	
 10324                           l596:	
 10325  03B6                     	return
 10326  03B6  0008               	opt stack 0
 10327                           GLOBAL	__end_of_KeypadRead
 10328                           	__end_of_KeypadRead:
 10329  03B7                     	signat	_KeypadRead,89
 10330                           	global	_digitalWrite
 10331                           
 10332 ;; *************** function _digitalWrite *****************
 10333 ;; Defined at:
 10334 ;;		line 169 in file "source.c"
 10335 ;; Parameters:    Size  Location     Type
 10336 ;;  pin             1    wreg     unsigned char 
 10337 ;;  value           1    0[COMMON] unsigned char 
 10338 ;; Auto vars:     Size  Location     Type
 10339 ;;  pin             1    3[COMMON] unsigned char 
 10340 ;; Return value:  Size  Location     Type
 10341 ;;                  1    wreg      void 
 10342 ;; Registers used:
 10343 ;;		wreg, fsr0l, fsr0h, status,2, status,0
 10344 ;; Tracked objects:
 10345 ;;		On entry : 0/0
 10346 ;;		On exit  : 0/0
 10347 ;;		Unchanged: 0/0
 10348 ;; Data sizes:     COMMON   BANK0   BANK1   BANK3   BANK2
 10349 ;;      Params:         1       0       0       0       0
 10350 ;;      Locals:         1       0       0       0       0
 10351 ;;      Temps:          2       0       0       0       0
 10352 ;;      Totals:         4       0       0       0       0
 10353 ;;Total ram usage:        4 bytes
 10354 ;; Hardware stack levels used:    1
 10355 ;; This function calls:
 10356 ;;		Nothing
 10357 ;; This function is called by:
 10358 ;;		_loop
 10359 ;;		_IOConfiguration
 10360 ;;		_KeypadRead
 10361 ;;		_WriteInstruction
 10362 ;;		_WriteData
 10363 ;;		_ByteByNibble
 10364 ;;		_lcdWritePort
 10365 ;; This function uses a non-reentrant model
 10366 ;;
 10367                           psect	text22,local,class=CODE,delta=2,merge=1,group=0
 10368                           	file	"source.c"
 10369                           	line	169
 10370                           global __ptext22
 10371                           __ptext22:	;psect for function _digitalWrite
 10372  0B06                     psect	text22
 10373                           	file	"source.c"
 10374                           	line	169
 10375                           	global	__size_of_digitalWrite
 10376                           	__size_of_digitalWrite	equ	__end_of_digitalWrite-_digitalWrite
 10377  0123                     	
 10378                           _digitalWrite:	
 10379  0B06                     ;incstack = 0
 10380                           	opt	stack 4
 10381                           ; Regs used in _digitalWrite: [wreg-fsr0h+status,2+status,0]
 10382                           ;digitalWrite@pin stored from wreg
 10383                           	movwf	(digitalWrite@pin)
 10384  0B06  00F3               	line	171
 10385                           	
 10386                           l3074:	
 10387  0B07                     ;source.c: 169: void digitalWrite(char pin, char value);source.c: 170: {;source.c: 171: 
                                     switch(pin)
 10388                           	goto	l3132
 10389  0B07  2BD3               	line	173
 10390                           ;source.c: 172:     {;source.c: 173:         case 0:
 10391                           	
 10392                           l183:	
 10393  0B08                     	line	174
 10394                           	
 10395                           l3076:	
 10396  0B08                     ;source.c: 174:             PORTCbits.RC7 = value;
 10397                           	rrf	(digitalWrite@value),w
 10398  0B08  0C70               	bcf	status, 5	;RP0=0, select bank0
 10399  0B09  1283               	bcf	status, 6	;RP1=0, select bank0
 10400  0B0A  1303               	skipc
 10401  0B0B  1C03               	bcf	(7),7	;volatile
 10402  0B0C  1387               	skipnc
 10403  0B0D  1803               	bsf	(7),7	;volatile
 10404  0B0E  1787               	line	175
 10405                           ;source.c: 175:             break;
 10406                           	goto	l209
 10407  0B0F  2C28               	line	176
 10408                           ;source.c: 176:         case 1:
 10409                           	
 10410                           l185:	
 10411  0B10                     	line	177
 10412                           	
 10413                           l3078:	
 10414  0B10                     ;source.c: 177:             PORTCbits.RC6 = value;
 10415                           	rrf	(digitalWrite@value),w
 10416  0B10  0C70               	bcf	status, 5	;RP0=0, select bank0
 10417  0B11  1283               	bcf	status, 6	;RP1=0, select bank0
 10418  0B12  1303               	skipc
 10419  0B13  1C03               	bcf	(7),6	;volatile
 10420  0B14  1307               	skipnc
 10421  0B15  1803               	bsf	(7),6	;volatile
 10422  0B16  1707               	line	178
 10423                           ;source.c: 178:             break;
 10424                           	goto	l209
 10425  0B17  2C28               	line	179
 10426                           ;source.c: 179:         case 2:
 10427                           	
 10428                           l186:	
 10429  0B18                     	line	180
 10430                           	
 10431                           l3080:	
 10432  0B18                     ;source.c: 180:             PORTCbits.RC5 = value;
 10433                           	rrf	(digitalWrite@value),w
 10434  0B18  0C70               	bcf	status, 5	;RP0=0, select bank0
 10435  0B19  1283               	bcf	status, 6	;RP1=0, select bank0
 10436  0B1A  1303               	skipc
 10437  0B1B  1C03               	bcf	(7),5	;volatile
 10438  0B1C  1287               	skipnc
 10439  0B1D  1803               	bsf	(7),5	;volatile
 10440  0B1E  1687               	line	181
 10441                           ;source.c: 181:             break;
 10442                           	goto	l209
 10443  0B1F  2C28               	line	182
 10444                           ;source.c: 182:         case 3:
 10445                           	
 10446                           l187:	
 10447  0B20                     	line	183
 10448                           	
 10449                           l3082:	
 10450  0B20                     ;source.c: 183:             PORTCbits.RC4 = value;
 10451                           	rrf	(digitalWrite@value),w
 10452  0B20  0C70               	bcf	status, 5	;RP0=0, select bank0
 10453  0B21  1283               	bcf	status, 6	;RP1=0, select bank0
 10454  0B22  1303               	skipc
 10455  0B23  1C03               	bcf	(7),4	;volatile
 10456  0B24  1207               	skipnc
 10457  0B25  1803               	bsf	(7),4	;volatile
 10458  0B26  1607               	line	184
 10459                           ;source.c: 184:             break;
 10460                           	goto	l209
 10461  0B27  2C28               	line	185
 10462                           ;source.c: 185:         case 4:
 10463                           	
 10464                           l188:	
 10465  0B28                     	line	186
 10466                           	
 10467                           l3084:	
 10468  0B28                     ;source.c: 186:             PORTCbits.RC3 = value;
 10469                           	rrf	(digitalWrite@value),w
 10470  0B28  0C70               	bcf	status, 5	;RP0=0, select bank0
 10471  0B29  1283               	bcf	status, 6	;RP1=0, select bank0
 10472  0B2A  1303               	skipc
 10473  0B2B  1C03               	bcf	(7),3	;volatile
 10474  0B2C  1187               	skipnc
 10475  0B2D  1803               	bsf	(7),3	;volatile
 10476  0B2E  1587               	line	187
 10477                           ;source.c: 187:             break;
 10478                           	goto	l209
 10479  0B2F  2C28               	line	188
 10480                           ;source.c: 188:         case 5:
 10481                           	
 10482                           l189:	
 10483  0B30                     	line	189
 10484                           	
 10485                           l3086:	
 10486  0B30                     ;source.c: 189:             CCP1CON = 0x00;
 10487                           	bcf	status, 5	;RP0=0, select bank0
 10488  0B30  1283               	bcf	status, 6	;RP1=0, select bank0
 10489  0B31  1303               	clrf	(23)	;volatile
 10490  0B32  0197               	line	190
 10491                           	
 10492                           l3088:	
 10493  0B33                     ;source.c: 190:             PORTCbits.RC2 = value;
 10494                           	rrf	(digitalWrite@value),w
 10495  0B33  0C70               	skipc
 10496  0B34  1C03               	bcf	(7),2	;volatile
 10497  0B35  1107               	skipnc
 10498  0B36  1803               	bsf	(7),2	;volatile
 10499  0B37  1507               	line	191
 10500                           ;source.c: 191:             break;
 10501                           	goto	l209
 10502  0B38  2C28               	line	192
 10503                           ;source.c: 192:         case 6:
 10504                           	
 10505                           l190:	
 10506  0B39                     	line	193
 10507                           	
 10508                           l3090:	
 10509  0B39                     ;source.c: 193:             CCP2CON = 0x00;
 10510                           	bcf	status, 5	;RP0=0, select bank0
 10511  0B39  1283               	bcf	status, 6	;RP1=0, select bank0
 10512  0B3A  1303               	clrf	(29)	;volatile
 10513  0B3B  019D               	line	194
 10514                           	
 10515                           l3092:	
 10516  0B3C                     ;source.c: 194:             PORTCbits.RC1 = value;
 10517                           	rrf	(digitalWrite@value),w
 10518  0B3C  0C70               	skipc
 10519  0B3D  1C03               	bcf	(7),1	;volatile
 10520  0B3E  1087               	skipnc
 10521  0B3F  1803               	bsf	(7),1	;volatile
 10522  0B40  1487               	line	195
 10523                           ;source.c: 195:             break;
 10524                           	goto	l209
 10525  0B41  2C28               	line	196
 10526                           ;source.c: 196:         case 7:
 10527                           	
 10528                           l191:	
 10529  0B42                     	line	197
 10530                           	
 10531                           l3094:	
 10532  0B42                     ;source.c: 197:             PORTCbits.RC0 = value;
 10533                           	rrf	(digitalWrite@value),w
 10534  0B42  0C70               	bcf	status, 5	;RP0=0, select bank0
 10535  0B43  1283               	bcf	status, 6	;RP1=0, select bank0
 10536  0B44  1303               	skipc
 10537  0B45  1C03               	bcf	(7),0	;volatile
 10538  0B46  1007               	skipnc
 10539  0B47  1803               	bsf	(7),0	;volatile
 10540  0B48  1407               	line	198
 10541                           ;source.c: 198:             break;
 10542                           	goto	l209
 10543  0B49  2C28               	line	199
 10544                           ;source.c: 199:         case 8:
 10545                           	
 10546                           l192:	
 10547  0B4A                     	line	200
 10548                           	
 10549                           l3096:	
 10550  0B4A                     ;source.c: 200:             PORTBbits.RB0 = value;
 10551                           	rrf	(digitalWrite@value),w
 10552  0B4A  0C70               	bcf	status, 5	;RP0=0, select bank0
 10553  0B4B  1283               	bcf	status, 6	;RP1=0, select bank0
 10554  0B4C  1303               	skipc
 10555  0B4D  1C03               	bcf	(6),0	;volatile
 10556  0B4E  1006               	skipnc
 10557  0B4F  1803               	bsf	(6),0	;volatile
 10558  0B50  1406               	line	201
 10559                           ;source.c: 201:             break;
 10560                           	goto	l209
 10561  0B51  2C28               	line	202
 10562                           ;source.c: 202:         case 9:
 10563                           	
 10564                           l193:	
 10565  0B52                     	line	203
 10566                           	
 10567                           l3098:	
 10568  0B52                     ;source.c: 203:             PORTBbits.RB1 = value;
 10569                           	rrf	(digitalWrite@value),w
 10570  0B52  0C70               	bcf	status, 5	;RP0=0, select bank0
 10571  0B53  1283               	bcf	status, 6	;RP1=0, select bank0
 10572  0B54  1303               	skipc
 10573  0B55  1C03               	bcf	(6),1	;volatile
 10574  0B56  1086               	skipnc
 10575  0B57  1803               	bsf	(6),1	;volatile
 10576  0B58  1486               	line	204
 10577                           ;source.c: 204:             break;
 10578                           	goto	l209
 10579  0B59  2C28               	line	205
 10580                           ;source.c: 205:         case 10:
 10581                           	
 10582                           l194:	
 10583  0B5A                     	line	206
 10584                           	
 10585                           l3100:	
 10586  0B5A                     ;source.c: 206:             PORTBbits.RB2 = value;
 10587                           	rrf	(digitalWrite@value),w
 10588  0B5A  0C70               	bcf	status, 5	;RP0=0, select bank0
 10589  0B5B  1283               	bcf	status, 6	;RP1=0, select bank0
 10590  0B5C  1303               	skipc
 10591  0B5D  1C03               	bcf	(6),2	;volatile
 10592  0B5E  1106               	skipnc
 10593  0B5F  1803               	bsf	(6),2	;volatile
 10594  0B60  1506               	line	207
 10595                           ;source.c: 207:             break;
 10596                           	goto	l209
 10597  0B61  2C28               	line	208
 10598                           ;source.c: 208:         case 11:
 10599                           	
 10600                           l195:	
 10601  0B62                     	line	209
 10602                           	
 10603                           l3102:	
 10604  0B62                     ;source.c: 209:             PORTBbits.RB3 = value;
 10605                           	rrf	(digitalWrite@value),w
 10606  0B62  0C70               	bcf	status, 5	;RP0=0, select bank0
 10607  0B63  1283               	bcf	status, 6	;RP1=0, select bank0
 10608  0B64  1303               	skipc
 10609  0B65  1C03               	bcf	(6),3	;volatile
 10610  0B66  1186               	skipnc
 10611  0B67  1803               	bsf	(6),3	;volatile
 10612  0B68  1586               	line	210
 10613                           ;source.c: 210:             break;
 10614                           	goto	l209
 10615  0B69  2C28               	line	211
 10616                           ;source.c: 211:         case 12:
 10617                           	
 10618                           l196:	
 10619  0B6A                     	line	212
 10620                           	
 10621                           l3104:	
 10622  0B6A                     ;source.c: 212:             PORTBbits.RB4 = value;
 10623                           	rrf	(digitalWrite@value),w
 10624  0B6A  0C70               	bcf	status, 5	;RP0=0, select bank0
 10625  0B6B  1283               	bcf	status, 6	;RP1=0, select bank0
 10626  0B6C  1303               	skipc
 10627  0B6D  1C03               	bcf	(6),4	;volatile
 10628  0B6E  1206               	skipnc
 10629  0B6F  1803               	bsf	(6),4	;volatile
 10630  0B70  1606               	line	213
 10631                           ;source.c: 213:             break;
 10632                           	goto	l209
 10633  0B71  2C28               	line	214
 10634                           ;source.c: 214:         case 13:
 10635                           	
 10636                           l197:	
 10637  0B72                     	line	215
 10638                           	
 10639                           l3106:	
 10640  0B72                     ;source.c: 215:             PORTBbits.RB5 = value;
 10641                           	rrf	(digitalWrite@value),w
 10642  0B72  0C70               	bcf	status, 5	;RP0=0, select bank0
 10643  0B73  1283               	bcf	status, 6	;RP1=0, select bank0
 10644  0B74  1303               	skipc
 10645  0B75  1C03               	bcf	(6),5	;volatile
 10646  0B76  1286               	skipnc
 10647  0B77  1803               	bsf	(6),5	;volatile
 10648  0B78  1686               	line	216
 10649                           ;source.c: 216:             break;
 10650                           	goto	l209
 10651  0B79  2C28               	line	217
 10652                           ;source.c: 217:         case 14:
 10653                           	
 10654                           l198:	
 10655  0B7A                     	line	218
 10656                           	
 10657                           l3108:	
 10658  0B7A                     ;source.c: 218:             PORTBbits.RB6 = value;
 10659                           	rrf	(digitalWrite@value),w
 10660  0B7A  0C70               	bcf	status, 5	;RP0=0, select bank0
 10661  0B7B  1283               	bcf	status, 6	;RP1=0, select bank0
 10662  0B7C  1303               	skipc
 10663  0B7D  1C03               	bcf	(6),6	;volatile
 10664  0B7E  1306               	skipnc
 10665  0B7F  1803               	bsf	(6),6	;volatile
 10666  0B80  1706               	line	219
 10667                           ;source.c: 219:             break;
 10668                           	goto	l209
 10669  0B81  2C28               	line	220
 10670                           ;source.c: 220:         case 15:
 10671                           	
 10672                           l199:	
 10673  0B82                     	line	221
 10674                           	
 10675                           l3110:	
 10676  0B82                     ;source.c: 221:             PORTBbits.RB7 = value;
 10677                           	rrf	(digitalWrite@value),w
 10678  0B82  0C70               	bcf	status, 5	;RP0=0, select bank0
 10679  0B83  1283               	bcf	status, 6	;RP1=0, select bank0
 10680  0B84  1303               	skipc
 10681  0B85  1C03               	bcf	(6),7	;volatile
 10682  0B86  1386               	skipnc
 10683  0B87  1803               	bsf	(6),7	;volatile
 10684  0B88  1786               	line	222
 10685                           ;source.c: 222:             break;
 10686                           	goto	l209
 10687  0B89  2C28               	line	223
 10688                           ;source.c: 223:         case 16:
 10689                           	
 10690                           l200:	
 10691  0B8A                     	line	224
 10692                           	
 10693                           l3112:	
 10694  0B8A                     ;source.c: 224:             PORTDbits.RD0 = value;
 10695                           	rrf	(digitalWrite@value),w
 10696  0B8A  0C70               	bcf	status, 5	;RP0=0, select bank0
 10697  0B8B  1283               	bcf	status, 6	;RP1=0, select bank0
 10698  0B8C  1303               	skipc
 10699  0B8D  1C03               	bcf	(8),0	;volatile
 10700  0B8E  1008               	skipnc
 10701  0B8F  1803               	bsf	(8),0	;volatile
 10702  0B90  1408               	line	225
 10703                           ;source.c: 225:             break;
 10704                           	goto	l209
 10705  0B91  2C28               	line	226
 10706                           ;source.c: 226:         case 17:
 10707                           	
 10708                           l201:	
 10709  0B92                     	line	227
 10710                           	
 10711                           l3114:	
 10712  0B92                     ;source.c: 227:             PORTDbits.RD1 = value;
 10713                           	rrf	(digitalWrite@value),w
 10714  0B92  0C70               	bcf	status, 5	;RP0=0, select bank0
 10715  0B93  1283               	bcf	status, 6	;RP1=0, select bank0
 10716  0B94  1303               	skipc
 10717  0B95  1C03               	bcf	(8),1	;volatile
 10718  0B96  1088               	skipnc
 10719  0B97  1803               	bsf	(8),1	;volatile
 10720  0B98  1488               	line	228
 10721                           ;source.c: 228:             break;
 10722                           	goto	l209
 10723  0B99  2C28               	line	229
 10724                           ;source.c: 229:         case 18:
 10725                           	
 10726                           l202:	
 10727  0B9A                     	line	230
 10728                           	
 10729                           l3116:	
 10730  0B9A                     ;source.c: 230:             PORTDbits.RD2 = value;
 10731                           	rrf	(digitalWrite@value),w
 10732  0B9A  0C70               	bcf	status, 5	;RP0=0, select bank0
 10733  0B9B  1283               	bcf	status, 6	;RP1=0, select bank0
 10734  0B9C  1303               	skipc
 10735  0B9D  1C03               	bcf	(8),2	;volatile
 10736  0B9E  1108               	skipnc
 10737  0B9F  1803               	bsf	(8),2	;volatile
 10738  0BA0  1508               	line	231
 10739                           ;source.c: 231:             break;
 10740                           	goto	l209
 10741  0BA1  2C28               	line	232
 10742                           ;source.c: 232:         case 19:
 10743                           	
 10744                           l203:	
 10745  0BA2                     	line	233
 10746                           	
 10747                           l3118:	
 10748  0BA2                     ;source.c: 233:             PORTDbits.RD3 = value;
 10749                           	rrf	(digitalWrite@value),w
 10750  0BA2  0C70               	bcf	status, 5	;RP0=0, select bank0
 10751  0BA3  1283               	bcf	status, 6	;RP1=0, select bank0
 10752  0BA4  1303               	skipc
 10753  0BA5  1C03               	bcf	(8),3	;volatile
 10754  0BA6  1188               	skipnc
 10755  0BA7  1803               	bsf	(8),3	;volatile
 10756  0BA8  1588               	line	234
 10757                           ;source.c: 234:             break;
 10758                           	goto	l209
 10759  0BA9  2C28               	line	235
 10760                           ;source.c: 235:         case 20:
 10761                           	
 10762                           l204:	
 10763  0BAA                     	line	236
 10764                           	
 10765                           l3120:	
 10766  0BAA                     ;source.c: 236:             PORTDbits.RD4 = value;
 10767                           	rrf	(digitalWrite@value),w
 10768  0BAA  0C70               	bcf	status, 5	;RP0=0, select bank0
 10769  0BAB  1283               	bcf	status, 6	;RP1=0, select bank0
 10770  0BAC  1303               	skipc
 10771  0BAD  1C03               	bcf	(8),4	;volatile
 10772  0BAE  1208               	skipnc
 10773  0BAF  1803               	bsf	(8),4	;volatile
 10774  0BB0  1608               	line	237
 10775                           ;source.c: 237:             break;
 10776                           	goto	l209
 10777  0BB1  2C28               	line	238
 10778                           ;source.c: 238:         case 21:
 10779                           	
 10780                           l205:	
 10781  0BB2                     	line	239
 10782                           	
 10783                           l3122:	
 10784  0BB2                     ;source.c: 239:             PORTDbits.RD5 = value;
 10785                           	rrf	(digitalWrite@value),w
 10786  0BB2  0C70               	bcf	status, 5	;RP0=0, select bank0
 10787  0BB3  1283               	bcf	status, 6	;RP1=0, select bank0
 10788  0BB4  1303               	skipc
 10789  0BB5  1C03               	bcf	(8),5	;volatile
 10790  0BB6  1288               	skipnc
 10791  0BB7  1803               	bsf	(8),5	;volatile
 10792  0BB8  1688               	line	240
 10793                           ;source.c: 240:             break;
 10794                           	goto	l209
 10795  0BB9  2C28               	line	241
 10796                           ;source.c: 241:         case 22:
 10797                           	
 10798                           l206:	
 10799  0BBA                     	line	242
 10800                           	
 10801                           l3124:	
 10802  0BBA                     ;source.c: 242:             PORTDbits.RD6 = value;
 10803                           	rrf	(digitalWrite@value),w
 10804  0BBA  0C70               	bcf	status, 5	;RP0=0, select bank0
 10805  0BBB  1283               	bcf	status, 6	;RP1=0, select bank0
 10806  0BBC  1303               	skipc
 10807  0BBD  1C03               	bcf	(8),6	;volatile
 10808  0BBE  1308               	skipnc
 10809  0BBF  1803               	bsf	(8),6	;volatile
 10810  0BC0  1708               	line	243
 10811                           ;source.c: 243:             break;
 10812                           	goto	l209
 10813  0BC1  2C28               	line	244
 10814                           ;source.c: 244:         case 23:
 10815                           	
 10816                           l207:	
 10817  0BC2                     	line	245
 10818                           	
 10819                           l3126:	
 10820  0BC2                     ;source.c: 245:             PORTDbits.RD7 = value;
 10821                           	rrf	(digitalWrite@value),w
 10822  0BC2  0C70               	bcf	status, 5	;RP0=0, select bank0
 10823  0BC3  1283               	bcf	status, 6	;RP1=0, select bank0
 10824  0BC4  1303               	skipc
 10825  0BC5  1C03               	bcf	(8),7	;volatile
 10826  0BC6  1388               	skipnc
 10827  0BC7  1803               	bsf	(8),7	;volatile
 10828  0BC8  1788               	line	246
 10829                           ;source.c: 246:             break;
 10830                           	goto	l209
 10831  0BC9  2C28               	line	247
 10832                           ;source.c: 247:         case 24:
 10833                           	
 10834                           l208:	
 10835  0BCA                     	line	248
 10836                           	
 10837                           l3128:	
 10838  0BCA                     ;source.c: 248:             PORTAbits.RA4 = value;
 10839                           	rrf	(digitalWrite@value),w
 10840  0BCA  0C70               	bcf	status, 5	;RP0=0, select bank0
 10841  0BCB  1283               	bcf	status, 6	;RP1=0, select bank0
 10842  0BCC  1303               	skipc
 10843  0BCD  1C03               	bcf	(5),4	;volatile
 10844  0BCE  1205               	skipnc
 10845  0BCF  1803               	bsf	(5),4	;volatile
 10846  0BD0  1605               	line	249
 10847                           ;source.c: 249:             break;
 10848                           	goto	l209
 10849  0BD1  2C28               	line	258
 10850                           	
 10851                           l3130:	
 10852  0BD2                     ;source.c: 258:     }
 10853                           	goto	l209
 10854  0BD2  2C28               	
 10855                           l182:	
 10856  0BD3                     	
 10857                           l3132:	
 10858  0BD3                     	movf	(digitalWrite@pin),w
 10859  0BD3  0873               	movwf	(??_digitalWrite+0)+0
 10860  0BD4  00F1               	clrf	(??_digitalWrite+0)+0+1
 10861  0BD5  01F2               	; Switch on 2 bytes has been partitioned into a top level switch of size 1, and 1 sub-s
                                 witches
 10862                           ; Switch size 1, requested type "space"
 10863                           ; Number of cases is 1, Range of values is 0 to 0
 10864                           ; switch strategies available:
 10865                           ; Name         Instructions Cycles
 10866                           ; simple_byte            4     3 (average)
 10867                           ; direct_byte           11     8 (fixed)
 10868                           ; jumptable            260     6 (fixed)
 10869                           ;	Chosen strategy is simple_byte
 10870                           
 10871                           	movf 1+(??_digitalWrite+0)+0,w
 10872  0BD6  0872               	opt asmopt_push
 10873                           	opt asmopt_off
 10874                           	xorlw	0^0	; case 0
 10875  0BD7  3A00               	skipnz
 10876  0BD8  1903               	goto	l4528
 10877  0BD9  2BDB               	goto	l209
 10878  0BDA  2C28               	opt asmopt_pop
 10879                           	
 10880                           l4528:	
 10881  0BDB                     ; Switch size 1, requested type "space"
 10882                           ; Number of cases is 25, Range of values is 0 to 24
 10883                           ; switch strategies available:
 10884                           ; Name         Instructions Cycles
 10885                           ; simple_byte           76    39 (average)
 10886                           ; direct_byte           83     8 (fixed)
 10887                           ; jumptable            260     6 (fixed)
 10888                           ;	Chosen strategy is simple_byte
 10889                           
 10890                           	movf 0+(??_digitalWrite+0)+0,w
 10891  0BDB  0871               	opt asmopt_push
 10892                           	opt asmopt_off
 10893                           	xorlw	0^0	; case 0
 10894  0BDC  3A00               	skipnz
 10895  0BDD  1903               	goto	l3076
 10896  0BDE  2B08               	xorlw	1^0	; case 1
 10897  0BDF  3A01               	skipnz
 10898  0BE0  1903               	goto	l3078
 10899  0BE1  2B10               	xorlw	2^1	; case 2
 10900  0BE2  3A03               	skipnz
 10901  0BE3  1903               	goto	l3080
 10902  0BE4  2B18               	xorlw	3^2	; case 3
 10903  0BE5  3A01               	skipnz
 10904  0BE6  1903               	goto	l3082
 10905  0BE7  2B20               	xorlw	4^3	; case 4
 10906  0BE8  3A07               	skipnz
 10907  0BE9  1903               	goto	l3084
 10908  0BEA  2B28               	xorlw	5^4	; case 5
 10909  0BEB  3A01               	skipnz
 10910  0BEC  1903               	goto	l3086
 10911  0BED  2B30               	xorlw	6^5	; case 6
 10912  0BEE  3A03               	skipnz
 10913  0BEF  1903               	goto	l3090
 10914  0BF0  2B39               	xorlw	7^6	; case 7
 10915  0BF1  3A01               	skipnz
 10916  0BF2  1903               	goto	l3094
 10917  0BF3  2B42               	xorlw	8^7	; case 8
 10918  0BF4  3A0F               	skipnz
 10919  0BF5  1903               	goto	l3096
 10920  0BF6  2B4A               	xorlw	9^8	; case 9
 10921  0BF7  3A01               	skipnz
 10922  0BF8  1903               	goto	l3098
 10923  0BF9  2B52               	xorlw	10^9	; case 10
 10924  0BFA  3A03               	skipnz
 10925  0BFB  1903               	goto	l3100
 10926  0BFC  2B5A               	xorlw	11^10	; case 11
 10927  0BFD  3A01               	skipnz
 10928  0BFE  1903               	goto	l3102
 10929  0BFF  2B62               	xorlw	12^11	; case 12
 10930  0C00  3A07               	skipnz
 10931  0C01  1903               	goto	l3104
 10932  0C02  2B6A               	xorlw	13^12	; case 13
 10933  0C03  3A01               	skipnz
 10934  0C04  1903               	goto	l3106
 10935  0C05  2B72               	xorlw	14^13	; case 14
 10936  0C06  3A03               	skipnz
 10937  0C07  1903               	goto	l3108
 10938  0C08  2B7A               	xorlw	15^14	; case 15
 10939  0C09  3A01               	skipnz
 10940  0C0A  1903               	goto	l3110
 10941  0C0B  2B82               	xorlw	16^15	; case 16
 10942  0C0C  3A1F               	skipnz
 10943  0C0D  1903               	goto	l3112
 10944  0C0E  2B8A               	xorlw	17^16	; case 17
 10945  0C0F  3A01               	skipnz
 10946  0C10  1903               	goto	l3114
 10947  0C11  2B92               	xorlw	18^17	; case 18
 10948  0C12  3A03               	skipnz
 10949  0C13  1903               	goto	l3116
 10950  0C14  2B9A               	xorlw	19^18	; case 19
 10951  0C15  3A01               	skipnz
 10952  0C16  1903               	goto	l3118
 10953  0C17  2BA2               	xorlw	20^19	; case 20
 10954  0C18  3A07               	skipnz
 10955  0C19  1903               	goto	l3120
 10956  0C1A  2BAA               	xorlw	21^20	; case 21
 10957  0C1B  3A01               	skipnz
 10958  0C1C  1903               	goto	l3122
 10959  0C1D  2BB2               	xorlw	22^21	; case 22
 10960  0C1E  3A03               	skipnz
 10961  0C1F  1903               	goto	l3124
 10962  0C20  2BBA               	xorlw	23^22	; case 23
 10963  0C21  3A01               	skipnz
 10964  0C22  1903               	goto	l3126
 10965  0C23  2BC2               	xorlw	24^23	; case 24
 10966  0C24  3A0F               	skipnz
 10967  0C25  1903               	goto	l3128
 10968  0C26  2BCA               	goto	l209
 10969  0C27  2C28               	opt asmopt_pop
 10970                           
 10971                           	
 10972                           l184:	
 10973  0C28                     	line	259
 10974                           	
 10975                           l209:	
 10976  0C28                     	return
 10977  0C28  0008               	opt stack 0
 10978                           GLOBAL	__end_of_digitalWrite
 10979                           	__end_of_digitalWrite:
 10980  0C29                     	signat	_digitalWrite,8313
 10981                           	global	_digitalRead
 10982                           
 10983 ;; *************** function _digitalRead *****************
 10984 ;; Defined at:
 10985 ;;		line 260 in file "source.c"
 10986 ;; Parameters:    Size  Location     Type
 10987 ;;  pin             1    wreg     unsigned char 
 10988 ;; Auto vars:     Size  Location     Type
 10989 ;;  pin             1    2[COMMON] unsigned char 
 10990 ;; Return value:  Size  Location     Type
 10991 ;;                  1    wreg      unsigned char 
 10992 ;; Registers used:
 10993 ;;		wreg, fsr0l, fsr0h, status,2, status,0
 10994 ;; Tracked objects:
 10995 ;;		On entry : 0/0
 10996 ;;		On exit  : 0/0
 10997 ;;		Unchanged: 0/0
 10998 ;; Data sizes:     COMMON   BANK0   BANK1   BANK3   BANK2
 10999 ;;      Params:         0       0       0       0       0
 11000 ;;      Locals:         1       0       0       0       0
 11001 ;;      Temps:          2       0       0       0       0
 11002 ;;      Totals:         3       0       0       0       0
 11003 ;;Total ram usage:        3 bytes
 11004 ;; Hardware stack levels used:    1
 11005 ;; This function calls:
 11006 ;;		Nothing
 11007 ;; This function is called by:
 11008 ;;		_loop
 11009 ;;		_KeypadRead
 11010 ;; This function uses a non-reentrant model
 11011 ;;
 11012                           psect	text23,local,class=CODE,delta=2,merge=1,group=0
 11013                           	line	260
 11014                           global __ptext23
 11015                           __ptext23:	;psect for function _digitalRead
 11016  0C29                     psect	text23
 11017                           	file	"source.c"
 11018                           	line	260
 11019                           	global	__size_of_digitalRead
 11020                           	__size_of_digitalRead	equ	__end_of_digitalRead-_digitalRead
 11021  0129                     	
 11022                           _digitalRead:	
 11023  0C29                     ;incstack = 0
 11024                           	opt	stack 6
 11025                           ; Regs used in _digitalRead: [wreg-fsr0h+status,2+status,0]
 11026                           ;digitalRead@pin stored from wreg
 11027                           	movwf	(digitalRead@pin)
 11028  0C29  00F2               	line	262
 11029                           	
 11030                           l3290:	
 11031  0C2A                     ;source.c: 260: char digitalRead(char pin);source.c: 261: {;source.c: 262:     switch(pi
                                 n)
 11032                           	goto	l3444
 11033  0C2A  2CFC               	line	264
 11034                           ;source.c: 263:     {;source.c: 264:         case 0:
 11035                           	
 11036                           l213:	
 11037  0C2B                     	line	265
 11038                           	
 11039                           l3292:	
 11040  0C2B                     ;source.c: 265:              return PORTCbits.RC7;
 11041                           	bcf	status, 5	;RP0=0, select bank0
 11042  0C2B  1283               	bcf	status, 6	;RP1=0, select bank0
 11043  0C2C  1303               	rlf	(7),w	;volatile
 11044  0C2D  0D07               	rlf	(7),w	;volatile
 11045  0C2E  0D07               	andlw	1
 11046  0C2F  3901               	goto	l214
 11047  0C30  2D51               	
 11048                           l3294:	
 11049  0C31                     	goto	l214
 11050  0C31  2D51               	line	266
 11051                           	
 11052                           l3296:	
 11053  0C32                     ;source.c: 266:             break;
 11054                           	goto	l214
 11055  0C32  2D51               	line	267
 11056                           ;source.c: 267:         case 1:
 11057                           	
 11058                           l216:	
 11059  0C33                     	line	268
 11060                           	
 11061                           l3298:	
 11062  0C33                     ;source.c: 268:             return PORTCbits.RC6;
 11063                           	bcf	status, 5	;RP0=0, select bank0
 11064  0C33  1283               	bcf	status, 6	;RP1=0, select bank0
 11065  0C34  1303               	swapf	(7),w	;volatile
 11066  0C35  0E07               	movwf	(??_digitalRead+0)+0
 11067  0C36  00F0               	rrf	(??_digitalRead+0)+0,f
 11068  0C37  0CF0               	rrf	(??_digitalRead+0)+0,w
 11069  0C38  0C70               	andlw	(1<<1)-1
 11070  0C39  3901               	goto	l214
 11071  0C3A  2D51               	
 11072                           l3300:	
 11073  0C3B                     	goto	l214
 11074  0C3B  2D51               	line	269
 11075                           	
 11076                           l3302:	
 11077  0C3C                     ;source.c: 269:             break;
 11078                           	goto	l214
 11079  0C3C  2D51               	line	270
 11080                           ;source.c: 270:         case 2:
 11081                           	
 11082                           l217:	
 11083  0C3D                     	line	271
 11084                           	
 11085                           l3304:	
 11086  0C3D                     ;source.c: 271:             return PORTCbits.RC5;
 11087                           	bcf	status, 5	;RP0=0, select bank0
 11088  0C3D  1283               	bcf	status, 6	;RP1=0, select bank0
 11089  0C3E  1303               	swapf	(7),w	;volatile
 11090  0C3F  0E07               	movwf	(??_digitalRead+0)+0
 11091  0C40  00F0               	rrf	(??_digitalRead+0)+0,w
 11092  0C41  0C70               	andlw	(1<<1)-1
 11093  0C42  3901               	goto	l214
 11094  0C43  2D51               	
 11095                           l3306:	
 11096  0C44                     	goto	l214
 11097  0C44  2D51               	line	272
 11098                           	
 11099                           l3308:	
 11100  0C45                     ;source.c: 272:             break;
 11101                           	goto	l214
 11102  0C45  2D51               	line	273
 11103                           ;source.c: 273:         case 3:
 11104                           	
 11105                           l218:	
 11106  0C46                     	line	274
 11107                           	
 11108                           l3310:	
 11109  0C46                     ;source.c: 274:             return PORTCbits.RC4;
 11110                           	bcf	status, 5	;RP0=0, select bank0
 11111  0C46  1283               	bcf	status, 6	;RP1=0, select bank0
 11112  0C47  1303               	swapf	(7),w	;volatile
 11113  0C48  0E07               	andlw	(1<<1)-1
 11114  0C49  3901               	goto	l214
 11115  0C4A  2D51               	
 11116                           l3312:	
 11117  0C4B                     	goto	l214
 11118  0C4B  2D51               	line	275
 11119                           	
 11120                           l3314:	
 11121  0C4C                     ;source.c: 275:             break;
 11122                           	goto	l214
 11123  0C4C  2D51               	line	276
 11124                           ;source.c: 276:         case 4:
 11125                           	
 11126                           l219:	
 11127  0C4D                     	line	277
 11128                           	
 11129                           l3316:	
 11130  0C4D                     ;source.c: 277:             return PORTCbits.RC3;
 11131                           	bcf	status, 5	;RP0=0, select bank0
 11132  0C4D  1283               	bcf	status, 6	;RP1=0, select bank0
 11133  0C4E  1303               	rrf	(7),w	;volatile
 11134  0C4F  0C07               	movwf	(??_digitalRead+0)+0
 11135  0C50  00F0               	rrf	(??_digitalRead+0)+0,f
 11136  0C51  0CF0               	rrf	(??_digitalRead+0)+0,w
 11137  0C52  0C70               	andlw	(1<<1)-1
 11138  0C53  3901               	goto	l214
 11139  0C54  2D51               	
 11140                           l3318:	
 11141  0C55                     	goto	l214
 11142  0C55  2D51               	line	278
 11143                           	
 11144                           l3320:	
 11145  0C56                     ;source.c: 278:             break;
 11146                           	goto	l214
 11147  0C56  2D51               	line	279
 11148                           ;source.c: 279:         case 5:
 11149                           	
 11150                           l220:	
 11151  0C57                     	line	280
 11152                           	
 11153                           l3322:	
 11154  0C57                     ;source.c: 280:             return PORTCbits.RC2;
 11155                           	bcf	status, 5	;RP0=0, select bank0
 11156  0C57  1283               	bcf	status, 6	;RP1=0, select bank0
 11157  0C58  1303               	rrf	(7),w	;volatile
 11158  0C59  0C07               	movwf	(??_digitalRead+0)+0
 11159  0C5A  00F0               	rrf	(??_digitalRead+0)+0,w
 11160  0C5B  0C70               	andlw	(1<<1)-1
 11161  0C5C  3901               	goto	l214
 11162  0C5D  2D51               	
 11163                           l3324:	
 11164  0C5E                     	goto	l214
 11165  0C5E  2D51               	line	281
 11166                           	
 11167                           l3326:	
 11168  0C5F                     ;source.c: 281:             break;
 11169                           	goto	l214
 11170  0C5F  2D51               	line	282
 11171                           ;source.c: 282:         case 6:
 11172                           	
 11173                           l221:	
 11174  0C60                     	line	283
 11175                           	
 11176                           l3328:	
 11177  0C60                     ;source.c: 283:             return PORTCbits.RC1;
 11178                           	bcf	status, 5	;RP0=0, select bank0
 11179  0C60  1283               	bcf	status, 6	;RP1=0, select bank0
 11180  0C61  1303               	rrf	(7),w	;volatile
 11181  0C62  0C07               	andlw	(1<<1)-1
 11182  0C63  3901               	goto	l214
 11183  0C64  2D51               	
 11184                           l3330:	
 11185  0C65                     	goto	l214
 11186  0C65  2D51               	line	284
 11187                           	
 11188                           l3332:	
 11189  0C66                     ;source.c: 284:             break;
 11190                           	goto	l214
 11191  0C66  2D51               	line	285
 11192                           ;source.c: 285:         case 7:
 11193                           	
 11194                           l222:	
 11195  0C67                     	line	286
 11196                           	
 11197                           l3334:	
 11198  0C67                     ;source.c: 286:             return PORTCbits.RC0;
 11199                           	bcf	status, 5	;RP0=0, select bank0
 11200  0C67  1283               	bcf	status, 6	;RP1=0, select bank0
 11201  0C68  1303               	movf	(7),w	;volatile
 11202  0C69  0807               	andlw	(1<<1)-1
 11203  0C6A  3901               	goto	l214
 11204  0C6B  2D51               	
 11205                           l3336:	
 11206  0C6C                     	goto	l214
 11207  0C6C  2D51               	line	287
 11208                           	
 11209                           l3338:	
 11210  0C6D                     ;source.c: 287:             break;
 11211                           	goto	l214
 11212  0C6D  2D51               	line	288
 11213                           ;source.c: 288:         case 8:
 11214                           	
 11215                           l223:	
 11216  0C6E                     	line	289
 11217                           	
 11218                           l3340:	
 11219  0C6E                     ;source.c: 289:             return PORTBbits.RB0;
 11220                           	bcf	status, 5	;RP0=0, select bank0
 11221  0C6E  1283               	bcf	status, 6	;RP1=0, select bank0
 11222  0C6F  1303               	movf	(6),w	;volatile
 11223  0C70  0806               	andlw	(1<<1)-1
 11224  0C71  3901               	goto	l214
 11225  0C72  2D51               	
 11226                           l3342:	
 11227  0C73                     	goto	l214
 11228  0C73  2D51               	line	290
 11229                           	
 11230                           l3344:	
 11231  0C74                     ;source.c: 290:             break;
 11232                           	goto	l214
 11233  0C74  2D51               	line	291
 11234                           ;source.c: 291:         case 9:
 11235                           	
 11236                           l224:	
 11237  0C75                     	line	292
 11238                           	
 11239                           l3346:	
 11240  0C75                     ;source.c: 292:             return PORTBbits.RB1;
 11241                           	bcf	status, 5	;RP0=0, select bank0
 11242  0C75  1283               	bcf	status, 6	;RP1=0, select bank0
 11243  0C76  1303               	rrf	(6),w	;volatile
 11244  0C77  0C06               	andlw	(1<<1)-1
 11245  0C78  3901               	goto	l214
 11246  0C79  2D51               	
 11247                           l3348:	
 11248  0C7A                     	goto	l214
 11249  0C7A  2D51               	line	293
 11250                           	
 11251                           l3350:	
 11252  0C7B                     ;source.c: 293:             break;
 11253                           	goto	l214
 11254  0C7B  2D51               	line	294
 11255                           ;source.c: 294:         case 10:
 11256                           	
 11257                           l225:	
 11258  0C7C                     	line	295
 11259                           	
 11260                           l3352:	
 11261  0C7C                     ;source.c: 295:             return PORTBbits.RB2;
 11262                           	bcf	status, 5	;RP0=0, select bank0
 11263  0C7C  1283               	bcf	status, 6	;RP1=0, select bank0
 11264  0C7D  1303               	rrf	(6),w	;volatile
 11265  0C7E  0C06               	movwf	(??_digitalRead+0)+0
 11266  0C7F  00F0               	rrf	(??_digitalRead+0)+0,w
 11267  0C80  0C70               	andlw	(1<<1)-1
 11268  0C81  3901               	goto	l214
 11269  0C82  2D51               	
 11270                           l3354:	
 11271  0C83                     	goto	l214
 11272  0C83  2D51               	line	296
 11273                           	
 11274                           l3356:	
 11275  0C84                     ;source.c: 296:             break;
 11276                           	goto	l214
 11277  0C84  2D51               	line	297
 11278                           ;source.c: 297:         case 11:
 11279                           	
 11280                           l226:	
 11281  0C85                     	line	298
 11282                           	
 11283                           l3358:	
 11284  0C85                     ;source.c: 298:             return PORTBbits.RB3;
 11285                           	bcf	status, 5	;RP0=0, select bank0
 11286  0C85  1283               	bcf	status, 6	;RP1=0, select bank0
 11287  0C86  1303               	rrf	(6),w	;volatile
 11288  0C87  0C06               	movwf	(??_digitalRead+0)+0
 11289  0C88  00F0               	rrf	(??_digitalRead+0)+0,f
 11290  0C89  0CF0               	rrf	(??_digitalRead+0)+0,w
 11291  0C8A  0C70               	andlw	(1<<1)-1
 11292  0C8B  3901               	goto	l214
 11293  0C8C  2D51               	
 11294                           l3360:	
 11295  0C8D                     	goto	l214
 11296  0C8D  2D51               	line	299
 11297                           	
 11298                           l3362:	
 11299  0C8E                     ;source.c: 299:             break;
 11300                           	goto	l214
 11301  0C8E  2D51               	line	300
 11302                           ;source.c: 300:         case 12:
 11303                           	
 11304                           l227:	
 11305  0C8F                     	line	301
 11306                           	
 11307                           l3364:	
 11308  0C8F                     ;source.c: 301:             return PORTBbits.RB4;
 11309                           	bcf	status, 5	;RP0=0, select bank0
 11310  0C8F  1283               	bcf	status, 6	;RP1=0, select bank0
 11311  0C90  1303               	swapf	(6),w	;volatile
 11312  0C91  0E06               	andlw	(1<<1)-1
 11313  0C92  3901               	goto	l214
 11314  0C93  2D51               	
 11315                           l3366:	
 11316  0C94                     	goto	l214
 11317  0C94  2D51               	line	302
 11318                           	
 11319                           l3368:	
 11320  0C95                     ;source.c: 302:             break;
 11321                           	goto	l214
 11322  0C95  2D51               	line	303
 11323                           ;source.c: 303:         case 13:
 11324                           	
 11325                           l228:	
 11326  0C96                     	line	304
 11327                           	
 11328                           l3370:	
 11329  0C96                     ;source.c: 304:             return PORTBbits.RB5;
 11330                           	bcf	status, 5	;RP0=0, select bank0
 11331  0C96  1283               	bcf	status, 6	;RP1=0, select bank0
 11332  0C97  1303               	swapf	(6),w	;volatile
 11333  0C98  0E06               	movwf	(??_digitalRead+0)+0
 11334  0C99  00F0               	rrf	(??_digitalRead+0)+0,w
 11335  0C9A  0C70               	andlw	(1<<1)-1
 11336  0C9B  3901               	goto	l214
 11337  0C9C  2D51               	
 11338                           l3372:	
 11339  0C9D                     	goto	l214
 11340  0C9D  2D51               	line	305
 11341                           	
 11342                           l3374:	
 11343  0C9E                     ;source.c: 305:             break;
 11344                           	goto	l214
 11345  0C9E  2D51               	line	306
 11346                           ;source.c: 306:         case 14:
 11347                           	
 11348                           l229:	
 11349  0C9F                     	line	307
 11350                           	
 11351                           l3376:	
 11352  0C9F                     ;source.c: 307:             return PORTBbits.RB6;
 11353                           	bcf	status, 5	;RP0=0, select bank0
 11354  0C9F  1283               	bcf	status, 6	;RP1=0, select bank0
 11355  0CA0  1303               	swapf	(6),w	;volatile
 11356  0CA1  0E06               	movwf	(??_digitalRead+0)+0
 11357  0CA2  00F0               	rrf	(??_digitalRead+0)+0,f
 11358  0CA3  0CF0               	rrf	(??_digitalRead+0)+0,w
 11359  0CA4  0C70               	andlw	(1<<1)-1
 11360  0CA5  3901               	goto	l214
 11361  0CA6  2D51               	
 11362                           l3378:	
 11363  0CA7                     	goto	l214
 11364  0CA7  2D51               	line	308
 11365                           	
 11366                           l3380:	
 11367  0CA8                     ;source.c: 308:             break;
 11368                           	goto	l214
 11369  0CA8  2D51               	line	309
 11370                           ;source.c: 309:         case 15:
 11371                           	
 11372                           l230:	
 11373  0CA9                     	line	310
 11374                           	
 11375                           l3382:	
 11376  0CA9                     ;source.c: 310:             return PORTBbits.RB7;
 11377                           	bcf	status, 5	;RP0=0, select bank0
 11378  0CA9  1283               	bcf	status, 6	;RP1=0, select bank0
 11379  0CAA  1303               	rlf	(6),w	;volatile
 11380  0CAB  0D06               	rlf	(6),w	;volatile
 11381  0CAC  0D06               	andlw	1
 11382  0CAD  3901               	goto	l214
 11383  0CAE  2D51               	
 11384                           l3384:	
 11385  0CAF                     	goto	l214
 11386  0CAF  2D51               	line	311
 11387                           	
 11388                           l3386:	
 11389  0CB0                     ;source.c: 311:             break;
 11390                           	goto	l214
 11391  0CB0  2D51               	line	312
 11392                           ;source.c: 312:         case 16:
 11393                           	
 11394                           l231:	
 11395  0CB1                     	line	313
 11396                           	
 11397                           l3388:	
 11398  0CB1                     ;source.c: 313:             return PORTDbits.RD0;
 11399                           	bcf	status, 5	;RP0=0, select bank0
 11400  0CB1  1283               	bcf	status, 6	;RP1=0, select bank0
 11401  0CB2  1303               	movf	(8),w	;volatile
 11402  0CB3  0808               	andlw	(1<<1)-1
 11403  0CB4  3901               	goto	l214
 11404  0CB5  2D51               	
 11405                           l3390:	
 11406  0CB6                     	goto	l214
 11407  0CB6  2D51               	line	314
 11408                           	
 11409                           l3392:	
 11410  0CB7                     ;source.c: 314:             break;
 11411                           	goto	l214
 11412  0CB7  2D51               	line	315
 11413                           ;source.c: 315:         case 17:
 11414                           	
 11415                           l232:	
 11416  0CB8                     	line	316
 11417                           	
 11418                           l3394:	
 11419  0CB8                     ;source.c: 316:             return PORTDbits.RD1;
 11420                           	bcf	status, 5	;RP0=0, select bank0
 11421  0CB8  1283               	bcf	status, 6	;RP1=0, select bank0
 11422  0CB9  1303               	rrf	(8),w	;volatile
 11423  0CBA  0C08               	andlw	(1<<1)-1
 11424  0CBB  3901               	goto	l214
 11425  0CBC  2D51               	
 11426                           l3396:	
 11427  0CBD                     	goto	l214
 11428  0CBD  2D51               	line	317
 11429                           	
 11430                           l3398:	
 11431  0CBE                     ;source.c: 317:             break;
 11432                           	goto	l214
 11433  0CBE  2D51               	line	318
 11434                           ;source.c: 318:         case 18:
 11435                           	
 11436                           l233:	
 11437  0CBF                     	line	319
 11438                           	
 11439                           l3400:	
 11440  0CBF                     ;source.c: 319:             return PORTDbits.RD2;
 11441                           	bcf	status, 5	;RP0=0, select bank0
 11442  0CBF  1283               	bcf	status, 6	;RP1=0, select bank0
 11443  0CC0  1303               	rrf	(8),w	;volatile
 11444  0CC1  0C08               	movwf	(??_digitalRead+0)+0
 11445  0CC2  00F0               	rrf	(??_digitalRead+0)+0,w
 11446  0CC3  0C70               	andlw	(1<<1)-1
 11447  0CC4  3901               	goto	l214
 11448  0CC5  2D51               	
 11449                           l3402:	
 11450  0CC6                     	goto	l214
 11451  0CC6  2D51               	line	320
 11452                           	
 11453                           l3404:	
 11454  0CC7                     ;source.c: 320:             break;
 11455                           	goto	l214
 11456  0CC7  2D51               	line	321
 11457                           ;source.c: 321:         case 19:
 11458                           	
 11459                           l234:	
 11460  0CC8                     	line	322
 11461                           	
 11462                           l3406:	
 11463  0CC8                     ;source.c: 322:             return PORTDbits.RD3;
 11464                           	bcf	status, 5	;RP0=0, select bank0
 11465  0CC8  1283               	bcf	status, 6	;RP1=0, select bank0
 11466  0CC9  1303               	rrf	(8),w	;volatile
 11467  0CCA  0C08               	movwf	(??_digitalRead+0)+0
 11468  0CCB  00F0               	rrf	(??_digitalRead+0)+0,f
 11469  0CCC  0CF0               	rrf	(??_digitalRead+0)+0,w
 11470  0CCD  0C70               	andlw	(1<<1)-1
 11471  0CCE  3901               	goto	l214
 11472  0CCF  2D51               	
 11473                           l3408:	
 11474  0CD0                     	goto	l214
 11475  0CD0  2D51               	line	323
 11476                           	
 11477                           l3410:	
 11478  0CD1                     ;source.c: 323:             break;
 11479                           	goto	l214
 11480  0CD1  2D51               	line	324
 11481                           ;source.c: 324:         case 20:
 11482                           	
 11483                           l235:	
 11484  0CD2                     	line	325
 11485                           	
 11486                           l3412:	
 11487  0CD2                     ;source.c: 325:             return PORTDbits.RD4;
 11488                           	bcf	status, 5	;RP0=0, select bank0
 11489  0CD2  1283               	bcf	status, 6	;RP1=0, select bank0
 11490  0CD3  1303               	swapf	(8),w	;volatile
 11491  0CD4  0E08               	andlw	(1<<1)-1
 11492  0CD5  3901               	goto	l214
 11493  0CD6  2D51               	
 11494                           l3414:	
 11495  0CD7                     	goto	l214
 11496  0CD7  2D51               	line	326
 11497                           	
 11498                           l3416:	
 11499  0CD8                     ;source.c: 326:             break;
 11500                           	goto	l214
 11501  0CD8  2D51               	line	327
 11502                           ;source.c: 327:         case 21:
 11503                           	
 11504                           l236:	
 11505  0CD9                     	line	328
 11506                           	
 11507                           l3418:	
 11508  0CD9                     ;source.c: 328:             return PORTDbits.RD5;
 11509                           	bcf	status, 5	;RP0=0, select bank0
 11510  0CD9  1283               	bcf	status, 6	;RP1=0, select bank0
 11511  0CDA  1303               	swapf	(8),w	;volatile
 11512  0CDB  0E08               	movwf	(??_digitalRead+0)+0
 11513  0CDC  00F0               	rrf	(??_digitalRead+0)+0,w
 11514  0CDD  0C70               	andlw	(1<<1)-1
 11515  0CDE  3901               	goto	l214
 11516  0CDF  2D51               	
 11517                           l3420:	
 11518  0CE0                     	goto	l214
 11519  0CE0  2D51               	line	329
 11520                           	
 11521                           l3422:	
 11522  0CE1                     ;source.c: 329:             break;
 11523                           	goto	l214
 11524  0CE1  2D51               	line	330
 11525                           ;source.c: 330:         case 22:
 11526                           	
 11527                           l237:	
 11528  0CE2                     	line	331
 11529                           	
 11530                           l3424:	
 11531  0CE2                     ;source.c: 331:             return PORTDbits.RD6;
 11532                           	bcf	status, 5	;RP0=0, select bank0
 11533  0CE2  1283               	bcf	status, 6	;RP1=0, select bank0
 11534  0CE3  1303               	swapf	(8),w	;volatile
 11535  0CE4  0E08               	movwf	(??_digitalRead+0)+0
 11536  0CE5  00F0               	rrf	(??_digitalRead+0)+0,f
 11537  0CE6  0CF0               	rrf	(??_digitalRead+0)+0,w
 11538  0CE7  0C70               	andlw	(1<<1)-1
 11539  0CE8  3901               	goto	l214
 11540  0CE9  2D51               	
 11541                           l3426:	
 11542  0CEA                     	goto	l214
 11543  0CEA  2D51               	line	332
 11544                           	
 11545                           l3428:	
 11546  0CEB                     ;source.c: 332:             break;
 11547                           	goto	l214
 11548  0CEB  2D51               	line	333
 11549                           ;source.c: 333:         case 23:
 11550                           	
 11551                           l238:	
 11552  0CEC                     	line	334
 11553                           	
 11554                           l3430:	
 11555  0CEC                     ;source.c: 334:             return PORTDbits.RD7;
 11556                           	bcf	status, 5	;RP0=0, select bank0
 11557  0CEC  1283               	bcf	status, 6	;RP1=0, select bank0
 11558  0CED  1303               	rlf	(8),w	;volatile
 11559  0CEE  0D08               	rlf	(8),w	;volatile
 11560  0CEF  0D08               	andlw	1
 11561  0CF0  3901               	goto	l214
 11562  0CF1  2D51               	
 11563                           l3432:	
 11564  0CF2                     	goto	l214
 11565  0CF2  2D51               	line	335
 11566                           	
 11567                           l3434:	
 11568  0CF3                     ;source.c: 335:             break;
 11569                           	goto	l214
 11570  0CF3  2D51               	line	336
 11571                           ;source.c: 336:         case 24:
 11572                           	
 11573                           l239:	
 11574  0CF4                     	line	337
 11575                           	
 11576                           l3436:	
 11577  0CF4                     ;source.c: 337:             return PORTAbits.RA4;
 11578                           	bcf	status, 5	;RP0=0, select bank0
 11579  0CF4  1283               	bcf	status, 6	;RP1=0, select bank0
 11580  0CF5  1303               	swapf	(5),w	;volatile
 11581  0CF6  0E05               	andlw	(1<<1)-1
 11582  0CF7  3901               	goto	l214
 11583  0CF8  2D51               	
 11584                           l3438:	
 11585  0CF9                     	goto	l214
 11586  0CF9  2D51               	line	338
 11587                           	
 11588                           l3440:	
 11589  0CFA                     ;source.c: 338:             break;
 11590                           	goto	l214
 11591  0CFA  2D51               	line	347
 11592                           	
 11593                           l3442:	
 11594  0CFB                     ;source.c: 347:     }
 11595                           	goto	l214
 11596  0CFB  2D51               	
 11597                           l212:	
 11598  0CFC                     	
 11599                           l3444:	
 11600  0CFC                     	movf	(digitalRead@pin),w
 11601  0CFC  0872               	movwf	(??_digitalRead+0)+0
 11602  0CFD  00F0               	clrf	(??_digitalRead+0)+0+1
 11603  0CFE  01F1               	; Switch on 2 bytes has been partitioned into a top level switch of size 1, and 1 sub-s
                                 witches
 11604                           ; Switch size 1, requested type "space"
 11605                           ; Number of cases is 1, Range of values is 0 to 0
 11606                           ; switch strategies available:
 11607                           ; Name         Instructions Cycles
 11608                           ; simple_byte            4     3 (average)
 11609                           ; direct_byte           11     8 (fixed)
 11610                           ; jumptable            260     6 (fixed)
 11611                           ;	Chosen strategy is simple_byte
 11612                           
 11613                           	movf 1+(??_digitalRead+0)+0,w
 11614  0CFF  0871               	opt asmopt_push
 11615                           	opt asmopt_off
 11616                           	xorlw	0^0	; case 0
 11617  0D00  3A00               	skipnz
 11618  0D01  1903               	goto	l4530
 11619  0D02  2D04               	goto	l214
 11620  0D03  2D51               	opt asmopt_pop
 11621                           	
 11622                           l4530:	
 11623  0D04                     ; Switch size 1, requested type "space"
 11624                           ; Number of cases is 25, Range of values is 0 to 24
 11625                           ; switch strategies available:
 11626                           ; Name         Instructions Cycles
 11627                           ; simple_byte           76    39 (average)
 11628                           ; direct_byte           83     8 (fixed)
 11629                           ; jumptable            260     6 (fixed)
 11630                           ;	Chosen strategy is simple_byte
 11631                           
 11632                           	movf 0+(??_digitalRead+0)+0,w
 11633  0D04  0870               	opt asmopt_push
 11634                           	opt asmopt_off
 11635                           	xorlw	0^0	; case 0
 11636  0D05  3A00               	skipnz
 11637  0D06  1903               	goto	l3292
 11638  0D07  2C2B               	xorlw	1^0	; case 1
 11639  0D08  3A01               	skipnz
 11640  0D09  1903               	goto	l3298
 11641  0D0A  2C33               	xorlw	2^1	; case 2
 11642  0D0B  3A03               	skipnz
 11643  0D0C  1903               	goto	l3304
 11644  0D0D  2C3D               	xorlw	3^2	; case 3
 11645  0D0E  3A01               	skipnz
 11646  0D0F  1903               	goto	l3310
 11647  0D10  2C46               	xorlw	4^3	; case 4
 11648  0D11  3A07               	skipnz
 11649  0D12  1903               	goto	l3316
 11650  0D13  2C4D               	xorlw	5^4	; case 5
 11651  0D14  3A01               	skipnz
 11652  0D15  1903               	goto	l3322
 11653  0D16  2C57               	xorlw	6^5	; case 6
 11654  0D17  3A03               	skipnz
 11655  0D18  1903               	goto	l3328
 11656  0D19  2C60               	xorlw	7^6	; case 7
 11657  0D1A  3A01               	skipnz
 11658  0D1B  1903               	goto	l3334
 11659  0D1C  2C67               	xorlw	8^7	; case 8
 11660  0D1D  3A0F               	skipnz
 11661  0D1E  1903               	goto	l3340
 11662  0D1F  2C6E               	xorlw	9^8	; case 9
 11663  0D20  3A01               	skipnz
 11664  0D21  1903               	goto	l3346
 11665  0D22  2C75               	xorlw	10^9	; case 10
 11666  0D23  3A03               	skipnz
 11667  0D24  1903               	goto	l3352
 11668  0D25  2C7C               	xorlw	11^10	; case 11
 11669  0D26  3A01               	skipnz
 11670  0D27  1903               	goto	l3358
 11671  0D28  2C85               	xorlw	12^11	; case 12
 11672  0D29  3A07               	skipnz
 11673  0D2A  1903               	goto	l3364
 11674  0D2B  2C8F               	xorlw	13^12	; case 13
 11675  0D2C  3A01               	skipnz
 11676  0D2D  1903               	goto	l3370
 11677  0D2E  2C96               	xorlw	14^13	; case 14
 11678  0D2F  3A03               	skipnz
 11679  0D30  1903               	goto	l3376
 11680  0D31  2C9F               	xorlw	15^14	; case 15
 11681  0D32  3A01               	skipnz
 11682  0D33  1903               	goto	l3382
 11683  0D34  2CA9               	xorlw	16^15	; case 16
 11684  0D35  3A1F               	skipnz
 11685  0D36  1903               	goto	l3388
 11686  0D37  2CB1               	xorlw	17^16	; case 17
 11687  0D38  3A01               	skipnz
 11688  0D39  1903               	goto	l3394
 11689  0D3A  2CB8               	xorlw	18^17	; case 18
 11690  0D3B  3A03               	skipnz
 11691  0D3C  1903               	goto	l3400
 11692  0D3D  2CBF               	xorlw	19^18	; case 19
 11693  0D3E  3A01               	skipnz
 11694  0D3F  1903               	goto	l3406
 11695  0D40  2CC8               	xorlw	20^19	; case 20
 11696  0D41  3A07               	skipnz
 11697  0D42  1903               	goto	l3412
 11698  0D43  2CD2               	xorlw	21^20	; case 21
 11699  0D44  3A01               	skipnz
 11700  0D45  1903               	goto	l3418
 11701  0D46  2CD9               	xorlw	22^21	; case 22
 11702  0D47  3A03               	skipnz
 11703  0D48  1903               	goto	l3424
 11704  0D49  2CE2               	xorlw	23^22	; case 23
 11705  0D4A  3A01               	skipnz
 11706  0D4B  1903               	goto	l3430
 11707  0D4C  2CEC               	xorlw	24^23	; case 24
 11708  0D4D  3A0F               	skipnz
 11709  0D4E  1903               	goto	l3436
 11710  0D4F  2CF4               	goto	l214
 11711  0D50  2D51               	opt asmopt_pop
 11712                           
 11713                           	
 11714                           l215:	
 11715  0D51                     	line	348
 11716                           	
 11717                           l214:	
 11718  0D51                     	return
 11719  0D51  0008               	opt stack 0
 11720                           GLOBAL	__end_of_digitalRead
 11721                           	__end_of_digitalRead:
 11722  0D52                     	signat	_digitalRead,4217
 11723                           	global	_delay
 11724                           
 11725 ;; *************** function _delay *****************
 11726 ;; Defined at:
 11727 ;;		line 626 in file "source.c"
 11728 ;; Parameters:    Size  Location     Type
 11729 ;;  milis           2    0[COMMON] const int 
 11730 ;; Auto vars:     Size  Location     Type
 11731 ;;  i               2    5[COMMON] int 
 11732 ;;  j               2    3[COMMON] int 
 11733 ;; Return value:  Size  Location     Type
 11734 ;;                  1    wreg      void 
 11735 ;; Registers used:
 11736 ;;		wreg, status,2, btemp+1
 11737 ;; Tracked objects:
 11738 ;;		On entry : 0/0
 11739 ;;		On exit  : 0/0
 11740 ;;		Unchanged: 0/0
 11741 ;; Data sizes:     COMMON   BANK0   BANK1   BANK3   BANK2
 11742 ;;      Params:         2       0       0       0       0
 11743 ;;      Locals:         4       0       0       0       0
 11744 ;;      Temps:          1       0       0       0       0
 11745 ;;      Totals:         7       0       0       0       0
 11746 ;;Total ram usage:        7 bytes
 11747 ;; Hardware stack levels used:    1
 11748 ;; This function calls:
 11749 ;;		Nothing
 11750 ;; This function is called by:
 11751 ;;		_setup
 11752 ;;		_loop
 11753 ;;		_KeypadRead
 11754 ;;		_lcdBegin
 11755 ;;		_lcdWrite
 11756 ;;		_WriteInstruction
 11757 ;;		_WriteData
 11758 ;;		_PruebaLCD_Keypad
 11759 ;; This function uses a non-reentrant model
 11760 ;;
 11761                           psect	text24,local,class=CODE,delta=2,merge=1,group=0
 11762                           	line	626
 11763                           global __ptext24
 11764                           __ptext24:	;psect for function _delay
 11765  0012                     psect	text24
 11766                           	file	"source.c"
 11767                           	line	626
 11768                           	global	__size_of_delay
 11769                           	__size_of_delay	equ	__end_of_delay-_delay
 11770  004E                     	
 11771                           _delay:	
 11772  0012                     ;incstack = 0
 11773                           	opt	stack 5
 11774                           ; Regs used in _delay: [wreg+status,2+btemp+1]
 11775                           	line	628
 11776                           	
 11777                           l3138:	
 11778  0012                     ;source.c: 626: void delay(const int milis);source.c: 627: {;source.c: 628:     for(int 
                                 j=0;j<milis;j++)
 11779                           	clrf	(delay@j)
 11780  0012  01F3               	clrf	(delay@j+1)
 11781  0013  01F4               	
 11782                           l3140:	
 11783  0014                     	movf	(delay@j+1),w
 11784  0014  0874               	xorlw	80h
 11785  0015  3A80               	movwf	(??_delay+0)+0
 11786  0016  00F2               	movf	(delay@milis+1),w
 11787  0017  0871               	xorlw	80h
 11788  0018  3A80               	subwf	(??_delay+0)+0,w
 11789  0019  0272               	skipz
 11790  001A  1D03               	goto	u1565
 11791  001B  281E               	movf	(delay@milis),w
 11792  001C  0870               	subwf	(delay@j),w
 11793  001D  0273               u1565:
 11794  001E                     
 11795                           	skipc
 11796  001E  1C03               	goto	u1561
 11797  001F  2821               	goto	u1560
 11798  0020  2822               u1561:
 11799  0021                     	goto	l3144
 11800  0021  2824               u1560:
 11801  0022                     	goto	l379
 11802  0022  285F               	
 11803                           l3142:	
 11804  0023                     	goto	l379
 11805  0023  285F               	
 11806                           l375:	
 11807  0024                     	line	631
 11808                           	
 11809                           l3144:	
 11810  0024                     ;source.c: 629:     {;source.c: 631:         for(int i=0;i<400;i++)
 11811                           	clrf	(delay@i)
 11812  0024  01F5               	clrf	(delay@i+1)
 11813  0025  01F6               	
 11814                           l3146:	
 11815  0026                     	movf	(delay@i+1),w
 11816  0026  0876               	xorlw	80h
 11817  0027  3A80               	movwf	btemp+1
 11818  0028  00FF               	movlw	(01h)^80h
 11819  0029  3081               	subwf	btemp+1,w
 11820  002A  027F               	skipz
 11821  002B  1D03               	goto	u1575
 11822  002C  282F               	movlw	090h
 11823  002D  3090               	subwf	(delay@i),w
 11824  002E  0275               u1575:
 11825  002F                     
 11826                           	skipc
 11827  002F  1C03               	goto	u1571
 11828  0030  2832               	goto	u1570
 11829  0031  2833               u1571:
 11830  0032                     	goto	l377
 11831  0032  2835               u1570:
 11832  0033                     	goto	l3154
 11833  0033  284A               	
 11834                           l3148:	
 11835  0034                     	goto	l3154
 11836  0034  284A               	
 11837                           l377:	
 11838  0035                     	line	633
 11839                           # 633 "source.c"
 11840                           NOP ;# 
 11841  0035  0000               psect	text24
 11842                           	line	634
 11843                           	
 11844                           l3150:	
 11845  0036                     ;source.c: 634:         }
 11846                           	movlw	01h
 11847  0036  3001               	addwf	(delay@i),f
 11848  0037  07F5               	skipnc
 11849  0038  1803               	incf	(delay@i+1),f
 11850  0039  0AF6               	movlw	0
 11851  003A  3000               	addwf	(delay@i+1),f
 11852  003B  07F6               	
 11853                           l3152:	
 11854  003C                     	movf	(delay@i+1),w
 11855  003C  0876               	xorlw	80h
 11856  003D  3A80               	movwf	btemp+1
 11857  003E  00FF               	movlw	(01h)^80h
 11858  003F  3081               	subwf	btemp+1,w
 11859  0040  027F               	skipz
 11860  0041  1D03               	goto	u1585
 11861  0042  2845               	movlw	090h
 11862  0043  3090               	subwf	(delay@i),w
 11863  0044  0275               u1585:
 11864  0045                     
 11865                           	skipc
 11866  0045  1C03               	goto	u1581
 11867  0046  2848               	goto	u1580
 11868  0047  2849               u1581:
 11869  0048                     	goto	l377
 11870  0048  2835               u1580:
 11871  0049                     	goto	l3154
 11872  0049  284A               	
 11873                           l378:	
 11874  004A                     	line	635
 11875                           	
 11876                           l3154:	
 11877  004A                     ;source.c: 635:     }
 11878                           	movlw	01h
 11879  004A  3001               	addwf	(delay@j),f
 11880  004B  07F3               	skipnc
 11881  004C  1803               	incf	(delay@j+1),f
 11882  004D  0AF4               	movlw	0
 11883  004E  3000               	addwf	(delay@j+1),f
 11884  004F  07F4               	movf	(delay@j+1),w
 11885  0050  0874               	xorlw	80h
 11886  0051  3A80               	movwf	(??_delay+0)+0
 11887  0052  00F2               	movf	(delay@milis+1),w
 11888  0053  0871               	xorlw	80h
 11889  0054  3A80               	subwf	(??_delay+0)+0,w
 11890  0055  0272               	skipz
 11891  0056  1D03               	goto	u1595
 11892  0057  285A               	movf	(delay@milis),w
 11893  0058  0870               	subwf	(delay@j),w
 11894  0059  0273               u1595:
 11895  005A                     
 11896                           	skipc
 11897  005A  1C03               	goto	u1591
 11898  005B  285D               	goto	u1590
 11899  005C  285E               u1591:
 11900  005D                     	goto	l3144
 11901  005D  2824               u1590:
 11902  005E                     	goto	l379
 11903  005E  285F               	
 11904                           l376:	
 11905  005F                     	line	636
 11906                           	
 11907                           l379:	
 11908  005F                     	return
 11909  005F  0008               	opt stack 0
 11910                           GLOBAL	__end_of_delay
 11911                           	__end_of_delay:
 11912  0060                     	signat	_delay,4217
 11913                           	global	_Contador
 11914                           
 11915 ;; *************** function _Contador *****************
 11916 ;; Defined at:
 11917 ;;		line 342 in file "ContadoraCanicas.c"
 11918 ;; Parameters:    Size  Location     Type
 11919 ;;  mode            1    wreg     unsigned char 
 11920 ;; Auto vars:     Size  Location     Type
 11921 ;;  mode            1    0[COMMON] unsigned char 
 11922 ;; Return value:  Size  Location     Type
 11923 ;;                  1    wreg      unsigned char 
 11924 ;; Registers used:
 11925 ;;		wreg, status,2, status,0
 11926 ;; Tracked objects:
 11927 ;;		On entry : 0/0
 11928 ;;		On exit  : 0/0
 11929 ;;		Unchanged: 0/0
 11930 ;; Data sizes:     COMMON   BANK0   BANK1   BANK3   BANK2
 11931 ;;      Params:         0       0       0       0       0
 11932 ;;      Locals:         1       0       0       0       0
 11933 ;;      Temps:          0       0       0       0       0
 11934 ;;      Totals:         1       0       0       0       0
 11935 ;;Total ram usage:        1 bytes
 11936 ;; Hardware stack levels used:    1
 11937 ;; This function calls:
 11938 ;;		Nothing
 11939 ;; This function is called by:
 11940 ;;		_loop
 11941 ;; This function uses a non-reentrant model
 11942 ;;
 11943                           psect	text25,local,class=CODE,delta=2,merge=1,group=0
 11944                           	file	"ContadoraCanicas.c"
 11945                           	line	342
 11946                           global __ptext25
 11947                           __ptext25:	;psect for function _Contador
 11948  11EA                     psect	text25
 11949                           	file	"ContadoraCanicas.c"
 11950                           	line	342
 11951                           	global	__size_of_Contador
 11952                           	__size_of_Contador	equ	__end_of_Contador-_Contador
 11953  001B                     	
 11954                           _Contador:	
 11955  11EA                     ;incstack = 0
 11956                           	opt	stack 6
 11957                           ; Regs used in _Contador: [wreg+status,2+status,0]
 11958                           ;Contador@mode stored from wreg
 11959                           	movwf	(Contador@mode)
 11960  11EA  00F0               	line	344
 11961                           	
 11962                           l3886:	
 11963  11EB                     ;ContadoraCanicas.c: 342: uint8_t Contador(char mode);ContadoraCanicas.c: 343: {;Contado
                                 raCanicas.c: 344:  if(mode == 0x10)
 11964                           		movlw	16
 11965  11EB  3010               	xorwf	((Contador@mode)),w
 11966  11EC  0670               	btfss	status,2
 11967  11ED  1D03               	goto	u2331
 11968  11EE  29F0               	goto	u2330
 11969  11EF  29F1               u2331:
 11970  11F0                     	goto	l3894
 11971  11F0  29F7               u2330:
 11972  11F1                     	line	346
 11973                           	
 11974                           l3888:	
 11975  11F1                     ;ContadoraCanicas.c: 345:  {;ContadoraCanicas.c: 346:   return TMR0;
 11976                           	bcf	status, 5	;RP0=0, select bank0
 11977  11F1  1283               	bcf	status, 6	;RP1=0, select bank0
 11978  11F2  1303               	movf	(1),w	;volatile
 11979  11F3  0801               	goto	l561
 11980  11F4  2A04               	
 11981                           l3890:	
 11982  11F5                     	goto	l561
 11983  11F5  2A04               	line	347
 11984                           	
 11985                           l3892:	
 11986  11F6                     ;ContadoraCanicas.c: 347:  }
 11987                           	goto	l561
 11988  11F6  2A04               	line	348
 11989                           ;ContadoraCanicas.c: 348:  else if(mode == 0x15)
 11990                           	
 11991                           l560:	
 11992  11F7                     	
 11993                           l3894:	
 11994  11F7                     		movlw	21
 11995  11F7  3015               	xorwf	((Contador@mode)),w
 11996  11F8  0670               	btfss	status,2
 11997  11F9  1D03               	goto	u2341
 11998  11FA  29FC               	goto	u2340
 11999  11FB  29FD               u2341:
 12000  11FC                     	goto	l561
 12001  11FC  2A04               u2340:
 12002  11FD                     	line	350
 12003                           	
 12004                           l3896:	
 12005  11FD                     ;ContadoraCanicas.c: 349:  {;ContadoraCanicas.c: 350:   TMR0 = 0;
 12006                           	bcf	status, 5	;RP0=0, select bank0
 12007  11FD  1283               	bcf	status, 6	;RP1=0, select bank0
 12008  11FE  1303               	clrf	(1)	;volatile
 12009  11FF  0181               	line	351
 12010                           	
 12011                           l3898:	
 12012  1200                     ;ContadoraCanicas.c: 351:   return 0;
 12013                           	movlw	low(0)
 12014  1200  3000               	goto	l561
 12015  1201  2A04               	
 12016                           l3900:	
 12017  1202                     	goto	l561
 12018  1202  2A04               	line	352
 12019                           ;ContadoraCanicas.c: 352:  }
 12020                           	
 12021                           l563:	
 12022  1203                     	goto	l561
 12023  1203  2A04               	
 12024                           l562:	
 12025  1204                     	line	353
 12026                           	
 12027                           l561:	
 12028  1204                     	return
 12029  1204  0008               	opt stack 0
 12030                           GLOBAL	__end_of_Contador
 12031                           	__end_of_Contador:
 12032  1205                     	signat	_Contador,4217
 12033                           	global	_Initialization
 12034                           
 12035 ;; *************** function _Initialization *****************
 12036 ;; Defined at:
 12037 ;;		line 18 in file "source.c"
 12038 ;; Parameters:    Size  Location     Type
 12039 ;;		None
 12040 ;; Auto vars:     Size  Location     Type
 12041 ;;		None
 12042 ;; Return value:  Size  Location     Type
 12043 ;;                  1    wreg      void 
 12044 ;; Registers used:
 12045 ;;		wreg, status,2, status,0, pclath, cstack
 12046 ;; Tracked objects:
 12047 ;;		On entry : 0/0
 12048 ;;		On exit  : 0/0
 12049 ;;		Unchanged: 0/0
 12050 ;; Data sizes:     COMMON   BANK0   BANK1   BANK3   BANK2
 12051 ;;      Params:         0       0       0       0       0
 12052 ;;      Locals:         0       0       0       0       0
 12053 ;;      Temps:          0       0       0       0       0
 12054 ;;      Totals:         0       0       0       0       0
 12055 ;;Total ram usage:        0 bytes
 12056 ;; Hardware stack levels used:    1
 12057 ;; Hardware stack levels required when called:    1
 12058 ;; This function calls:
 12059 ;;		_CCP1Configuration
 12060 ;;		_CCP2Configuration
 12061 ;; This function is called by:
 12062 ;;		_main
 12063 ;; This function uses a non-reentrant model
 12064 ;;
 12065                           psect	text26,local,class=CODE,delta=2,merge=1,group=0
 12066                           	file	"source.c"
 12067                           	line	18
 12068                           global __ptext26
 12069                           __ptext26:	;psect for function _Initialization
 12070  0802                     psect	text26
 12071                           	file	"source.c"
 12072                           	line	18
 12073                           	global	__size_of_Initialization
 12074                           	__size_of_Initialization	equ	__end_of_Initialization-_Initialization
 12075  0026                     	
 12076                           _Initialization:	
 12077  0802                     ;incstack = 0
 12078                           	opt	stack 6
 12079                           ; Regs used in _Initialization: [wreg+status,2+status,0+pclath+cstack]
 12080                           	line	21
 12081                           	
 12082                           l2272:	
 12083  0802                     ;source.c: 21:     ADCON0 = 0x81;
 12084                           	movlw	low(081h)
 12085  0802  3081               	bcf	status, 5	;RP0=0, select bank0
 12086  0803  1283               	bcf	status, 6	;RP1=0, select bank0
 12087  0804  1303               	movwf	(31)	;volatile
 12088  0805  009F               	line	22
 12089                           ;source.c: 22:     ADCON1 = 0xC2;
 12090                           	movlw	low(0C2h)
 12091  0806  30C2               	bsf	status, 5	;RP0=1, select bank1
 12092  0807  1683               	bcf	status, 6	;RP1=0, select bank1
 12093  0808  1303               	movwf	(159)^080h	;volatile
 12094  0809  009F               	line	24
 12095                           # 24 "source.c"
 12096                           CLRF PORTA ;# 
 12097  080A  0185               	line	25
 12098                           # 25 "source.c"
 12099                           MOVLW 0x3F ;# 
 12100  080B  303F               	line	26
 12101                           # 26 "source.c"
 12102                           MOVWF TRISA ;# 
 12103  080C  0085               	line	28
 12104                           # 28 "source.c"
 12105                           CLRF PORTB ;# 
 12106  080D  0186               	line	29
 12107                           # 29 "source.c"
 12108                           MOVLW 0x00 ;# 
 12109  080E  3000               	line	30
 12110                           # 30 "source.c"
 12111                           MOVWF TRISB ;# 
 12112  080F  0086               	line	32
 12113                           # 32 "source.c"
 12114                           CLRF PORTC ;# 
 12115  0810  0187               	line	33
 12116                           # 33 "source.c"
 12117                           MOVLW 0x00 ;# 
 12118  0811  3000               	line	34
 12119                           # 34 "source.c"
 12120                           MOVWF TRISC ;# 
 12121  0812  0087               psect	text26
 12122                           	line	35
 12123                           	
 12124                           l2274:	
 12125  0813                     ;source.c: 35:     CCP1Configuration();
 12126                           	fcall	_CCP1Configuration
 12127  0813  120A  118A  2007  120A  158A  	line	36
 12128                           	
 12129                           l2276:	
 12130  0818                     ;source.c: 36:     CCP2Configuration();
 12131                           	fcall	_CCP2Configuration
 12132  0818  160A  118A  217B  120A  158A  	line	38
 12133                           # 38 "source.c"
 12134                           CLRF PORTD ;# 
 12135  081D  0188               	line	39
 12136                           # 39 "source.c"
 12137                           MOVLW 0x00 ;# 
 12138  081E  3000               	line	40
 12139                           # 40 "source.c"
 12140                           MOVF TRISD ;# 
 12141  081F  0888               psect	text26
 12142                           	line	41
 12143                           	
 12144                           l2278:	
 12145  0820                     ;source.c: 41:     PORTE = 0x00;
 12146                           	bcf	status, 5	;RP0=0, select bank0
 12147  0820  1283               	bcf	status, 6	;RP1=0, select bank0
 12148  0821  1303               	clrf	(9)	;volatile
 12149  0822  0189               	line	42
 12150                           	
 12151                           l2280:	
 12152  0823                     ;source.c: 42:     TRISE = 0x07;
 12153                           	movlw	low(07h)
 12154  0823  3007               	bsf	status, 5	;RP0=1, select bank1
 12155  0824  1683               	bcf	status, 6	;RP1=0, select bank1
 12156  0825  1303               	movwf	(137)^080h	;volatile
 12157  0826  0089               	line	43
 12158                           	
 12159                           l137:	
 12160  0827                     	return
 12161  0827  0008               	opt stack 0
 12162                           GLOBAL	__end_of_Initialization
 12163                           	__end_of_Initialization:
 12164  0828                     	signat	_Initialization,89
 12165                           	global	_CCP2Configuration
 12166                           
 12167 ;; *************** function _CCP2Configuration *****************
 12168 ;; Defined at:
 12169 ;;		line 55 in file "source.c"
 12170 ;; Parameters:    Size  Location     Type
 12171 ;;		None
 12172 ;; Auto vars:     Size  Location     Type
 12173 ;;		None
 12174 ;; Return value:  Size  Location     Type
 12175 ;;                  1    wreg      void 
 12176 ;; Registers used:
 12177 ;;		wreg
 12178 ;; Tracked objects:
 12179 ;;		On entry : 0/0
 12180 ;;		On exit  : 0/0
 12181 ;;		Unchanged: 0/0
 12182 ;; Data sizes:     COMMON   BANK0   BANK1   BANK3   BANK2
 12183 ;;      Params:         0       0       0       0       0
 12184 ;;      Locals:         0       0       0       0       0
 12185 ;;      Temps:          0       0       0       0       0
 12186 ;;      Totals:         0       0       0       0       0
 12187 ;;Total ram usage:        0 bytes
 12188 ;; Hardware stack levels used:    1
 12189 ;; This function calls:
 12190 ;;		Nothing
 12191 ;; This function is called by:
 12192 ;;		_Initialization
 12193 ;; This function uses a non-reentrant model
 12194 ;;
 12195                           psect	text27,local,class=CODE,delta=2,merge=1,group=0
 12196                           	line	55
 12197                           global __ptext27
 12198                           __ptext27:	;psect for function _CCP2Configuration
 12199  117B                     psect	text27
 12200                           	file	"source.c"
 12201                           	line	55
 12202                           	global	__size_of_CCP2Configuration
 12203                           	__size_of_CCP2Configuration	equ	__end_of_CCP2Configuration-_CCP2Configuration
 12204  0005                     	
 12205                           _CCP2Configuration:	
 12206  117B                     ;incstack = 0
 12207                           	opt	stack 6
 12208                           ; Regs used in _CCP2Configuration: [wreg]
 12209                           	line	57
 12210                           	
 12211                           l1862:	
 12212  117B                     ;source.c: 57:     CCP2CON = 0x4F;
 12213                           	movlw	low(04Fh)
 12214  117B  304F               	bcf	status, 5	;RP0=0, select bank0
 12215  117C  1283               	bcf	status, 6	;RP1=0, select bank0
 12216  117D  1303               	movwf	(29)	;volatile
 12217  117E  009D               	line	58
 12218                           	
 12219                           l146:	
 12220  117F                     	return
 12221  117F  0008               	opt stack 0
 12222                           GLOBAL	__end_of_CCP2Configuration
 12223                           	__end_of_CCP2Configuration:
 12224  1180                     	signat	_CCP2Configuration,89
 12225                           	global	_CCP1Configuration
 12226                           
 12227 ;; *************** function _CCP1Configuration *****************
 12228 ;; Defined at:
 12229 ;;		line 44 in file "source.c"
 12230 ;; Parameters:    Size  Location     Type
 12231 ;;		None
 12232 ;; Auto vars:     Size  Location     Type
 12233 ;;		None
 12234 ;; Return value:  Size  Location     Type
 12235 ;;                  1    wreg      void 
 12236 ;; Registers used:
 12237 ;;		wreg
 12238 ;; Tracked objects:
 12239 ;;		On entry : 0/0
 12240 ;;		On exit  : 0/0
 12241 ;;		Unchanged: 0/0
 12242 ;; Data sizes:     COMMON   BANK0   BANK1   BANK3   BANK2
 12243 ;;      Params:         0       0       0       0       0
 12244 ;;      Locals:         0       0       0       0       0
 12245 ;;      Temps:          0       0       0       0       0
 12246 ;;      Totals:         0       0       0       0       0
 12247 ;;Total ram usage:        0 bytes
 12248 ;; Hardware stack levels used:    1
 12249 ;; This function calls:
 12250 ;;		Nothing
 12251 ;; This function is called by:
 12252 ;;		_Initialization
 12253 ;; This function uses a non-reentrant model
 12254 ;;
 12255                           psect	text28,local,class=CODE,delta=2,merge=1,group=0
 12256                           	line	44
 12257                           global __ptext28
 12258                           __ptext28:	;psect for function _CCP1Configuration
 12259  0007                     psect	text28
 12260                           	file	"source.c"
 12261                           	line	44
 12262                           	global	__size_of_CCP1Configuration
 12263                           	__size_of_CCP1Configuration	equ	__end_of_CCP1Configuration-_CCP1Configuration
 12264  000B                     	
 12265                           _CCP1Configuration:	
 12266  0007                     ;incstack = 0
 12267                           	opt	stack 6
 12268                           ; Regs used in _CCP1Configuration: [wreg]
 12269                           	line	46
 12270                           	
 12271                           l1860:	
 12272  0007                     ;source.c: 46:     PR2 = 0xFF;
 12273                           	movlw	low(0FFh)
 12274  0007  30FF               	bsf	status, 5	;RP0=1, select bank1
 12275  0008  1683               	bcf	status, 6	;RP1=0, select bank1
 12276  0009  1303               	movwf	(146)^080h	;volatile
 12277  000A  0092               	line	47
 12278                           ;source.c: 47:     T2CON = 0x05;
 12279                           	movlw	low(05h)
 12280  000B  3005               	bcf	status, 5	;RP0=0, select bank0
 12281  000C  1283               	bcf	status, 6	;RP1=0, select bank0
 12282  000D  1303               	movwf	(18)	;volatile
 12283  000E  0092               	line	48
 12284                           ;source.c: 48:     CCP1CON = 0x4F;
 12285                           	movlw	low(04Fh)
 12286  000F  304F               	movwf	(23)	;volatile
 12287  0010  0097               	line	49
 12288                           	
 12289                           l140:	
 12290  0011                     	return
 12291  0011  0008               	opt stack 0
 12292                           GLOBAL	__end_of_CCP1Configuration
 12293                           	__end_of_CCP1Configuration:
 12294  0012                     	signat	_CCP1Configuration,89
 12295                           global	___latbits
 12296                           ___latbits	equ	2
 12297  0002                     	global	btemp
 12298                           	btemp set 07Eh
 12299  007E                     
 12300                           	DABS	1,126,2	;btemp
 12301                           	global	wtemp0
 12302                           	wtemp0 set btemp+0
 12303  007E                     	end


Data Sizes:
    Strings     192
    Constant    39
    Data        35
    BSS         62
    Persistent  15
    Stack       0

Auto Spaces:
    Space          Size  Autos    Used
    COMMON           14     14      14
    BANK0            80     20      68
    BANK1            80      0      64
    BANK3            96      0       0
    BANK2            96      0       0

Pointer List with Targets:

    sprintf@f	PTR const unsigned char  size(1) Largest target is 17
		 -> STR_12(CODE[11]), STR_10(CODE[16]), STR_9(CODE[14]), STR_8(CODE[17]), 
		 -> STR_7(CODE[15]), 

    sprintf@sp	PTR unsigned char  size(1) Largest target is 16
		 -> SecondROW(BANK1[16]), FirstROW(BANK1[16]), 

    sprintf@ap	PTR void [1] size(1) Largest target is 2
		 -> ?_sprintf(BANK0[2]), 

    lcdPrint@string	PTR unsigned char  size(2) Largest target is 17
		 -> STR_13(CODE[17]), STR_11(CODE[17]), SecondROW(BANK1[16]), FirstROW(BANK1[16]), 
		 -> STR_6(CODE[14]), STR_5(CODE[17]), STR_4(CODE[17]), STR_3(CODE[17]), 
		 -> STR_2(CODE[17]), STR_1(CODE[17]), 

    KeypadBegin@data	PTR unsigned char [4] size(1) Largest target is 16
		 -> Teclas(BANK1[16]), 

    KeypadBegin@cols	PTR const int  size(1) Largest target is 8
		 -> COLS(CODE[8]), 

    KeypadBegin@rows	PTR const int  size(1) Largest target is 8
		 -> ROWS(CODE[8]), 


Critical Paths under _main in COMMON

    _setup->_lcdBegin
    _setup->_lcdSetCursor
    _lcdBegin->_WriteInstruction
    _SerialBegin->___aldiv
    _KeypadBegin->_pinMode
    _IOConfiguration->_digitalWrite
    _IOConfiguration->_pinMode
    _loop->_lcdSetCursor
    _sprintf->___lwmod
    ___lwmod->___lwdiv
    _lcdSetCursor->_WriteInstruction
    _lcdPrint->_lcdWrite
    _lcdWrite->_WriteData
    _WriteData->_ByteByNibble
    _WriteData->_delay
    _lcdClear->_WriteInstruction
    _WriteInstruction->_ByteByNibble
    _WriteInstruction->_delay
    _ByteByNibble->_digitalWrite
    _KeypadRead->_delay

Critical Paths under _main in BANK0

    _main->_loop
    _main->_setup
    _setup->_SerialBegin
    _SerialBegin->___aldiv
    _loop->_sprintf

Critical Paths under _main in BANK1

    None.

Critical Paths under _main in BANK3

    None.

Critical Paths under _main in BANK2

    None.

Call Graph Tables:

 ---------------------------------------------------------------------------------
 (Depth) Function   	        Calls       Base Space   Used Autos Params    Refs
 ---------------------------------------------------------------------------------
 (0) _main                                                 0     0      0  231875
                     _Initialization
                               _loop
                              _setup
 ---------------------------------------------------------------------------------
 (1) _setup                                                8     8      0  136703
                                             12 BANK0      8     8      0
                      _ContadorBegin
                    _IOConfiguration
                        _KeypadBegin
                        _SerialBegin
                              _delay
                           _lcdBegin
                           _lcdClear
                           _lcdPrint
                       _lcdSetCursor
                           _lcdWrite
 ---------------------------------------------------------------------------------
 (2) _lcdBegin                                             9     3      6   26525
                                             12 COMMON     2     2      0
                                              0 BANK0      7     1      6
                   _WriteInstruction
                              _delay
                            _pinMode
 ---------------------------------------------------------------------------------
 (2) _SerialBegin                                         10     6      4     792
                                              9 COMMON     4     4      0
                                              6 BANK0      6     2      4
                            ___aldiv
 ---------------------------------------------------------------------------------
 (3) ___aldiv                                             15     7      8     604
                                              0 COMMON     9     1      8
                                              0 BANK0      6     6      0
 ---------------------------------------------------------------------------------
 (2) _KeypadBegin                                         16    14      2    2321
                                              4 COMMON     9     7      2
                                              0 BANK0      7     7      0
                            _pinMode
 ---------------------------------------------------------------------------------
 (2) _IOConfiguration                                      0     0      0   11024
                       _digitalWrite
                            _pinMode
 ---------------------------------------------------------------------------------
 (3) _pinMode                                              4     3      1    1712
                                              0 COMMON     4     3      1
 ---------------------------------------------------------------------------------
 (2) _ContadorBegin                                        0     0      0       0
 ---------------------------------------------------------------------------------
 (1) _loop                                                 5     5      0   95172
                                             15 BANK0      5     5      0
                           _Contador
                         _KeypadRead
                             ___bmul
                              _delay
                        _digitalRead
                       _digitalWrite
                           _lcdClear
                           _lcdPrint
                       _lcdSetCursor
                            _sprintf
 ---------------------------------------------------------------------------------
 (2) _sprintf                                             23    18      5    1694
                                              0 BANK0     15    10      5
                            ___lwdiv
                            ___lwmod
 ---------------------------------------------------------------------------------
 (3) ___lwmod                                              6     2      4     311
                                              8 COMMON     6     2      4
                            ___lwdiv (ARG)
 ---------------------------------------------------------------------------------
 (3) ___lwdiv                                              8     4      4     314
                                              0 COMMON     8     4      4
 ---------------------------------------------------------------------------------
 (2) _lcdSetCursor                                         4     3      1   22680
                                             12 COMMON     2     1      1
                                              0 BANK0      2     2      0
                   _WriteInstruction
 ---------------------------------------------------------------------------------
 (2) _lcdPrint                                             7     5      2   25149
                                              0 BANK0      7     5      2
                           _lcdWrite
 ---------------------------------------------------------------------------------
 (2) _lcdWrite                                             1     1      0   24071
                                             12 COMMON     1     1      0
                          _WriteData
                              _delay
 ---------------------------------------------------------------------------------
 (3) _WriteData                                            5     5      0   21405
                                              7 COMMON     5     5      0
                       _ByteByNibble
                              _delay
                       _digitalWrite
 ---------------------------------------------------------------------------------
 (2) _lcdClear                                             0     0      0   21405
                   _WriteInstruction
 ---------------------------------------------------------------------------------
 (3) _WriteInstruction                                     5     5      0   21405
                                              7 COMMON     5     5      0
                       _ByteByNibble
                              _delay
                       _digitalWrite
 ---------------------------------------------------------------------------------
 (4) _ByteByNibble                                         3     3      0    9334
                                              4 COMMON     3     3      0
                       _digitalWrite
 ---------------------------------------------------------------------------------
 (2) ___bmul                                               4     3      1     244
                                              0 COMMON     4     3      1
 ---------------------------------------------------------------------------------
 (2) _KeypadRead                                           0     0      0   11978
                              _delay
                        _digitalRead
                       _digitalWrite
 ---------------------------------------------------------------------------------
 (4) _digitalWrite                                         4     3      1    9312
                                              0 COMMON     4     3      1
 ---------------------------------------------------------------------------------
 (2) _digitalRead                                          3     3      0      22
                                              0 COMMON     3     3      0
 ---------------------------------------------------------------------------------
 (3) _delay                                                7     5      2    2644
                                              0 COMMON     7     5      2
 ---------------------------------------------------------------------------------
 (2) _Contador                                             1     1      0      44
                                              0 COMMON     1     1      0
 ---------------------------------------------------------------------------------
 (1) _Initialization                                       0     0      0       0
                  _CCP1Configuration
                  _CCP2Configuration
 ---------------------------------------------------------------------------------
 (2) _CCP2Configuration                                    0     0      0       0
 ---------------------------------------------------------------------------------
 (2) _CCP1Configuration                                    0     0      0       0
 ---------------------------------------------------------------------------------
 Estimated maximum stack depth 4
 ---------------------------------------------------------------------------------

 Call Graph Graphs:

 _main (ROOT)
   _Initialization
     _CCP1Configuration
     _CCP2Configuration
   _loop
     _Contador
     _KeypadRead
       _delay
       _digitalRead
       _digitalWrite
     ___bmul
     _delay
     _digitalRead
     _digitalWrite
     _lcdClear
       _WriteInstruction
         _ByteByNibble
           _digitalWrite
         _delay
         _digitalWrite
     _lcdPrint
       _lcdWrite
         _WriteData
           _ByteByNibble
             _digitalWrite
           _delay
           _digitalWrite
         _delay
     _lcdSetCursor
       _WriteInstruction
         _ByteByNibble
           _digitalWrite
         _delay
         _digitalWrite
     _sprintf
       ___lwdiv
       ___lwmod
         ___lwdiv (ARG)
   _setup
     _ContadorBegin
     _IOConfiguration
       _digitalWrite
       _pinMode
     _KeypadBegin
       _pinMode
     _SerialBegin
       ___aldiv
     _delay
     _lcdBegin
       _WriteInstruction
         _ByteByNibble
           _digitalWrite
         _delay
         _digitalWrite
       _delay
       _pinMode
     _lcdClear
       _WriteInstruction
         _ByteByNibble
           _digitalWrite
         _delay
         _digitalWrite
     _lcdPrint
       _lcdWrite
         _WriteData
           _ByteByNibble
             _digitalWrite
           _delay
           _digitalWrite
         _delay
     _lcdSetCursor
       _WriteInstruction
         _ByteByNibble
           _digitalWrite
         _delay
         _digitalWrite
     _lcdWrite
       _WriteData
         _ByteByNibble
           _digitalWrite
         _delay
         _digitalWrite
       _delay

 Address spaces:
Name               Size   Autos  Total    Cost      Usage
BANK3               60      0       0       9        0.0%
BITBANK3            60      0       0       8        0.0%
SFR3                 0      0       0       4        0.0%
BITSFR3              0      0       0       4        0.0%
BANK2               60      0       0      11        0.0%
BITBANK2            60      0       0      10        0.0%
SFR2                 0      0       0       5        0.0%
BITSFR2              0      0       0       5        0.0%
BANK1               50      0      40       7       80.0%
BITBANK1            50      0       0       6        0.0%
SFR1                 0      0       0       2        0.0%
BITSFR1              0      0       0       2        0.0%
BANK0               50     14      44       5       85.0%
BITBANK0            50      0       0       4        0.0%
SFR0                 0      0       0       1        0.0%
BITSFR0              0      0       0       1        0.0%
COMMON               E      E       E       1      100.0%
BITCOMMON            E      0       0       0        0.0%
CODE                 0      0       0       0        0.0%
DATA                 0      0      92      12        0.0%
ABS                  0      0      92       3        0.0%
NULL                 0      0       0       0        0.0%
STACK                0      0       0       2        0.0%
EEDATA             100      0       0       0        0.0%


Microchip Technology PIC Macro Assembler V2.00 build -1524193055 
Symbol Table                                                                                   Wed Mar 04 12:17:54 2020

                          pc 0002               ___bmul@product 0072                  __CFG_CP$OFF 0000  
                         _D4 1023                           _D5 1022                           _D6 1021  
                         _D7 1020                           _RS 1026                           _En 1024  
      _ContadorCanicasGlobal 0030                           fsr 0004                 lcdWrite@data 007C  
              ?_ByteByNibble 0070                  __CFG_LVP$ON 0000                          l200 0B8A  
                        l201 0B92                          l202 0B9A                          l203 0BA2  
                        l131 11C7                          l140 0011                          l212 0CFC  
                        l220 0C57                          l204 0BAA                          l132 11CD  
                        l221 0C60                          l213 0C2B                          l205 0BB2  
                        l133 11CE                          l230 0CA9                          l222 0C67  
                        l214 0D51                          l206 0BBA                          l134 11CE  
                        l215 0D51                          l231 0CB1                          l223 0C6E  
                        l207 0BC2                          l232 0CB8                          l224 0C75  
                        l216 0C33                          l208 0BCA                          l152 0AB0  
                        l160 0A17                          l137 0827                          l233 0CBF  
                        l225 0C7C                          l217 0C3D                          l209 0C28  
                        l161 0A1F                          l153 09E7                          l146 117F  
                        l234 0CC8                          l226 0C85                          l218 0C46  
                        l154 0B05                          l170 0A67                          l162 0A27  
                        l235 0CD2                          l227 0C8F                          l219 0C4D  
                        l171 0A6F                          l163 0A2F                          l155 09EF  
                        l236 0CD9                          l228 0C96                          l500 07D0  
                        l172 0A77                          l164 0A37                          l156 09F7  
                        l237 0CE2                          l229 0C9F                          l501 03F0  
                        l173 0A7F                          l165 0A3F                          l157 09FF  
                        l238 0CEC                          l182 0BD3                          l190 0B39  
                        l502 07AC                          l510 044A                          l174 0A87  
                        l166 0A47                          l158 0A07                          l239 0CF4  
                        l191 0B42                          l183 0B08                          l511 0454  
                        l503 03F9                          l175 0A8F                          l167 0A4F  
                        l159 0A0F                          l184 0C28                          l192 0B4A  
                        l600 03B5                          l512 07AB                          l504 0798  
                        l520 053E                          l176 0A97                          l168 0A57  
                        l193 0B52                          l185 0B10                          l601 0106  
                        l521 053D                          l513 045E                          l505 03FA  
                        l177 0A9F                          l169 0A5F                          l194 0B5A  
                        l186 0B18                          l610 01AC                          l602 0105  
                        l514 06B6                          l530 05F4                          l522 0563  
                        l506 044C                          l178 0AA7                          l195 0B62  
                        l187 0B20                          l603 03B4                          l611 01AB  
                        l531 0641                          l523 0582                          l515 04D0  
                        l507 0427                          l179 0B05                          l196 0B6A  
                        l188 0B28                          l612 03B1                          l620 0251  
                        l604 0131                          l540 075B                          l516 06A5  
                        l532 0618                          l524 0581                          l508 043E  
                        l197 0B72                          l189 0B30                          l621 03AE  
                        l613 01D7                          l605 0130                          l541 0743  
                        l533 0640                          l525 058B                          l517 04D1  
                        l509 044B                          l285 15DD                          l198 0B7A  
                        l606 03B3                          l630 03AB                          l622 027D  
                        l614 01D6                          l542 075A                          l526 06B5  
                        l534 063F                          l518 0583                          l286 15F5  
                        l375 0024                          l199 0B82                          l615 03B0  
                        l631 0323                          l623 027C                          l607 0181  
                        l543 0772                          l535 06A1                          l527 058F  
                        l519 04ED                          l287 15F5                          l560 11F7  
                        l376 005F                          l624 03AD                          l640 03A4  
                        l632 0322                          l616 0202                          l608 0180  
                        l720 0FFF                          l712 13A6                          l544 0765  
                        l536 06BC                          l528 0699                          l552 14AE  
                        l561 1204                          l377 0035                          l609 03B2  
                        l633 03AA                          l641 03A3                          l625 02A8  
                        l617 0201                          l721 0D79                          l545 0771  
                        l537 06C7                          l529 05B0                          l562 1204  
                        l378 004A                          l618 03AF                          l642 03A7  
                        l634 034E                          l626 02A7                          l730 0ED5  
                        l722 0D9F                          l538 0773                          l546 0770  
                        l490 17F6                          l563 1203                          l379 005F  
                        l627 03AC                          l635 034D                          l619 0252  
                        l731 0EFC                          l723 0DC5                          l715 1429  
                        l547 077B                          l539 06DB                          l491 17FF  
                        l636 03A9                          l628 02D3                          l732 0F24  
                        l724 0DEC                          l548 07B2                          l637 0379  
                        l629 02D2                          l733 0F4B                          l725 0E12  
                        l549 07D0                          l638 0378                          l718 0FC5  
                        l734 0F73                          l726 0E39                          l830 08F1  
                        l494 07BE                          l566 1197                          l590 16D7  
                        l639 03A8                          l735 0F9B                          l727 0E60  
                        l719 0D54                          l831 08EA                          l495 03B8  
                        l591 16ED                          l487 1793                          l728 0E88  
                        l736 0FFF                          l680 1250                          l832 09DF  
                        l840 093D                          l496 03E5                          l920 08B3  
                        l488 17AF                          l729 0EAE                          l681 124E  
                        l841 0947                          l833 08EB                          l497 03D1  
                        l585 160A                          l921 0871                          l673 1550  
                        l489 17DA                          l594 00B0                          l690 1297  
                        l682 124F                          l842 096F                          l834 08EC  
                        l498 03E4                          l586 1675                          l922 0863  
                        l595 00AF                          l691 12D9                          l683 1250  
                        l827 09CB                          l843 0964                          l835 0911  
                        l499 03ED                          l587 1688                          l923 0876  
                        l596 03B6                          l676 1186                          l692 12D9  
                        l844 0981                          l836 08ED                          l828 08D6  
                        l588 16ED                          l924 0877                          l597 03B6  
                        l845 09C0                          l837 08EE                          l829 08E8  
                        l589 169B                          l925 08A2                          l598 00DB  
                        l686 11A8                          l846 0986                          l838 0930  
                        l926 08B2                          l918 083C                          l599 00DA  
                        l679 123A                          l847 09CA                          l839 092F  
                        l927 08C4                          l919 0850                          l848 09DE  
                        l928 08CD                          l689 12BC                          l849 09E4  
                        l876 11D4                          l877 11DD                          l878 11E7  
                        l879 11E9                          _GIE 005F                          _PR2 0092  
                        _PEN 048A                 __CFG_CPD$OFF 0000                          _SEN 0488  
                        _RnW 1025                          fsr0 0004                          indf 0000  
               __CFG_FOSC$HS 0000              ??_ContadorBegin 0070                         l1120 12E5  
                       l1121 12F6                         l1122 12F7                         l1130 125A  
                       l1123 1310                         l1131 126B                         l1124 131E  
                       l1132 126C                         l1125 1324                         l1133 127D  
                       l1118 131F                         l1134 128B                         l1119 12F1  
                       l1135 1291                         l1128 128C                         l1129 1266  
                       PORTA 0005                         PORTB 0006                         PORTC 0007  
                       l3100 0B5A                         PORTD 0008                         l3110 0B82  
                       l3102 0B62                         l3120 0BAA                         l3112 0B8A  
                       l3104 0B6A                         l3200 13AA                         l4000 176D  
                       l3130 0BD2                         l3122 0BB2                         l3114 0B92  
                       l3106 0B72                         l3210 13D0                         l3202 13AF  
                       l4010 1792                         l4002 1775                         l3140 0014  
                       l3300 0C3B                         l3124 0BBA                         l3116 0B9A  
                       l3108 0B7A                         l3132 0BD3                         l3220 13FE  
                       l3212 13D9                         l3204 13BB                         l4100 04C1  
                       l4020 17AF                         l4012 1793                         l4004 1780  
                       l3150 0036                         l3142 0023                         l3310 0C46  
                       l3302 0C3C                         l3126 0BC2                         l3118 0BA2  
                       l3222 1404                         l3214 13E3                         l3206 13C0  
                       l4110 0504                         l4102 04CC                         l3230 09E6  
                       l4030 17E0                         l4022 17CF                         l4014 1799  
                       l4006 1788                         l2280 0823                         l2272 0802  
                       l3152 003C                         l3144 0024                         l3400 0CBF  
                       l3320 0C56                         l3312 0C4B                         l3304 0C3D  
                       l3128 0BCA                         l3080 0B18                         l3160 0D79  
                       l3224 140E                         l3216 13EC                         l3208 13C6  
                       l4200 0636                         l4120 0548                         l4112 050D  
                       l4104 04D1                         l4040 03B8                         l3240 0A07  
                       l3232 09E7                         l4032 17E9                         l4024 17D2  
                       l4016 17A2                         l4008 178B                         l2274 0813  
                       l3154 004A                         l3146 0026                         l3138 0012  
                       l3410 0CD1                         l3402 0CC6                         l3330 0C65  
                       l3322 0C57                         l3314 0C4C                         l3306 0C44  
                       l3090 0B39                         l3082 0B20                         l3074 0B07  
                       l3170 0E39                         l3162 0D9F                         l3226 1417  
                       l3218 13F5                         l4210 0660                         l4202 0638  
                       l4122 054E                         l4130 0563                         l4114 051E  
                       l4106 04ED                         l4050 03ED                         l4042 03D1  
                       l3250 0A2F                         l3242 0A0F                         l3234 09EF  
                       l4034 17EF                         l4026 17D9                         l4018 17A8  
                       l2276 0818                         l3148 0034                         l3420 0CE0  
                       l3412 0CD2                         l3404 0CC7                         l3340 0C6E  
                       l3332 0C66                         l3324 0C5E                         l3316 0C4D  
                       l3308 0C45                         l3092 0B3C                         l3084 0B28  
                       l3076 0B08                         l3180 0EFC                         l3172 0E60  
                       l3164 0DC5                         l3156 0D53                         l3228 1420  
                       l4220 06A1                         l4212 066B                         l4204 063A  
                       l4132 0569                         l4124 055B                         l4116 0522  
                       l4108 04F3                         l4140 0583                         l4060 0427  
                       l4052 03F0                         l4044 03DB                         l3260 0A57  
                       l3252 0A37                         l3244 0A17                         l3236 09F7  
                       l3500 0860                         l4036 17F6                         l4028 17DA  
                       l2278 0820                         l3430 0CEC                         l3422 0CE1  
                       l3414 0CD7                         l3406 0CC8                         l3350 0C7B  
                       l3342 0C73                         l3334 0C67                         l3326 0C5F  
                       l3318 0C55                         l3094 0B42                         l3086 0B30  
                       l3078 0B10                         l3190 0FC4                         l3182 0F24  
                       l3174 0E88                         l3166 0DEC                         l3158 0D54  
                       l4230 06BE                         l4222 06A4                         l4214 0673  
                       l4206 0641                         l4150 05B0                         l4142 058B  
                       l4134 0576                         l4126 055F                         l4118 053E  
                       l4070 0444                         l4062 0431                         l4054 03F5  
                       l4046 03E1                         l4038 03B7                         l3270 0A7F  
                       l3262 0A5F                         l3254 0A3F                         l3246 0A1F  
                       l3238 09FF                         l3510 0892                         l3502 0863  
                       l3440 0CFA                         l3432 0CF2                         l3424 0CE2  
                       l3416 0CD8                         l3408 0CD0                         l3360 0C8D  
                       l3352 0C7C                         l3344 0C74                         l3336 0C6C  
                       l3328 0C60                         l3096 0B4A                         l3088 0B33  
                       l3184 0F4B                         l3176 0EAE                         l3168 0E12  
                       l3192 0FC5                         l4240 06EB                         l4232 06C3  
                       l4216 068D                         l4208 0649                         l4160 05DE  
                       l4152 05BB                         l4144 058C                         l4136 057A  
                       l4128 0561                         l4224 06A5                         l4080 0455  
                       l4072 0445                         l4064 0437                         l4056 03FA  
                       l4048 03E5                         l3280 0AA7                         l3272 0A87  
                       l3264 0A67                         l3256 0A47                         l3248 0A27  
                       l3520 08B8                         l3512 08A0                         l3504 0871  
                       l3600 15D9                         l4312 11BC                         l3442 0CFB  
                       l3434 0CF3                         l3426 0CEA                         l3418 0CD9  
                       l3370 0C96                         l3362 0C8E                         l3354 0C83  
                       l3346 0C75                         l3338 0C6D                         l3290 0C2A  
                       l3098 0B52                         l3186 0F73                         l3178 0ED5  
                       l3450 1199                         l3530 12E2                         l4250 0710  
                       l4242 06F1                         l4234 06C7                         l4162 05E7  
                       l4170 05F4                         l4154 05C5                         l4218 0699  
                       l4146 058F                         l4138 057C                         l4226 06B6  
                       l4090 0475                         l4082 045A                         l4074 0447  
                       l4066 043B                         l4058 0420                         l3282 0AAF  
                       l3274 0A8F                         l3266 0A6F                         l3258 0A4F  
                       l3522 08C4                         l3514 08A2                         l3506 0877  
                       l3610 15E2                         l3602 15DB                         l4314 11C1  
                       l1860 0007                         l3436 0CF4                         l3428 0CEB  
                       l3380 0CA8                         l3372 0C9D                         l3364 0C8F  
                       l3356 0C84                         l3348 0C7A                         l3292 0C2B  
                       l3444 0CFC                         l3188 0F9B                         l3460 1339  
                       l3452 11A2                         l3700 1228                         l3540 1308  
                       l3532 12E5                         l4260 0756                         l4252 0720  
                       l4244 06F7                         l4236 06DB                         l4228 06BC  
                       l4180 0611                         l4172 05FA                         l4164 05E8  
                       l4156 05CB                         l4148 05AA                         l4092 047D  
                       l4084 045E                         l4068 043E                         l4076 044C  
                       l3276 0A97                         l3268 0A77                         l3284 0AB0  
                       l3524 08CD                         l3516 08AB                         l3508 0880  
                       l3620 15EF                         l3612 15E5                         l3604 15DC  
                       l4316 11C7                         l1862 117B                         l3438 0CF9  
                       l3390 0CB6                         l3382 0CA9                         l3374 0C9E  
                       l3366 0C94                         l3358 0C85                         l3294 0C31  
                       l3470 1360                         l3462 133E                         l3454 1326  
                       l3198 13A8                         l3710 1242                         l3702 1229  
                       l3550 1324                         l3542 130E                         l3534 12EC  
                       l3526 12DA                         l4270 076B                         l4254 0731  
                       l4246 06FD                         l4262 075B                         l4238 06E5  
                       l4190 061E                         l4182 0612                         l4174 0607  
                       l4166 05E9                         l4158 05D8                         l4094 0494  
                       l4086 0467                         l4078 0454                         l3278 0A9F  
                       l3518 08B3                         l3622 15F2                         l3614 15E8  
                       l3606 15DD                         l3630 14EA                         l3392 0CB7  
                       l3384 0CAF                         l3376 0C9F                         l3368 0C95  
                       l3296 0C32                         l3800 0200                         l3480 138B  
                       l3472 1369                         l3464 1344                         l3456 1328  
                       l3720 12BC                         l3712 1247                         l3704 122E  
                       l3544 1310                         l3536 12F1                         l3528 12DC  
                       l3560 1266                         l3552 1251                         l4520 07A0  
                       l4280 0793                         l4264 0761                         l4256 073C  
                       l4248 0705                         l4272 0773                         l4192 062B  
                       l4184 0614                         l4176 060D                         l4168 05EF  
                       l4096 049F                         l4088 0470                         l3624 15F4  
                       l3616 15E9                         l3608 15E1                         l3640 1517  
                       l3632 14F3                         l4530 0D04                         l3394 0CB8  
                       l3386 0CB0                         l3378 0CA7                         l3298 0C33  
                       l3810 0250                         l3802 0202                         l3730 00AE  
                       l3722 0060                         l3482 1394                         l3474 1372  
                       l3466 134D                         l3458 132D                         l3714 1292  
                       l3706 1233                         l3546 1317                         l3538 12F7  
                       l3562 126C                         l3554 1257                         l3570 128C  
                       l4522 07C8                         l4290 07B2                         l4282 0794  
                       l4274 077B                         l4266 0762                         l4258 0743  
                       l4194 0631                         l4186 0616                         l4178 0610  
                       l4098 04A7                         l3490 082F                         l3618 15EC  
                       l3650 153E                         l3642 1520                         l3634 14FC  
                       l3626 14B2                         l3900 1202                         l3396 0CBD  
                       l3388 0CB1                         l3820 027B                         l3804 0234  
                       l3812 0252                         l3740 00D9                         l3724 0092  
                       l3732 00B0                         l3484 139D                         l3476 137B  
                       l3468 1356                         l3716 1297                         l3708 123A  
                       l3548 131F                         l3572 1291                         l3564 1276  
                       l3556 125A                         l4524 0903                         l4292 07B7  
                       l4284 0797                         l4276 078B                         l4268 0765  
                       l4196 0634                         l4188 0618                         l4516 0AB8  
                       l3660 1609                         l3492 0840                         l3580 158F  
                       l3652 1544                         l3644 1529                         l3636 1505  
                       l3628 14E3                         l3398 0CBE                         l3830 02A6  
                       l3814 025F                         l3822 027D                         l3806 023F  
                       l3750 0104                         l3734 00BD                         l3742 00DB  
                       l3726 009D                         l4526 0FCD                         l3478 1381  
                       l3718 12B3                         l3566 127D                         l3558 1261  
                       l3910 08E8                         l3902 08D1                         l4294 07BA  
                       l4278 0790                         l4518 06AD                         l4198 0635  
                       l4286 0798                         l3670 1667                         l3662 160A  
                       l3494 084B                         l3486 0828                         l3590 15CC  
                       l3582 1592                         l3574 1551                         l3654 154A  
                       l3646 152F                         l3638 150E                         l4528 0BDB  
                       l3840 02D1                         l3824 028A                         l3832 02A8  
                       l3816 026A                         l3808 024C                         l3760 012F  
                       l3744 00E8                         l3752 0106                         l3736 00C8  
                       l3728 00AA                         l3568 1284                         l3920 0921  
                       l3912 08F0                         l3904 08D6                         l4296 07BD  
                       l4288 07AC                         l3680 168C                         l3664 1643  
                       l3672 1675                         l3656 15F9                         l3496 0850  
                       l3488 082B                         l3592 15CF                         l3584 15C4  
                       l3576 1554                         l3648 1538                         l3850 0321  
                       l3834 02B5                         l3842 02D3                         l3826 0295  
                       l3818 0277                         l3770 017F                         l3754 0113  
                       l3762 0131                         l3746 00F3                         l3738 00D5  
                       l3922 0925                         l3930 093D                         l3914 08F1  
                       l3906 08DC                         l4298 07BE                         l3682 169A  
                       l3690 16D7                         l3674 1679                         l3666 1650  
                       l3658 15FB                         l3498 0858                         l3594 15D0  
                       l3586 15C8                         l3578 1586                         l3860 034C  
                       l3844 0305                         l3852 0323                         l3836 02C0  
                       l3828 02A2                         l3780 01AA                         l3764 0163  
                       l3772 0181                         l3756 011E                         l3748 0100  
                       l3940 0964                         l3932 093F                         l3924 0929  
                       l3916 0915                         l3908 08E3                         l3692 16DF  
                       l3684 169B                         l3676 1687                         l3668 165F  
                       l3596 15D3                         l3588 15C9                         l3870 0377  
                       l3854 0330                         l3862 034E                         l3846 0310  
                       l3838 02CD                         l3790 01D5                         l3774 018E  
                       l3782 01AC                         l3766 016E                         l3758 012B  
                       l3950 0986                         l3934 0946                         l3942 096F  
                       l3918 091D                         l3926 0930                         l3694 118F  
                       l3686 16C3                         l3678 1688                         l3598 15D6  
                       l3880 03A2                         l3864 035B                         l3872 0379  
                       l3856 033B                         l3848 031D                         l3784 01B9  
                       l3792 01D7                         l3776 0199                         l3768 017B  
                       l3952 09B4                         l3944 0975                         l3936 0947  
                       l3928 0938                         l3960 09DF                         l3696 142A  
                       l3688 16C9                         l3890 11F5                         l3874 0386  
                       l3882 03A4                         l3866 0366                         l3858 0348  
                       l3794 01E4                         l3786 01C4                         l3778 01A6  
                       l3970 11D4                         l3698 1180                         l3962 09E4  
                       l3954 09BB                         l3946 097C                         l3938 0963  
                       TRISA 0085                         l3892 11F6                         l3884 03A6  
                       l3876 0391                         l3868 0373                         l3796 01EF  
                       l3788 01D1                         l3980 11E9                         l3972 11D8  
                       l3956 09C0                         l3948 0981                         TRISB 0086  
                       TRISC 0087                         l3894 11F7                         l3886 11EB  
                       l3878 039E                         l3798 01FC                         l3974 11DD  
                       l3958 09CB                         l3990 175E                         l3982 16EE  
                       TRISD 0088                         l3896 11FD                         l3888 11F1  
                       l3976 11DF                         l3968 11D2                         l3992 1763  
                       l3984 16F2                         l3898 1200                         l3978 11E7  
                       l3994 1766                         l3986 174A                         l3996 1767  
                       l3988 1759                         l3998 1768                         STR_1 1059  
                       STR_2 106A                         STR_3 108C                         STR_4 107B  
                       STR_5 1048                         STR_6 10DE                         STR_7 10CF  
                       STR_8 109D                         STR_9 10D0                         _BRGH 04C2  
                       _CREN 00C4                         _FERR 00C2                         _COLS 1027  
                       u2000 12D8                         u2001 12D7                         u2010 0092  
                       u2011 0091                         u2100 017B                         u2020 00AA  
                       u2101 017A                         u2021 00A9                         u2110 018E  
                       u2030 00BD                         u2111 018D                         u2031 00BC  
                       u2200 0277                         u2120 01A6                         u2040 00D5  
                       u2201 0276                         u2121 01A5                         u2041 00D4  
                       u2210 028A                         u2130 01B9                         u2050 00E8  
                       u2211 0289                         u2131 01B8                         u2051 00E7  
                       u2300 0373                         u2220 02A2                         u2140 01D1  
                       u2060 0100                         u2301 0372                         u2221 02A1  
                       u2141 01D0                         u2061 00FF                         u2310 0386  
                       u2230 02B5                         u2150 01E4                         u2070 0113  
                       u2311 0385                         u2231 02B4                         u2151 01E3  
                       u2071 0112                         u2320 039E                         u2240 02CD  
                       u2160 01FC                         u2080 012B                         u2400 096E  
                       u2321 039D                         u2241 02CC                         u2161 01FB  
                       u2081 012A                         u2401 096D                         u2330 11F1  
                       u2250 0305                         u2170 0234                         u2090 0163  
                       u2410 0975                         u2331 11F0                         u2251 0304  
                       u2171 0233                         u2091 0162                         u2411 0974  
                       u2340 11FD                         u2260 031D                         u2180 024C  
                       u2420 09C9                         u2500 03E1                         u1700 08B1  
                       u1620 082F                         u2341 11FC                         u2261 031C  
                       u2181 024B                         u1605 13B2                         u2421 09C8  
                       u2501 03E0                         u1701 08B0                         u1621 082E  
                       u2270 0330                         u2190 025F                         u2430 09DD  
                       u2350 08DC                         u2510 03EC                         u1710 08B8  
                       u1630 0840                         u2271 032F                         u2191 025E  
                       u1615 1330                         u2431 09DC                         u2351 08DB  
                       u2511 03EB                         u1711 08B7                         u1631 083F  
                       u1560 0022                         u2280 0348                         u2440 11D8  
                       u1720 12E2                         u2360 0915                         u2600 05CB  
                       u2520 0437                         u1640 0860                         u1561 0021  
                       u2281 0347                         u2441 11D7                         u1721 12E1  
                       u2361 0914                         u2601 05CA                         u2521 0436  
                       u1641 085F                         u1570 0033                         u2290 035B  
                       u2450 11E6                         u1810 126A                         u2370 0925  
                       u2610 05FA                         u2530 0444                         u1571 0032  
                       u2291 035A                         u2451 11E5                         u1811 1269  
                       u2371 0924                         u2611 05F9                         u2531 0443  
                       u1580 0049                         u1740 12F5                         u1820 1276  
                       u2380 0945                         u2700 076B                         u2620 061E  
                       u2540 0453                         u1900 1686                         u1660 0875  
                       u2460 1791                         u1581 0048                         u1565 001E  
                       u1741 12F4                         u1821 1275                         u1805 125B  
                       u2381 0944                         u2701 076A                         u2621 061D  
                       u2541 0452                         u1901 1685                         u1661 0874  
                       u2461 1790                         u1590 005E                         u2390 0962  
                       u2710 077A                         u2630 06A0                         u2550 0504  
                       u1910 1699                         u2470 17AE                         u1591 005D  
                       u1575 002F                         u1735 12E6                         u2391 0961  
                       u2711 0779                         u2631 069F                         u2551 0503  
                       u1911 1698                         u1655 0865                         u2471 17AD  
                       u1760 1308                         u1840 128A                         u2720 07B1  
                       u2640 06BB                         u2560 051E                         u1680 0892  
                       u2480 17D8                         u1585 0045                         u1761 1307  
                       u1841 1289                         u1825 1272                         u2721 07B0  
                       u2641 06BA                         u2561 051D                         u1905 1682  
                       u1681 0891                         u2481 17D7                         u2650 06EB  
                       u2570 054E                         u1850 1564                         u2490 17F5  
                       u1595 005A                         u1755 12F8                         u1835 127E  
                       u2395 095E                         u2651 06EA                         u2571 054D  
                       u1915 1695                         u1675 0879                         u2491 17F4  
                       u1780 131D                         u2660 06F1                         u2580 0569  
                       u1940 16D6                         u1860 158F                         u1781 131C  
                       u1765 1304                         u2661 06F0                         u2581 0568  
                       u1941 16D5                         u1925 16A0                         u1685 088E  
                       u1861 158E                         u1790 1257                         u2670 06F7  
                       u2590 058A                         u1950 16EC                         u1870 15A2  
                       u1775 1311                         u1791 1256                         u2671 06F6  
                       u2591 0589                         u1951 16EB                         u1935 16B4  
                       u1695 08A3                         u1855 155F                         u1960 122E  
                       u2680 06FD                         u1880 1608                         u1961 122D  
                       u2681 06FC                         u1945 16D2                         u1881 1607  
                       u1970 1242                         u2690 0761                         u1890 1674  
                       u1971 1241                         u2691 0760                         u1955 16E8  
                       u1891 1673                         u1875 159D                         _PEIE 005E  
                       u1980 12A1                         u1885 1604                         u1990 12C6  
                       u1895 1670                         _RCEN 048B                         _RCIF 0065  
                       _OERR 00C1                         _TMR0 0001                         _SPEN 00C7  
                       _RSEN 0489                         _ROWS 102F                         _TRMT 04C1  
                       _TXEN 04C5                         _TXIF 0064                         _SYNC 04C4  
                       _Paso 0033                         _Modo 0034                 __CFG_WRT$OFF 0000  
                       _dato 0032                         _main 11BC                         _loop 03B7  
                       btemp 007E            ?_WriteInstruction 0070                         start 0000  
         ??_WriteInstruction 0077            ___bmul@multiplier 0073            _CCP2Configuration 117B  
             ??_ByteByNibble 0074           ?_CCP2Configuration 0070              __end_of___aldiv 08CE  
                      ?_main 0070                        _ACKEN 048C                        _ACKDT 048D  
                      _CCP1X 00BD                        _CCP1Y 00BC                        _CCP2X 00ED  
                      _CCP2Y 00EC                ??_KeypadBegin 0076                        ?_loop 0070  
                      STR_10 10BF                        STR_11 10AE                        STR_12 10EC  
                      STR_13 1037                __CFG_WDTE$OFF 0000                        _T2CON 0012  
            _CanicasActuales 0036              __end_of___lwdiv 1325              __end_of___lwmod 1292  
                      _ENPin 005C                  _DataStorage 003C                        _RCREG 001A  
                      _SPBRG 0099                        _PORTE 0009                        _SSPIE 0463  
                      _TRISE 0089                        _SSPIF 0063                        _Banda 101E  
                      _TXREG 0019                        _RSPin 005E                        _RWPin 005A  
                      _d4Pin 0058                        _d5Pin 0056                        _d6Pin 0054  
                      _d7Pin 0052                        _Latch 003B                        _Tecla 0063  
        ??_CCP2Configuration 0070             ?_IOConfiguration 0070                        _delay 0012  
            __end_of_dpowers 101A              __end_of_pinMode 0B06                        _setup 16EE  
             __CFG_BOREN$OFF 0000                        pclath 000A                        status 0003  
                      wtemp0 007E              __end_of_sprintf 09E5                 __end_of_COLS 102F  
               __end_of_ROWS 1037   __size_of_CCP1Configuration 000B         __end_of_digitalWrite 0C29  
            __initialization 07D1    __end_of_CCP2Configuration 1180             __end_of_Contador 1205  
               __end_of_main 11D1                 __end_of_loop 07D1      __size_of_Initialization 0026  
                 _KeypadRead 0060                       ??_main 007E                       ??_loop 004D  
       __size_of_digitalRead 0129        __end_of_SensorCanicas 101C         __end_of_lcdSetCursor 1251  
         lcdSetCursor@column 007C                       ?_delay 0070                       _ADCON0 001F  
                     _ADCON1 009F          __end_of_KeypadBegin 16EE                       _ADRESH 001E  
                     _ADRESL 009E                       _CCPR1L 0015                       _CCPR2L 001B  
                     ?_setup 0070                ??_SerialBegin 0079                       _SSPADD 0093  
        SerialBegin@BaudRate 0044                       _TRISC3 043B                       _TRISC4 043C  
                     _TRISC6 043E                       _TRISC7 043F                       _SSPCON 0014  
                     _SSPBUF 0013                       _Alarma 101D             __end_of_lcdBegin 1551  
           __end_of_lcdClear 1187               __CFG_PWRTE$OFF 0000                       _LatchB 003A  
                     _LatchC 0039                       _Estado 0060                       _Teclas 00D0  
           __end_of_lcdPrint 12DA                       _Number 0037             __end_of_lcdWrite 11A9  
                     ___bmul 11D1                    ??___aldiv 0078                    ??___lwdiv 0074  
                  ??___lwmod 007C                       delay@i 0075                       delay@j 0073  
                  ??_pinMode 0071                       setup@i 0050                       setup@j 0051  
                  ??_sprintf 0043      __end_of__initialization 07FC         __end_of_ByteByNibble 1000  
         __size_of_WriteData 0083          ___bmul@multiplicand 0070                __end_of_Banda 101F  
                pinMode@mode 0070          __end_of_SerialBegin 15F6            WriteData@LSNibble 0079  
 __size_of_CCP2Configuration 0005               __pcstackCOMMON 0070            WriteData@MSNibble 007B  
               __pidataBANK0 0004                 __pidataBANK1 1205                __end_of_delay 0060  
              __end_of_setup 1800                  ?_KeypadRead 0070                   __end_of_D4 1024  
                 __end_of_D5 1023                   __end_of_D6 1022                   __end_of_D7 1021  
                 __end_of_RS 1027                   __end_of_En 1025          __end_of_SensorCajas 101B  
                _KeypadBegin 15F6                 KeypadBegin@i 0043                 KeypadBegin@j 003F  
               KeypadBegin@k 0041               _OPTION_REGbits 0081                      ??_delay 0072  
                    ??_setup 004A                    ?_Contador 0070                   __pbssBANK0 0020  
                 __pbssBANK1 00A0                   _characters 00C0        __size_of_digitalWrite 0123  
             _CajasCompletas 0035                   __pmaintext 11BC                      ?___bmul 0070  
             _Initialization 0802              KeypadBegin@data 0075                      _CCP1CON 0017  
            KeypadBegin@cols 0074                      _CCP2CON 001D        __size_of_lcdSetCursor 002C  
            KeypadBegin@rows 003E    __size_of_WriteInstruction 0082            __end_of_WriteData 142A  
                  ?_lcdBegin 003E                    ?_lcdClear 0070                 _digitalWrite 0B06  
                  ?_lcdPrint 003E                      _SSPCON2 0091                    ?_lcdWrite 0070  
                    _SSPSTAT 0094                   ??_Contador 0070        __end_of_ContadorBegin 1198  
                 __stringtab 1000                      _ColPins 0020          __size_of_KeypadRead 0357  
                _SerialBegin 1551                 _lcdSetCursor 1225              lcdSetCursor@row 003E  
     __end_of_Initialization 0828                      _RowPins 0028                      ___aldiv 0828  
            __size_of___bmul 0019                  _SensorCajas 101A                      ___lwdiv 12DA  
                    ___lwmod 1251                      __ptext1 16EE                      __ptext2 14AF  
                    __ptext3 1551                      __ptext4 0828                      __ptext5 15F6  
                    __ptext6 142A                      __ptext7 09E5                      __ptext8 118F  
                    __ptext9 03B7                      _counter 0038                      _dpowers 1010  
                    _pinMode 09E5                   delay@milis 0070             ___aldiv@dividend 0074  
                 ??_lcdBegin 007C                   ??_lcdClear 007C        __size_of_ByteByNibble 02AE  
                 ??_lcdPrint 0040                   ??_lcdWrite 007C                      _sprintf 08CE  
   WriteInstruction@LSNibble 0079                      clrloop0 1188                   lcdBegin@EN 003E  
                 lcdBegin@RS 0044                   lcdBegin@d4 0040                   lcdBegin@d5 0041  
                 lcdBegin@d6 0042                   lcdBegin@d7 0043     WriteInstruction@MSNibble 007B  
       end_of_initialization 07FC      ByteByNibble@NibbleValue 0076               digitalRead@pin 0072  
   __size_of_IOConfiguration 0085              ?_Initialization 0070             ___aldiv@quotient 0040  
              ??_digitalRead 0070                    _PORTAbits 0005                    _PORTBbits 0006  
                  _PORTCbits 0007                    _PORTDbits 0008                    _PORTEbits 0009  
               _ByteByNibble 0D52                    _TRISAbits 0085                    _TRISBbits 0086  
                  _TRISCbits 0087                    _TRISDbits 0088               __end_of_Alarma 101E  
             __end_of___bmul 11EA                 ??_KeypadRead 0077             _WriteInstruction 1325  
       __end_of_MotorCanicas 1020                 ?_KeypadBegin 0074          start_initialization 07D1  
        __end_of_digitalRead 0D52                  __end_of_RnW 1026                WriteData@data 007A  
                  _SecondROW 00A0            __size_of_Contador 001B           __end_of_KeypadRead 03B7  
                   ??___bmul 0071            ??_IOConfiguration 0074                   init_fetch0 11A9  
                __pdataBANK0 0061                  __pdataBANK1 00C0                _SensorCanicas 101B  
                  ___latbits 0002                __pcstackBANK0 003E                   pinMode@pin 0073  
                  _WriteData 13A7             _IndicadorCanicas 101C            __size_of_lcdBegin 00A2  
          __size_of_lcdClear 0007            __size_of_lcdPrint 0048            __size_of_lcdWrite 0011  
               ?_SerialBegin 0044                  sprintf@flag 0048                  sprintf@prec 0046  
                  __pnvBANK0 0052             ___lwdiv@dividend 0072                     ?___aldiv 0070  
               SerialBegin@x 0048                     ?___lwdiv 0070                     ?___lwmod 0078  
                _digitalRead 0C29                    __pstrings 1000         lcdSetCursor@location 003F  
                   ?_pinMode 0070                   ?_WriteData 0070             ___lwdiv@quotient 0075  
             __size_of_delay 004E                     ?_sprintf 003E               __size_of_setup 0112  
            ___aldiv@divisor 0070             ??_Initialization 0070              ___aldiv@counter 003E  
                  clear_ram0 1187                    lcdPrint@i 0043       __size_of_ContadorBegin 0009  
                 _ADCON0bits 001F                  __stringbase 100F         __size_of_KeypadBegin 00F8  
                   _Contador 11EA                     _FirstROW 00B0     __end_of_WriteInstruction 13A7  
               _MotorCanicas 101F             __size_of___aldiv 00A6             __size_of___lwdiv 004B  
           __size_of___lwmod 0041           __end_of__stringtab 1010                   sprintf@val 0049  
                   _lcdBegin 14AF             __size_of_pinMode 0121                     _delaying 0061  
                   _lcdClear 1180              ___lwdiv@divisor 0070                  ??_WriteData 0077  
            ___lwdiv@counter 0077                     __ptext10 08CE                     __ptext11 1251  
                   __ptext20 11D1                     __ptext12 12DA                     __ptext21 0060  
                   __ptext13 1225                     __ptext22 0B06                     __ptext14 1292  
                   __ptext23 0C29                     __ptext15 1198                     __ptext24 0012  
                   __ptext16 13A7                     __ptext25 11EA                     __ptext17 1180  
                   __ptext26 0802                     __ptext18 1325                     __ptext27 117B  
                   __ptext19 0D52                     __ptext28 0007                     _lcdPrint 1292  
                   _lcdWrite 1198             __size_of_sprintf 0117                _ContadorBegin 118F  
            _IOConfiguration 142A                __size_of_main 0015                __size_of_loop 041A  
             lcdPrint@string 003E         __size_of_SerialBegin 00A5     __end_of_IndicadorCanicas 101D  
                lcdBegin@R_W 003F                ?_digitalWrite 0070                     init_ram0 11AD  
             ?_ContadorBegin 0070                    sprintf@ap 0047                    sprintf@sp 004B  
          digitalWrite@value 0070             ___lwmod@dividend 007A                ?_lcdSetCursor 007C  
                  stringcode 100A            _CCP1Configuration 0007                 ?_digitalRead 0070  
         ?_CCP1Configuration 0070                     sprintf@c 004C                     sprintf@f 003E  
            ___lwmod@divisor 0078              ___lwmod@counter 007D               ??_digitalWrite 0071  
                   stringdir 100A                     stringtab 1000          ??_CCP1Configuration 0070  
               ___aldiv@sign 003F      __end_of_IOConfiguration 14AF              digitalWrite@pin 0073  
               Contador@mode 0070               ??_lcdSetCursor 007D  WriteInstruction@instruction 007A  
  __end_of_CCP1Configuration 0012  
