

Microchip Technology PIC LITE Macro Assembler V2.00 build -1524193055 
                                                                                               Wed Feb 19 10:41:35 2020

Microchip Technology Omniscient Code Generator v2.00 (Free mode) build 20180527130849
     1  0000                     
      + 0000                     
     2                           ; Version 2.00
     3                           ; Generated 27/05/2018 GMT
     4                           
     5                           ; 
     6                           ; Copyright © 2018, Microchip Technology Inc. and its subsidiaries ("Microchip")
     7                           ; All rights reserved.
     8                           ; 
     9                           ; This software is developed by Microchip Technology Inc. and its subsidiaries ("Microch
                                 ip").
    10                           ; 
    11                           ; Redistribution and use in source and binary forms, with or without modification, are
    12                           ; permitted provided that the following conditions are met:
    13                           ; 
    14                           ;     1. Redistributions of source code must retain the above copyright notice, this lis
                                 t of
    15                           ;        conditions and the following disclaimer.
    16                           ; 
    17                           ;     2. Redistributions in binary form must reproduce the above copyright notice, this 
                                 list
    18                           ;        of conditions and the following disclaimer in the documentation and/or other
    19                           ;        materials provided with the distribution.
    20                           ; 
    21                           ;     3. Microchip's name may not be used to endorse or promote products derived from th
                                 is
    22                           ;        software without specific prior written permission.
    23                           ; 
    24                           ; THIS SOFTWARE IS PROVIDED BY MICROCHIP "AS IS" AND ANY EXPRESS OR IMPLIED WARRANTIES,

    25                           ; INCLUDING, BUT NOT LIMITED TO, THE IMPLIED WARRANTIES OF MERCHANTABILITY AND FITNESS F
                                 OR
    26                           ; PURPOSE ARE DISCLAIMED.  IN NO EVENT SHALL MICROCHIP BE LIABLE FOR ANY DIRECT, INDIREC
                                 T,
    27                           ; INCIDENTAL, SPECIAL, EXEMPLARY, OR CONSEQUENTIAL DAMAGES (INCLUDING BUT NOT LIMITED TO
                                 
    28                           ; PROCUREMENT OF SUBSTITUTE GOODS OR SERVICES; LOSS OF USE, DATA OR PROFITS; OR BUSINESS
                                 
    29                           ; INTERRUPTION) HOWSOEVER CAUSED AND ON ANY THEORY OF LIABILITY, WHETHER IN CONTRACT, ST
                                 RICT
    30                           ; LIABILITY, OR TORT (INCLUDING NEGLIGENCE OR OTHERWISE) ARISING IN ANY WAY OUT OF THE U
                                 SE OF
    31                           ; THIS SOFTWARE, EVEN IF ADVISED OF THE POSSIBILITY OF SUCH DAMAGE.
    32                           ; 
    33                           
    34                           
    35                           ; 
    36                           ; Code-generator required, PIC16F877A Definitions
    37                           ; 
    38  0004                     fsr0 equ 04h
    39  0004                     indf equ 00h
    40  0000                     indf0 equ 00h
    41  0000                     pc equ 02h
    42  0002                     pcl equ 02h
    43  0002                     pclath equ 0Ah
    44  000A                     status equ 03h
    45  0003                     
     2                           opt pagewidth 120
     3  0000                     byte0	macro	val
     4                           	(getbyte(val,0))
     5                           endm
     6  0000                     byte1	macro	val
     7                           	(getbyte(val,1))
     8                           endm
     9  0000                     byte2	macro	val
    10                           	(getbyte(val,2))
    11                           endm
    12  0000                     byte3	macro	val
    13                           	(getbyte(val,3))
    14                           endm
    15  0000                     byte4	macro	val
    16                           	(getbyte(val,4))
    17                           endm
    18  0000                     byte5	macro	val
    19                           	(getbyte(val,5))
    20                           endm
    21  0000                     byte6	macro	val
    22                           	(getbyte(val,6))
    23                           endm
    24  0000                     byte7	macro	val
    25                           	(getbyte(val,7))
    26                           endm
    27  0000                     getword	macro	val,pos
    28                           	(((val) >> (8 * pos)) and 0xffff)
    29                           endm
    30  0000                     word0	macro	val
    31                           	(getword(val,0))
    32                           endm
    33  0000                     word1	macro	val
    34                           	(getword(val,2))
    35                           endm
    36  0000                     word2	macro	val
    37                           	(getword(val,4))
    38                           endm
    39  0000                     word3	macro	val
    40                           	(getword(val,6))
    41                           endm
    42  0000                     gettword	macro	val,pos
    43                           	(((val) >> (8 * pos)) and 0xffffff)
    44                           endm
    45  0000                     tword0	macro	val
    46                           	(gettword(val,0))
    47                           endm
    48  0000                     tword1	macro	val
    49                           	(gettword(val,3))
    50                           endm
    51  0000                     tword2	macro	val
    52                           	(gettword(val,6))
    53                           endm
    54  0000                     getdword	macro	val,pos
    55                           	(((val) >> (8 * pos)) and 0xffffffff)
    56                           endm
    57  0000                     dword0	macro	val
    58                           	(getdword(val,0))
    59                           endm
    60  0000                     dword1	macro	val
    61                           	(getdword(val,4))
    62                           endm
    63  0000                     clrc	macro
    64                           	bcf	3,0
    65                           	endm
    66  0000                     clrz	macro
    67                           	bcf	3,2
    68                           	endm
    69  0000                     setc	macro
    70                           	bsf	3,0
    71                           	endm
    72  0000                     setz	macro
    73                           	bsf	3,2
    74                           	endm
    75  0000                     skipc	macro
    76                           	btfss	3,0
    77                           	endm
    78  0000                     skipz	macro
    79                           	btfss	3,2
    80                           	endm
    81  0000                     skipnc	macro
    82                           	btfsc	3,0
    83                           	endm
    84  0000                     skipnz	macro
    85                           	btfsc	3,2
    86                           	endm
    87  0000                     # 54 "C:\Program Files (x86)\Microchip\xc8\v2.00\pic\include\pic16f877a.h"
    88                           INDF equ 00h ;# 
    89  0000                     # 61 "C:\Program Files (x86)\Microchip\xc8\v2.00\pic\include\pic16f877a.h"
    90                           TMR0 equ 01h ;# 
    91  0001                     # 68 "C:\Program Files (x86)\Microchip\xc8\v2.00\pic\include\pic16f877a.h"
    92                           PCL equ 02h ;# 
    93  0002                     # 75 "C:\Program Files (x86)\Microchip\xc8\v2.00\pic\include\pic16f877a.h"
    94                           STATUS equ 03h ;# 
    95  0003                     # 161 "C:\Program Files (x86)\Microchip\xc8\v2.00\pic\include\pic16f877a.h"
    96                           FSR equ 04h ;# 
    97  0004                     # 168 "C:\Program Files (x86)\Microchip\xc8\v2.00\pic\include\pic16f877a.h"
    98                           PORTA equ 05h ;# 
    99  0005                     # 218 "C:\Program Files (x86)\Microchip\xc8\v2.00\pic\include\pic16f877a.h"
   100                           PORTB equ 06h ;# 
   101  0006                     # 280 "C:\Program Files (x86)\Microchip\xc8\v2.00\pic\include\pic16f877a.h"
   102                           PORTC equ 07h ;# 
   103  0007                     # 342 "C:\Program Files (x86)\Microchip\xc8\v2.00\pic\include\pic16f877a.h"
   104                           PORTD equ 08h ;# 
   105  0008                     # 404 "C:\Program Files (x86)\Microchip\xc8\v2.00\pic\include\pic16f877a.h"
   106                           PORTE equ 09h ;# 
   107  0009                     # 436 "C:\Program Files (x86)\Microchip\xc8\v2.00\pic\include\pic16f877a.h"
   108                           PCLATH equ 0Ah ;# 
   109  000A                     # 456 "C:\Program Files (x86)\Microchip\xc8\v2.00\pic\include\pic16f877a.h"
   110                           INTCON equ 0Bh ;# 
   111  000B                     # 534 "C:\Program Files (x86)\Microchip\xc8\v2.00\pic\include\pic16f877a.h"
   112                           PIR1 equ 0Ch ;# 
   113  000C                     # 596 "C:\Program Files (x86)\Microchip\xc8\v2.00\pic\include\pic16f877a.h"
   114                           PIR2 equ 0Dh ;# 
   115  000D                     # 636 "C:\Program Files (x86)\Microchip\xc8\v2.00\pic\include\pic16f877a.h"
   116                           TMR1 equ 0Eh ;# 
   117  000E                     # 643 "C:\Program Files (x86)\Microchip\xc8\v2.00\pic\include\pic16f877a.h"
   118                           TMR1L equ 0Eh ;# 
   119  000E                     # 650 "C:\Program Files (x86)\Microchip\xc8\v2.00\pic\include\pic16f877a.h"
   120                           TMR1H equ 0Fh ;# 
   121  000F                     # 657 "C:\Program Files (x86)\Microchip\xc8\v2.00\pic\include\pic16f877a.h"
   122                           T1CON equ 010h ;# 
   123  0010                     # 732 "C:\Program Files (x86)\Microchip\xc8\v2.00\pic\include\pic16f877a.h"
   124                           TMR2 equ 011h ;# 
   125  0011                     # 739 "C:\Program Files (x86)\Microchip\xc8\v2.00\pic\include\pic16f877a.h"
   126                           T2CON equ 012h ;# 
   127  0012                     # 810 "C:\Program Files (x86)\Microchip\xc8\v2.00\pic\include\pic16f877a.h"
   128                           SSPBUF equ 013h ;# 
   129  0013                     # 817 "C:\Program Files (x86)\Microchip\xc8\v2.00\pic\include\pic16f877a.h"
   130                           SSPCON equ 014h ;# 
   131  0014                     # 887 "C:\Program Files (x86)\Microchip\xc8\v2.00\pic\include\pic16f877a.h"
   132                           CCPR1 equ 015h ;# 
   133  0015                     # 894 "C:\Program Files (x86)\Microchip\xc8\v2.00\pic\include\pic16f877a.h"
   134                           CCPR1L equ 015h ;# 
   135  0015                     # 901 "C:\Program Files (x86)\Microchip\xc8\v2.00\pic\include\pic16f877a.h"
   136                           CCPR1H equ 016h ;# 
   137  0016                     # 908 "C:\Program Files (x86)\Microchip\xc8\v2.00\pic\include\pic16f877a.h"
   138                           CCP1CON equ 017h ;# 
   139  0017                     # 966 "C:\Program Files (x86)\Microchip\xc8\v2.00\pic\include\pic16f877a.h"
   140                           RCSTA equ 018h ;# 
   141  0018                     # 1061 "C:\Program Files (x86)\Microchip\xc8\v2.00\pic\include\pic16f877a.h"
   142                           TXREG equ 019h ;# 
   143  0019                     # 1068 "C:\Program Files (x86)\Microchip\xc8\v2.00\pic\include\pic16f877a.h"
   144                           RCREG equ 01Ah ;# 
   145  001A                     # 1075 "C:\Program Files (x86)\Microchip\xc8\v2.00\pic\include\pic16f877a.h"
   146                           CCPR2 equ 01Bh ;# 
   147  001B                     # 1082 "C:\Program Files (x86)\Microchip\xc8\v2.00\pic\include\pic16f877a.h"
   148                           CCPR2L equ 01Bh ;# 
   149  001B                     # 1089 "C:\Program Files (x86)\Microchip\xc8\v2.00\pic\include\pic16f877a.h"
   150                           CCPR2H equ 01Ch ;# 
   151  001C                     # 1096 "C:\Program Files (x86)\Microchip\xc8\v2.00\pic\include\pic16f877a.h"
   152                           CCP2CON equ 01Dh ;# 
   153  001D                     # 1154 "C:\Program Files (x86)\Microchip\xc8\v2.00\pic\include\pic16f877a.h"
   154                           ADRESH equ 01Eh ;# 
   155  001E                     # 1161 "C:\Program Files (x86)\Microchip\xc8\v2.00\pic\include\pic16f877a.h"
   156                           ADCON0 equ 01Fh ;# 
   157  001F                     # 1257 "C:\Program Files (x86)\Microchip\xc8\v2.00\pic\include\pic16f877a.h"
   158                           OPTION_REG equ 081h ;# 
   159  0081                     # 1327 "C:\Program Files (x86)\Microchip\xc8\v2.00\pic\include\pic16f877a.h"
   160                           TRISA equ 085h ;# 
   161  0085                     # 1377 "C:\Program Files (x86)\Microchip\xc8\v2.00\pic\include\pic16f877a.h"
   162                           TRISB equ 086h ;# 
   163  0086                     # 1439 "C:\Program Files (x86)\Microchip\xc8\v2.00\pic\include\pic16f877a.h"
   164                           TRISC equ 087h ;# 
   165  0087                     # 1501 "C:\Program Files (x86)\Microchip\xc8\v2.00\pic\include\pic16f877a.h"
   166                           TRISD equ 088h ;# 
   167  0088                     # 1563 "C:\Program Files (x86)\Microchip\xc8\v2.00\pic\include\pic16f877a.h"
   168                           TRISE equ 089h ;# 
   169  0089                     # 1620 "C:\Program Files (x86)\Microchip\xc8\v2.00\pic\include\pic16f877a.h"
   170                           PIE1 equ 08Ch ;# 
   171  008C                     # 1682 "C:\Program Files (x86)\Microchip\xc8\v2.00\pic\include\pic16f877a.h"
   172                           PIE2 equ 08Dh ;# 
   173  008D                     # 1722 "C:\Program Files (x86)\Microchip\xc8\v2.00\pic\include\pic16f877a.h"
   174                           PCON equ 08Eh ;# 
   175  008E                     # 1756 "C:\Program Files (x86)\Microchip\xc8\v2.00\pic\include\pic16f877a.h"
   176                           SSPCON2 equ 091h ;# 
   177  0091                     # 1818 "C:\Program Files (x86)\Microchip\xc8\v2.00\pic\include\pic16f877a.h"
   178                           PR2 equ 092h ;# 
   179  0092                     # 1825 "C:\Program Files (x86)\Microchip\xc8\v2.00\pic\include\pic16f877a.h"
   180                           SSPADD equ 093h ;# 
   181  0093                     # 1832 "C:\Program Files (x86)\Microchip\xc8\v2.00\pic\include\pic16f877a.h"
   182                           SSPSTAT equ 094h ;# 
   183  0094                     # 2001 "C:\Program Files (x86)\Microchip\xc8\v2.00\pic\include\pic16f877a.h"
   184                           TXSTA equ 098h ;# 
   185  0098                     # 2082 "C:\Program Files (x86)\Microchip\xc8\v2.00\pic\include\pic16f877a.h"
   186                           SPBRG equ 099h ;# 
   187  0099                     # 2089 "C:\Program Files (x86)\Microchip\xc8\v2.00\pic\include\pic16f877a.h"
   188                           CMCON equ 09Ch ;# 
   189  009C                     # 2159 "C:\Program Files (x86)\Microchip\xc8\v2.00\pic\include\pic16f877a.h"
   190                           CVRCON equ 09Dh ;# 
   191  009D                     # 2224 "C:\Program Files (x86)\Microchip\xc8\v2.00\pic\include\pic16f877a.h"
   192                           ADRESL equ 09Eh ;# 
   193  009E                     # 2231 "C:\Program Files (x86)\Microchip\xc8\v2.00\pic\include\pic16f877a.h"
   194                           ADCON1 equ 09Fh ;# 
   195  009F                     # 2290 "C:\Program Files (x86)\Microchip\xc8\v2.00\pic\include\pic16f877a.h"
   196                           EEDATA equ 010Ch ;# 
   197  010C                     # 2297 "C:\Program Files (x86)\Microchip\xc8\v2.00\pic\include\pic16f877a.h"
   198                           EEADR equ 010Dh ;# 
   199  010D                     # 2304 "C:\Program Files (x86)\Microchip\xc8\v2.00\pic\include\pic16f877a.h"
   200                           EEDATH equ 010Eh ;# 
   201  010E                     # 2311 "C:\Program Files (x86)\Microchip\xc8\v2.00\pic\include\pic16f877a.h"
   202                           EEADRH equ 010Fh ;# 
   203  010F                     # 2318 "C:\Program Files (x86)\Microchip\xc8\v2.00\pic\include\pic16f877a.h"
   204                           EECON1 equ 018Ch ;# 
   205  018C                     # 2363 "C:\Program Files (x86)\Microchip\xc8\v2.00\pic\include\pic16f877a.h"
   206                           EECON2 equ 018Dh ;# 
   207  018D                     # 54 "C:\Program Files (x86)\Microchip\xc8\v2.00\pic\include\pic16f877a.h"
   208                           INDF equ 00h ;# 
   209  0000                     # 61 "C:\Program Files (x86)\Microchip\xc8\v2.00\pic\include\pic16f877a.h"
   210                           TMR0 equ 01h ;# 
   211  0001                     # 68 "C:\Program Files (x86)\Microchip\xc8\v2.00\pic\include\pic16f877a.h"
   212                           PCL equ 02h ;# 
   213  0002                     # 75 "C:\Program Files (x86)\Microchip\xc8\v2.00\pic\include\pic16f877a.h"
   214                           STATUS equ 03h ;# 
   215  0003                     # 161 "C:\Program Files (x86)\Microchip\xc8\v2.00\pic\include\pic16f877a.h"
   216                           FSR equ 04h ;# 
   217  0004                     # 168 "C:\Program Files (x86)\Microchip\xc8\v2.00\pic\include\pic16f877a.h"
   218                           PORTA equ 05h ;# 
   219  0005                     # 218 "C:\Program Files (x86)\Microchip\xc8\v2.00\pic\include\pic16f877a.h"
   220                           PORTB equ 06h ;# 
   221  0006                     # 280 "C:\Program Files (x86)\Microchip\xc8\v2.00\pic\include\pic16f877a.h"
   222                           PORTC equ 07h ;# 
   223  0007                     # 342 "C:\Program Files (x86)\Microchip\xc8\v2.00\pic\include\pic16f877a.h"
   224                           PORTD equ 08h ;# 
   225  0008                     # 404 "C:\Program Files (x86)\Microchip\xc8\v2.00\pic\include\pic16f877a.h"
   226                           PORTE equ 09h ;# 
   227  0009                     # 436 "C:\Program Files (x86)\Microchip\xc8\v2.00\pic\include\pic16f877a.h"
   228                           PCLATH equ 0Ah ;# 
   229  000A                     # 456 "C:\Program Files (x86)\Microchip\xc8\v2.00\pic\include\pic16f877a.h"
   230                           INTCON equ 0Bh ;# 
   231  000B                     # 534 "C:\Program Files (x86)\Microchip\xc8\v2.00\pic\include\pic16f877a.h"
   232                           PIR1 equ 0Ch ;# 
   233  000C                     # 596 "C:\Program Files (x86)\Microchip\xc8\v2.00\pic\include\pic16f877a.h"
   234                           PIR2 equ 0Dh ;# 
   235  000D                     # 636 "C:\Program Files (x86)\Microchip\xc8\v2.00\pic\include\pic16f877a.h"
   236                           TMR1 equ 0Eh ;# 
   237  000E                     # 643 "C:\Program Files (x86)\Microchip\xc8\v2.00\pic\include\pic16f877a.h"
   238                           TMR1L equ 0Eh ;# 
   239  000E                     # 650 "C:\Program Files (x86)\Microchip\xc8\v2.00\pic\include\pic16f877a.h"
   240                           TMR1H equ 0Fh ;# 
   241  000F                     # 657 "C:\Program Files (x86)\Microchip\xc8\v2.00\pic\include\pic16f877a.h"
   242                           T1CON equ 010h ;# 
   243  0010                     # 732 "C:\Program Files (x86)\Microchip\xc8\v2.00\pic\include\pic16f877a.h"
   244                           TMR2 equ 011h ;# 
   245  0011                     # 739 "C:\Program Files (x86)\Microchip\xc8\v2.00\pic\include\pic16f877a.h"
   246                           T2CON equ 012h ;# 
   247  0012                     # 810 "C:\Program Files (x86)\Microchip\xc8\v2.00\pic\include\pic16f877a.h"
   248                           SSPBUF equ 013h ;# 
   249  0013                     # 817 "C:\Program Files (x86)\Microchip\xc8\v2.00\pic\include\pic16f877a.h"
   250                           SSPCON equ 014h ;# 
   251  0014                     # 887 "C:\Program Files (x86)\Microchip\xc8\v2.00\pic\include\pic16f877a.h"
   252                           CCPR1 equ 015h ;# 
   253  0015                     # 894 "C:\Program Files (x86)\Microchip\xc8\v2.00\pic\include\pic16f877a.h"
   254                           CCPR1L equ 015h ;# 
   255  0015                     # 901 "C:\Program Files (x86)\Microchip\xc8\v2.00\pic\include\pic16f877a.h"
   256                           CCPR1H equ 016h ;# 
   257  0016                     # 908 "C:\Program Files (x86)\Microchip\xc8\v2.00\pic\include\pic16f877a.h"
   258                           CCP1CON equ 017h ;# 
   259  0017                     # 966 "C:\Program Files (x86)\Microchip\xc8\v2.00\pic\include\pic16f877a.h"
   260                           RCSTA equ 018h ;# 
   261  0018                     # 1061 "C:\Program Files (x86)\Microchip\xc8\v2.00\pic\include\pic16f877a.h"
   262                           TXREG equ 019h ;# 
   263  0019                     # 1068 "C:\Program Files (x86)\Microchip\xc8\v2.00\pic\include\pic16f877a.h"
   264                           RCREG equ 01Ah ;# 
   265  001A                     # 1075 "C:\Program Files (x86)\Microchip\xc8\v2.00\pic\include\pic16f877a.h"
   266                           CCPR2 equ 01Bh ;# 
   267  001B                     # 1082 "C:\Program Files (x86)\Microchip\xc8\v2.00\pic\include\pic16f877a.h"
   268                           CCPR2L equ 01Bh ;# 
   269  001B                     # 1089 "C:\Program Files (x86)\Microchip\xc8\v2.00\pic\include\pic16f877a.h"
   270                           CCPR2H equ 01Ch ;# 
   271  001C                     # 1096 "C:\Program Files (x86)\Microchip\xc8\v2.00\pic\include\pic16f877a.h"
   272                           CCP2CON equ 01Dh ;# 
   273  001D                     # 1154 "C:\Program Files (x86)\Microchip\xc8\v2.00\pic\include\pic16f877a.h"
   274                           ADRESH equ 01Eh ;# 
   275  001E                     # 1161 "C:\Program Files (x86)\Microchip\xc8\v2.00\pic\include\pic16f877a.h"
   276                           ADCON0 equ 01Fh ;# 
   277  001F                     # 1257 "C:\Program Files (x86)\Microchip\xc8\v2.00\pic\include\pic16f877a.h"
   278                           OPTION_REG equ 081h ;# 
   279  0081                     # 1327 "C:\Program Files (x86)\Microchip\xc8\v2.00\pic\include\pic16f877a.h"
   280                           TRISA equ 085h ;# 
   281  0085                     # 1377 "C:\Program Files (x86)\Microchip\xc8\v2.00\pic\include\pic16f877a.h"
   282                           TRISB equ 086h ;# 
   283  0086                     # 1439 "C:\Program Files (x86)\Microchip\xc8\v2.00\pic\include\pic16f877a.h"
   284                           TRISC equ 087h ;# 
   285  0087                     # 1501 "C:\Program Files (x86)\Microchip\xc8\v2.00\pic\include\pic16f877a.h"
   286                           TRISD equ 088h ;# 
   287  0088                     # 1563 "C:\Program Files (x86)\Microchip\xc8\v2.00\pic\include\pic16f877a.h"
   288                           TRISE equ 089h ;# 
   289  0089                     # 1620 "C:\Program Files (x86)\Microchip\xc8\v2.00\pic\include\pic16f877a.h"
   290                           PIE1 equ 08Ch ;# 
   291  008C                     # 1682 "C:\Program Files (x86)\Microchip\xc8\v2.00\pic\include\pic16f877a.h"
   292                           PIE2 equ 08Dh ;# 
   293  008D                     # 1722 "C:\Program Files (x86)\Microchip\xc8\v2.00\pic\include\pic16f877a.h"
   294                           PCON equ 08Eh ;# 
   295  008E                     # 1756 "C:\Program Files (x86)\Microchip\xc8\v2.00\pic\include\pic16f877a.h"
   296                           SSPCON2 equ 091h ;# 
   297  0091                     # 1818 "C:\Program Files (x86)\Microchip\xc8\v2.00\pic\include\pic16f877a.h"
   298                           PR2 equ 092h ;# 
   299  0092                     # 1825 "C:\Program Files (x86)\Microchip\xc8\v2.00\pic\include\pic16f877a.h"
   300                           SSPADD equ 093h ;# 
   301  0093                     # 1832 "C:\Program Files (x86)\Microchip\xc8\v2.00\pic\include\pic16f877a.h"
   302                           SSPSTAT equ 094h ;# 
   303  0094                     # 2001 "C:\Program Files (x86)\Microchip\xc8\v2.00\pic\include\pic16f877a.h"
   304                           TXSTA equ 098h ;# 
   305  0098                     # 2082 "C:\Program Files (x86)\Microchip\xc8\v2.00\pic\include\pic16f877a.h"
   306                           SPBRG equ 099h ;# 
   307  0099                     # 2089 "C:\Program Files (x86)\Microchip\xc8\v2.00\pic\include\pic16f877a.h"
   308                           CMCON equ 09Ch ;# 
   309  009C                     # 2159 "C:\Program Files (x86)\Microchip\xc8\v2.00\pic\include\pic16f877a.h"
   310                           CVRCON equ 09Dh ;# 
   311  009D                     # 2224 "C:\Program Files (x86)\Microchip\xc8\v2.00\pic\include\pic16f877a.h"
   312                           ADRESL equ 09Eh ;# 
   313  009E                     # 2231 "C:\Program Files (x86)\Microchip\xc8\v2.00\pic\include\pic16f877a.h"
   314                           ADCON1 equ 09Fh ;# 
   315  009F                     # 2290 "C:\Program Files (x86)\Microchip\xc8\v2.00\pic\include\pic16f877a.h"
   316                           EEDATA equ 010Ch ;# 
   317  010C                     # 2297 "C:\Program Files (x86)\Microchip\xc8\v2.00\pic\include\pic16f877a.h"
   318                           EEADR equ 010Dh ;# 
   319  010D                     # 2304 "C:\Program Files (x86)\Microchip\xc8\v2.00\pic\include\pic16f877a.h"
   320                           EEDATH equ 010Eh ;# 
   321  010E                     # 2311 "C:\Program Files (x86)\Microchip\xc8\v2.00\pic\include\pic16f877a.h"
   322                           EEADRH equ 010Fh ;# 
   323  010F                     # 2318 "C:\Program Files (x86)\Microchip\xc8\v2.00\pic\include\pic16f877a.h"
   324                           EECON1 equ 018Ch ;# 
   325  018C                     # 2363 "C:\Program Files (x86)\Microchip\xc8\v2.00\pic\include\pic16f877a.h"
   326                           EECON2 equ 018Dh ;# 
   327  018D                     # 54 "C:\Program Files (x86)\Microchip\xc8\v2.00\pic\include\pic16f877a.h"
   328                           INDF equ 00h ;# 
   329  0000                     # 61 "C:\Program Files (x86)\Microchip\xc8\v2.00\pic\include\pic16f877a.h"
   330                           TMR0 equ 01h ;# 
   331  0001                     # 68 "C:\Program Files (x86)\Microchip\xc8\v2.00\pic\include\pic16f877a.h"
   332                           PCL equ 02h ;# 
   333  0002                     # 75 "C:\Program Files (x86)\Microchip\xc8\v2.00\pic\include\pic16f877a.h"
   334                           STATUS equ 03h ;# 
   335  0003                     # 161 "C:\Program Files (x86)\Microchip\xc8\v2.00\pic\include\pic16f877a.h"
   336                           FSR equ 04h ;# 
   337  0004                     # 168 "C:\Program Files (x86)\Microchip\xc8\v2.00\pic\include\pic16f877a.h"
   338                           PORTA equ 05h ;# 
   339  0005                     # 218 "C:\Program Files (x86)\Microchip\xc8\v2.00\pic\include\pic16f877a.h"
   340                           PORTB equ 06h ;# 
   341  0006                     # 280 "C:\Program Files (x86)\Microchip\xc8\v2.00\pic\include\pic16f877a.h"
   342                           PORTC equ 07h ;# 
   343  0007                     # 342 "C:\Program Files (x86)\Microchip\xc8\v2.00\pic\include\pic16f877a.h"
   344                           PORTD equ 08h ;# 
   345  0008                     # 404 "C:\Program Files (x86)\Microchip\xc8\v2.00\pic\include\pic16f877a.h"
   346                           PORTE equ 09h ;# 
   347  0009                     # 436 "C:\Program Files (x86)\Microchip\xc8\v2.00\pic\include\pic16f877a.h"
   348                           PCLATH equ 0Ah ;# 
   349  000A                     # 456 "C:\Program Files (x86)\Microchip\xc8\v2.00\pic\include\pic16f877a.h"
   350                           INTCON equ 0Bh ;# 
   351  000B                     # 534 "C:\Program Files (x86)\Microchip\xc8\v2.00\pic\include\pic16f877a.h"
   352                           PIR1 equ 0Ch ;# 
   353  000C                     # 596 "C:\Program Files (x86)\Microchip\xc8\v2.00\pic\include\pic16f877a.h"
   354                           PIR2 equ 0Dh ;# 
   355  000D                     # 636 "C:\Program Files (x86)\Microchip\xc8\v2.00\pic\include\pic16f877a.h"
   356                           TMR1 equ 0Eh ;# 
   357  000E                     # 643 "C:\Program Files (x86)\Microchip\xc8\v2.00\pic\include\pic16f877a.h"
   358                           TMR1L equ 0Eh ;# 
   359  000E                     # 650 "C:\Program Files (x86)\Microchip\xc8\v2.00\pic\include\pic16f877a.h"
   360                           TMR1H equ 0Fh ;# 
   361  000F                     # 657 "C:\Program Files (x86)\Microchip\xc8\v2.00\pic\include\pic16f877a.h"
   362                           T1CON equ 010h ;# 
   363  0010                     # 732 "C:\Program Files (x86)\Microchip\xc8\v2.00\pic\include\pic16f877a.h"
   364                           TMR2 equ 011h ;# 
   365  0011                     # 739 "C:\Program Files (x86)\Microchip\xc8\v2.00\pic\include\pic16f877a.h"
   366                           T2CON equ 012h ;# 
   367  0012                     # 810 "C:\Program Files (x86)\Microchip\xc8\v2.00\pic\include\pic16f877a.h"
   368                           SSPBUF equ 013h ;# 
   369  0013                     # 817 "C:\Program Files (x86)\Microchip\xc8\v2.00\pic\include\pic16f877a.h"
   370                           SSPCON equ 014h ;# 
   371  0014                     # 887 "C:\Program Files (x86)\Microchip\xc8\v2.00\pic\include\pic16f877a.h"
   372                           CCPR1 equ 015h ;# 
   373  0015                     # 894 "C:\Program Files (x86)\Microchip\xc8\v2.00\pic\include\pic16f877a.h"
   374                           CCPR1L equ 015h ;# 
   375  0015                     # 901 "C:\Program Files (x86)\Microchip\xc8\v2.00\pic\include\pic16f877a.h"
   376                           CCPR1H equ 016h ;# 
   377  0016                     # 908 "C:\Program Files (x86)\Microchip\xc8\v2.00\pic\include\pic16f877a.h"
   378                           CCP1CON equ 017h ;# 
   379  0017                     # 966 "C:\Program Files (x86)\Microchip\xc8\v2.00\pic\include\pic16f877a.h"
   380                           RCSTA equ 018h ;# 
   381  0018                     # 1061 "C:\Program Files (x86)\Microchip\xc8\v2.00\pic\include\pic16f877a.h"
   382                           TXREG equ 019h ;# 
   383  0019                     # 1068 "C:\Program Files (x86)\Microchip\xc8\v2.00\pic\include\pic16f877a.h"
   384                           RCREG equ 01Ah ;# 
   385  001A                     # 1075 "C:\Program Files (x86)\Microchip\xc8\v2.00\pic\include\pic16f877a.h"
   386                           CCPR2 equ 01Bh ;# 
   387  001B                     # 1082 "C:\Program Files (x86)\Microchip\xc8\v2.00\pic\include\pic16f877a.h"
   388                           CCPR2L equ 01Bh ;# 
   389  001B                     # 1089 "C:\Program Files (x86)\Microchip\xc8\v2.00\pic\include\pic16f877a.h"
   390                           CCPR2H equ 01Ch ;# 
   391  001C                     # 1096 "C:\Program Files (x86)\Microchip\xc8\v2.00\pic\include\pic16f877a.h"
   392                           CCP2CON equ 01Dh ;# 
   393  001D                     # 1154 "C:\Program Files (x86)\Microchip\xc8\v2.00\pic\include\pic16f877a.h"
   394                           ADRESH equ 01Eh ;# 
   395  001E                     # 1161 "C:\Program Files (x86)\Microchip\xc8\v2.00\pic\include\pic16f877a.h"
   396                           ADCON0 equ 01Fh ;# 
   397  001F                     # 1257 "C:\Program Files (x86)\Microchip\xc8\v2.00\pic\include\pic16f877a.h"
   398                           OPTION_REG equ 081h ;# 
   399  0081                     # 1327 "C:\Program Files (x86)\Microchip\xc8\v2.00\pic\include\pic16f877a.h"
   400                           TRISA equ 085h ;# 
   401  0085                     # 1377 "C:\Program Files (x86)\Microchip\xc8\v2.00\pic\include\pic16f877a.h"
   402                           TRISB equ 086h ;# 
   403  0086                     # 1439 "C:\Program Files (x86)\Microchip\xc8\v2.00\pic\include\pic16f877a.h"
   404                           TRISC equ 087h ;# 
   405  0087                     # 1501 "C:\Program Files (x86)\Microchip\xc8\v2.00\pic\include\pic16f877a.h"
   406                           TRISD equ 088h ;# 
   407  0088                     # 1563 "C:\Program Files (x86)\Microchip\xc8\v2.00\pic\include\pic16f877a.h"
   408                           TRISE equ 089h ;# 
   409  0089                     # 1620 "C:\Program Files (x86)\Microchip\xc8\v2.00\pic\include\pic16f877a.h"
   410                           PIE1 equ 08Ch ;# 
   411  008C                     # 1682 "C:\Program Files (x86)\Microchip\xc8\v2.00\pic\include\pic16f877a.h"
   412                           PIE2 equ 08Dh ;# 
   413  008D                     # 1722 "C:\Program Files (x86)\Microchip\xc8\v2.00\pic\include\pic16f877a.h"
   414                           PCON equ 08Eh ;# 
   415  008E                     # 1756 "C:\Program Files (x86)\Microchip\xc8\v2.00\pic\include\pic16f877a.h"
   416                           SSPCON2 equ 091h ;# 
   417  0091                     # 1818 "C:\Program Files (x86)\Microchip\xc8\v2.00\pic\include\pic16f877a.h"
   418                           PR2 equ 092h ;# 
   419  0092                     # 1825 "C:\Program Files (x86)\Microchip\xc8\v2.00\pic\include\pic16f877a.h"
   420                           SSPADD equ 093h ;# 
   421  0093                     # 1832 "C:\Program Files (x86)\Microchip\xc8\v2.00\pic\include\pic16f877a.h"
   422                           SSPSTAT equ 094h ;# 
   423  0094                     # 2001 "C:\Program Files (x86)\Microchip\xc8\v2.00\pic\include\pic16f877a.h"
   424                           TXSTA equ 098h ;# 
   425  0098                     # 2082 "C:\Program Files (x86)\Microchip\xc8\v2.00\pic\include\pic16f877a.h"
   426                           SPBRG equ 099h ;# 
   427  0099                     # 2089 "C:\Program Files (x86)\Microchip\xc8\v2.00\pic\include\pic16f877a.h"
   428                           CMCON equ 09Ch ;# 
   429  009C                     # 2159 "C:\Program Files (x86)\Microchip\xc8\v2.00\pic\include\pic16f877a.h"
   430                           CVRCON equ 09Dh ;# 
   431  009D                     # 2224 "C:\Program Files (x86)\Microchip\xc8\v2.00\pic\include\pic16f877a.h"
   432                           ADRESL equ 09Eh ;# 
   433  009E                     # 2231 "C:\Program Files (x86)\Microchip\xc8\v2.00\pic\include\pic16f877a.h"
   434                           ADCON1 equ 09Fh ;# 
   435  009F                     # 2290 "C:\Program Files (x86)\Microchip\xc8\v2.00\pic\include\pic16f877a.h"
   436                           EEDATA equ 010Ch ;# 
   437  010C                     # 2297 "C:\Program Files (x86)\Microchip\xc8\v2.00\pic\include\pic16f877a.h"
   438                           EEADR equ 010Dh ;# 
   439  010D                     # 2304 "C:\Program Files (x86)\Microchip\xc8\v2.00\pic\include\pic16f877a.h"
   440                           EEDATH equ 010Eh ;# 
   441  010E                     # 2311 "C:\Program Files (x86)\Microchip\xc8\v2.00\pic\include\pic16f877a.h"
   442                           EEADRH equ 010Fh ;# 
   443  010F                     # 2318 "C:\Program Files (x86)\Microchip\xc8\v2.00\pic\include\pic16f877a.h"
   444                           EECON1 equ 018Ch ;# 
   445  018C                     # 2363 "C:\Program Files (x86)\Microchip\xc8\v2.00\pic\include\pic16f877a.h"
   446                           EECON2 equ 018Dh ;# 
   447  018D                     # 54 "C:\Program Files (x86)\Microchip\xc8\v2.00\pic\include\pic16f877a.h"
   448                           INDF equ 00h ;# 
   449  0000                     # 61 "C:\Program Files (x86)\Microchip\xc8\v2.00\pic\include\pic16f877a.h"
   450                           TMR0 equ 01h ;# 
   451  0001                     # 68 "C:\Program Files (x86)\Microchip\xc8\v2.00\pic\include\pic16f877a.h"
   452                           PCL equ 02h ;# 
   453  0002                     # 75 "C:\Program Files (x86)\Microchip\xc8\v2.00\pic\include\pic16f877a.h"
   454                           STATUS equ 03h ;# 
   455  0003                     # 161 "C:\Program Files (x86)\Microchip\xc8\v2.00\pic\include\pic16f877a.h"
   456                           FSR equ 04h ;# 
   457  0004                     # 168 "C:\Program Files (x86)\Microchip\xc8\v2.00\pic\include\pic16f877a.h"
   458                           PORTA equ 05h ;# 
   459  0005                     # 218 "C:\Program Files (x86)\Microchip\xc8\v2.00\pic\include\pic16f877a.h"
   460                           PORTB equ 06h ;# 
   461  0006                     # 280 "C:\Program Files (x86)\Microchip\xc8\v2.00\pic\include\pic16f877a.h"
   462                           PORTC equ 07h ;# 
   463  0007                     # 342 "C:\Program Files (x86)\Microchip\xc8\v2.00\pic\include\pic16f877a.h"
   464                           PORTD equ 08h ;# 
   465  0008                     # 404 "C:\Program Files (x86)\Microchip\xc8\v2.00\pic\include\pic16f877a.h"
   466                           PORTE equ 09h ;# 
   467  0009                     # 436 "C:\Program Files (x86)\Microchip\xc8\v2.00\pic\include\pic16f877a.h"
   468                           PCLATH equ 0Ah ;# 
   469  000A                     # 456 "C:\Program Files (x86)\Microchip\xc8\v2.00\pic\include\pic16f877a.h"
   470                           INTCON equ 0Bh ;# 
   471  000B                     # 534 "C:\Program Files (x86)\Microchip\xc8\v2.00\pic\include\pic16f877a.h"
   472                           PIR1 equ 0Ch ;# 
   473  000C                     # 596 "C:\Program Files (x86)\Microchip\xc8\v2.00\pic\include\pic16f877a.h"
   474                           PIR2 equ 0Dh ;# 
   475  000D                     # 636 "C:\Program Files (x86)\Microchip\xc8\v2.00\pic\include\pic16f877a.h"
   476                           TMR1 equ 0Eh ;# 
   477  000E                     # 643 "C:\Program Files (x86)\Microchip\xc8\v2.00\pic\include\pic16f877a.h"
   478                           TMR1L equ 0Eh ;# 
   479  000E                     # 650 "C:\Program Files (x86)\Microchip\xc8\v2.00\pic\include\pic16f877a.h"
   480                           TMR1H equ 0Fh ;# 
   481  000F                     # 657 "C:\Program Files (x86)\Microchip\xc8\v2.00\pic\include\pic16f877a.h"
   482                           T1CON equ 010h ;# 
   483  0010                     # 732 "C:\Program Files (x86)\Microchip\xc8\v2.00\pic\include\pic16f877a.h"
   484                           TMR2 equ 011h ;# 
   485  0011                     # 739 "C:\Program Files (x86)\Microchip\xc8\v2.00\pic\include\pic16f877a.h"
   486                           T2CON equ 012h ;# 
   487  0012                     # 810 "C:\Program Files (x86)\Microchip\xc8\v2.00\pic\include\pic16f877a.h"
   488                           SSPBUF equ 013h ;# 
   489  0013                     # 817 "C:\Program Files (x86)\Microchip\xc8\v2.00\pic\include\pic16f877a.h"
   490                           SSPCON equ 014h ;# 
   491  0014                     # 887 "C:\Program Files (x86)\Microchip\xc8\v2.00\pic\include\pic16f877a.h"
   492                           CCPR1 equ 015h ;# 
   493  0015                     # 894 "C:\Program Files (x86)\Microchip\xc8\v2.00\pic\include\pic16f877a.h"
   494                           CCPR1L equ 015h ;# 
   495  0015                     # 901 "C:\Program Files (x86)\Microchip\xc8\v2.00\pic\include\pic16f877a.h"
   496                           CCPR1H equ 016h ;# 
   497  0016                     # 908 "C:\Program Files (x86)\Microchip\xc8\v2.00\pic\include\pic16f877a.h"
   498                           CCP1CON equ 017h ;# 
   499  0017                     # 966 "C:\Program Files (x86)\Microchip\xc8\v2.00\pic\include\pic16f877a.h"
   500                           RCSTA equ 018h ;# 
   501  0018                     # 1061 "C:\Program Files (x86)\Microchip\xc8\v2.00\pic\include\pic16f877a.h"
   502                           TXREG equ 019h ;# 
   503  0019                     # 1068 "C:\Program Files (x86)\Microchip\xc8\v2.00\pic\include\pic16f877a.h"
   504                           RCREG equ 01Ah ;# 
   505  001A                     # 1075 "C:\Program Files (x86)\Microchip\xc8\v2.00\pic\include\pic16f877a.h"
   506                           CCPR2 equ 01Bh ;# 
   507  001B                     # 1082 "C:\Program Files (x86)\Microchip\xc8\v2.00\pic\include\pic16f877a.h"
   508                           CCPR2L equ 01Bh ;# 
   509  001B                     # 1089 "C:\Program Files (x86)\Microchip\xc8\v2.00\pic\include\pic16f877a.h"
   510                           CCPR2H equ 01Ch ;# 
   511  001C                     # 1096 "C:\Program Files (x86)\Microchip\xc8\v2.00\pic\include\pic16f877a.h"
   512                           CCP2CON equ 01Dh ;# 
   513  001D                     # 1154 "C:\Program Files (x86)\Microchip\xc8\v2.00\pic\include\pic16f877a.h"
   514                           ADRESH equ 01Eh ;# 
   515  001E                     # 1161 "C:\Program Files (x86)\Microchip\xc8\v2.00\pic\include\pic16f877a.h"
   516                           ADCON0 equ 01Fh ;# 
   517  001F                     # 1257 "C:\Program Files (x86)\Microchip\xc8\v2.00\pic\include\pic16f877a.h"
   518                           OPTION_REG equ 081h ;# 
   519  0081                     # 1327 "C:\Program Files (x86)\Microchip\xc8\v2.00\pic\include\pic16f877a.h"
   520                           TRISA equ 085h ;# 
   521  0085                     # 1377 "C:\Program Files (x86)\Microchip\xc8\v2.00\pic\include\pic16f877a.h"
   522                           TRISB equ 086h ;# 
   523  0086                     # 1439 "C:\Program Files (x86)\Microchip\xc8\v2.00\pic\include\pic16f877a.h"
   524                           TRISC equ 087h ;# 
   525  0087                     # 1501 "C:\Program Files (x86)\Microchip\xc8\v2.00\pic\include\pic16f877a.h"
   526                           TRISD equ 088h ;# 
   527  0088                     # 1563 "C:\Program Files (x86)\Microchip\xc8\v2.00\pic\include\pic16f877a.h"
   528                           TRISE equ 089h ;# 
   529  0089                     # 1620 "C:\Program Files (x86)\Microchip\xc8\v2.00\pic\include\pic16f877a.h"
   530                           PIE1 equ 08Ch ;# 
   531  008C                     # 1682 "C:\Program Files (x86)\Microchip\xc8\v2.00\pic\include\pic16f877a.h"
   532                           PIE2 equ 08Dh ;# 
   533  008D                     # 1722 "C:\Program Files (x86)\Microchip\xc8\v2.00\pic\include\pic16f877a.h"
   534                           PCON equ 08Eh ;# 
   535  008E                     # 1756 "C:\Program Files (x86)\Microchip\xc8\v2.00\pic\include\pic16f877a.h"
   536                           SSPCON2 equ 091h ;# 
   537  0091                     # 1818 "C:\Program Files (x86)\Microchip\xc8\v2.00\pic\include\pic16f877a.h"
   538                           PR2 equ 092h ;# 
   539  0092                     # 1825 "C:\Program Files (x86)\Microchip\xc8\v2.00\pic\include\pic16f877a.h"
   540                           SSPADD equ 093h ;# 
   541  0093                     # 1832 "C:\Program Files (x86)\Microchip\xc8\v2.00\pic\include\pic16f877a.h"
   542                           SSPSTAT equ 094h ;# 
   543  0094                     # 2001 "C:\Program Files (x86)\Microchip\xc8\v2.00\pic\include\pic16f877a.h"
   544                           TXSTA equ 098h ;# 
   545  0098                     # 2082 "C:\Program Files (x86)\Microchip\xc8\v2.00\pic\include\pic16f877a.h"
   546                           SPBRG equ 099h ;# 
   547  0099                     # 2089 "C:\Program Files (x86)\Microchip\xc8\v2.00\pic\include\pic16f877a.h"
   548                           CMCON equ 09Ch ;# 
   549  009C                     # 2159 "C:\Program Files (x86)\Microchip\xc8\v2.00\pic\include\pic16f877a.h"
   550                           CVRCON equ 09Dh ;# 
   551  009D                     # 2224 "C:\Program Files (x86)\Microchip\xc8\v2.00\pic\include\pic16f877a.h"
   552                           ADRESL equ 09Eh ;# 
   553  009E                     # 2231 "C:\Program Files (x86)\Microchip\xc8\v2.00\pic\include\pic16f877a.h"
   554                           ADCON1 equ 09Fh ;# 
   555  009F                     # 2290 "C:\Program Files (x86)\Microchip\xc8\v2.00\pic\include\pic16f877a.h"
   556                           EEDATA equ 010Ch ;# 
   557  010C                     # 2297 "C:\Program Files (x86)\Microchip\xc8\v2.00\pic\include\pic16f877a.h"
   558                           EEADR equ 010Dh ;# 
   559  010D                     # 2304 "C:\Program Files (x86)\Microchip\xc8\v2.00\pic\include\pic16f877a.h"
   560                           EEDATH equ 010Eh ;# 
   561  010E                     # 2311 "C:\Program Files (x86)\Microchip\xc8\v2.00\pic\include\pic16f877a.h"
   562                           EEADRH equ 010Fh ;# 
   563  010F                     # 2318 "C:\Program Files (x86)\Microchip\xc8\v2.00\pic\include\pic16f877a.h"
   564                           EECON1 equ 018Ch ;# 
   565  018C                     # 2363 "C:\Program Files (x86)\Microchip\xc8\v2.00\pic\include\pic16f877a.h"
   566                           EECON2 equ 018Dh ;# 
   567  018D                     	FNCALL	_main,_Initialization
   568                           	FNCALL	_main,_loop
   569                           	FNCALL	_main,_setup
   570                           	FNCALL	_setup,_lcdBegin
   571                           	FNCALL	_setup,_lcdClear
   572                           	FNCALL	_setup,_pinMode
   573                           	FNCALL	_lcdBegin,_WriteInstruction
   574                           	FNCALL	_lcdBegin,_delay
   575                           	FNCALL	_lcdBegin,_pinMode
   576                           	FNCALL	_loop,_ModoApagado
   577                           	FNCALL	_loop,_ModoEncendido
   578                           	FNCALL	_loop,_PBRead
   579                           	FNCALL	_loop,_delay
   580                           	FNCALL	_loop,_digitalWrite
   581                           	FNCALL	_loop,_lcdClear
   582                           	FNCALL	_lcdClear,_WriteInstruction
   583                           	FNCALL	_ModoEncendido,_Contador
   584                           	FNCALL	_ModoEncendido,_MotorDC
   585                           	FNCALL	_ModoEncendido,_digitalWrite
   586                           	FNCALL	_ModoEncendido,_lcdPrint
   587                           	FNCALL	_ModoEncendido,_lcdSetCursor
   588                           	FNCALL	_ModoEncendido,_sprintf
   589                           	FNCALL	_sprintf,___lwdiv
   590                           	FNCALL	_sprintf,___lwmod
   591                           	FNCALL	_MotorDC,_digitalWrite
   592                           	FNCALL	_Contador,_analogRead
   593                           	FNCALL	_Contador,_delay
   594                           	FNCALL	_ModoApagado,_lcdPrint
   595                           	FNCALL	_ModoApagado,_lcdSetCursor
   596                           	FNCALL	_lcdSetCursor,_WriteInstruction
   597                           	FNCALL	_WriteInstruction,_ByteByNibble
   598                           	FNCALL	_WriteInstruction,_delay
   599                           	FNCALL	_WriteInstruction,_digitalWrite
   600                           	FNCALL	_lcdPrint,_lcdWrite
   601                           	FNCALL	_lcdWrite,_WriteData
   602                           	FNCALL	_lcdWrite,_delay
   603                           	FNCALL	_WriteData,_ByteByNibble
   604                           	FNCALL	_WriteData,_delay
   605                           	FNCALL	_WriteData,_digitalWrite
   606                           	FNCALL	_ByteByNibble,_digitalWrite
   607                           	FNCALL	_Initialization,_CCP1Configuration
   608                           	FNCALL	_Initialization,_CCP2Configuration
   609                           	FNROOT	_main
   610                           	global	_Estado
   611                           psect	idataBANK0,class=CODE,space=0,delta=2,noexec
   612                           global __pidataBANK0
   613                           __pidataBANK0:
   614  0006                     	file	"CodigoYoselinYDiana.c"
   615                           	line	41
   616                           
   617                           ;initializer for _Estado
   618                           	retlw	01h
   619  0006  3401               	global	_dpowers
   620                           psect	strings,class=STRING,delta=2,noexec
   621                           global __pstrings
   622                           __pstrings:
   623  0800                     stringtab:
   624  0800                     	global    __stringtab
   625                           __stringtab:
   626  0800                     ;	String table - string pointers are 1 byte each
   627                           	btfsc	(btemp+1),7
   628  0800  1BFF               	ljmp	stringcode
   629  0801  280A               	bcf	status,7
   630  0802  1383               	btfsc	(btemp+1),0
   631  0803  187F               	bsf	status,7
   632  0804  1783               	movf	indf,w
   633  0805  0800               	incf fsr
   634  0806  0A84               skipnz
   635  0807  1903               incf btemp+1
   636  0808  0AFF               	return
   637  0809  0008               stringcode:stringdir:
   638  080A                     movlw high(stringdir)
      + 080A                     stringdir:	
   639  080A  3008               movwf pclath
   640  080B  008A               movf fsr,w
   641  080C  0804               incf fsr
   642  080D  0A84               	addwf pc
   643  080E  0782               	global __stringbase
   644                           __stringbase:
   645  080F                     	retlw	0
   646  080F  3400               psect	strings
   647                           	global    __end_of__stringtab
   648                           __end_of__stringtab:
   649  0810                     	file	"C:\Program Files (x86)\Microchip\xc8\v2.00\pic\sources\c90\common\doprnt.c"
   650                           	line	358
   651                           _dpowers:
   652  0810                     	retlw	01h
   653  0810  3401               	retlw	0
   654  0811  3400               
   655                           	retlw	0Ah
   656  0812  340A               	retlw	0
   657  0813  3400               
   658                           	retlw	064h
   659  0814  3464               	retlw	0
   660  0815  3400               
   661                           	retlw	0E8h
   662  0816  34E8               	retlw	03h
   663  0817  3403               
   664                           	retlw	010h
   665  0818  3410               	retlw	027h
   666  0819  3427               
   667                           	global __end_of_dpowers
   668                           __end_of_dpowers:
   669  081A                     	global	Contador@Threshold
   670                           psect	strings
   671                           	file	"CodigoYoselinYDiana.c"
   672                           	line	158
   673                           Contador@Threshold:
   674  081A                     	retlw	014h
   675  081A  3414               	retlw	0
   676  081B  3400               
   677                           	global __end_ofContador@Threshold
   678                           __end_ofContador@Threshold:
   679  081C                     	global	_ControlEncendido
   680                           psect	strings
   681                           	file	"CodigoYoselinYDiana.c"
   682                           	line	35
   683                           _ControlEncendido:
   684  081C                     	retlw	low(0)
   685  081C  3400               	retlw	high(0)
   686  081D  3400               
   687                           	global __end_of_ControlEncendido
   688                           __end_of_ControlEncendido:
   689  081E                     	global	_Alarma
   690                           psect	strings
   691                           	file	"CodigoYoselinYDiana.c"
   692                           	line	33
   693                           _Alarma:
   694  081E                     	retlw	06h
   695  081E  3406               	retlw	0
   696  081F  3400               
   697                           	global __end_of_Alarma
   698                           __end_of_Alarma:
   699  0820                     	global	_SensorProximidad
   700                           psect	strings
   701                           	file	"CodigoYoselinYDiana.c"
   702                           	line	32
   703                           _SensorProximidad:
   704  0820                     	retlw	01h
   705  0820  3401               	retlw	0
   706  0821  3400               
   707                           	global __end_of_SensorProximidad
   708                           __end_of_SensorProximidad:
   709  0822                     	global	_MotorDCN
   710                           psect	strings
   711                           	file	"CodigoYoselinYDiana.c"
   712                           	line	30
   713                           _MotorDCN:
   714  0822                     	retlw	04h
   715  0822  3404               	retlw	0
   716  0823  3400               
   717                           	global __end_of_MotorDCN
   718                           __end_of_MotorDCN:
   719  0824                     	global	_MotorDCP
   720                           psect	strings
   721                           	file	"CodigoYoselinYDiana.c"
   722                           	line	29
   723                           _MotorDCP:
   724  0824                     	retlw	03h
   725  0824  3403               	retlw	0
   726  0825  3400               
   727                           	global __end_of_MotorDCP
   728                           __end_of_MotorDCP:
   729  0826                     	global	_MotorAC
   730                           psect	strings
   731                           	file	"CodigoYoselinYDiana.c"
   732                           	line	28
   733                           _MotorAC:
   734  0826                     	retlw	02h
   735  0826  3402               	retlw	0
   736  0827  3400               
   737                           	global __end_of_MotorAC
   738                           __end_of_MotorAC:
   739  0828                     	global	_D7
   740                           psect	strings
   741                           	file	"CodigoYoselinYDiana.c"
   742                           	line	26
   743                           _D7:
   744  0828                     	retlw	08h
   745  0828  3408               	retlw	0
   746  0829  3400               
   747                           	global __end_of_D7
   748                           __end_of_D7:
   749  082A                     	global	_D6
   750                           psect	strings
   751                           	file	"CodigoYoselinYDiana.c"
   752                           	line	25
   753                           _D6:
   754  082A                     	retlw	09h
   755  082A  3409               	retlw	0
   756  082B  3400               
   757                           	global __end_of_D6
   758                           __end_of_D6:
   759  082C                     	global	_D5
   760                           psect	strings
   761                           	file	"CodigoYoselinYDiana.c"
   762                           	line	24
   763                           _D5:
   764  082C                     	retlw	0Ah
   765  082C  340A               	retlw	0
   766  082D  3400               
   767                           	global __end_of_D5
   768                           __end_of_D5:
   769  082E                     	global	_D4
   770                           psect	strings
   771                           	file	"CodigoYoselinYDiana.c"
   772                           	line	23
   773                           _D4:
   774  082E                     	retlw	0Bh
   775  082E  340B               	retlw	0
   776  082F  3400               
   777                           	global __end_of_D4
   778                           __end_of_D4:
   779  0830                     	global	_RW
   780                           psect	strings
   781                           	file	"CodigoYoselinYDiana.c"
   782                           	line	21
   783                           _RW:
   784  0830                     	retlw	0Ch
   785  0830  340C               	retlw	0
   786  0831  3400               
   787                           	global __end_of_RW
   788                           __end_of_RW:
   789  0832                     	global	_En
   790                           psect	strings
   791                           	file	"CodigoYoselinYDiana.c"
   792                           	line	20
   793                           _En:
   794  0832                     	retlw	0Dh
   795  0832  340D               	retlw	0
   796  0833  3400               
   797                           	global __end_of_En
   798                           __end_of_En:
   799  0834                     	global	_Rs
   800                           psect	strings
   801                           	file	"CodigoYoselinYDiana.c"
   802                           	line	19
   803                           _Rs:
   804  0834                     	retlw	0Eh
   805  0834  340E               	retlw	0
   806  0835  3400               
   807                           	global __end_of_Rs
   808                           __end_of_Rs:
   809  0836                     	global	_dpowers
   810                           	global	Contador@Threshold
   811                           	global	_ControlEncendido
   812                           	global	_Alarma
   813                           	global	_SensorProximidad
   814                           	global	_MotorDCN
   815                           	global	_MotorDCP
   816                           	global	_MotorAC
   817                           	global	_D7
   818                           	global	_D6
   819                           	global	_D5
   820                           	global	_D4
   821                           	global	_RW
   822                           	global	_En
   823                           	global	_Rs
   824                           	global	Contador@cuenta
   825                           	global	ModoEncendido@contar
   826                           	global	_FirstROW
   827                           	global	_d7Pin
   828                           psect	nvBANK0,class=BANK0,space=1,noexec
   829                           global __pnvBANK0
   830                           __pnvBANK0:
   831  0055                     _d7Pin:
   832  0055                            ds      2
   833  0055                     
   834                           	global	_d6Pin
   835                           _d6Pin:
   836  0057                            ds      2
   837  0057                     
   838                           	global	_d5Pin
   839                           _d5Pin:
   840  0059                            ds      2
   841  0059                     
   842                           	global	_d4Pin
   843                           _d4Pin:
   844  005B                            ds      2
   845  005B                     
   846                           	global	_RWPin
   847                           _RWPin:
   848  005D                            ds      2
   849  005D                     
   850                           	global	_ENPin
   851                           _ENPin:
   852  005F                            ds      2
   853  005F                     
   854                           	global	_RSPin
   855                           _RSPin:
   856  0061                            ds      2
   857  0061                     
   858                           	global	_SSPBUF
   859                           _SSPBUF	set	0x13
   860  0013                     	global	_SSPCON
   861                           _SSPCON	set	0x14
   862  0014                     	global	_RCREG
   863                           _RCREG	set	0x1A
   864  001A                     	global	_TXREG
   865                           _TXREG	set	0x19
   866  0019                     	global	_PORTEbits
   867                           _PORTEbits	set	0x9
   868  0009                     	global	_CCPR1L
   869                           _CCPR1L	set	0x15
   870  0015                     	global	_CCPR2L
   871                           _CCPR2L	set	0x1B
   872  001B                     	global	_ADRESH
   873                           _ADRESH	set	0x1E
   874  001E                     	global	_ADCON0bits
   875                           _ADCON0bits	set	0x1F
   876  001F                     	global	_PORTAbits
   877                           _PORTAbits	set	0x5
   878  0005                     	global	_PORTDbits
   879                           _PORTDbits	set	0x8
   880  0008                     	global	_PORTBbits
   881                           _PORTBbits	set	0x6
   882  0006                     	global	_PORTCbits
   883                           _PORTCbits	set	0x7
   884  0007                     	global	_CCP2CON
   885                           _CCP2CON	set	0x1D
   886  001D                     	global	_CCP1CON
   887                           _CCP1CON	set	0x17
   888  0017                     	global	_T2CON
   889                           _T2CON	set	0x12
   890  0012                     	global	_PORTE
   891                           _PORTE	set	0x9
   892  0009                     	global	_ADCON0
   893                           _ADCON0	set	0x1F
   894  001F                     	global	_SSPIF
   895                           _SSPIF	set	0x63
   896  0063                     	global	_PEIE
   897                           _PEIE	set	0x5E
   898  005E                     	global	_GIE
   899                           _GIE	set	0x5F
   900  005F                     	global	_RCIF
   901                           _RCIF	set	0x65
   902  0065                     	global	_TXIF
   903                           _TXIF	set	0x64
   904  0064                     	global	_OERR
   905                           _OERR	set	0xC1
   906  00C1                     	global	_FERR
   907                           _FERR	set	0xC2
   908  00C2                     	global	_CREN
   909                           _CREN	set	0xC4
   910  00C4                     	global	_SPEN
   911                           _SPEN	set	0xC7
   912  00C7                     	global	_CCP1Y
   913                           _CCP1Y	set	0xBC
   914  00BC                     	global	_CCP1X
   915                           _CCP1X	set	0xBD
   916  00BD                     	global	_CCP2Y
   917                           _CCP2Y	set	0xEC
   918  00EC                     	global	_CCP2X
   919                           _CCP2X	set	0xED
   920  00ED                     	global	_SSPSTAT
   921                           _SSPSTAT	set	0x94
   922  0094                     	global	_SSPADD
   923                           _SSPADD	set	0x93
   924  0093                     	global	_SSPCON2
   925                           _SSPCON2	set	0x91
   926  0091                     	global	_SPBRG
   927                           _SPBRG	set	0x99
   928  0099                     	global	_ADRESL
   929                           _ADRESL	set	0x9E
   930  009E                     	global	_TRISAbits
   931                           _TRISAbits	set	0x85
   932  0085                     	global	_TRISDbits
   933                           _TRISDbits	set	0x88
   934  0088                     	global	_TRISBbits
   935                           _TRISBbits	set	0x86
   936  0086                     	global	_TRISCbits
   937                           _TRISCbits	set	0x87
   938  0087                     	global	_PR2
   939                           _PR2	set	0x92
   940  0092                     	global	_TRISE
   941                           _TRISE	set	0x89
   942  0089                     	global	_ADCON1
   943                           _ADCON1	set	0x9F
   944  009F                     	global	_ACKEN
   945                           _ACKEN	set	0x48C
   946  048C                     	global	_ACKDT
   947                           _ACKDT	set	0x48D
   948  048D                     	global	_RCEN
   949                           _RCEN	set	0x48B
   950  048B                     	global	_PEN
   951                           _PEN	set	0x48A
   952  048A                     	global	_RSEN
   953                           _RSEN	set	0x489
   954  0489                     	global	_SEN
   955                           _SEN	set	0x488
   956  0488                     	global	_SSPIE
   957                           _SSPIE	set	0x463
   958  0463                     	global	_TRISC4
   959                           _TRISC4	set	0x43C
   960  043C                     	global	_TRISC3
   961                           _TRISC3	set	0x43B
   962  043B                     	global	_TRMT
   963                           _TRMT	set	0x4C1
   964  04C1                     	global	_TXEN
   965                           _TXEN	set	0x4C5
   966  04C5                     	global	_TRISC6
   967                           _TRISC6	set	0x43E
   968  043E                     	global	_TRISC7
   969                           _TRISC7	set	0x43F
   970  043F                     	global	_SYNC
   971                           _SYNC	set	0x4C4
   972  04C4                     	global	_BRGH
   973                           _BRGH	set	0x4C2
   974  04C2                     psect	strings
   975                           	
   976                           STR_1:	
   977  0836                     	retlw	32	;' '
   978  0836  3420               	retlw	69	;'E'
   979  0837  3445               	retlw	113	;'q'
   980  0838  3471               	retlw	117	;'u'
   981  0839  3475               	retlw	105	;'i'
   982  083A  3469               	retlw	112	;'p'
   983  083B  3470               	retlw	111	;'o'
   984  083C  346F               	retlw	32	;' '
   985  083D  3420               	retlw	68	;'D'
   986  083E  3444               	retlw	105	;'i'
   987  083F  3469               	retlw	118	;'v'
   988  0840  3476               	retlw	105	;'i'
   989  0841  3469               	retlw	110	;'n'
   990  0842  346E               	retlw	97	;'a'
   991  0843  3461               	retlw	115	;'s'
   992  0844  3473               	retlw	32	;' '
   993  0845  3420               	retlw	0
   994  0846  3400               psect	strings
   995                           	
   996                           STR_2:	
   997  0847                     	retlw	49	;'1'
   998  0847  3431               	retlw	56	;'8'
   999  0848  3438               	retlw	58	;':'
  1000  0849  343A               	retlw	70	;'F'
  1001  084A  3446               	retlw	101	;'e'
  1002  084B  3465               	retlw	98	;'b'
  1003  084C  3462               	retlw	58	;':'
  1004  084D  343A               	retlw	50	;'2'
  1005  084E  3432               	retlw	48	;'0'
  1006  084F  3430               	retlw	45	;'-'
  1007  0850  342D               	retlw	53	;'5'
  1008  0851  3435               	retlw	66	;'B'
  1009  0852  3442               	retlw	73	;'I'
  1010  0853  3449               	retlw	69	;'E'
  1011  0854  3445               	retlw	69	;'E'
  1012  0855  3445               	retlw	0
  1013  0856  3400               psect	strings
  1014                           	
  1015                           STR_3:	
  1016  0857                     	retlw	67	;'C'
  1017  0857  3443               	retlw	111	;'o'
  1018  0858  346F               	retlw	110	;'n'
  1019  0859  346E               	retlw	116	;'t'
  1020  085A  3474               	retlw	97	;'a'
  1021  085B  3461               	retlw	100	;'d'
  1022  085C  3464               	retlw	111	;'o'
  1023  085D  346F               	retlw	114	;'r'
  1024  085E  3472               	retlw	32	;' '
  1025  085F  3420               	retlw	37	;'%'
  1026  0860  3425               	retlw	105	;'i'
  1027  0861  3469               	retlw	58	;':'
  1028  0862  343A               	retlw	32	;' '
  1029  0863  3420               	retlw	0
  1030  0864  3400               psect	strings
  1031                           	
  1032                           STR_7:	
  1033  0865                     	retlw	68	;'D'
  1034  0865  3444               	retlw	67	;'C'
  1035  0866  3443               	retlw	45	;'-'
  1036  0867  342D               	retlw	79	;'O'
  1037  0868  344F               	retlw	70	;'F'
  1038  0869  3446               	retlw	70	;'F'
  1039  086A  3446               	retlw	47	;'/'
  1040  086B  342F               	retlw	65	;'A'
  1041  086C  3441               	retlw	67	;'C'
  1042  086D  3443               	retlw	45	;'-'
  1043  086E  342D               	retlw	79	;'O'
  1044  086F  344F               	retlw	78	;'N'
  1045  0870  344E               	retlw	32	;' '
  1046  0871  3420               	retlw	0
  1047  0872  3400               psect	strings
  1048                           	
  1049                           STR_8:	
  1050  0873                     	retlw	68	;'D'
  1051  0873  3444               	retlw	67	;'C'
  1052  0874  3443               	retlw	45	;'-'
  1053  0875  342D               	retlw	73	;'I'
  1054  0876  3449               	retlw	90	;'Z'
  1055  0877  345A               	retlw	81	;'Q'
  1056  0878  3451               	retlw	47	;'/'
  1057  0879  342F               	retlw	65	;'A'
  1058  087A  3441               	retlw	67	;'C'
  1059  087B  3443               	retlw	45	;'-'
  1060  087C  342D               	retlw	79	;'O'
  1061  087D  344F               	retlw	78	;'N'
  1062  087E  344E               	retlw	32	;' '
  1063  087F  3420               	retlw	0
  1064  0880  3400               psect	strings
  1065                           	
  1066                           STR_5:	
  1067  0881                     	retlw	68	;'D'
  1068  0881  3444               	retlw	67	;'C'
  1069  0882  3443               	retlw	45	;'-'
  1070  0883  342D               	retlw	68	;'D'
  1071  0884  3444               	retlw	69	;'E'
  1072  0885  3445               	retlw	82	;'R'
  1073  0886  3452               	retlw	47	;'/'
  1074  0887  342F               	retlw	65	;'A'
  1075  0888  3441               	retlw	67	;'C'
  1076  0889  3443               	retlw	45	;'-'
  1077  088A  342D               	retlw	79	;'O'
  1078  088B  344F               	retlw	78	;'N'
  1079  088C  344E               	retlw	32	;' '
  1080  088D  3420               	retlw	0
  1081  088E  3400               psect	strings
  1082                           	
  1083                           STR_4:	
  1084  088F                     	retlw	68	;'D'
  1085  088F  3444               	retlw	67	;'C'
  1086  0890  3443               	retlw	45	;'-'
  1087  0891  342D               	retlw	79	;'O'
  1088  0892  344F               	retlw	70	;'F'
  1089  0893  3446               	retlw	70	;'F'
  1090  0894  3446               	retlw	47	;'/'
  1091  0895  342F               	retlw	65	;'A'
  1092  0896  3441               	retlw	67	;'C'
  1093  0897  3443               	retlw	45	;'-'
  1094  0898  342D               	retlw	79	;'O'
  1095  0899  344F               	retlw	70	;'F'
  1096  089A  3446               	retlw	70	;'F'
  1097  089B  3446               	retlw	0
  1098  089C  3400               psect	strings
  1099                           	
  1100                           STR_6:	
  1101  089D                     	retlw	68	;'D'
  1102  089D  3444               	retlw	67	;'C'
  1103  089E  3443               	retlw	45	;'-'
  1104  089F  342D               	retlw	68	;'D'
  1105  08A0  3444               	retlw	69	;'E'
  1106  08A1  3445               	retlw	82	;'R'
  1107  08A2  3452               	retlw	47	;'/'
  1108  08A3  342F               	retlw	65	;'A'
  1109  08A4  3441               	retlw	67	;'C'
  1110  08A5  3443               	retlw	45	;'-'
  1111  08A6  342D               	retlw	79	;'O'
  1112  08A7  344F               	retlw	70	;'F'
  1113  08A8  3446               	retlw	70	;'F'
  1114  08A9  3446               	retlw	0
  1115  08AA  3400               psect	strings
  1116                           ; #config settings
  1117                           global __CFG_FOSC$HS
  1118                           __CFG_FOSC$HS equ 0x0
  1119  0000                     global __CFG_WDTE$OFF
  1120                           __CFG_WDTE$OFF equ 0x0
  1121  0000                     global __CFG_PWRTE$OFF
  1122                           __CFG_PWRTE$OFF equ 0x0
  1123  0000                     global __CFG_BOREN$OFF
  1124                           __CFG_BOREN$OFF equ 0x0
  1125  0000                     global __CFG_LVP$ON
  1126                           __CFG_LVP$ON equ 0x0
  1127  0000                     global __CFG_CPD$OFF
  1128                           __CFG_CPD$OFF equ 0x0
  1129  0000                     global __CFG_WRT$OFF
  1130                           __CFG_WRT$OFF equ 0x0
  1131  0000                     global __CFG_CP$OFF
  1132                           __CFG_CP$OFF equ 0x0
  1133  0000                     	file	"C:\Users\c4810\AppData\Local\Temp\sc44."
  1134                           	line	#
  1135                           psect cinit,class=CODE,delta=2
  1136                           global start_initialization
  1137                           start_initialization:
  1138  07ED                     
  1139                           global __initialization
  1140                           __initialization:
  1141  07ED                     psect	bssBANK0,class=BANK0,space=1,noexec
  1142                           global __pbssBANK0
  1143                           __pbssBANK0:
  1144  0020                     _SecondROW:
  1145  0020                            ds      16
  1146  0020                     
  1147                           Contador@cuenta:
  1148  0030                            ds      2
  1149  0030                     
  1150                           ModoEncendido@contar:
  1151  0032                            ds      2
  1152  0032                     
  1153                           _FirstROW:
  1154  0034                            ds      16
  1155  0034                     
  1156                           psect	dataBANK0,class=BANK0,space=1,noexec
  1157                           global __pdataBANK0
  1158                           __pdataBANK0:
  1159  0063                     	file	"CodigoYoselinYDiana.c"
  1160                           	line	41
  1161                           _Estado:
  1162  0063                            ds      1
  1163  0063                     
  1164                           	file	"C:\Users\c4810\AppData\Local\Temp\sc44."
  1165                           	line	#
  1166                           ; Initialize objects allocated to BANK0
  1167                           	global __pidataBANK0
  1168                           psect cinit,class=CODE,delta=2,merge=1
  1169                           	fcall	__pidataBANK0+0		;fetch initializer
  1170  07ED  120A  118A  2006  120A  118A  	movwf	__pdataBANK0+0&07fh		
  1171  07F2  00E3               	line	#
  1172                           psect clrtext,class=CODE,delta=2
  1173                           global clear_ram0
  1174                           ;	Called with FSR containing the base address, and
  1175                           ;	W with the last address+1
  1176                           clear_ram0:
  1177  0A74                     	clrwdt			;clear the watchdog before getting into this loop
  1178  0A74  0064               clrloop0:
  1179  0A75                     	clrf	indf		;clear RAM location pointed to by FSR
  1180  0A75  0180               	incf	fsr,f		;increment pointer
  1181  0A76  0A84               	xorwf	fsr,w		;XOR with final address
  1182  0A77  0604               	btfsc	status,2	;have we reached the end yet?
  1183  0A78  1903               	retlw	0		;all done for this memory range, return
  1184  0A79  3400               	xorwf	fsr,w		;XOR again to restore value
  1185  0A7A  0604               	goto	clrloop0		;do the next byte
  1186  0A7B  2A75               
  1187                           ; Clear objects allocated to BANK0
  1188                           psect cinit,class=CODE,delta=2,merge=1
  1189                           	bcf	status, 7	;select IRP bank0
  1190  07F3  1383               	movlw	low(__pbssBANK0)
  1191  07F4  3020               	movwf	fsr
  1192  07F5  0084               	movlw	low((__pbssBANK0)+024h)
  1193  07F6  3044               	fcall	clear_ram0
  1194  07F7  120A  158A  2274  120A  118A  psect cinit,class=CODE,delta=2,merge=1
  1195                           global end_of_initialization,__end_of__initialization
  1196                           
  1197                           ;End of C runtime variable initialization code
  1198                           
  1199                           end_of_initialization:
  1200  07FC                     __end_of__initialization:
  1201  07FC                     clrf status
  1202  07FC  0183               ljmp _main	;jump to C main() function
  1203  07FD  120A  158A  2A8D   psect	cstackCOMMON,class=COMMON,space=1,noexec
  1204                           global __pcstackCOMMON
  1205                           __pcstackCOMMON:
  1206  0070                     ?_Initialization:	; 1 bytes @ 0x0
  1207  0070                     ??_Initialization:	; 1 bytes @ 0x0
  1208  0070                     ?_setup:	; 1 bytes @ 0x0
  1209  0070                     ?_loop:	; 1 bytes @ 0x0
  1210  0070                     ?_CCP1Configuration:	; 1 bytes @ 0x0
  1211  0070                     ??_CCP1Configuration:	; 1 bytes @ 0x0
  1212  0070                     ?_CCP2Configuration:	; 1 bytes @ 0x0
  1213  0070                     ??_CCP2Configuration:	; 1 bytes @ 0x0
  1214  0070                     ?_lcdClear:	; 1 bytes @ 0x0
  1215  0070                     ?_ModoApagado:	; 1 bytes @ 0x0
  1216  0070                     ?_ModoEncendido:	; 1 bytes @ 0x0
  1217  0070                     ?_WriteInstruction:	; 1 bytes @ 0x0
  1218  0070                     ?_WriteData:	; 1 bytes @ 0x0
  1219  0070                     ?_ByteByNibble:	; 1 bytes @ 0x0
  1220  0070                     ?_pinMode:	; 1 bytes @ 0x0
  1221  0070                     ?_digitalWrite:	; 1 bytes @ 0x0
  1222  0070                     ?_PBRead:	; 1 bytes @ 0x0
  1223  0070                     ??_PBRead:	; 1 bytes @ 0x0
  1224  0070                     ?_delay:	; 1 bytes @ 0x0
  1225  0070                     ?_lcdWrite:	; 1 bytes @ 0x0
  1226  0070                     ?_main:	; 2 bytes @ 0x0
  1227  0070                     	global	?_analogRead
  1228                           ?_analogRead:	; 2 bytes @ 0x0
  1229  0070                     	global	?___lwdiv
  1230                           ?___lwdiv:	; 2 bytes @ 0x0
  1231  0070                     	global	pinMode@mode
  1232                           pinMode@mode:	; 1 bytes @ 0x0
  1233  0070                     	global	digitalWrite@value
  1234                           digitalWrite@value:	; 1 bytes @ 0x0
  1235  0070                     	global	delay@milis
  1236                           delay@milis:	; 2 bytes @ 0x0
  1237  0070                     	global	___lwdiv@divisor
  1238                           ___lwdiv@divisor:	; 2 bytes @ 0x0
  1239  0070                     	ds	1
  1240  0070                     ??_pinMode:	; 1 bytes @ 0x1
  1241  0071                     ??_digitalWrite:	; 1 bytes @ 0x1
  1242  0071                     	ds	1
  1243  0071                     ??_analogRead:	; 1 bytes @ 0x2
  1244  0072                     ??_delay:	; 1 bytes @ 0x2
  1245  0072                     	global	PBRead@pin
  1246                           PBRead@pin:	; 1 bytes @ 0x2
  1247  0072                     	global	___lwdiv@dividend
  1248                           ___lwdiv@dividend:	; 2 bytes @ 0x2
  1249  0072                     	ds	1
  1250  0072                     	global	pinMode@pin
  1251                           pinMode@pin:	; 1 bytes @ 0x3
  1252  0073                     	global	digitalWrite@pin
  1253                           digitalWrite@pin:	; 1 bytes @ 0x3
  1254  0073                     	global	delay@j
  1255                           delay@j:	; 2 bytes @ 0x3
  1256  0073                     	ds	1
  1257  0073                     ?_MotorDC:	; 1 bytes @ 0x4
  1258  0074                     ??_ByteByNibble:	; 1 bytes @ 0x4
  1259  0074                     ??___lwdiv:	; 1 bytes @ 0x4
  1260  0074                     	global	analogRead@channel
  1261                           analogRead@channel:	; 1 bytes @ 0x4
  1262  0074                     	global	MotorDC@Mode
  1263                           MotorDC@Mode:	; 2 bytes @ 0x4
  1264  0074                     	ds	1
  1265  0074                     	global	delay@i
  1266                           delay@i:	; 2 bytes @ 0x5
  1267  0075                     	global	___lwdiv@quotient
  1268                           ___lwdiv@quotient:	; 2 bytes @ 0x5
  1269  0075                     	ds	1
  1270  0075                     ??_MotorDC:	; 1 bytes @ 0x6
  1271  0076                     	global	ByteByNibble@NibbleValue
  1272                           ByteByNibble@NibbleValue:	; 1 bytes @ 0x6
  1273  0076                     	ds	1
  1274  0076                     ??_WriteInstruction:	; 1 bytes @ 0x7
  1275  0077                     ??_WriteData:	; 1 bytes @ 0x7
  1276  0077                     	global	?_Contador
  1277                           ?_Contador:	; 2 bytes @ 0x7
  1278  0077                     	global	___lwdiv@counter
  1279                           ___lwdiv@counter:	; 1 bytes @ 0x7
  1280  0077                     	global	Contador@mode
  1281                           Contador@mode:	; 2 bytes @ 0x7
  1282  0077                     	ds	1
  1283  0077                     	global	?___lwmod
  1284                           ?___lwmod:	; 2 bytes @ 0x8
  1285  0078                     	global	___lwmod@divisor
  1286                           ___lwmod@divisor:	; 2 bytes @ 0x8
  1287  0078                     	ds	1
  1288  0078                     ??_Contador:	; 1 bytes @ 0x9
  1289  0079                     	global	WriteInstruction@LSNibble
  1290                           WriteInstruction@LSNibble:	; 1 bytes @ 0x9
  1291  0079                     	global	WriteData@LSNibble
  1292                           WriteData@LSNibble:	; 1 bytes @ 0x9
  1293  0079                     	ds	1
  1294  0079                     	global	WriteInstruction@instruction
  1295                           WriteInstruction@instruction:	; 1 bytes @ 0xA
  1296  007A                     	global	WriteData@data
  1297                           WriteData@data:	; 1 bytes @ 0xA
  1298  007A                     	global	___lwmod@dividend
  1299                           ___lwmod@dividend:	; 2 bytes @ 0xA
  1300  007A                     	ds	1
  1301  007A                     	global	WriteInstruction@MSNibble
  1302                           WriteInstruction@MSNibble:	; 1 bytes @ 0xB
  1303  007B                     	global	WriteData@MSNibble
  1304                           WriteData@MSNibble:	; 1 bytes @ 0xB
  1305  007B                     	ds	1
  1306  007B                     ??_lcdBegin:	; 1 bytes @ 0xC
  1307  007C                     ??_lcdClear:	; 1 bytes @ 0xC
  1308  007C                     ?_lcdSetCursor:	; 1 bytes @ 0xC
  1309  007C                     ??_lcdWrite:	; 1 bytes @ 0xC
  1310  007C                     ??___lwmod:	; 1 bytes @ 0xC
  1311  007C                     	global	lcdSetCursor@column
  1312                           lcdSetCursor@column:	; 1 bytes @ 0xC
  1313  007C                     	global	lcdWrite@data
  1314                           lcdWrite@data:	; 1 bytes @ 0xC
  1315  007C                     	ds	1
  1316  007C                     ??_lcdSetCursor:	; 1 bytes @ 0xD
  1317  007D                     	global	___lwmod@counter
  1318                           ___lwmod@counter:	; 1 bytes @ 0xD
  1319  007D                     	ds	1
  1320  007D                     ??_ModoApagado:	; 1 bytes @ 0xE
  1321  007E                     ??_main:	; 1 bytes @ 0xE
  1322  007E                     psect	cstackBANK0,class=BANK0,space=1,noexec
  1323                           global __pcstackBANK0
  1324                           __pcstackBANK0:
  1325  0044                     ?_lcdBegin:	; 1 bytes @ 0x0
  1326  0044                     ?_lcdPrint:	; 1 bytes @ 0x0
  1327  0044                     	global	?_sprintf
  1328                           ?_sprintf:	; 2 bytes @ 0x0
  1329  0044                     	global	lcdBegin@EN
  1330                           lcdBegin@EN:	; 1 bytes @ 0x0
  1331  0044                     	global	lcdSetCursor@row
  1332                           lcdSetCursor@row:	; 1 bytes @ 0x0
  1333  0044                     	global	sprintf@f
  1334                           sprintf@f:	; 1 bytes @ 0x0
  1335  0044                     	global	lcdPrint@string
  1336                           lcdPrint@string:	; 2 bytes @ 0x0
  1337  0044                     	ds	1
  1338  0044                     	global	lcdBegin@R_W
  1339                           lcdBegin@R_W:	; 1 bytes @ 0x1
  1340  0045                     	global	lcdSetCursor@location
  1341                           lcdSetCursor@location:	; 1 bytes @ 0x1
  1342  0045                     	ds	1
  1343  0045                     ??_lcdPrint:	; 1 bytes @ 0x2
  1344  0046                     	global	lcdBegin@d4
  1345                           lcdBegin@d4:	; 1 bytes @ 0x2
  1346  0046                     	ds	1
  1347  0046                     ??_sprintf:	; 1 bytes @ 0x3
  1348  0047                     	global	lcdBegin@d5
  1349                           lcdBegin@d5:	; 1 bytes @ 0x3
  1350  0047                     	ds	1
  1351  0047                     	global	lcdBegin@d6
  1352                           lcdBegin@d6:	; 1 bytes @ 0x4
  1353  0048                     	ds	1
  1354  0048                     	global	lcdBegin@d7
  1355                           lcdBegin@d7:	; 1 bytes @ 0x5
  1356  0049                     	global	lcdPrint@i
  1357                           lcdPrint@i:	; 2 bytes @ 0x5
  1358  0049                     	ds	1
  1359  0049                     	global	lcdBegin@RS
  1360                           lcdBegin@RS:	; 1 bytes @ 0x6
  1361  004A                     	global	sprintf@ap
  1362                           sprintf@ap:	; 1 bytes @ 0x6
  1363  004A                     	ds	1
  1364  004A                     ??_setup:	; 1 bytes @ 0x7
  1365  004B                     	global	sprintf@flag
  1366                           sprintf@flag:	; 1 bytes @ 0x7
  1367  004B                     	ds	1
  1368  004B                     	global	sprintf@prec
  1369                           sprintf@prec:	; 1 bytes @ 0x8
  1370  004C                     	ds	1
  1371  004C                     	global	sprintf@val
  1372                           sprintf@val:	; 2 bytes @ 0x9
  1373  004D                     	ds	2
  1374  004D                     	global	sprintf@sp
  1375                           sprintf@sp:	; 1 bytes @ 0xB
  1376  004F                     	ds	1
  1377  004F                     	global	sprintf@c
  1378                           sprintf@c:	; 1 bytes @ 0xC
  1379  0050                     	ds	1
  1380  0050                     ??_ModoEncendido:	; 1 bytes @ 0xD
  1381  0051                     	ds	1
  1382  0051                     ??_loop:	; 1 bytes @ 0xE
  1383  0052                     	ds	2
  1384  0052                     	global	loop@i
  1385                           loop@i:	; 1 bytes @ 0x10
  1386  0054                     	ds	1
  1387  0054                     ;!
  1388                           ;!Data Sizes:
  1389                           ;!    Strings     117
  1390                           ;!    Constant    38
  1391                           ;!    Data        1
  1392                           ;!    BSS         36
  1393                           ;!    Persistent  14
  1394                           ;!    Stack       0
  1395                           ;!
  1396                           ;!Auto Spaces:
  1397                           ;!    Space          Size  Autos    Used
  1398                           ;!    COMMON           14     14      14
  1399                           ;!    BANK0            80     17      68
  1400                           ;!    BANK1            80      0       0
  1401                           ;!    BANK3            96      0       0
  1402                           ;!    BANK2            96      0       0
  1403                           
  1404                           ;!
  1405                           ;!Pointer List with Targets:
  1406                           ;!
  1407                           ;!    sprintf@f	PTR const unsigned char  size(1) Largest target is 14
  1408                           ;!		 -> STR_3(CODE[14]), 
  1409                           ;!
  1410                           ;!    sprintf@sp	PTR unsigned char  size(1) Largest target is 16
  1411                           ;!		 -> FirstROW(BANK0[16]), 
  1412                           ;!
  1413                           ;!    sprintf@ap	PTR void [1] size(1) Largest target is 2
  1414                           ;!		 -> ?_sprintf(BANK0[2]), 
  1415                           ;!
  1416                           ;!    lcdPrint@string	PTR unsigned char  size(2) Largest target is 17
  1417                           ;!		 -> STR_8(CODE[14]), STR_7(CODE[14]), STR_6(CODE[14]), STR_5(CODE[14]), 
  1418                           ;!		 -> STR_4(CODE[14]), FirstROW(BANK0[16]), STR_2(CODE[16]), STR_1(CODE[17]), 
  1419                           ;!
  1420                           
  1421                           
  1422                           ;!
  1423                           ;!Critical Paths under _main in COMMON
  1424                           ;!
  1425                           ;!    _setup->_lcdBegin
  1426                           ;!    _lcdBegin->_WriteInstruction
  1427                           ;!    _lcdClear->_WriteInstruction
  1428                           ;!    _ModoEncendido->_lcdSetCursor
  1429                           ;!    _sprintf->___lwmod
  1430                           ;!    ___lwmod->___lwdiv
  1431                           ;!    _MotorDC->_digitalWrite
  1432                           ;!    _Contador->_delay
  1433                           ;!    _ModoApagado->_lcdSetCursor
  1434                           ;!    _lcdSetCursor->_WriteInstruction
  1435                           ;!    _WriteInstruction->_ByteByNibble
  1436                           ;!    _WriteInstruction->_delay
  1437                           ;!    _lcdPrint->_lcdWrite
  1438                           ;!    _lcdWrite->_WriteData
  1439                           ;!    _WriteData->_ByteByNibble
  1440                           ;!    _WriteData->_delay
  1441                           ;!    _ByteByNibble->_digitalWrite
  1442                           ;!
  1443                           ;!Critical Paths under _main in BANK0
  1444                           ;!
  1445                           ;!    _main->_loop
  1446                           ;!    _setup->_lcdBegin
  1447                           ;!    _loop->_ModoEncendido
  1448                           ;!    _ModoEncendido->_sprintf
  1449                           ;!    _ModoApagado->_lcdPrint
  1450                           ;!
  1451                           ;!Critical Paths under _main in BANK1
  1452                           ;!
  1453                           ;!    None.
  1454                           ;!
  1455                           ;!Critical Paths under _main in BANK3
  1456                           ;!
  1457                           ;!    None.
  1458                           ;!
  1459                           ;!Critical Paths under _main in BANK2
  1460                           ;!
  1461                           ;!    None.
  1462                           
  1463 ;;
  1464 ;;Main: autosize = 0, tempsize = 0, incstack = 0, save=0
  1465 ;;
  1466                           
  1467                           ;!
  1468                           ;!Call Graph Tables:
  1469                           ;!
  1470                           ;! ---------------------------------------------------------------------------------
  1471                           ;! (Depth) Function   	        Calls       Base Space   Used Autos Params    Refs
  1472                           ;! ---------------------------------------------------------------------------------
  1473                           ;! (0) _main                                                 0     0      0  159116
  1474                           ;!                     _Initialization
  1475                           ;!                               _loop
  1476                           ;!                              _setup
  1477                           ;! ---------------------------------------------------------------------------------
  1478                           ;! (1) _setup                                                6     6      0   39458
  1479                           ;!                                              7 BANK0      6     6      0
  1480                           ;!                           _lcdBegin
  1481                           ;!                           _lcdClear
  1482                           ;!                            _pinMode
  1483                           ;! ---------------------------------------------------------------------------------
  1484                           ;! (2) _lcdBegin                                             9     3      6   20749
  1485                           ;!                                             12 COMMON     2     2      0
  1486                           ;!                                              0 BANK0      7     1      6
  1487                           ;!                   _WriteInstruction
  1488                           ;!                              _delay
  1489                           ;!                            _pinMode
  1490                           ;! ---------------------------------------------------------------------------------
  1491                           ;! (2) _pinMode                                              4     3      1    1408
  1492                           ;!                                              0 COMMON     4     3      1
  1493                           ;! ---------------------------------------------------------------------------------
  1494                           ;! (1) _loop                                                 3     3      0  119658
  1495                           ;!                                             14 BANK0      3     3      0
  1496                           ;!                        _ModoApagado
  1497                           ;!                      _ModoEncendido
  1498                           ;!                             _PBRead
  1499                           ;!                              _delay
  1500                           ;!                       _digitalWrite
  1501                           ;!                           _lcdClear
  1502                           ;! ---------------------------------------------------------------------------------
  1503                           ;! (2) _lcdClear                                             0     0      0   17301
  1504                           ;!                   _WriteInstruction
  1505                           ;! ---------------------------------------------------------------------------------
  1506                           ;! (2) _PBRead                                               3     3      0      22
  1507                           ;!                                              0 COMMON     3     3      0
  1508                           ;! ---------------------------------------------------------------------------------
  1509                           ;! (2) _ModoEncendido                                        1     1      0   56032
  1510                           ;!                                             13 BANK0      1     1      0
  1511                           ;!                           _Contador
  1512                           ;!                            _MotorDC
  1513                           ;!                       _digitalWrite
  1514                           ;!                           _lcdPrint
  1515                           ;!                       _lcdSetCursor
  1516                           ;!                            _sprintf
  1517                           ;! ---------------------------------------------------------------------------------
  1518                           ;! (3) _sprintf                                             21    18      3    1211
  1519                           ;!                                              0 BANK0     13    10      3
  1520                           ;!                            ___lwdiv
  1521                           ;!                            ___lwmod
  1522                           ;! ---------------------------------------------------------------------------------
  1523                           ;! (4) ___lwmod                                              6     2      4     311
  1524                           ;!                                              8 COMMON     6     2      4
  1525                           ;!                            ___lwdiv (ARG)
  1526                           ;! ---------------------------------------------------------------------------------
  1527                           ;! (4) ___lwdiv                                              8     4      4     314
  1528                           ;!                                              0 COMMON     8     4      4
  1529                           ;! ---------------------------------------------------------------------------------
  1530                           ;! (3) _MotorDC                                              2     0      2    8346
  1531                           ;!                                              4 COMMON     2     0      2
  1532                           ;!                       _digitalWrite
  1533                           ;! ---------------------------------------------------------------------------------
  1534                           ;! (3) _Contador                                             4     2      2    1494
  1535                           ;!                                              7 COMMON     4     2      2
  1536                           ;!                         _analogRead
  1537                           ;!                              _delay
  1538                           ;! ---------------------------------------------------------------------------------
  1539                           ;! (4) _analogRead                                           5     3      2      22
  1540                           ;!                                              0 COMMON     5     3      2
  1541                           ;! ---------------------------------------------------------------------------------
  1542                           ;! (2) _ModoApagado                                          0     0      0   37037
  1543                           ;!                           _lcdPrint
  1544                           ;!                       _lcdSetCursor
  1545                           ;! ---------------------------------------------------------------------------------
  1546                           ;! (3) _lcdSetCursor                                         4     3      1   17740
  1547                           ;!                                             12 COMMON     2     1      1
  1548                           ;!                                              0 BANK0      2     2      0
  1549                           ;!                   _WriteInstruction
  1550                           ;! ---------------------------------------------------------------------------------
  1551                           ;! (3) _WriteInstruction                                     5     5      0   17301
  1552                           ;!                                              7 COMMON     5     5      0
  1553                           ;!                       _ByteByNibble
  1554                           ;!                              _delay
  1555                           ;!                       _digitalWrite
  1556                           ;! ---------------------------------------------------------------------------------
  1557                           ;! (3) _lcdPrint                                             7     5      2   19297
  1558                           ;!                                              0 BANK0      7     5      2
  1559                           ;!                           _lcdWrite
  1560                           ;! ---------------------------------------------------------------------------------
  1561                           ;! (4) _lcdWrite                                             1     1      0   18599
  1562                           ;!                                             12 COMMON     1     1      0
  1563                           ;!                          _WriteData
  1564                           ;!                              _delay
  1565                           ;! ---------------------------------------------------------------------------------
  1566                           ;! (5) _WriteData                                            5     5      0   17301
  1567                           ;!                                              7 COMMON     5     5      0
  1568                           ;!                       _ByteByNibble
  1569                           ;!                              _delay
  1570                           ;!                       _digitalWrite
  1571                           ;! ---------------------------------------------------------------------------------
  1572                           ;! (4) _delay                                                7     5      2    1276
  1573                           ;!                                              0 COMMON     7     5      2
  1574                           ;! ---------------------------------------------------------------------------------
  1575                           ;! (4) _ByteByNibble                                         3     3      0    7966
  1576                           ;!                                              4 COMMON     3     3      0
  1577                           ;!                       _digitalWrite
  1578                           ;! ---------------------------------------------------------------------------------
  1579                           ;! (4) _digitalWrite                                         4     3      1    7944
  1580                           ;!                                              0 COMMON     4     3      1
  1581                           ;! ---------------------------------------------------------------------------------
  1582                           ;! (1) _Initialization                                       0     0      0       0
  1583                           ;!                  _CCP1Configuration
  1584                           ;!                  _CCP2Configuration
  1585                           ;! ---------------------------------------------------------------------------------
  1586                           ;! (2) _CCP2Configuration                                    0     0      0       0
  1587                           ;! ---------------------------------------------------------------------------------
  1588                           ;! (2) _CCP1Configuration                                    0     0      0       0
  1589                           ;! ---------------------------------------------------------------------------------
  1590                           ;! Estimated maximum stack depth 5
  1591                           ;! ---------------------------------------------------------------------------------
  1592                           ;!
  1593                           ;! Call Graph Graphs:
  1594                           ;!
  1595                           ;! _main (ROOT)
  1596                           ;!   _Initialization
  1597                           ;!     _CCP1Configuration
  1598                           ;!     _CCP2Configuration
  1599                           ;!   _loop
  1600                           ;!     _ModoApagado
  1601                           ;!       _lcdPrint
  1602                           ;!         _lcdWrite
  1603                           ;!           _WriteData
  1604                           ;!             _ByteByNibble
  1605                           ;!               _digitalWrite
  1606                           ;!             _delay
  1607                           ;!             _digitalWrite
  1608                           ;!           _delay
  1609                           ;!       _lcdSetCursor
  1610                           ;!         _WriteInstruction
  1611                           ;!           _ByteByNibble
  1612                           ;!             _digitalWrite
  1613                           ;!           _delay
  1614                           ;!           _digitalWrite
  1615                           ;!     _ModoEncendido
  1616                           ;!       _Contador
  1617                           ;!         _analogRead
  1618                           ;!         _delay
  1619                           ;!       _MotorDC
  1620                           ;!         _digitalWrite
  1621                           ;!       _digitalWrite
  1622                           ;!       _lcdPrint
  1623                           ;!         _lcdWrite
  1624                           ;!           _WriteData
  1625                           ;!             _ByteByNibble
  1626                           ;!               _digitalWrite
  1627                           ;!             _delay
  1628                           ;!             _digitalWrite
  1629                           ;!           _delay
  1630                           ;!       _lcdSetCursor
  1631                           ;!         _WriteInstruction
  1632                           ;!           _ByteByNibble
  1633                           ;!             _digitalWrite
  1634                           ;!           _delay
  1635                           ;!           _digitalWrite
  1636                           ;!       _sprintf
  1637                           ;!         ___lwdiv
  1638                           ;!         ___lwmod
  1639                           ;!           ___lwdiv (ARG)
  1640                           ;!     _PBRead
  1641                           ;!     _delay
  1642                           ;!     _digitalWrite
  1643                           ;!     _lcdClear
  1644                           ;!       _WriteInstruction
  1645                           ;!         _ByteByNibble
  1646                           ;!           _digitalWrite
  1647                           ;!         _delay
  1648                           ;!         _digitalWrite
  1649                           ;!   _setup
  1650                           ;!     _lcdBegin
  1651                           ;!       _WriteInstruction
  1652                           ;!         _ByteByNibble
  1653                           ;!           _digitalWrite
  1654                           ;!         _delay
  1655                           ;!         _digitalWrite
  1656                           ;!       _delay
  1657                           ;!       _pinMode
  1658                           ;!     _lcdClear
  1659                           ;!       _WriteInstruction
  1660                           ;!         _ByteByNibble
  1661                           ;!           _digitalWrite
  1662                           ;!         _delay
  1663                           ;!         _digitalWrite
  1664                           ;!     _pinMode
  1665                           ;!
  1666                           
  1667                           ;! Address spaces:
  1668                           
  1669                           ;!Name               Size   Autos  Total    Cost      Usage
  1670                           ;!BANK3               60      0       0       9        0.0%
  1671                           ;!BITBANK3            60      0       0       8        0.0%
  1672                           ;!SFR3                 0      0       0       4        0.0%
  1673                           ;!BITSFR3              0      0       0       4        0.0%
  1674                           ;!BANK2               60      0       0      11        0.0%
  1675                           ;!BITBANK2            60      0       0      10        0.0%
  1676                           ;!SFR2                 0      0       0       5        0.0%
  1677                           ;!BITSFR2              0      0       0       5        0.0%
  1678                           ;!BANK1               50      0       0       7        0.0%
  1679                           ;!BITBANK1            50      0       0       6        0.0%
  1680                           ;!SFR1                 0      0       0       2        0.0%
  1681                           ;!BITSFR1              0      0       0       2        0.0%
  1682                           ;!BANK0               50     11      44       5       85.0%
  1683                           ;!BITBANK0            50      0       0       4        0.0%
  1684                           ;!SFR0                 0      0       0       1        0.0%
  1685                           ;!BITSFR0              0      0       0       1        0.0%
  1686                           ;!COMMON               E      E       E       1      100.0%
  1687                           ;!BITCOMMON            E      0       0       0        0.0%
  1688                           ;!CODE                 0      0       0       0        0.0%
  1689                           ;!DATA                 0      0      52      12        0.0%
  1690                           ;!ABS                  0      0      52       3        0.0%
  1691                           ;!NULL                 0      0       0       0        0.0%
  1692                           ;!STACK                0      0       0       2        0.0%
  1693                           ;!EEDATA             100      0       0       0        0.0%
  1694                           
  1695                           	global	_main
  1696                           
  1697 ;; *************** function _main *****************
  1698 ;; Defined at:
  1699 ;;		line 7 in file "source.c"
  1700 ;; Parameters:    Size  Location     Type
  1701 ;;		None
  1702 ;; Auto vars:     Size  Location     Type
  1703 ;;		None
  1704 ;; Return value:  Size  Location     Type
  1705 ;;                  2  130[None  ] int 
  1706 ;; Registers used:
  1707 ;;		wreg, fsr0l, fsr0h, status,2, status,0, btemp+1, pclath, cstack
  1708 ;; Tracked objects:
  1709 ;;		On entry : B00/0
  1710 ;;		On exit  : 0/0
  1711 ;;		Unchanged: 0/0
  1712 ;; Data sizes:     COMMON   BANK0   BANK1   BANK3   BANK2
  1713 ;;      Params:         0       0       0       0       0
  1714 ;;      Locals:         0       0       0       0       0
  1715 ;;      Temps:          0       0       0       0       0
  1716 ;;      Totals:         0       0       0       0       0
  1717 ;;Total ram usage:        0 bytes
  1718 ;; Hardware stack levels required when called:    7
  1719 ;; This function calls:
  1720 ;;		_Initialization
  1721 ;;		_loop
  1722 ;;		_setup
  1723 ;; This function is called by:
  1724 ;;		Startup code after reset
  1725 ;; This function uses a non-reentrant model
  1726 ;;
  1727                           psect	maintext,global,class=CODE,delta=2,split=1,group=0
  1728                           	file	"source.c"
  1729                           	line	7
  1730                           global __pmaintext
  1731                           __pmaintext:	;psect for function _main
  1732  0A8D                     psect	maintext
  1733                           	file	"source.c"
  1734                           	line	7
  1735                           	global	__size_of_main
  1736                           	__size_of_main	equ	__end_of_main-_main
  1737  0015                     	
  1738                           _main:	
  1739  0A8D                     ;incstack = 0
  1740                           	opt	stack 1
  1741                           ; Regs used in _main: [wreg-fsr0h+status,2+status,0+btemp+1+pclath+cstack]
  1742                           	line	9
  1743                           	
  1744                           l3121:	
  1745  0A8D                     ;source.c: 9:     Initialization();
  1746                           	fcall	_Initialization
  1747  0A8D  120A  158A  22A2  120A  158A  	line	10
  1748                           	
  1749                           l3123:	
  1750  0A92                     ;source.c: 10:     setup();
  1751                           	fcall	_setup
  1752  0A92  120A  158A  26DC  120A  158A  	goto	l3125
  1753  0A97  2A98               	line	11
  1754                           ;source.c: 11:     while(1)
  1755                           	
  1756                           l131:	
  1757  0A98                     	line	13
  1758                           	
  1759                           l3125:	
  1760  0A98                     ;source.c: 12:     {;source.c: 13:         loop();
  1761                           	fcall	_loop
  1762  0A98  120A  118A  2012  120A  158A  	goto	l3125
  1763  0A9D  2A98               	line	14
  1764                           ;source.c: 14:     }
  1765                           	
  1766                           l132:	
  1767  0A9E                     	goto	l3125
  1768  0A9E  2A98               	
  1769                           l133:	
  1770  0A9F                     	line	16
  1771                           ;source.c: 15:     return 0;;	Return value of _main is never used
  1772                           	
  1773                           l134:	
  1774  0A9F                     	global	start
  1775                           	ljmp	start
  1776  0A9F  120A  118A  2800   	opt stack 0
  1777                           GLOBAL	__end_of_main
  1778                           	__end_of_main:
  1779  0AA2                     	signat	_main,90
  1780                           	global	_setup
  1781                           
  1782 ;; *************** function _setup *****************
  1783 ;; Defined at:
  1784 ;;		line 44 in file "CodigoYoselinYDiana.c"
  1785 ;; Parameters:    Size  Location     Type
  1786 ;;		None
  1787 ;; Auto vars:     Size  Location     Type
  1788 ;;		None
  1789 ;; Return value:  Size  Location     Type
  1790 ;;                  1    wreg      void 
  1791 ;; Registers used:
  1792 ;;		wreg, fsr0l, fsr0h, status,2, status,0, btemp+1, pclath, cstack
  1793 ;; Tracked objects:
  1794 ;;		On entry : 0/0
  1795 ;;		On exit  : 0/0
  1796 ;;		Unchanged: 0/0
  1797 ;; Data sizes:     COMMON   BANK0   BANK1   BANK3   BANK2
  1798 ;;      Params:         0       0       0       0       0
  1799 ;;      Locals:         0       0       0       0       0
  1800 ;;      Temps:          0       6       0       0       0
  1801 ;;      Totals:         0       6       0       0       0
  1802 ;;Total ram usage:        6 bytes
  1803 ;; Hardware stack levels used:    1
  1804 ;; Hardware stack levels required when called:    4
  1805 ;; This function calls:
  1806 ;;		_lcdBegin
  1807 ;;		_lcdClear
  1808 ;;		_pinMode
  1809 ;; This function is called by:
  1810 ;;		_main
  1811 ;; This function uses a non-reentrant model
  1812 ;;
  1813                           psect	text1,local,class=CODE,delta=2,merge=1,group=0
  1814                           	file	"CodigoYoselinYDiana.c"
  1815                           	line	44
  1816                           global __ptext1
  1817                           __ptext1:	;psect for function _setup
  1818  0EDC                     psect	text1
  1819                           	file	"CodigoYoselinYDiana.c"
  1820                           	line	44
  1821                           	global	__size_of_setup
  1822                           	__size_of_setup	equ	__end_of_setup-_setup
  1823  008B                     	
  1824                           _setup:	
  1825  0EDC                     ;incstack = 0
  1826                           	opt	stack 3
  1827                           ; Regs used in _setup: [wreg-fsr0h+status,2+status,0+btemp+1+pclath+cstack]
  1828                           	line	46
  1829                           	
  1830                           l3059:	
  1831  0EDC                     ;CodigoYoselinYDiana.c: 46:  Estado = Apagado;
  1832                           	bcf	status, 5	;RP0=0, select bank0
  1833  0EDC  1283               	bcf	status, 6	;RP1=0, select bank0
  1834  0EDD  1303               	clrf	(_Estado)
  1835  0EDE  01E3               	incf	(_Estado),f
  1836  0EDF  0AE3               	line	47
  1837                           	
  1838                           l3061:	
  1839  0EE0                     ;CodigoYoselinYDiana.c: 47:     lcdBegin(Rs,En,RW,D4,D5,D6,D7);
  1840                           	movlw	low((_En-__stringbase))
  1841  0EE0  3023               	movwf	fsr0
  1842  0EE1  0084               	fcall	stringdir
  1843  0EE2  120A  158A  200A  120A  158A  	movwf	(??_setup+0)+0
  1844  0EE7  00CB               	movf	(??_setup+0)+0,w
  1845  0EE8  084B               	movwf	(lcdBegin@EN)
  1846  0EE9  00C4               	movlw	low((_RW-__stringbase))
  1847  0EEA  3021               	movwf	fsr0
  1848  0EEB  0084               	fcall	stringdir
  1849  0EEC  120A  158A  200A  120A  158A  	movwf	(??_setup+1)+0
  1850  0EF1  00CC               	movf	(??_setup+1)+0,w
  1851  0EF2  084C               	movwf	(lcdBegin@R_W)
  1852  0EF3  00C5               	movlw	low((_D4-__stringbase))
  1853  0EF4  301F               	movwf	fsr0
  1854  0EF5  0084               	fcall	stringdir
  1855  0EF6  120A  158A  200A  120A  158A  	movwf	(??_setup+2)+0
  1856  0EFB  00CD               	movf	(??_setup+2)+0,w
  1857  0EFC  084D               	movwf	(lcdBegin@d4)
  1858  0EFD  00C6               	movlw	low((_D5-__stringbase))
  1859  0EFE  301D               	movwf	fsr0
  1860  0EFF  0084               	fcall	stringdir
  1861  0F00  120A  158A  200A  120A  158A  	movwf	(??_setup+3)+0
  1862  0F05  00CE               	movf	(??_setup+3)+0,w
  1863  0F06  084E               	movwf	(lcdBegin@d5)
  1864  0F07  00C7               	movlw	low((_D6-__stringbase))
  1865  0F08  301B               	movwf	fsr0
  1866  0F09  0084               	fcall	stringdir
  1867  0F0A  120A  158A  200A  120A  158A  	movwf	(??_setup+4)+0
  1868  0F0F  00CF               	movf	(??_setup+4)+0,w
  1869  0F10  084F               	movwf	(lcdBegin@d6)
  1870  0F11  00C8               	movlw	low((_D7-__stringbase))
  1871  0F12  3019               	movwf	fsr0
  1872  0F13  0084               	fcall	stringdir
  1873  0F14  120A  158A  200A  120A  158A  	movwf	(??_setup+5)+0
  1874  0F19  00D0               	movf	(??_setup+5)+0,w
  1875  0F1A  0850               	movwf	(lcdBegin@d7)
  1876  0F1B  00C9               	movlw	low((_Rs-__stringbase))
  1877  0F1C  3025               	movwf	fsr0
  1878  0F1D  0084               	fcall	stringdir
  1879  0F1E  120A  158A  200A  120A  158A  	fcall	_lcdBegin
  1880  0F23  120A  158A  2767  120A  158A  	line	48
  1881                           ;CodigoYoselinYDiana.c: 48:     lcdClear();
  1882                           	fcall	_lcdClear
  1883  0F28  120A  158A  226D  120A  158A  	line	49
  1884                           	
  1885                           l3063:	
  1886  0F2D                     ;CodigoYoselinYDiana.c: 49:  pinMode(Alarma,0);
  1887                           	clrf	(pinMode@mode)
  1888  0F2D  01F0               	movlw	low((_Alarma-__stringbase))
  1889  0F2E  300F               	movwf	fsr0
  1890  0F2F  0084               	fcall	stringdir
  1891  0F30  120A  158A  200A  120A  158A  	fcall	_pinMode
  1892  0F35  120A  118A  22FB  120A  158A  	line	50
  1893                           	
  1894                           l3065:	
  1895  0F3A                     ;CodigoYoselinYDiana.c: 50:     pinMode(MotorDCP,0);
  1896                           	clrf	(pinMode@mode)
  1897  0F3A  01F0               	movlw	low((_MotorDCP-__stringbase))
  1898  0F3B  3015               	movwf	fsr0
  1899  0F3C  0084               	fcall	stringdir
  1900  0F3D  120A  158A  200A  120A  158A  	fcall	_pinMode
  1901  0F42  120A  118A  22FB  120A  158A  	line	51
  1902                           	
  1903                           l3067:	
  1904  0F47                     ;CodigoYoselinYDiana.c: 51:     pinMode(MotorDCN,0);
  1905                           	clrf	(pinMode@mode)
  1906  0F47  01F0               	movlw	low((_MotorDCN-__stringbase))
  1907  0F48  3013               	movwf	fsr0
  1908  0F49  0084               	fcall	stringdir
  1909  0F4A  120A  158A  200A  120A  158A  	fcall	_pinMode
  1910  0F4F  120A  118A  22FB  120A  158A  	line	52
  1911                           	
  1912                           l3069:	
  1913  0F54                     ;CodigoYoselinYDiana.c: 52:     pinMode(MotorAC,0);
  1914                           	clrf	(pinMode@mode)
  1915  0F54  01F0               	movlw	low((_MotorAC-__stringbase))
  1916  0F55  3017               	movwf	fsr0
  1917  0F56  0084               	fcall	stringdir
  1918  0F57  120A  158A  200A  120A  158A  	fcall	_pinMode
  1919  0F5C  120A  118A  22FB  120A  158A  	line	53
  1920                           ;CodigoYoselinYDiana.c: 53:     lcdClear();
  1921                           	fcall	_lcdClear
  1922  0F61  120A  158A  226D  120A  158A  	line	54
  1923                           	
  1924                           l447:	
  1925  0F66                     	return
  1926  0F66  0008               	opt stack 0
  1927                           GLOBAL	__end_of_setup
  1928                           	__end_of_setup:
  1929  0F67                     	signat	_setup,89
  1930                           	global	_lcdBegin
  1931                           
  1932 ;; *************** function _lcdBegin *****************
  1933 ;; Defined at:
  1934 ;;		line 22 in file "LCD16x2.c"
  1935 ;; Parameters:    Size  Location     Type
  1936 ;;  RS              1    wreg     unsigned char 
  1937 ;;  EN              1    0[BANK0 ] unsigned char 
  1938 ;;  R_W             1    1[BANK0 ] unsigned char 
  1939 ;;  d4              1    2[BANK0 ] unsigned char 
  1940 ;;  d5              1    3[BANK0 ] unsigned char 
  1941 ;;  d6              1    4[BANK0 ] unsigned char 
  1942 ;;  d7              1    5[BANK0 ] unsigned char 
  1943 ;; Auto vars:     Size  Location     Type
  1944 ;;  RS              1    6[BANK0 ] unsigned char 
  1945 ;; Return value:  Size  Location     Type
  1946 ;;                  1    wreg      void 
  1947 ;; Registers used:
  1948 ;;		wreg, fsr0l, fsr0h, status,2, status,0, btemp+1, pclath, cstack
  1949 ;; Tracked objects:
  1950 ;;		On entry : 0/0
  1951 ;;		On exit  : 0/0
  1952 ;;		Unchanged: 0/0
  1953 ;; Data sizes:     COMMON   BANK0   BANK1   BANK3   BANK2
  1954 ;;      Params:         0       6       0       0       0
  1955 ;;      Locals:         0       1       0       0       0
  1956 ;;      Temps:          2       0       0       0       0
  1957 ;;      Totals:         2       7       0       0       0
  1958 ;;Total ram usage:        9 bytes
  1959 ;; Hardware stack levels used:    1
  1960 ;; Hardware stack levels required when called:    3
  1961 ;; This function calls:
  1962 ;;		_WriteInstruction
  1963 ;;		_delay
  1964 ;;		_pinMode
  1965 ;; This function is called by:
  1966 ;;		_setup
  1967 ;; This function uses a non-reentrant model
  1968 ;;
  1969                           psect	text2,local,class=CODE,delta=2,merge=1,group=0
  1970                           	file	"LCD16x2.c"
  1971                           	line	22
  1972                           global __ptext2
  1973                           __ptext2:	;psect for function _lcdBegin
  1974  0F67                     psect	text2
  1975                           	file	"LCD16x2.c"
  1976                           	line	22
  1977                           	global	__size_of_lcdBegin
  1978                           	__size_of_lcdBegin	equ	__end_of_lcdBegin-_lcdBegin
  1979  0099                     	
  1980                           _lcdBegin:	
  1981  0F67                     ;incstack = 0
  1982                           	opt	stack 3
  1983                           ; Regs used in _lcdBegin: [wreg-fsr0h+status,2+status,0+btemp+1+pclath+cstack]
  1984                           ;lcdBegin@RS stored from wreg
  1985                           	bcf	status, 5	;RP0=0, select bank0
  1986  0F67  1283               	bcf	status, 6	;RP1=0, select bank0
  1987  0F68  1303               	movwf	(lcdBegin@RS)
  1988  0F69  00CA               	line	24
  1989                           	
  1990                           l2995:	
  1991  0F6A                     ;LCD16x2.c: 22: void lcdBegin(char RS, char EN, char R_W, char d4, char d5, char d6,char
                                  d7);LCD16x2.c: 23: {;LCD16x2.c: 24:     RSPin = RS;
  1992                           	movf	(lcdBegin@RS),w
  1993  0F6A  084A               	movwf	(??_lcdBegin+0)+0
  1994  0F6B  00FC               	clrf	(??_lcdBegin+0)+0+1
  1995  0F6C  01FD               	movf	0+(??_lcdBegin+0)+0,w
  1996  0F6D  087C               	movwf	(_RSPin)
  1997  0F6E  00E1               	movf	1+(??_lcdBegin+0)+0,w
  1998  0F6F  087D               	movwf	(_RSPin+1)
  1999  0F70  00E2               	line	25
  2000                           ;LCD16x2.c: 25:     ENPin = EN;
  2001                           	movf	(lcdBegin@EN),w
  2002  0F71  0844               	movwf	(??_lcdBegin+0)+0
  2003  0F72  00FC               	clrf	(??_lcdBegin+0)+0+1
  2004  0F73  01FD               	movf	0+(??_lcdBegin+0)+0,w
  2005  0F74  087C               	movwf	(_ENPin)
  2006  0F75  00DF               	movf	1+(??_lcdBegin+0)+0,w
  2007  0F76  087D               	movwf	(_ENPin+1)
  2008  0F77  00E0               	line	26
  2009                           ;LCD16x2.c: 26:     RWPin = R_W;
  2010                           	movf	(lcdBegin@R_W),w
  2011  0F78  0845               	movwf	(??_lcdBegin+0)+0
  2012  0F79  00FC               	clrf	(??_lcdBegin+0)+0+1
  2013  0F7A  01FD               	movf	0+(??_lcdBegin+0)+0,w
  2014  0F7B  087C               	movwf	(_RWPin)
  2015  0F7C  00DD               	movf	1+(??_lcdBegin+0)+0,w
  2016  0F7D  087D               	movwf	(_RWPin+1)
  2017  0F7E  00DE               	line	27
  2018                           ;LCD16x2.c: 27:     d4Pin = d4;
  2019                           	movf	(lcdBegin@d4),w
  2020  0F7F  0846               	movwf	(??_lcdBegin+0)+0
  2021  0F80  00FC               	clrf	(??_lcdBegin+0)+0+1
  2022  0F81  01FD               	movf	0+(??_lcdBegin+0)+0,w
  2023  0F82  087C               	movwf	(_d4Pin)
  2024  0F83  00DB               	movf	1+(??_lcdBegin+0)+0,w
  2025  0F84  087D               	movwf	(_d4Pin+1)
  2026  0F85  00DC               	line	28
  2027                           ;LCD16x2.c: 28:     d5Pin = d5;
  2028                           	movf	(lcdBegin@d5),w
  2029  0F86  0847               	movwf	(??_lcdBegin+0)+0
  2030  0F87  00FC               	clrf	(??_lcdBegin+0)+0+1
  2031  0F88  01FD               	movf	0+(??_lcdBegin+0)+0,w
  2032  0F89  087C               	movwf	(_d5Pin)
  2033  0F8A  00D9               	movf	1+(??_lcdBegin+0)+0,w
  2034  0F8B  087D               	movwf	(_d5Pin+1)
  2035  0F8C  00DA               	line	29
  2036                           ;LCD16x2.c: 29:     d6Pin = d6;
  2037                           	movf	(lcdBegin@d6),w
  2038  0F8D  0848               	movwf	(??_lcdBegin+0)+0
  2039  0F8E  00FC               	clrf	(??_lcdBegin+0)+0+1
  2040  0F8F  01FD               	movf	0+(??_lcdBegin+0)+0,w
  2041  0F90  087C               	movwf	(_d6Pin)
  2042  0F91  00D7               	movf	1+(??_lcdBegin+0)+0,w
  2043  0F92  087D               	movwf	(_d6Pin+1)
  2044  0F93  00D8               	line	30
  2045                           ;LCD16x2.c: 30:     d7Pin = d7;
  2046                           	movf	(lcdBegin@d7),w
  2047  0F94  0849               	movwf	(??_lcdBegin+0)+0
  2048  0F95  00FC               	clrf	(??_lcdBegin+0)+0+1
  2049  0F96  01FD               	movf	0+(??_lcdBegin+0)+0,w
  2050  0F97  087C               	movwf	(_d7Pin)
  2051  0F98  00D5               	movf	1+(??_lcdBegin+0)+0,w
  2052  0F99  087D               	movwf	(_d7Pin+1)
  2053  0F9A  00D6               	line	31
  2054                           	
  2055                           l2997:	
  2056  0F9B                     ;LCD16x2.c: 31:     pinMode(RS,0);
  2057                           	clrf	(pinMode@mode)
  2058  0F9B  01F0               	movf	(lcdBegin@RS),w
  2059  0F9C  084A               	fcall	_pinMode
  2060  0F9D  120A  118A  22FB  120A  158A  	line	32
  2061                           	
  2062                           l2999:	
  2063  0FA2                     ;LCD16x2.c: 32:     pinMode(EN,0);
  2064                           	clrf	(pinMode@mode)
  2065  0FA2  01F0               	bcf	status, 5	;RP0=0, select bank0
  2066  0FA3  1283               	bcf	status, 6	;RP1=0, select bank0
  2067  0FA4  1303               	movf	(lcdBegin@EN),w
  2068  0FA5  0844               	fcall	_pinMode
  2069  0FA6  120A  118A  22FB  120A  158A  	line	33
  2070                           	
  2071                           l3001:	
  2072  0FAB                     ;LCD16x2.c: 33:     pinMode(R_W,0);
  2073                           	clrf	(pinMode@mode)
  2074  0FAB  01F0               	bcf	status, 5	;RP0=0, select bank0
  2075  0FAC  1283               	bcf	status, 6	;RP1=0, select bank0
  2076  0FAD  1303               	movf	(lcdBegin@R_W),w
  2077  0FAE  0845               	fcall	_pinMode
  2078  0FAF  120A  118A  22FB  120A  158A  	line	34
  2079                           	
  2080                           l3003:	
  2081  0FB4                     ;LCD16x2.c: 34:     pinMode(d4,0);
  2082                           	clrf	(pinMode@mode)
  2083  0FB4  01F0               	bcf	status, 5	;RP0=0, select bank0
  2084  0FB5  1283               	bcf	status, 6	;RP1=0, select bank0
  2085  0FB6  1303               	movf	(lcdBegin@d4),w
  2086  0FB7  0846               	fcall	_pinMode
  2087  0FB8  120A  118A  22FB  120A  158A  	line	35
  2088                           	
  2089                           l3005:	
  2090  0FBD                     ;LCD16x2.c: 35:     pinMode(d5,0);
  2091                           	clrf	(pinMode@mode)
  2092  0FBD  01F0               	bcf	status, 5	;RP0=0, select bank0
  2093  0FBE  1283               	bcf	status, 6	;RP1=0, select bank0
  2094  0FBF  1303               	movf	(lcdBegin@d5),w
  2095  0FC0  0847               	fcall	_pinMode
  2096  0FC1  120A  118A  22FB  120A  158A  	line	36
  2097                           	
  2098                           l3007:	
  2099  0FC6                     ;LCD16x2.c: 36:     pinMode(d6,0);
  2100                           	clrf	(pinMode@mode)
  2101  0FC6  01F0               	bcf	status, 5	;RP0=0, select bank0
  2102  0FC7  1283               	bcf	status, 6	;RP1=0, select bank0
  2103  0FC8  1303               	movf	(lcdBegin@d6),w
  2104  0FC9  0848               	fcall	_pinMode
  2105  0FCA  120A  118A  22FB  120A  158A  	line	37
  2106                           	
  2107                           l3009:	
  2108  0FCF                     ;LCD16x2.c: 37:     pinMode(d7,0);
  2109                           	clrf	(pinMode@mode)
  2110  0FCF  01F0               	bcf	status, 5	;RP0=0, select bank0
  2111  0FD0  1283               	bcf	status, 6	;RP1=0, select bank0
  2112  0FD1  1303               	movf	(lcdBegin@d7),w
  2113  0FD2  0849               	fcall	_pinMode
  2114  0FD3  120A  118A  22FB  120A  158A  	line	38
  2115                           	
  2116                           l3011:	
  2117  0FD8                     ;LCD16x2.c: 38:     delay(15);
  2118                           	movlw	0Fh
  2119  0FD8  300F               	movwf	(delay@milis)
  2120  0FD9  00F0               	movlw	0
  2121  0FDA  3000               	movwf	((delay@milis))+1
  2122  0FDB  00F1               	fcall	_delay
  2123  0FDC  120A  158A  241D  120A  158A  	line	39
  2124                           	
  2125                           l3013:	
  2126  0FE1                     ;LCD16x2.c: 39:     WriteInstruction(0x02);
  2127                           	movlw	low(02h)
  2128  0FE1  3002               	fcall	_WriteInstruction
  2129  0FE2  120A  158A  2551  120A  158A  	line	40
  2130                           	
  2131                           l3015:	
  2132  0FE7                     ;LCD16x2.c: 40:     WriteInstruction(0x28);
  2133                           	movlw	low(028h)
  2134  0FE7  3028               	fcall	_WriteInstruction
  2135  0FE8  120A  158A  2551  120A  158A  	line	41
  2136                           	
  2137                           l3017:	
  2138  0FED                     ;LCD16x2.c: 41:     WriteInstruction(0x01);
  2139                           	movlw	low(01h)
  2140  0FED  3001               	fcall	_WriteInstruction
  2141  0FEE  120A  158A  2551  120A  158A  	line	42
  2142                           	
  2143                           l3019:	
  2144  0FF3                     ;LCD16x2.c: 42:     WriteInstruction(0x0C);
  2145                           	movlw	low(0Ch)
  2146  0FF3  300C               	fcall	_WriteInstruction
  2147  0FF4  120A  158A  2551  120A  158A  	line	43
  2148                           	
  2149                           l3021:	
  2150  0FF9                     ;LCD16x2.c: 43:     WriteInstruction(0x06);
  2151                           	movlw	low(06h)
  2152  0FF9  3006               	fcall	_WriteInstruction
  2153  0FFA  120A  158A  2551  120A  158A  	line	44
  2154                           	
  2155                           l532:	
  2156  0FFF                     	return
  2157  0FFF  0008               	opt stack 0
  2158                           GLOBAL	__end_of_lcdBegin
  2159                           	__end_of_lcdBegin:
  2160  1000                     	signat	_lcdBegin,28793
  2161                           	global	_pinMode
  2162                           
  2163 ;; *************** function _pinMode *****************
  2164 ;; Defined at:
  2165 ;;		line 63 in file "source.c"
  2166 ;; Parameters:    Size  Location     Type
  2167 ;;  pin             1    wreg     unsigned char 
  2168 ;;  mode            1    0[COMMON] unsigned char 
  2169 ;; Auto vars:     Size  Location     Type
  2170 ;;  pin             1    3[COMMON] unsigned char 
  2171 ;; Return value:  Size  Location     Type
  2172 ;;                  1    wreg      void 
  2173 ;; Registers used:
  2174 ;;		wreg, fsr0l, fsr0h, status,2, status,0
  2175 ;; Tracked objects:
  2176 ;;		On entry : 0/0
  2177 ;;		On exit  : 0/0
  2178 ;;		Unchanged: 0/0
  2179 ;; Data sizes:     COMMON   BANK0   BANK1   BANK3   BANK2
  2180 ;;      Params:         1       0       0       0       0
  2181 ;;      Locals:         1       0       0       0       0
  2182 ;;      Temps:          2       0       0       0       0
  2183 ;;      Totals:         4       0       0       0       0
  2184 ;;Total ram usage:        4 bytes
  2185 ;; Hardware stack levels used:    1
  2186 ;; This function calls:
  2187 ;;		Nothing
  2188 ;; This function is called by:
  2189 ;;		_setup
  2190 ;;		_lcdBegin
  2191 ;; This function uses a non-reentrant model
  2192 ;;
  2193                           psect	text3,local,class=CODE,delta=2,merge=1,group=0
  2194                           	file	"source.c"
  2195                           	line	63
  2196                           global __ptext3
  2197                           __ptext3:	;psect for function _pinMode
  2198  02FB                     psect	text3
  2199                           	file	"source.c"
  2200                           	line	63
  2201                           	global	__size_of_pinMode
  2202                           	__size_of_pinMode	equ	__end_of_pinMode-_pinMode
  2203  0121                     	
  2204                           _pinMode:	
  2205  02FB                     ;incstack = 0
  2206                           	opt	stack 6
  2207                           ; Regs used in _pinMode: [wreg-fsr0h+status,2+status,0]
  2208                           ;pinMode@pin stored from wreg
  2209                           	movwf	(pinMode@pin)
  2210  02FB  00F3               	line	65
  2211                           	
  2212                           l2785:	
  2213  02FC                     ;source.c: 63: void pinMode(char pin, char mode);source.c: 64: {;source.c: 65:     switc
                                 h(pin)
  2214                           	goto	l2839
  2215  02FC  2BC6               	line	67
  2216                           ;source.c: 66:     {;source.c: 67:         case 0:
  2217                           	
  2218                           l153:	
  2219  02FD                     	line	68
  2220                           	
  2221                           l2787:	
  2222  02FD                     ;source.c: 68:             TRISCbits.TRISC7 = mode;
  2223                           	rrf	(pinMode@mode),w
  2224  02FD  0C70               	bsf	status, 5	;RP0=1, select bank1
  2225  02FE  1683               	bcf	status, 6	;RP1=0, select bank1
  2226  02FF  1303               	skipc
  2227  0300  1C03               	bcf	(135)^080h,7	;volatile
  2228  0301  1387               	skipnc
  2229  0302  1803               	bsf	(135)^080h,7	;volatile
  2230  0303  1787               	line	69
  2231                           ;source.c: 69:             break;
  2232                           	goto	l179
  2233  0304  2C1B               	line	70
  2234                           ;source.c: 70:         case 1:
  2235                           	
  2236                           l155:	
  2237  0305                     	line	71
  2238                           	
  2239                           l2789:	
  2240  0305                     ;source.c: 71:             TRISCbits.TRISC6 = mode;
  2241                           	rrf	(pinMode@mode),w
  2242  0305  0C70               	bsf	status, 5	;RP0=1, select bank1
  2243  0306  1683               	bcf	status, 6	;RP1=0, select bank1
  2244  0307  1303               	skipc
  2245  0308  1C03               	bcf	(135)^080h,6	;volatile
  2246  0309  1307               	skipnc
  2247  030A  1803               	bsf	(135)^080h,6	;volatile
  2248  030B  1707               	line	72
  2249                           ;source.c: 72:             break;
  2250                           	goto	l179
  2251  030C  2C1B               	line	73
  2252                           ;source.c: 73:         case 2:
  2253                           	
  2254                           l156:	
  2255  030D                     	line	74
  2256                           	
  2257                           l2791:	
  2258  030D                     ;source.c: 74:             TRISCbits.TRISC5 = mode;
  2259                           	rrf	(pinMode@mode),w
  2260  030D  0C70               	bsf	status, 5	;RP0=1, select bank1
  2261  030E  1683               	bcf	status, 6	;RP1=0, select bank1
  2262  030F  1303               	skipc
  2263  0310  1C03               	bcf	(135)^080h,5	;volatile
  2264  0311  1287               	skipnc
  2265  0312  1803               	bsf	(135)^080h,5	;volatile
  2266  0313  1687               	line	75
  2267                           ;source.c: 75:             break;
  2268                           	goto	l179
  2269  0314  2C1B               	line	76
  2270                           ;source.c: 76:         case 3:
  2271                           	
  2272                           l157:	
  2273  0315                     	line	77
  2274                           	
  2275                           l2793:	
  2276  0315                     ;source.c: 77:             TRISCbits.TRISC4 = mode;
  2277                           	rrf	(pinMode@mode),w
  2278  0315  0C70               	bsf	status, 5	;RP0=1, select bank1
  2279  0316  1683               	bcf	status, 6	;RP1=0, select bank1
  2280  0317  1303               	skipc
  2281  0318  1C03               	bcf	(135)^080h,4	;volatile
  2282  0319  1207               	skipnc
  2283  031A  1803               	bsf	(135)^080h,4	;volatile
  2284  031B  1607               	line	78
  2285                           ;source.c: 78:             break;
  2286                           	goto	l179
  2287  031C  2C1B               	line	79
  2288                           ;source.c: 79:         case 4:
  2289                           	
  2290                           l158:	
  2291  031D                     	line	80
  2292                           	
  2293                           l2795:	
  2294  031D                     ;source.c: 80:             TRISCbits.TRISC3 = mode;
  2295                           	rrf	(pinMode@mode),w
  2296  031D  0C70               	bsf	status, 5	;RP0=1, select bank1
  2297  031E  1683               	bcf	status, 6	;RP1=0, select bank1
  2298  031F  1303               	skipc
  2299  0320  1C03               	bcf	(135)^080h,3	;volatile
  2300  0321  1187               	skipnc
  2301  0322  1803               	bsf	(135)^080h,3	;volatile
  2302  0323  1587               	line	81
  2303                           ;source.c: 81:             break;
  2304                           	goto	l179
  2305  0324  2C1B               	line	82
  2306                           ;source.c: 82:         case 5:
  2307                           	
  2308                           l159:	
  2309  0325                     	line	83
  2310                           	
  2311                           l2797:	
  2312  0325                     ;source.c: 83:             TRISCbits.TRISC2 = mode;
  2313                           	rrf	(pinMode@mode),w
  2314  0325  0C70               	bsf	status, 5	;RP0=1, select bank1
  2315  0326  1683               	bcf	status, 6	;RP1=0, select bank1
  2316  0327  1303               	skipc
  2317  0328  1C03               	bcf	(135)^080h,2	;volatile
  2318  0329  1107               	skipnc
  2319  032A  1803               	bsf	(135)^080h,2	;volatile
  2320  032B  1507               	line	85
  2321                           ;source.c: 85:             break;
  2322                           	goto	l179
  2323  032C  2C1B               	line	86
  2324                           ;source.c: 86:         case 6:
  2325                           	
  2326                           l160:	
  2327  032D                     	line	87
  2328                           	
  2329                           l2799:	
  2330  032D                     ;source.c: 87:             TRISCbits.TRISC1 = mode;
  2331                           	rrf	(pinMode@mode),w
  2332  032D  0C70               	bsf	status, 5	;RP0=1, select bank1
  2333  032E  1683               	bcf	status, 6	;RP1=0, select bank1
  2334  032F  1303               	skipc
  2335  0330  1C03               	bcf	(135)^080h,1	;volatile
  2336  0331  1087               	skipnc
  2337  0332  1803               	bsf	(135)^080h,1	;volatile
  2338  0333  1487               	line	89
  2339                           ;source.c: 89:             break;
  2340                           	goto	l179
  2341  0334  2C1B               	line	90
  2342                           ;source.c: 90:         case 7:
  2343                           	
  2344                           l161:	
  2345  0335                     	line	91
  2346                           	
  2347                           l2801:	
  2348  0335                     ;source.c: 91:             TRISCbits.TRISC0 = mode;
  2349                           	rrf	(pinMode@mode),w
  2350  0335  0C70               	bsf	status, 5	;RP0=1, select bank1
  2351  0336  1683               	bcf	status, 6	;RP1=0, select bank1
  2352  0337  1303               	skipc
  2353  0338  1C03               	bcf	(135)^080h,0	;volatile
  2354  0339  1007               	skipnc
  2355  033A  1803               	bsf	(135)^080h,0	;volatile
  2356  033B  1407               	line	92
  2357                           ;source.c: 92:             break;
  2358                           	goto	l179
  2359  033C  2C1B               	line	93
  2360                           ;source.c: 93:         case 8:
  2361                           	
  2362                           l162:	
  2363  033D                     	line	94
  2364                           	
  2365                           l2803:	
  2366  033D                     ;source.c: 94:             TRISBbits.TRISB0 = mode;
  2367                           	rrf	(pinMode@mode),w
  2368  033D  0C70               	bsf	status, 5	;RP0=1, select bank1
  2369  033E  1683               	bcf	status, 6	;RP1=0, select bank1
  2370  033F  1303               	skipc
  2371  0340  1C03               	bcf	(134)^080h,0	;volatile
  2372  0341  1006               	skipnc
  2373  0342  1803               	bsf	(134)^080h,0	;volatile
  2374  0343  1406               	line	95
  2375                           ;source.c: 95:             break;
  2376                           	goto	l179
  2377  0344  2C1B               	line	96
  2378                           ;source.c: 96:         case 9:
  2379                           	
  2380                           l163:	
  2381  0345                     	line	97
  2382                           	
  2383                           l2805:	
  2384  0345                     ;source.c: 97:             TRISBbits.TRISB1 = mode;
  2385                           	rrf	(pinMode@mode),w
  2386  0345  0C70               	bsf	status, 5	;RP0=1, select bank1
  2387  0346  1683               	bcf	status, 6	;RP1=0, select bank1
  2388  0347  1303               	skipc
  2389  0348  1C03               	bcf	(134)^080h,1	;volatile
  2390  0349  1086               	skipnc
  2391  034A  1803               	bsf	(134)^080h,1	;volatile
  2392  034B  1486               	line	98
  2393                           ;source.c: 98:             break;
  2394                           	goto	l179
  2395  034C  2C1B               	line	99
  2396                           ;source.c: 99:         case 10:
  2397                           	
  2398                           l164:	
  2399  034D                     	line	100
  2400                           	
  2401                           l2807:	
  2402  034D                     ;source.c: 100:             TRISBbits.TRISB2 = mode;
  2403                           	rrf	(pinMode@mode),w
  2404  034D  0C70               	bsf	status, 5	;RP0=1, select bank1
  2405  034E  1683               	bcf	status, 6	;RP1=0, select bank1
  2406  034F  1303               	skipc
  2407  0350  1C03               	bcf	(134)^080h,2	;volatile
  2408  0351  1106               	skipnc
  2409  0352  1803               	bsf	(134)^080h,2	;volatile
  2410  0353  1506               	line	101
  2411                           ;source.c: 101:             break;
  2412                           	goto	l179
  2413  0354  2C1B               	line	102
  2414                           ;source.c: 102:         case 11:
  2415                           	
  2416                           l165:	
  2417  0355                     	line	103
  2418                           	
  2419                           l2809:	
  2420  0355                     ;source.c: 103:             TRISBbits.TRISB3 = mode;
  2421                           	rrf	(pinMode@mode),w
  2422  0355  0C70               	bsf	status, 5	;RP0=1, select bank1
  2423  0356  1683               	bcf	status, 6	;RP1=0, select bank1
  2424  0357  1303               	skipc
  2425  0358  1C03               	bcf	(134)^080h,3	;volatile
  2426  0359  1186               	skipnc
  2427  035A  1803               	bsf	(134)^080h,3	;volatile
  2428  035B  1586               	line	104
  2429                           ;source.c: 104:             break;
  2430                           	goto	l179
  2431  035C  2C1B               	line	105
  2432                           ;source.c: 105:         case 12:
  2433                           	
  2434                           l166:	
  2435  035D                     	line	106
  2436                           	
  2437                           l2811:	
  2438  035D                     ;source.c: 106:             TRISBbits.TRISB4 = mode;
  2439                           	rrf	(pinMode@mode),w
  2440  035D  0C70               	bsf	status, 5	;RP0=1, select bank1
  2441  035E  1683               	bcf	status, 6	;RP1=0, select bank1
  2442  035F  1303               	skipc
  2443  0360  1C03               	bcf	(134)^080h,4	;volatile
  2444  0361  1206               	skipnc
  2445  0362  1803               	bsf	(134)^080h,4	;volatile
  2446  0363  1606               	line	107
  2447                           ;source.c: 107:             break;
  2448                           	goto	l179
  2449  0364  2C1B               	line	108
  2450                           ;source.c: 108:         case 13:
  2451                           	
  2452                           l167:	
  2453  0365                     	line	109
  2454                           	
  2455                           l2813:	
  2456  0365                     ;source.c: 109:             TRISBbits.TRISB5 = mode;
  2457                           	rrf	(pinMode@mode),w
  2458  0365  0C70               	bsf	status, 5	;RP0=1, select bank1
  2459  0366  1683               	bcf	status, 6	;RP1=0, select bank1
  2460  0367  1303               	skipc
  2461  0368  1C03               	bcf	(134)^080h,5	;volatile
  2462  0369  1286               	skipnc
  2463  036A  1803               	bsf	(134)^080h,5	;volatile
  2464  036B  1686               	line	110
  2465                           ;source.c: 110:             break;
  2466                           	goto	l179
  2467  036C  2C1B               	line	111
  2468                           ;source.c: 111:         case 14:
  2469                           	
  2470                           l168:	
  2471  036D                     	line	112
  2472                           	
  2473                           l2815:	
  2474  036D                     ;source.c: 112:             TRISBbits.TRISB6 = mode;
  2475                           	rrf	(pinMode@mode),w
  2476  036D  0C70               	bsf	status, 5	;RP0=1, select bank1
  2477  036E  1683               	bcf	status, 6	;RP1=0, select bank1
  2478  036F  1303               	skipc
  2479  0370  1C03               	bcf	(134)^080h,6	;volatile
  2480  0371  1306               	skipnc
  2481  0372  1803               	bsf	(134)^080h,6	;volatile
  2482  0373  1706               	line	113
  2483                           ;source.c: 113:             break;
  2484                           	goto	l179
  2485  0374  2C1B               	line	114
  2486                           ;source.c: 114:         case 15:
  2487                           	
  2488                           l169:	
  2489  0375                     	line	115
  2490                           	
  2491                           l2817:	
  2492  0375                     ;source.c: 115:             TRISBbits.TRISB7 = mode;
  2493                           	rrf	(pinMode@mode),w
  2494  0375  0C70               	bsf	status, 5	;RP0=1, select bank1
  2495  0376  1683               	bcf	status, 6	;RP1=0, select bank1
  2496  0377  1303               	skipc
  2497  0378  1C03               	bcf	(134)^080h,7	;volatile
  2498  0379  1386               	skipnc
  2499  037A  1803               	bsf	(134)^080h,7	;volatile
  2500  037B  1786               	line	116
  2501                           ;source.c: 116:             break;
  2502                           	goto	l179
  2503  037C  2C1B               	line	117
  2504                           ;source.c: 117:         case 16:
  2505                           	
  2506                           l170:	
  2507  037D                     	line	118
  2508                           	
  2509                           l2819:	
  2510  037D                     ;source.c: 118:             TRISDbits.TRISD0 = mode;
  2511                           	rrf	(pinMode@mode),w
  2512  037D  0C70               	bsf	status, 5	;RP0=1, select bank1
  2513  037E  1683               	bcf	status, 6	;RP1=0, select bank1
  2514  037F  1303               	skipc
  2515  0380  1C03               	bcf	(136)^080h,0	;volatile
  2516  0381  1008               	skipnc
  2517  0382  1803               	bsf	(136)^080h,0	;volatile
  2518  0383  1408               	line	119
  2519                           ;source.c: 119:             break;
  2520                           	goto	l179
  2521  0384  2C1B               	line	120
  2522                           ;source.c: 120:         case 17:
  2523                           	
  2524                           l171:	
  2525  0385                     	line	121
  2526                           	
  2527                           l2821:	
  2528  0385                     ;source.c: 121:             TRISDbits.TRISD1 = mode;
  2529                           	rrf	(pinMode@mode),w
  2530  0385  0C70               	bsf	status, 5	;RP0=1, select bank1
  2531  0386  1683               	bcf	status, 6	;RP1=0, select bank1
  2532  0387  1303               	skipc
  2533  0388  1C03               	bcf	(136)^080h,1	;volatile
  2534  0389  1088               	skipnc
  2535  038A  1803               	bsf	(136)^080h,1	;volatile
  2536  038B  1488               	line	122
  2537                           ;source.c: 122:             break;
  2538                           	goto	l179
  2539  038C  2C1B               	line	123
  2540                           ;source.c: 123:         case 18:
  2541                           	
  2542                           l172:	
  2543  038D                     	line	124
  2544                           	
  2545                           l2823:	
  2546  038D                     ;source.c: 124:             TRISDbits.TRISD2 = mode;
  2547                           	rrf	(pinMode@mode),w
  2548  038D  0C70               	bsf	status, 5	;RP0=1, select bank1
  2549  038E  1683               	bcf	status, 6	;RP1=0, select bank1
  2550  038F  1303               	skipc
  2551  0390  1C03               	bcf	(136)^080h,2	;volatile
  2552  0391  1108               	skipnc
  2553  0392  1803               	bsf	(136)^080h,2	;volatile
  2554  0393  1508               	line	125
  2555                           ;source.c: 125:             break;
  2556                           	goto	l179
  2557  0394  2C1B               	line	126
  2558                           ;source.c: 126:         case 19:
  2559                           	
  2560                           l173:	
  2561  0395                     	line	127
  2562                           	
  2563                           l2825:	
  2564  0395                     ;source.c: 127:             TRISDbits.TRISD3 = mode;
  2565                           	rrf	(pinMode@mode),w
  2566  0395  0C70               	bsf	status, 5	;RP0=1, select bank1
  2567  0396  1683               	bcf	status, 6	;RP1=0, select bank1
  2568  0397  1303               	skipc
  2569  0398  1C03               	bcf	(136)^080h,3	;volatile
  2570  0399  1188               	skipnc
  2571  039A  1803               	bsf	(136)^080h,3	;volatile
  2572  039B  1588               	line	128
  2573                           ;source.c: 128:             break;
  2574                           	goto	l179
  2575  039C  2C1B               	line	129
  2576                           ;source.c: 129:         case 20:
  2577                           	
  2578                           l174:	
  2579  039D                     	line	130
  2580                           	
  2581                           l2827:	
  2582  039D                     ;source.c: 130:    TRISDbits.TRISD4 = mode;
  2583                           	rrf	(pinMode@mode),w
  2584  039D  0C70               	bsf	status, 5	;RP0=1, select bank1
  2585  039E  1683               	bcf	status, 6	;RP1=0, select bank1
  2586  039F  1303               	skipc
  2587  03A0  1C03               	bcf	(136)^080h,4	;volatile
  2588  03A1  1208               	skipnc
  2589  03A2  1803               	bsf	(136)^080h,4	;volatile
  2590  03A3  1608               	line	140
  2591                           ;source.c: 140:    break;
  2592                           	goto	l179
  2593  03A4  2C1B               	line	141
  2594                           ;source.c: 141:         case 21:
  2595                           	
  2596                           l175:	
  2597  03A5                     	line	142
  2598                           	
  2599                           l2829:	
  2600  03A5                     ;source.c: 142:             TRISDbits.TRISD5 = mode;
  2601                           	rrf	(pinMode@mode),w
  2602  03A5  0C70               	bsf	status, 5	;RP0=1, select bank1
  2603  03A6  1683               	bcf	status, 6	;RP1=0, select bank1
  2604  03A7  1303               	skipc
  2605  03A8  1C03               	bcf	(136)^080h,5	;volatile
  2606  03A9  1288               	skipnc
  2607  03AA  1803               	bsf	(136)^080h,5	;volatile
  2608  03AB  1688               	line	143
  2609                           ;source.c: 143:             break;
  2610                           	goto	l179
  2611  03AC  2C1B               	line	144
  2612                           ;source.c: 144:         case 22:
  2613                           	
  2614                           l176:	
  2615  03AD                     	line	145
  2616                           	
  2617                           l2831:	
  2618  03AD                     ;source.c: 145:             TRISDbits.TRISD6 = mode;
  2619                           	rrf	(pinMode@mode),w
  2620  03AD  0C70               	bsf	status, 5	;RP0=1, select bank1
  2621  03AE  1683               	bcf	status, 6	;RP1=0, select bank1
  2622  03AF  1303               	skipc
  2623  03B0  1C03               	bcf	(136)^080h,6	;volatile
  2624  03B1  1308               	skipnc
  2625  03B2  1803               	bsf	(136)^080h,6	;volatile
  2626  03B3  1708               	line	146
  2627                           ;source.c: 146:             break;
  2628                           	goto	l179
  2629  03B4  2C1B               	line	147
  2630                           ;source.c: 147:         case 23:
  2631                           	
  2632                           l177:	
  2633  03B5                     	line	148
  2634                           	
  2635                           l2833:	
  2636  03B5                     ;source.c: 148:             TRISDbits.TRISD7 = mode;
  2637                           	rrf	(pinMode@mode),w
  2638  03B5  0C70               	bsf	status, 5	;RP0=1, select bank1
  2639  03B6  1683               	bcf	status, 6	;RP1=0, select bank1
  2640  03B7  1303               	skipc
  2641  03B8  1C03               	bcf	(136)^080h,7	;volatile
  2642  03B9  1388               	skipnc
  2643  03BA  1803               	bsf	(136)^080h,7	;volatile
  2644  03BB  1788               	line	149
  2645                           ;source.c: 149:             break;
  2646                           	goto	l179
  2647  03BC  2C1B               	line	150
  2648                           ;source.c: 150:         case 24:
  2649                           	
  2650                           l178:	
  2651  03BD                     	line	151
  2652                           	
  2653                           l2835:	
  2654  03BD                     ;source.c: 151:             TRISAbits.TRISA4 = mode;
  2655                           	rrf	(pinMode@mode),w
  2656  03BD  0C70               	bsf	status, 5	;RP0=1, select bank1
  2657  03BE  1683               	bcf	status, 6	;RP1=0, select bank1
  2658  03BF  1303               	skipc
  2659  03C0  1C03               	bcf	(133)^080h,4	;volatile
  2660  03C1  1205               	skipnc
  2661  03C2  1803               	bsf	(133)^080h,4	;volatile
  2662  03C3  1605               	line	152
  2663                           ;source.c: 152:             break;
  2664                           	goto	l179
  2665  03C4  2C1B               	line	167
  2666                           	
  2667                           l2837:	
  2668  03C5                     ;source.c: 167:     }
  2669                           	goto	l179
  2670  03C5  2C1B               	
  2671                           l152:	
  2672  03C6                     	
  2673                           l2839:	
  2674  03C6                     	movf	(pinMode@pin),w
  2675  03C6  0873               	movwf	(??_pinMode+0)+0
  2676  03C7  00F1               	clrf	(??_pinMode+0)+0+1
  2677  03C8  01F2               	; Switch on 2 bytes has been partitioned into a top level switch of size 1, and 1 sub-s
                                 witches
  2678                           ; Switch size 1, requested type "space"
  2679                           ; Number of cases is 1, Range of values is 0 to 0
  2680                           ; switch strategies available:
  2681                           ; Name         Instructions Cycles
  2682                           ; simple_byte            4     3 (average)
  2683                           ; direct_byte           11     8 (fixed)
  2684                           ; jumptable            260     6 (fixed)
  2685                           ;	Chosen strategy is simple_byte
  2686                           
  2687                           	movf 1+(??_pinMode+0)+0,w
  2688  03C9  0872               	opt asmopt_push
  2689                           	opt asmopt_off
  2690                           	xorlw	0^0	; case 0
  2691  03CA  3A00               	skipnz
  2692  03CB  1903               	goto	l3331
  2693  03CC  2BCE               	goto	l179
  2694  03CD  2C1B               	opt asmopt_pop
  2695                           	
  2696                           l3331:	
  2697  03CE                     ; Switch size 1, requested type "space"
  2698                           ; Number of cases is 25, Range of values is 0 to 24
  2699                           ; switch strategies available:
  2700                           ; Name         Instructions Cycles
  2701                           ; simple_byte           76    39 (average)
  2702                           ; direct_byte           83     8 (fixed)
  2703                           ; jumptable            260     6 (fixed)
  2704                           ;	Chosen strategy is simple_byte
  2705                           
  2706                           	movf 0+(??_pinMode+0)+0,w
  2707  03CE  0871               	opt asmopt_push
  2708                           	opt asmopt_off
  2709                           	xorlw	0^0	; case 0
  2710  03CF  3A00               	skipnz
  2711  03D0  1903               	goto	l2787
  2712  03D1  2AFD               	xorlw	1^0	; case 1
  2713  03D2  3A01               	skipnz
  2714  03D3  1903               	goto	l2789
  2715  03D4  2B05               	xorlw	2^1	; case 2
  2716  03D5  3A03               	skipnz
  2717  03D6  1903               	goto	l2791
  2718  03D7  2B0D               	xorlw	3^2	; case 3
  2719  03D8  3A01               	skipnz
  2720  03D9  1903               	goto	l2793
  2721  03DA  2B15               	xorlw	4^3	; case 4
  2722  03DB  3A07               	skipnz
  2723  03DC  1903               	goto	l2795
  2724  03DD  2B1D               	xorlw	5^4	; case 5
  2725  03DE  3A01               	skipnz
  2726  03DF  1903               	goto	l2797
  2727  03E0  2B25               	xorlw	6^5	; case 6
  2728  03E1  3A03               	skipnz
  2729  03E2  1903               	goto	l2799
  2730  03E3  2B2D               	xorlw	7^6	; case 7
  2731  03E4  3A01               	skipnz
  2732  03E5  1903               	goto	l2801
  2733  03E6  2B35               	xorlw	8^7	; case 8
  2734  03E7  3A0F               	skipnz
  2735  03E8  1903               	goto	l2803
  2736  03E9  2B3D               	xorlw	9^8	; case 9
  2737  03EA  3A01               	skipnz
  2738  03EB  1903               	goto	l2805
  2739  03EC  2B45               	xorlw	10^9	; case 10
  2740  03ED  3A03               	skipnz
  2741  03EE  1903               	goto	l2807
  2742  03EF  2B4D               	xorlw	11^10	; case 11
  2743  03F0  3A01               	skipnz
  2744  03F1  1903               	goto	l2809
  2745  03F2  2B55               	xorlw	12^11	; case 12
  2746  03F3  3A07               	skipnz
  2747  03F4  1903               	goto	l2811
  2748  03F5  2B5D               	xorlw	13^12	; case 13
  2749  03F6  3A01               	skipnz
  2750  03F7  1903               	goto	l2813
  2751  03F8  2B65               	xorlw	14^13	; case 14
  2752  03F9  3A03               	skipnz
  2753  03FA  1903               	goto	l2815
  2754  03FB  2B6D               	xorlw	15^14	; case 15
  2755  03FC  3A01               	skipnz
  2756  03FD  1903               	goto	l2817
  2757  03FE  2B75               	xorlw	16^15	; case 16
  2758  03FF  3A1F               	skipnz
  2759  0400  1903               	goto	l2819
  2760  0401  2B7D               	xorlw	17^16	; case 17
  2761  0402  3A01               	skipnz
  2762  0403  1903               	goto	l2821
  2763  0404  2B85               	xorlw	18^17	; case 18
  2764  0405  3A03               	skipnz
  2765  0406  1903               	goto	l2823
  2766  0407  2B8D               	xorlw	19^18	; case 19
  2767  0408  3A01               	skipnz
  2768  0409  1903               	goto	l2825
  2769  040A  2B95               	xorlw	20^19	; case 20
  2770  040B  3A07               	skipnz
  2771  040C  1903               	goto	l2827
  2772  040D  2B9D               	xorlw	21^20	; case 21
  2773  040E  3A01               	skipnz
  2774  040F  1903               	goto	l2829
  2775  0410  2BA5               	xorlw	22^21	; case 22
  2776  0411  3A03               	skipnz
  2777  0412  1903               	goto	l2831
  2778  0413  2BAD               	xorlw	23^22	; case 23
  2779  0414  3A01               	skipnz
  2780  0415  1903               	goto	l2833
  2781  0416  2BB5               	xorlw	24^23	; case 24
  2782  0417  3A0F               	skipnz
  2783  0418  1903               	goto	l2835
  2784  0419  2BBD               	goto	l179
  2785  041A  2C1B               	opt asmopt_pop
  2786                           
  2787                           	
  2788                           l154:	
  2789  041B                     	line	168
  2790                           	
  2791                           l179:	
  2792  041B                     	return
  2793  041B  0008               	opt stack 0
  2794                           GLOBAL	__end_of_pinMode
  2795                           	__end_of_pinMode:
  2796  041C                     	signat	_pinMode,8313
  2797                           	global	_loop
  2798                           
  2799 ;; *************** function _loop *****************
  2800 ;; Defined at:
  2801 ;;		line 57 in file "CodigoYoselinYDiana.c"
  2802 ;; Parameters:    Size  Location     Type
  2803 ;;		None
  2804 ;; Auto vars:     Size  Location     Type
  2805 ;;  i               1   16[BANK0 ] unsigned char 
  2806 ;; Return value:  Size  Location     Type
  2807 ;;                  1    wreg      void 
  2808 ;; Registers used:
  2809 ;;		wreg, fsr0l, fsr0h, status,2, status,0, btemp+1, pclath, cstack
  2810 ;; Tracked objects:
  2811 ;;		On entry : 0/0
  2812 ;;		On exit  : 0/0
  2813 ;;		Unchanged: 0/0
  2814 ;; Data sizes:     COMMON   BANK0   BANK1   BANK3   BANK2
  2815 ;;      Params:         0       0       0       0       0
  2816 ;;      Locals:         0       1       0       0       0
  2817 ;;      Temps:          0       2       0       0       0
  2818 ;;      Totals:         0       3       0       0       0
  2819 ;;Total ram usage:        3 bytes
  2820 ;; Hardware stack levels used:    1
  2821 ;; Hardware stack levels required when called:    6
  2822 ;; This function calls:
  2823 ;;		_ModoApagado
  2824 ;;		_ModoEncendido
  2825 ;;		_PBRead
  2826 ;;		_delay
  2827 ;;		_digitalWrite
  2828 ;;		_lcdClear
  2829 ;; This function is called by:
  2830 ;;		_main
  2831 ;; This function uses a non-reentrant model
  2832 ;;
  2833                           psect	text4,local,class=CODE,delta=2,merge=1,group=0
  2834                           	file	"CodigoYoselinYDiana.c"
  2835                           	line	57
  2836                           global __ptext4
  2837                           __ptext4:	;psect for function _loop
  2838  0012                     psect	text4
  2839                           	file	"CodigoYoselinYDiana.c"
  2840                           	line	57
  2841                           	global	__size_of_loop
  2842                           	__size_of_loop	equ	__end_of_loop-_loop
  2843  00D7                     	
  2844                           _loop:	
  2845  0012                     ;incstack = 0
  2846                           	opt	stack 1
  2847                           ; Regs used in _loop: [wreg-fsr0h+status,2+status,0+btemp+1+pclath+cstack]
  2848                           	line	59
  2849                           	
  2850                           l3071:	
  2851  0012                     ;CodigoYoselinYDiana.c: 59:  switch(Estado)
  2852                           	goto	l3115
  2853  0012  28D6               	line	61
  2854                           ;CodigoYoselinYDiana.c: 60:  {;CodigoYoselinYDiana.c: 61:   case Apagado:
  2855                           	
  2856                           l451:	
  2857  0013                     	line	62
  2858                           	
  2859                           l3073:	
  2860  0013                     ;CodigoYoselinYDiana.c: 62:    ModoApagado();
  2861                           	fcall	_ModoApagado
  2862  0013  120A  158A  22C8  120A  118A  	line	63
  2863                           	
  2864                           l3075:	
  2865  0018                     ;CodigoYoselinYDiana.c: 63:    if(PBRead(ControlEncendido) == 1)
  2866                           	movlw	low((_ControlEncendido-__stringbase))
  2867  0018  300D               	movwf	fsr0
  2868  0019  0084               	fcall	stringdir
  2869  001A  120A  158A  200A  120A  118A  	fcall	_PBRead
  2870  001F  120A  158A  231B  120A  118A  	xorlw	01h
  2871  0024  3A01               	skipz
  2872  0025  1D03               	goto	u1251
  2873  0026  2828               	goto	u1250
  2874  0027  2829               u1251:
  2875  0028                     	goto	l452
  2876  0028  284D               u1250:
  2877  0029                     	line	65
  2878                           	
  2879                           l3077:	
  2880  0029                     ;CodigoYoselinYDiana.c: 64:    {;CodigoYoselinYDiana.c: 65:     delay(200);
  2881                           	movlw	0C8h
  2882  0029  30C8               	movwf	(delay@milis)
  2883  002A  00F0               	movlw	0
  2884  002B  3000               	movwf	((delay@milis))+1
  2885  002C  00F1               	fcall	_delay
  2886  002D  120A  158A  241D  120A  118A  	line	66
  2887                           	
  2888                           l3079:	
  2889  0032                     ;CodigoYoselinYDiana.c: 66:     if(PBRead(ControlEncendido) == 1)
  2890                           	movlw	low((_ControlEncendido-__stringbase))
  2891  0032  300D               	movwf	fsr0
  2892  0033  0084               	fcall	stringdir
  2893  0034  120A  158A  200A  120A  118A  	fcall	_PBRead
  2894  0039  120A  158A  231B  120A  118A  	xorlw	01h
  2895  003E  3A01               	skipz
  2896  003F  1D03               	goto	u1261
  2897  0040  2842               	goto	u1260
  2898  0041  2843               u1261:
  2899  0042                     	goto	l462
  2900  0042  28E8               u1260:
  2901  0043                     	line	68
  2902                           	
  2903                           l3081:	
  2904  0043                     ;CodigoYoselinYDiana.c: 67:     {;CodigoYoselinYDiana.c: 68:      Estado = Encendido;
  2905                           	bcf	status, 5	;RP0=0, select bank0
  2906  0043  1283               	bcf	status, 6	;RP1=0, select bank0
  2907  0044  1303               	clrf	(_Estado)
  2908  0045  01E3               	line	69
  2909                           	
  2910                           l3083:	
  2911  0046                     ;CodigoYoselinYDiana.c: 69:                     lcdClear();
  2912                           	fcall	_lcdClear
  2913  0046  120A  158A  226D  120A  118A  	goto	l462
  2914  004B  28E8               	line	70
  2915                           ;CodigoYoselinYDiana.c: 70:     }
  2916                           	
  2917                           l453:	
  2918  004C                     	line	71
  2919                           ;CodigoYoselinYDiana.c: 71:    }
  2920                           	goto	l462
  2921  004C  28E8               	line	72
  2922                           ;CodigoYoselinYDiana.c: 72:    else
  2923                           	
  2924                           l452:	
  2925  004D                     	line	74
  2926                           ;CodigoYoselinYDiana.c: 73:    {;CodigoYoselinYDiana.c: 74:     Estado = Apagado;
  2927                           	bcf	status, 5	;RP0=0, select bank0
  2928  004D  1283               	bcf	status, 6	;RP1=0, select bank0
  2929  004E  1303               	clrf	(_Estado)
  2930  004F  01E3               	incf	(_Estado),f
  2931  0050  0AE3               	goto	l462
  2932  0051  28E8               	line	75
  2933                           ;CodigoYoselinYDiana.c: 75:    }
  2934                           	
  2935                           l454:	
  2936  0052                     	line	76
  2937                           ;CodigoYoselinYDiana.c: 76:   break;
  2938                           	goto	l462
  2939  0052  28E8               	line	77
  2940                           ;CodigoYoselinYDiana.c: 77:   case Encendido:
  2941                           	
  2942                           l456:	
  2943  0053                     	line	78
  2944                           	
  2945                           l3085:	
  2946  0053                     ;CodigoYoselinYDiana.c: 78:    ModoEncendido();
  2947                           	fcall	_ModoEncendido
  2948  0053  120A  118A  21E9  120A  118A  	line	79
  2949                           	
  2950                           l3087:	
  2951  0058                     ;CodigoYoselinYDiana.c: 79:    if(PBRead(ControlEncendido) == 1)
  2952                           	movlw	low((_ControlEncendido-__stringbase))
  2953  0058  300D               	movwf	fsr0
  2954  0059  0084               	fcall	stringdir
  2955  005A  120A  158A  200A  120A  118A  	fcall	_PBRead
  2956  005F  120A  158A  231B  120A  118A  	xorlw	01h
  2957  0064  3A01               	skipz
  2958  0065  1D03               	goto	u1271
  2959  0066  2868               	goto	u1270
  2960  0067  2869               u1271:
  2961  0068                     	goto	l3111
  2962  0068  28D0               u1270:
  2963  0069                     	line	81
  2964                           	
  2965                           l3089:	
  2966  0069                     ;CodigoYoselinYDiana.c: 80:    {;CodigoYoselinYDiana.c: 81:     delay(200);
  2967                           	movlw	0C8h
  2968  0069  30C8               	movwf	(delay@milis)
  2969  006A  00F0               	movlw	0
  2970  006B  3000               	movwf	((delay@milis))+1
  2971  006C  00F1               	fcall	_delay
  2972  006D  120A  158A  241D  120A  118A  	line	82
  2973                           	
  2974                           l3091:	
  2975  0072                     ;CodigoYoselinYDiana.c: 82:     if(PBRead(ControlEncendido) == 1)
  2976                           	movlw	low((_ControlEncendido-__stringbase))
  2977  0072  300D               	movwf	fsr0
  2978  0073  0084               	fcall	stringdir
  2979  0074  120A  158A  200A  120A  118A  	fcall	_PBRead
  2980  0079  120A  158A  231B  120A  118A  	xorlw	01h
  2981  007E  3A01               	skipz
  2982  007F  1D03               	goto	u1281
  2983  0080  2882               	goto	u1280
  2984  0081  2883               u1281:
  2985  0082                     	goto	l462
  2986  0082  28E8               u1280:
  2987  0083                     	line	84
  2988                           	
  2989                           l3093:	
  2990  0083                     ;CodigoYoselinYDiana.c: 83:     {;CodigoYoselinYDiana.c: 84:                     lcdClea
                                 r();
  2991                           	fcall	_lcdClear
  2992  0083  120A  158A  226D  120A  118A  	line	85
  2993                           	
  2994                           l3095:	
  2995  0088                     ;CodigoYoselinYDiana.c: 85:                     for(char i=0;i<5;i++)
  2996                           	bcf	status, 5	;RP0=0, select bank0
  2997  0088  1283               	bcf	status, 6	;RP1=0, select bank0
  2998  0089  1303               	clrf	(loop@i)
  2999  008A  01D4               	
  3000                           l3097:	
  3001  008B                     	movlw	low(05h)
  3002  008B  3005               	subwf	(loop@i),w
  3003  008C  0254               	skipc
  3004  008D  1C03               	goto	u1291
  3005  008E  2890               	goto	u1290
  3006  008F  2891               u1291:
  3007  0090                     	goto	l3101
  3008  0090  2893               u1290:
  3009  0091                     	goto	l460
  3010  0091  28CC               	
  3011                           l3099:	
  3012  0092                     	goto	l460
  3013  0092  28CC               	
  3014                           l459:	
  3015  0093                     	line	87
  3016                           	
  3017                           l3101:	
  3018  0093                     ;CodigoYoselinYDiana.c: 86:                     {;CodigoYoselinYDiana.c: 87:            
                                              digitalWrite(Alarma,1);
  3019                           	clrf	(digitalWrite@value)
  3020  0093  01F0               	incf	(digitalWrite@value),f
  3021  0094  0AF0               	movlw	low((_Alarma-__stringbase))
  3022  0095  300F               	movwf	fsr0
  3023  0096  0084               	fcall	stringdir
  3024  0097  120A  158A  200A  120A  118A  	fcall	_digitalWrite
  3025  009C  120A  118A  241C  120A  118A  	line	88
  3026                           	
  3027                           l3103:	
  3028  00A1                     ;CodigoYoselinYDiana.c: 88:                         delay(250);
  3029                           	movlw	0FAh
  3030  00A1  30FA               	movwf	(delay@milis)
  3031  00A2  00F0               	movlw	0
  3032  00A3  3000               	movwf	((delay@milis))+1
  3033  00A4  00F1               	fcall	_delay
  3034  00A5  120A  158A  241D  120A  118A  	line	89
  3035                           	
  3036                           l3105:	
  3037  00AA                     ;CodigoYoselinYDiana.c: 89:                         digitalWrite(Alarma,0);
  3038                           	clrf	(digitalWrite@value)
  3039  00AA  01F0               	movlw	low((_Alarma-__stringbase))
  3040  00AB  300F               	movwf	fsr0
  3041  00AC  0084               	fcall	stringdir
  3042  00AD  120A  158A  200A  120A  118A  	fcall	_digitalWrite
  3043  00B2  120A  118A  241C  120A  118A  	line	90
  3044                           ;CodigoYoselinYDiana.c: 90:                         delay(250);
  3045                           	movlw	0FAh
  3046  00B7  30FA               	movwf	(delay@milis)
  3047  00B8  00F0               	movlw	0
  3048  00B9  3000               	movwf	((delay@milis))+1
  3049  00BA  00F1               	fcall	_delay
  3050  00BB  120A  158A  241D  120A  118A  	line	91
  3051                           	
  3052                           l3107:	
  3053  00C0                     ;CodigoYoselinYDiana.c: 91:                     }
  3054                           	movlw	low(01h)
  3055  00C0  3001               	bcf	status, 5	;RP0=0, select bank0
  3056  00C1  1283               	bcf	status, 6	;RP1=0, select bank0
  3057  00C2  1303               	movwf	(??_loop+0)+0
  3058  00C3  00D2               	movf	(??_loop+0)+0,w
  3059  00C4  0852               	addwf	(loop@i),f
  3060  00C5  07D4               	
  3061                           l3109:	
  3062  00C6                     	movlw	low(05h)
  3063  00C6  3005               	subwf	(loop@i),w
  3064  00C7  0254               	skipc
  3065  00C8  1C03               	goto	u1301
  3066  00C9  28CB               	goto	u1300
  3067  00CA  28CC               u1301:
  3068  00CB                     	goto	l3101
  3069  00CB  2893               u1300:
  3070  00CC                     	
  3071                           l460:	
  3072  00CC                     	line	92
  3073                           ;CodigoYoselinYDiana.c: 92:      Estado = Apagado;
  3074                           	clrf	(_Estado)
  3075  00CC  01E3               	incf	(_Estado),f
  3076  00CD  0AE3               	goto	l462
  3077  00CE  28E8               	line	93
  3078                           ;CodigoYoselinYDiana.c: 93:     }
  3079                           	
  3080                           l458:	
  3081  00CF                     	line	94
  3082                           ;CodigoYoselinYDiana.c: 94:    }
  3083                           	goto	l462
  3084  00CF  28E8               	line	95
  3085                           ;CodigoYoselinYDiana.c: 95:    else
  3086                           	
  3087                           l457:	
  3088  00D0                     	line	97
  3089                           	
  3090                           l3111:	
  3091  00D0                     ;CodigoYoselinYDiana.c: 96:    {;CodigoYoselinYDiana.c: 97:     Estado = Encendido;
  3092                           	bcf	status, 5	;RP0=0, select bank0
  3093  00D0  1283               	bcf	status, 6	;RP1=0, select bank0
  3094  00D1  1303               	clrf	(_Estado)
  3095  00D2  01E3               	goto	l462
  3096  00D3  28E8               	line	98
  3097                           ;CodigoYoselinYDiana.c: 98:    }
  3098                           	
  3099                           l461:	
  3100  00D4                     	line	99
  3101                           ;CodigoYoselinYDiana.c: 99:   break;
  3102                           	goto	l462
  3103  00D4  28E8               	line	100
  3104                           	
  3105                           l3113:	
  3106  00D5                     ;CodigoYoselinYDiana.c: 100:  }
  3107                           	goto	l462
  3108  00D5  28E8               	
  3109                           l450:	
  3110  00D6                     	
  3111                           l3115:	
  3112  00D6                     	bcf	status, 5	;RP0=0, select bank0
  3113  00D6  1283               	bcf	status, 6	;RP1=0, select bank0
  3114  00D7  1303               	movf	(_Estado),w
  3115  00D8  0863               	movwf	(??_loop+0)+0
  3116  00D9  00D2               	clrf	(??_loop+0)+0+1
  3117  00DA  01D3               	; Switch on 2 bytes has been partitioned into a top level switch of size 1, and 1 sub-s
                                 witches
  3118                           ; Switch size 1, requested type "space"
  3119                           ; Number of cases is 1, Range of values is 0 to 0
  3120                           ; switch strategies available:
  3121                           ; Name         Instructions Cycles
  3122                           ; simple_byte            4     3 (average)
  3123                           ; direct_byte           11     8 (fixed)
  3124                           ; jumptable            260     6 (fixed)
  3125                           ;	Chosen strategy is simple_byte
  3126                           
  3127                           	movf 1+(??_loop+0)+0,w
  3128  00DB  0853               	opt asmopt_push
  3129                           	opt asmopt_off
  3130                           	xorlw	0^0	; case 0
  3131  00DC  3A00               	skipnz
  3132  00DD  1903               	goto	l3333
  3133  00DE  28E0               	goto	l462
  3134  00DF  28E8               	opt asmopt_pop
  3135                           	
  3136                           l3333:	
  3137  00E0                     ; Switch size 1, requested type "space"
  3138                           ; Number of cases is 2, Range of values is 0 to 1
  3139                           ; switch strategies available:
  3140                           ; Name         Instructions Cycles
  3141                           ; simple_byte            7     4 (average)
  3142                           ; direct_byte           14     8 (fixed)
  3143                           ; jumptable            260     6 (fixed)
  3144                           ;	Chosen strategy is simple_byte
  3145                           
  3146                           	movf 0+(??_loop+0)+0,w
  3147  00E0  0852               	opt asmopt_push
  3148                           	opt asmopt_off
  3149                           	xorlw	0^0	; case 0
  3150  00E1  3A00               	skipnz
  3151  00E2  1903               	goto	l3085
  3152  00E3  2853               	xorlw	1^0	; case 1
  3153  00E4  3A01               	skipnz
  3154  00E5  1903               	goto	l3073
  3155  00E6  2813               	goto	l462
  3156  00E7  28E8               	opt asmopt_pop
  3157                           
  3158                           	
  3159                           l455:	
  3160  00E8                     	line	101
  3161                           	
  3162                           l462:	
  3163  00E8                     	return
  3164  00E8  0008               	opt stack 0
  3165                           GLOBAL	__end_of_loop
  3166                           	__end_of_loop:
  3167  00E9                     	signat	_loop,89
  3168                           	global	_lcdClear
  3169                           
  3170 ;; *************** function _lcdClear *****************
  3171 ;; Defined at:
  3172 ;;		line 45 in file "LCD16x2.c"
  3173 ;; Parameters:    Size  Location     Type
  3174 ;;		None
  3175 ;; Auto vars:     Size  Location     Type
  3176 ;;		None
  3177 ;; Return value:  Size  Location     Type
  3178 ;;                  1    wreg      void 
  3179 ;; Registers used:
  3180 ;;		wreg, fsr0l, fsr0h, status,2, status,0, btemp+1, pclath, cstack
  3181 ;; Tracked objects:
  3182 ;;		On entry : 0/0
  3183 ;;		On exit  : 0/0
  3184 ;;		Unchanged: 0/0
  3185 ;; Data sizes:     COMMON   BANK0   BANK1   BANK3   BANK2
  3186 ;;      Params:         0       0       0       0       0
  3187 ;;      Locals:         0       0       0       0       0
  3188 ;;      Temps:          0       0       0       0       0
  3189 ;;      Totals:         0       0       0       0       0
  3190 ;;Total ram usage:        0 bytes
  3191 ;; Hardware stack levels used:    1
  3192 ;; Hardware stack levels required when called:    3
  3193 ;; This function calls:
  3194 ;;		_WriteInstruction
  3195 ;; This function is called by:
  3196 ;;		_setup
  3197 ;;		_loop
  3198 ;; This function uses a non-reentrant model
  3199 ;;
  3200                           psect	text5,local,class=CODE,delta=2,merge=1,group=0
  3201                           	file	"LCD16x2.c"
  3202                           	line	45
  3203                           global __ptext5
  3204                           __ptext5:	;psect for function _lcdClear
  3205  0A6D                     psect	text5
  3206                           	file	"LCD16x2.c"
  3207                           	line	45
  3208                           	global	__size_of_lcdClear
  3209                           	__size_of_lcdClear	equ	__end_of_lcdClear-_lcdClear
  3210  0007                     	
  3211                           _lcdClear:	
  3212  0A6D                     ;incstack = 0
  3213                           	opt	stack 3
  3214                           ; Regs used in _lcdClear: [wreg-fsr0h+status,2+status,0+btemp+1+pclath+cstack]
  3215                           	line	47
  3216                           	
  3217                           l3023:	
  3218  0A6D                     ;LCD16x2.c: 47:     WriteInstruction(0x01);
  3219                           	movlw	low(01h)
  3220  0A6D  3001               	fcall	_WriteInstruction
  3221  0A6E  120A  158A  2551  120A  158A  	line	48
  3222                           	
  3223                           l535:	
  3224  0A73                     	return
  3225  0A73  0008               	opt stack 0
  3226                           GLOBAL	__end_of_lcdClear
  3227                           	__end_of_lcdClear:
  3228  0A74                     	signat	_lcdClear,89
  3229                           	global	_PBRead
  3230                           
  3231 ;; *************** function _PBRead *****************
  3232 ;; Defined at:
  3233 ;;		line 430 in file "source.c"
  3234 ;; Parameters:    Size  Location     Type
  3235 ;;  pin             1    wreg     unsigned char 
  3236 ;; Auto vars:     Size  Location     Type
  3237 ;;  pin             1    2[COMMON] unsigned char 
  3238 ;; Return value:  Size  Location     Type
  3239 ;;                  1    wreg      unsigned char 
  3240 ;; Registers used:
  3241 ;;		wreg, fsr0l, fsr0h, status,2, status,0
  3242 ;; Tracked objects:
  3243 ;;		On entry : 0/0
  3244 ;;		On exit  : 0/0
  3245 ;;		Unchanged: 0/0
  3246 ;; Data sizes:     COMMON   BANK0   BANK1   BANK3   BANK2
  3247 ;;      Params:         0       0       0       0       0
  3248 ;;      Locals:         1       0       0       0       0
  3249 ;;      Temps:          2       0       0       0       0
  3250 ;;      Totals:         3       0       0       0       0
  3251 ;;Total ram usage:        3 bytes
  3252 ;; Hardware stack levels used:    1
  3253 ;; This function calls:
  3254 ;;		Nothing
  3255 ;; This function is called by:
  3256 ;;		_loop
  3257 ;; This function uses a non-reentrant model
  3258 ;;
  3259                           psect	text6,local,class=CODE,delta=2,merge=1,group=0
  3260                           	file	"source.c"
  3261                           	line	430
  3262                           global __ptext6
  3263                           __ptext6:	;psect for function _PBRead
  3264  0B1B                     psect	text6
  3265                           	file	"source.c"
  3266                           	line	430
  3267                           	global	__size_of_PBRead
  3268                           	__size_of_PBRead	equ	__end_of_PBRead-_PBRead
  3269  002E                     	
  3270                           _PBRead:	
  3271  0B1B                     ;incstack = 0
  3272                           	opt	stack 6
  3273                           ; Regs used in _PBRead: [wreg-fsr0h+status,2+status,0]
  3274                           ;PBRead@pin stored from wreg
  3275                           	movwf	(PBRead@pin)
  3276  0B1B  00F2               	line	432
  3277                           	
  3278                           l2967:	
  3279  0B1C                     ;source.c: 430: char PBRead(char pin);source.c: 431: {;source.c: 432:     switch(pin)
  3280                           	goto	l2989
  3281  0B1C  2B35               	line	434
  3282                           ;source.c: 433:     {;source.c: 434:         case 0:
  3283                           	
  3284                           l275:	
  3285  0B1D                     	line	435
  3286                           	
  3287                           l2969:	
  3288  0B1D                     ;source.c: 435:             return PORTEbits.RE0;
  3289                           	bcf	status, 5	;RP0=0, select bank0
  3290  0B1D  1283               	bcf	status, 6	;RP1=0, select bank0
  3291  0B1E  1303               	movf	(9),w	;volatile
  3292  0B1F  0809               	andlw	(1<<1)-1
  3293  0B20  3901               	goto	l276
  3294  0B21  2B48               	
  3295                           l2971:	
  3296  0B22                     	goto	l276
  3297  0B22  2B48               	line	436
  3298                           	
  3299                           l2973:	
  3300  0B23                     ;source.c: 436:             break;
  3301                           	goto	l276
  3302  0B23  2B48               	line	437
  3303                           ;source.c: 437:         case 1:
  3304                           	
  3305                           l278:	
  3306  0B24                     	line	438
  3307                           	
  3308                           l2975:	
  3309  0B24                     ;source.c: 438:             return PORTEbits.RE1;
  3310                           	bcf	status, 5	;RP0=0, select bank0
  3311  0B24  1283               	bcf	status, 6	;RP1=0, select bank0
  3312  0B25  1303               	rrf	(9),w	;volatile
  3313  0B26  0C09               	andlw	(1<<1)-1
  3314  0B27  3901               	goto	l276
  3315  0B28  2B48               	
  3316                           l2977:	
  3317  0B29                     	goto	l276
  3318  0B29  2B48               	line	439
  3319                           	
  3320                           l2979:	
  3321  0B2A                     ;source.c: 439:             break;
  3322                           	goto	l276
  3323  0B2A  2B48               	line	440
  3324                           ;source.c: 440:         case 2:
  3325                           	
  3326                           l279:	
  3327  0B2B                     	line	441
  3328                           	
  3329                           l2981:	
  3330  0B2B                     ;source.c: 441:             return PORTEbits.RE2;
  3331                           	bcf	status, 5	;RP0=0, select bank0
  3332  0B2B  1283               	bcf	status, 6	;RP1=0, select bank0
  3333  0B2C  1303               	rrf	(9),w	;volatile
  3334  0B2D  0C09               	movwf	(??_PBRead+0)+0
  3335  0B2E  00F0               	rrf	(??_PBRead+0)+0,w
  3336  0B2F  0C70               	andlw	(1<<1)-1
  3337  0B30  3901               	goto	l276
  3338  0B31  2B48               	
  3339                           l2983:	
  3340  0B32                     	goto	l276
  3341  0B32  2B48               	line	442
  3342                           	
  3343                           l2985:	
  3344  0B33                     ;source.c: 442:             break;
  3345                           	goto	l276
  3346  0B33  2B48               	line	443
  3347                           	
  3348                           l2987:	
  3349  0B34                     ;source.c: 443:     }
  3350                           	goto	l276
  3351  0B34  2B48               	
  3352                           l274:	
  3353  0B35                     	
  3354                           l2989:	
  3355  0B35                     	movf	(PBRead@pin),w
  3356  0B35  0872               	movwf	(??_PBRead+0)+0
  3357  0B36  00F0               	clrf	(??_PBRead+0)+0+1
  3358  0B37  01F1               	; Switch on 2 bytes has been partitioned into a top level switch of size 1, and 1 sub-s
                                 witches
  3359                           ; Switch size 1, requested type "space"
  3360                           ; Number of cases is 1, Range of values is 0 to 0
  3361                           ; switch strategies available:
  3362                           ; Name         Instructions Cycles
  3363                           ; simple_byte            4     3 (average)
  3364                           ; direct_byte           11     8 (fixed)
  3365                           ; jumptable            260     6 (fixed)
  3366                           ;	Chosen strategy is simple_byte
  3367                           
  3368                           	movf 1+(??_PBRead+0)+0,w
  3369  0B38  0871               	opt asmopt_push
  3370                           	opt asmopt_off
  3371                           	xorlw	0^0	; case 0
  3372  0B39  3A00               	skipnz
  3373  0B3A  1903               	goto	l3335
  3374  0B3B  2B3D               	goto	l276
  3375  0B3C  2B48               	opt asmopt_pop
  3376                           	
  3377                           l3335:	
  3378  0B3D                     ; Switch size 1, requested type "space"
  3379                           ; Number of cases is 3, Range of values is 0 to 2
  3380                           ; switch strategies available:
  3381                           ; Name         Instructions Cycles
  3382                           ; simple_byte           10     6 (average)
  3383                           ; direct_byte           17     8 (fixed)
  3384                           ; jumptable            260     6 (fixed)
  3385                           ;	Chosen strategy is simple_byte
  3386                           
  3387                           	movf 0+(??_PBRead+0)+0,w
  3388  0B3D  0870               	opt asmopt_push
  3389                           	opt asmopt_off
  3390                           	xorlw	0^0	; case 0
  3391  0B3E  3A00               	skipnz
  3392  0B3F  1903               	goto	l2969
  3393  0B40  2B1D               	xorlw	1^0	; case 1
  3394  0B41  3A01               	skipnz
  3395  0B42  1903               	goto	l2975
  3396  0B43  2B24               	xorlw	2^1	; case 2
  3397  0B44  3A03               	skipnz
  3398  0B45  1903               	goto	l2981
  3399  0B46  2B2B               	goto	l276
  3400  0B47  2B48               	opt asmopt_pop
  3401                           
  3402                           	
  3403                           l277:	
  3404  0B48                     	line	444
  3405                           	
  3406                           l276:	
  3407  0B48                     	return
  3408  0B48  0008               	opt stack 0
  3409                           GLOBAL	__end_of_PBRead
  3410                           	__end_of_PBRead:
  3411  0B49                     	signat	_PBRead,4217
  3412                           	global	_ModoEncendido
  3413                           
  3414 ;; *************** function _ModoEncendido *****************
  3415 ;; Defined at:
  3416 ;;		line 115 in file "CodigoYoselinYDiana.c"
  3417 ;; Parameters:    Size  Location     Type
  3418 ;;		None
  3419 ;; Auto vars:     Size  Location     Type
  3420 ;;		None
  3421 ;; Return value:  Size  Location     Type
  3422 ;;                  1    wreg      void 
  3423 ;; Registers used:
  3424 ;;		wreg, fsr0l, fsr0h, status,2, status,0, btemp+1, pclath, cstack
  3425 ;; Tracked objects:
  3426 ;;		On entry : 0/0
  3427 ;;		On exit  : 0/0
  3428 ;;		Unchanged: 0/0
  3429 ;; Data sizes:     COMMON   BANK0   BANK1   BANK3   BANK2
  3430 ;;      Params:         0       0       0       0       0
  3431 ;;      Locals:         0       0       0       0       0
  3432 ;;      Temps:          0       1       0       0       0
  3433 ;;      Totals:         0       1       0       0       0
  3434 ;;Total ram usage:        1 bytes
  3435 ;; Hardware stack levels used:    1
  3436 ;; Hardware stack levels required when called:    5
  3437 ;; This function calls:
  3438 ;;		_Contador
  3439 ;;		_MotorDC
  3440 ;;		_digitalWrite
  3441 ;;		_lcdPrint
  3442 ;;		_lcdSetCursor
  3443 ;;		_sprintf
  3444 ;; This function is called by:
  3445 ;;		_loop
  3446 ;; This function uses a non-reentrant model
  3447 ;;
  3448                           psect	text7,local,class=CODE,delta=2,merge=1,group=0
  3449                           	file	"CodigoYoselinYDiana.c"
  3450                           	line	115
  3451                           global __ptext7
  3452                           __ptext7:	;psect for function _ModoEncendido
  3453  01E9                     psect	text7
  3454                           	file	"CodigoYoselinYDiana.c"
  3455                           	line	115
  3456                           	global	__size_of_ModoEncendido
  3457                           	__size_of_ModoEncendido	equ	__end_of_ModoEncendido-_ModoEncendido
  3458  0112                     	
  3459                           _ModoEncendido:	
  3460  01E9                     ;incstack = 0
  3461                           	opt	stack 1
  3462                           ; Regs used in _ModoEncendido: [wreg-fsr0h+status,2+status,0+btemp+1+pclath+cstack]
  3463                           	line	118
  3464                           	
  3465                           l3027:	
  3466  01E9                     ;CodigoYoselinYDiana.c: 117:     static int contar;;CodigoYoselinYDiana.c: 118:  contar 
                                 = Contador(0);
  3467                           	movlw	0
  3468  01E9  3000               	movwf	(Contador@mode)
  3469  01EA  00F7               	movwf	(Contador@mode+1)
  3470  01EB  00F8               	fcall	_Contador
  3471  01EC  120A  158A  24D1  120A  118A  	movf	(1+(?_Contador)),w
  3472  01F1  0878               	bcf	status, 5	;RP0=0, select bank0
  3473  01F2  1283               	bcf	status, 6	;RP1=0, select bank0
  3474  01F3  1303               	movwf	(ModoEncendido@contar+1)
  3475  01F4  00B3               	movf	(0+(?_Contador)),w
  3476  01F5  0877               	movwf	(ModoEncendido@contar)
  3477  01F6  00B2               	line	119
  3478                           ;CodigoYoselinYDiana.c: 119:     lcdSetCursor(1,1);
  3479                           	clrf	(lcdSetCursor@column)
  3480  01F7  01FC               	incf	(lcdSetCursor@column),f
  3481  01F8  0AFC               	movlw	low(01h)
  3482  01F9  3001               	fcall	_lcdSetCursor
  3483  01FA  120A  158A  22EF  120A  118A  	line	120
  3484                           ;CodigoYoselinYDiana.c: 120:     sprintf(FirstROW,"Contador %i: ",contar);
  3485                           	movlw	(low((((STR_3)-__stringbase)|8000h)))&0ffh
  3486  01FF  3048               	bcf	status, 5	;RP0=0, select bank0
  3487  0200  1283               	bcf	status, 6	;RP1=0, select bank0
  3488  0201  1303               	movwf	(??_ModoEncendido+0)+0
  3489  0202  00D1               	movf	(??_ModoEncendido+0)+0,w
  3490  0203  0851               	movwf	(sprintf@f)
  3491  0204  00C4               	movf	(ModoEncendido@contar+1),w
  3492  0205  0833               	movwf	1+(?_sprintf)+01h
  3493  0206  00C6               	movf	(ModoEncendido@contar),w
  3494  0207  0832               	movwf	0+(?_sprintf)+01h
  3495  0208  00C5               	movlw	(low(_FirstROW|((0x0)<<8)))&0ffh
  3496  0209  3034               	fcall	_sprintf
  3497  020A  120A  118A  20E9  120A  118A  	line	121
  3498                           ;CodigoYoselinYDiana.c: 121:     lcdPrint(FirstROW);
  3499                           	movlw	(low(_FirstROW|((0x0)<<8))&0ffh)
  3500  020F  3034               	bcf	status, 5	;RP0=0, select bank0
  3501  0210  1283               	bcf	status, 6	;RP1=0, select bank0
  3502  0211  1303               	movwf	(lcdPrint@string)
  3503  0212  00C4               	movlw	(0x0)
  3504  0213  3000               	movwf	(lcdPrint@string+1)
  3505  0214  00C5               	fcall	_lcdPrint
  3506  0215  120A  158A  238A  120A  118A  	line	122
  3507                           ;CodigoYoselinYDiana.c: 122:     lcdSetCursor(2,1);
  3508                           	clrf	(lcdSetCursor@column)
  3509  021A  01FC               	incf	(lcdSetCursor@column),f
  3510  021B  0AFC               	movlw	low(02h)
  3511  021C  3002               	fcall	_lcdSetCursor
  3512  021D  120A  158A  22EF  120A  118A  	line	123
  3513                           ;CodigoYoselinYDiana.c: 123:  switch(contar)
  3514                           	goto	l3053
  3515  0222  2ADF               	line	125
  3516                           ;CodigoYoselinYDiana.c: 124:  {;CodigoYoselinYDiana.c: 125:   case 0:
  3517                           	
  3518                           l471:	
  3519  0223                     	line	126
  3520                           	
  3521                           l3029:	
  3522  0223                     ;CodigoYoselinYDiana.c: 126:    digitalWrite(MotorAC,0);
  3523                           	clrf	(digitalWrite@value)
  3524  0223  01F0               	movlw	low((_MotorAC-__stringbase))
  3525  0224  3017               	movwf	fsr0
  3526  0225  0084               	fcall	stringdir
  3527  0226  120A  158A  200A  120A  118A  	fcall	_digitalWrite
  3528  022B  120A  118A  241C  120A  118A  	line	127
  3529                           ;CodigoYoselinYDiana.c: 127:    MotorDC(0);
  3530                           	movlw	0
  3531  0230  3000               	movwf	(MotorDC@Mode)
  3532  0231  00F4               	movwf	(MotorDC@Mode+1)
  3533  0232  00F5               	fcall	_MotorDC
  3534  0233  120A  158A  246B  120A  118A  	line	128
  3535                           	
  3536                           l3031:	
  3537  0238                     ;CodigoYoselinYDiana.c: 128:             lcdPrint("DC-OFF/AC-OFF");
  3538                           	movlw	(low((((STR_4)-__stringbase)|8000h)))&0ffh
  3539  0238  3080               	bcf	status, 5	;RP0=0, select bank0
  3540  0239  1283               	bcf	status, 6	;RP1=0, select bank0
  3541  023A  1303               	movwf	(lcdPrint@string)
  3542  023B  00C4               	movlw	80h
  3543  023C  3080               	movwf	(lcdPrint@string+1)
  3544  023D  00C5               	fcall	_lcdPrint
  3545  023E  120A  158A  238A  120A  118A  	line	129
  3546                           ;CodigoYoselinYDiana.c: 129:   break;
  3547                           	goto	l478
  3548  0243  2AFA               	line	130
  3549                           ;CodigoYoselinYDiana.c: 130:   case 1:
  3550                           	
  3551                           l473:	
  3552  0244                     	line	131
  3553                           	
  3554                           l3033:	
  3555  0244                     ;CodigoYoselinYDiana.c: 131:    digitalWrite(MotorAC,1);
  3556                           	clrf	(digitalWrite@value)
  3557  0244  01F0               	incf	(digitalWrite@value),f
  3558  0245  0AF0               	movlw	low((_MotorAC-__stringbase))
  3559  0246  3017               	movwf	fsr0
  3560  0247  0084               	fcall	stringdir
  3561  0248  120A  158A  200A  120A  118A  	fcall	_digitalWrite
  3562  024D  120A  118A  241C  120A  118A  	line	132
  3563                           ;CodigoYoselinYDiana.c: 132:    MotorDC(2);
  3564                           	movlw	02h
  3565  0252  3002               	movwf	(MotorDC@Mode)
  3566  0253  00F4               	movlw	0
  3567  0254  3000               	movwf	((MotorDC@Mode))+1
  3568  0255  00F5               	fcall	_MotorDC
  3569  0256  120A  158A  246B  120A  118A  	line	134
  3570                           	
  3571                           l3035:	
  3572  025B                     ;CodigoYoselinYDiana.c: 134:             lcdPrint("DC-DER/AC-ON ");
  3573                           	movlw	(low((((STR_5)-__stringbase)|8000h)))&0ffh
  3574  025B  3072               	bcf	status, 5	;RP0=0, select bank0
  3575  025C  1283               	bcf	status, 6	;RP1=0, select bank0
  3576  025D  1303               	movwf	(lcdPrint@string)
  3577  025E  00C4               	movlw	80h
  3578  025F  3080               	movwf	(lcdPrint@string+1)
  3579  0260  00C5               	fcall	_lcdPrint
  3580  0261  120A  158A  238A  120A  118A  	line	135
  3581                           ;CodigoYoselinYDiana.c: 135:   break;
  3582                           	goto	l478
  3583  0266  2AFA               	line	136
  3584                           ;CodigoYoselinYDiana.c: 136:   case 2:
  3585                           	
  3586                           l474:	
  3587  0267                     	line	137
  3588                           	
  3589                           l3037:	
  3590  0267                     ;CodigoYoselinYDiana.c: 137:    digitalWrite(MotorAC,0);
  3591                           	clrf	(digitalWrite@value)
  3592  0267  01F0               	movlw	low((_MotorAC-__stringbase))
  3593  0268  3017               	movwf	fsr0
  3594  0269  0084               	fcall	stringdir
  3595  026A  120A  158A  200A  120A  118A  	fcall	_digitalWrite
  3596  026F  120A  118A  241C  120A  118A  	line	138
  3597                           ;CodigoYoselinYDiana.c: 138:    MotorDC(2);
  3598                           	movlw	02h
  3599  0274  3002               	movwf	(MotorDC@Mode)
  3600  0275  00F4               	movlw	0
  3601  0276  3000               	movwf	((MotorDC@Mode))+1
  3602  0277  00F5               	fcall	_MotorDC
  3603  0278  120A  158A  246B  120A  118A  	line	139
  3604                           	
  3605                           l3039:	
  3606  027D                     ;CodigoYoselinYDiana.c: 139:             lcdPrint("DC-DER/AC-OFF");
  3607                           	movlw	(low((((STR_6)-__stringbase)|8000h)))&0ffh
  3608  027D  308E               	bcf	status, 5	;RP0=0, select bank0
  3609  027E  1283               	bcf	status, 6	;RP1=0, select bank0
  3610  027F  1303               	movwf	(lcdPrint@string)
  3611  0280  00C4               	movlw	80h
  3612  0281  3080               	movwf	(lcdPrint@string+1)
  3613  0282  00C5               	fcall	_lcdPrint
  3614  0283  120A  158A  238A  120A  118A  	line	140
  3615                           ;CodigoYoselinYDiana.c: 140:   break;
  3616                           	goto	l478
  3617  0288  2AFA               	line	141
  3618                           ;CodigoYoselinYDiana.c: 141:   case 3:
  3619                           	
  3620                           l475:	
  3621  0289                     	line	142
  3622                           	
  3623                           l3041:	
  3624  0289                     ;CodigoYoselinYDiana.c: 142:    digitalWrite(MotorAC,1);
  3625                           	clrf	(digitalWrite@value)
  3626  0289  01F0               	incf	(digitalWrite@value),f
  3627  028A  0AF0               	movlw	low((_MotorAC-__stringbase))
  3628  028B  3017               	movwf	fsr0
  3629  028C  0084               	fcall	stringdir
  3630  028D  120A  158A  200A  120A  118A  	fcall	_digitalWrite
  3631  0292  120A  118A  241C  120A  118A  	line	143
  3632                           ;CodigoYoselinYDiana.c: 143:    MotorDC(0);
  3633                           	movlw	0
  3634  0297  3000               	movwf	(MotorDC@Mode)
  3635  0298  00F4               	movwf	(MotorDC@Mode+1)
  3636  0299  00F5               	fcall	_MotorDC
  3637  029A  120A  158A  246B  120A  118A  	line	144
  3638                           	
  3639                           l3043:	
  3640  029F                     ;CodigoYoselinYDiana.c: 144:             lcdPrint("DC-OFF/AC-ON ");
  3641                           	movlw	(low((((STR_7)-__stringbase)|8000h)))&0ffh
  3642  029F  3056               	bcf	status, 5	;RP0=0, select bank0
  3643  02A0  1283               	bcf	status, 6	;RP1=0, select bank0
  3644  02A1  1303               	movwf	(lcdPrint@string)
  3645  02A2  00C4               	movlw	80h
  3646  02A3  3080               	movwf	(lcdPrint@string+1)
  3647  02A4  00C5               	fcall	_lcdPrint
  3648  02A5  120A  158A  238A  120A  118A  	line	145
  3649                           ;CodigoYoselinYDiana.c: 145:   break;
  3650                           	goto	l478
  3651  02AA  2AFA               	line	146
  3652                           ;CodigoYoselinYDiana.c: 146:   case 4:
  3653                           	
  3654                           l476:	
  3655  02AB                     	line	147
  3656                           	
  3657                           l3045:	
  3658  02AB                     ;CodigoYoselinYDiana.c: 147:    digitalWrite(MotorAC,1);
  3659                           	clrf	(digitalWrite@value)
  3660  02AB  01F0               	incf	(digitalWrite@value),f
  3661  02AC  0AF0               	movlw	low((_MotorAC-__stringbase))
  3662  02AD  3017               	movwf	fsr0
  3663  02AE  0084               	fcall	stringdir
  3664  02AF  120A  158A  200A  120A  118A  	fcall	_digitalWrite
  3665  02B4  120A  118A  241C  120A  118A  	line	148
  3666                           ;CodigoYoselinYDiana.c: 148:    MotorDC(1);
  3667                           	movlw	01h
  3668  02B9  3001               	movwf	(MotorDC@Mode)
  3669  02BA  00F4               	movlw	0
  3670  02BB  3000               	movwf	((MotorDC@Mode))+1
  3671  02BC  00F5               	fcall	_MotorDC
  3672  02BD  120A  158A  246B  120A  118A  	line	149
  3673                           	
  3674                           l3047:	
  3675  02C2                     ;CodigoYoselinYDiana.c: 149:             lcdPrint("DC-IZQ/AC-ON ");
  3676                           	movlw	(low((((STR_8)-__stringbase)|8000h)))&0ffh
  3677  02C2  3064               	bcf	status, 5	;RP0=0, select bank0
  3678  02C3  1283               	bcf	status, 6	;RP1=0, select bank0
  3679  02C4  1303               	movwf	(lcdPrint@string)
  3680  02C5  00C4               	movlw	80h
  3681  02C6  3080               	movwf	(lcdPrint@string+1)
  3682  02C7  00C5               	fcall	_lcdPrint
  3683  02C8  120A  158A  238A  120A  118A  	line	150
  3684                           ;CodigoYoselinYDiana.c: 150:   break;
  3685                           	goto	l478
  3686  02CD  2AFA               	line	151
  3687                           ;CodigoYoselinYDiana.c: 151:   case 5:
  3688                           	
  3689                           l477:	
  3690  02CE                     	line	152
  3691                           	
  3692                           l3049:	
  3693  02CE                     ;CodigoYoselinYDiana.c: 152:    contar = Contador(1);
  3694                           	movlw	01h
  3695  02CE  3001               	movwf	(Contador@mode)
  3696  02CF  00F7               	movlw	0
  3697  02D0  3000               	movwf	((Contador@mode))+1
  3698  02D1  00F8               	fcall	_Contador
  3699  02D2  120A  158A  24D1  120A  118A  	movf	(1+(?_Contador)),w
  3700  02D7  0878               	bcf	status, 5	;RP0=0, select bank0
  3701  02D8  1283               	bcf	status, 6	;RP1=0, select bank0
  3702  02D9  1303               	movwf	(ModoEncendido@contar+1)
  3703  02DA  00B3               	movf	(0+(?_Contador)),w
  3704  02DB  0877               	movwf	(ModoEncendido@contar)
  3705  02DC  00B2               	line	153
  3706                           ;CodigoYoselinYDiana.c: 153:   break;
  3707                           	goto	l478
  3708  02DD  2AFA               	line	154
  3709                           	
  3710                           l3051:	
  3711  02DE                     ;CodigoYoselinYDiana.c: 154:  }
  3712                           	goto	l478
  3713  02DE  2AFA               	
  3714                           l470:	
  3715  02DF                     	
  3716                           l3053:	
  3717  02DF                     	; Switch on 2 bytes has been partitioned into a top level switch of size 1, and 1 sub-s
                                 witches
  3718                           ; Switch size 1, requested type "space"
  3719                           ; Number of cases is 1, Range of values is 0 to 0
  3720                           ; switch strategies available:
  3721                           ; Name         Instructions Cycles
  3722                           ; simple_byte            4     3 (average)
  3723                           ; direct_byte           11     8 (fixed)
  3724                           ; jumptable            260     6 (fixed)
  3725                           ;	Chosen strategy is simple_byte
  3726                           
  3727                           	bcf	status, 5	;RP0=0, select bank0
  3728  02DF  1283               	bcf	status, 6	;RP1=0, select bank0
  3729  02E0  1303               	movf (ModoEncendido@contar+1),w
  3730  02E1  0833               	opt asmopt_push
  3731                           	opt asmopt_off
  3732                           	xorlw	0^0	; case 0
  3733  02E2  3A00               	skipnz
  3734  02E3  1903               	goto	l3337
  3735  02E4  2AE6               	goto	l478
  3736  02E5  2AFA               	opt asmopt_pop
  3737                           	
  3738                           l3337:	
  3739  02E6                     ; Switch size 1, requested type "space"
  3740                           ; Number of cases is 6, Range of values is 0 to 5
  3741                           ; switch strategies available:
  3742                           ; Name         Instructions Cycles
  3743                           ; simple_byte           19    10 (average)
  3744                           ; direct_byte           26     8 (fixed)
  3745                           ; jumptable            260     6 (fixed)
  3746                           ;	Chosen strategy is simple_byte
  3747                           
  3748                           	movf (ModoEncendido@contar),w
  3749  02E6  0832               	opt asmopt_push
  3750                           	opt asmopt_off
  3751                           	xorlw	0^0	; case 0
  3752  02E7  3A00               	skipnz
  3753  02E8  1903               	goto	l3029
  3754  02E9  2A23               	xorlw	1^0	; case 1
  3755  02EA  3A01               	skipnz
  3756  02EB  1903               	goto	l3033
  3757  02EC  2A44               	xorlw	2^1	; case 2
  3758  02ED  3A03               	skipnz
  3759  02EE  1903               	goto	l3037
  3760  02EF  2A67               	xorlw	3^2	; case 3
  3761  02F0  3A01               	skipnz
  3762  02F1  1903               	goto	l3041
  3763  02F2  2A89               	xorlw	4^3	; case 4
  3764  02F3  3A07               	skipnz
  3765  02F4  1903               	goto	l3045
  3766  02F5  2AAB               	xorlw	5^4	; case 5
  3767  02F6  3A01               	skipnz
  3768  02F7  1903               	goto	l3049
  3769  02F8  2ACE               	goto	l478
  3770  02F9  2AFA               	opt asmopt_pop
  3771                           
  3772                           	
  3773                           l472:	
  3774  02FA                     	line	155
  3775                           	
  3776                           l478:	
  3777  02FA                     	return
  3778  02FA  0008               	opt stack 0
  3779                           GLOBAL	__end_of_ModoEncendido
  3780                           	__end_of_ModoEncendido:
  3781  02FB                     	signat	_ModoEncendido,89
  3782                           	global	_sprintf
  3783                           
  3784 ;; *************** function _sprintf *****************
  3785 ;; Defined at:
  3786 ;;		line 500 in file "C:\Program Files (x86)\Microchip\xc8\v2.00\pic\sources\c90\common\doprnt.c"
  3787 ;; Parameters:    Size  Location     Type
  3788 ;;  sp              1    wreg     PTR unsigned char 
  3789 ;;		 -> FirstROW(16), 
  3790 ;;  f               1    0[BANK0 ] PTR const unsigned char 
  3791 ;;		 -> STR_3(14), 
  3792 ;; Auto vars:     Size  Location     Type
  3793 ;;  sp              1   11[BANK0 ] PTR unsigned char 
  3794 ;;		 -> FirstROW(16), 
  3795 ;;  tmpval          4    0        struct .
  3796 ;;  val             2    9[BANK0 ] unsigned int 
  3797 ;;  cp              2    0        PTR const unsigned char 
  3798 ;;  len             2    0        unsigned int 
  3799 ;;  c               1   12[BANK0 ] unsigned char 
  3800 ;;  prec            1    8[BANK0 ] char 
  3801 ;;  flag            1    7[BANK0 ] unsigned char 
  3802 ;;  ap              1    6[BANK0 ] PTR void [1]
  3803 ;;		 -> ?_sprintf(2), 
  3804 ;; Return value:  Size  Location     Type
  3805 ;;                  2    0[BANK0 ] int 
  3806 ;; Registers used:
  3807 ;;		wreg, fsr0l, fsr0h, status,2, status,0, btemp+1, pclath, cstack
  3808 ;; Tracked objects:
  3809 ;;		On entry : 0/0
  3810 ;;		On exit  : 0/0
  3811 ;;		Unchanged: 0/0
  3812 ;; Data sizes:     COMMON   BANK0   BANK1   BANK3   BANK2
  3813 ;;      Params:         0       3       0       0       0
  3814 ;;      Locals:         0       7       0       0       0
  3815 ;;      Temps:          0       3       0       0       0
  3816 ;;      Totals:         0      13       0       0       0
  3817 ;;Total ram usage:       13 bytes
  3818 ;; Hardware stack levels used:    1
  3819 ;; Hardware stack levels required when called:    1
  3820 ;; This function calls:
  3821 ;;		___lwdiv
  3822 ;;		___lwmod
  3823 ;; This function is called by:
  3824 ;;		_ModoEncendido
  3825 ;; This function uses a non-reentrant model
  3826 ;;
  3827                           psect	text8,local,class=CODE,delta=2,merge=1,group=0
  3828                           	file	"C:\Program Files (x86)\Microchip\xc8\v2.00\pic\sources\c90\common\doprnt.c"
  3829                           	line	500
  3830                           global __ptext8
  3831                           __ptext8:	;psect for function _sprintf
  3832  00E9                     psect	text8
  3833                           	file	"C:\Program Files (x86)\Microchip\xc8\v2.00\pic\sources\c90\common\doprnt.c"
  3834                           	line	500
  3835                           	global	__size_of_sprintf
  3836                           	__size_of_sprintf	equ	__end_of_sprintf-_sprintf
  3837  0100                     	
  3838                           _sprintf:	
  3839  00E9                     ;incstack = 0
  3840                           	opt	stack 4
  3841                           ; Regs used in _sprintf: [wreg-fsr0h+status,2+status,0+btemp+1+pclath+cstack]
  3842                           ;sprintf@sp stored from wreg
  3843                           	bcf	status, 5	;RP0=0, select bank0
  3844  00E9  1283               	bcf	status, 6	;RP1=0, select bank0
  3845  00EA  1303               	movwf	(sprintf@sp)
  3846  00EB  00CF               	line	545
  3847                           	
  3848                           l2889:	
  3849  00EC                     ;C:\Program Files (x86)\Microchip\xc8\v2.00\pic\sources\c90\common\doprnt.c: 500: sprint
                                 f(char * sp, const char * f, ...);C:\Program Files (x86)\Microchip\xc8\v2.00\pic\sources
                                 \c90\common\doprnt.c: 501: {;C:\Program Files (x86)\Microchip\xc8\v2.00\pic\sources\c90\
                                 common\doprnt.c: 502:  va_list ap;;C:\Program Files (x86)\Microchip\xc8\v2.00\pic\source
                                 s\c90\common\doprnt.c: 507:  char c;;C:\Program Files (x86)\Microchip\xc8\v2.00\pic\sour
                                 ces\c90\common\doprnt.c: 516:  signed char prec;;C:\Program Files (x86)\Microchip\xc8\v2
                                 .00\pic\sources\c90\common\doprnt.c: 520:  unsigned char flag;
  3850                           	movlw	(low(?_sprintf|((0x0)<<8)+01h))&0ffh
  3851  00EC  3045               	movwf	(??_sprintf+0)+0
  3852  00ED  00C7               	movf	(??_sprintf+0)+0,w
  3853  00EE  0847               	movwf	(sprintf@ap)
  3854  00EF  00CA               	line	548
  3855                           ;C:\Program Files (x86)\Microchip\xc8\v2.00\pic\sources\c90\common\doprnt.c: 548:  while
                                 ((c = *f++)) {
  3856                           	goto	l2941
  3857  00F0  29CF               	
  3858                           l696:	
  3859  00F1                     	line	550
  3860                           	
  3861                           l2891:	
  3862  00F1                     ;C:\Program Files (x86)\Microchip\xc8\v2.00\pic\sources\c90\common\doprnt.c: 550:   if(c
                                  != '%')
  3863                           		movlw	37
  3864  00F1  3025               	xorwf	((sprintf@c)),w
  3865  00F2  0650               	btfsc	status,2
  3866  00F3  1903               	goto	u1171
  3867  00F4  28F6               	goto	u1170
  3868  00F5  28F7               u1171:
  3869  00F6                     	goto	l2897
  3870  00F6  2903               u1170:
  3871  00F7                     	line	553
  3872                           	
  3873                           l2893:	
  3874  00F7                     ;C:\Program Files (x86)\Microchip\xc8\v2.00\pic\sources\c90\common\doprnt.c: 552:   {;C:
                                 \Program Files (x86)\Microchip\xc8\v2.00\pic\sources\c90\common\doprnt.c: 553:    ((*sp+
                                 + = (c)));
  3875                           	movf	(sprintf@c),w
  3876  00F7  0850               	movwf	(??_sprintf+0)+0
  3877  00F8  00C7               	movf	(sprintf@sp),w
  3878  00F9  084F               	movwf	fsr0
  3879  00FA  0084               	movf	(??_sprintf+0)+0,w
  3880  00FB  0847               	bcf	status, 7	;select IRP bank0
  3881  00FC  1383               	movwf	indf
  3882  00FD  0080               	
  3883                           l2895:	
  3884  00FE                     	movlw	low(01h)
  3885  00FE  3001               	movwf	(??_sprintf+0)+0
  3886  00FF  00C7               	movf	(??_sprintf+0)+0,w
  3887  0100  0847               	addwf	(sprintf@sp),f
  3888  0101  07CF               	line	554
  3889                           ;C:\Program Files (x86)\Microchip\xc8\v2.00\pic\sources\c90\common\doprnt.c: 554:    con
                                 tinue;
  3890                           	goto	l2941
  3891  0102  29CF               	line	555
  3892                           ;C:\Program Files (x86)\Microchip\xc8\v2.00\pic\sources\c90\common\doprnt.c: 555:   }
  3893                           	
  3894                           l697:	
  3895  0103                     	line	560
  3896                           	
  3897                           l2897:	
  3898  0103                     ;C:\Program Files (x86)\Microchip\xc8\v2.00\pic\sources\c90\common\doprnt.c: 560:   flag
                                  = 0;
  3899                           	clrf	(sprintf@flag)
  3900  0103  01CB               	line	654
  3901                           ;C:\Program Files (x86)\Microchip\xc8\v2.00\pic\sources\c90\common\doprnt.c: 654:   swit
                                 ch(c = *f++) {
  3902                           	goto	l2901
  3903  0104  290A               	line	656
  3904                           ;C:\Program Files (x86)\Microchip\xc8\v2.00\pic\sources\c90\common\doprnt.c: 656:   case
                                  0:
  3905                           	
  3906                           l699:	
  3907  0105                     	line	657
  3908                           ;C:\Program Files (x86)\Microchip\xc8\v2.00\pic\sources\c90\common\doprnt.c: 657:    got
                                 o alldone;
  3909                           	goto	l2943
  3910  0105  29E3               	line	716
  3911                           ;C:\Program Files (x86)\Microchip\xc8\v2.00\pic\sources\c90\common\doprnt.c: 716:   case
                                  'd':
  3912                           	
  3913                           l701:	
  3914  0106                     	goto	l2903
  3915  0106  2927               	line	717
  3916                           ;C:\Program Files (x86)\Microchip\xc8\v2.00\pic\sources\c90\common\doprnt.c: 717:   case
                                  'i':
  3917                           	
  3918                           l702:	
  3919  0107                     	line	718
  3920                           ;C:\Program Files (x86)\Microchip\xc8\v2.00\pic\sources\c90\common\doprnt.c: 718:    bre
                                 ak;
  3921                           	goto	l2903
  3922  0107  2927               	line	821
  3923                           ;C:\Program Files (x86)\Microchip\xc8\v2.00\pic\sources\c90\common\doprnt.c: 821:   defa
                                 ult:
  3924                           	
  3925                           l704:	
  3926  0108                     	line	832
  3927                           ;C:\Program Files (x86)\Microchip\xc8\v2.00\pic\sources\c90\common\doprnt.c: 832:    con
                                 tinue;
  3928                           	goto	l2941
  3929  0108  29CF               	line	841
  3930                           	
  3931                           l2899:	
  3932  0109                     ;C:\Program Files (x86)\Microchip\xc8\v2.00\pic\sources\c90\common\doprnt.c: 841:   }
  3933                           	goto	l2903
  3934  0109  2927               	
  3935                           l698:	
  3936  010A                     	
  3937                           l2901:	
  3938  010A                     	movlw	01h
  3939  010A  3001               	addwf	(sprintf@f),f
  3940  010B  07C4               	movlw	-01h
  3941  010C  30FF               	addwf	(sprintf@f),w
  3942  010D  0744               	movwf	fsr0
  3943  010E  0084               	fcall	stringdir
  3944  010F  120A  158A  200A  120A  118A  	movwf	(sprintf@c)
  3945  0114  00D0               	movwf	(??_sprintf+0)+0
  3946  0115  00C7               	clrf	(??_sprintf+0)+0+1
  3947  0116  01C8               	; Switch on 2 bytes has been partitioned into a top level switch of size 1, and 1 sub-s
                                 witches
  3948                           ; Switch size 1, requested type "space"
  3949                           ; Number of cases is 1, Range of values is 0 to 0
  3950                           ; switch strategies available:
  3951                           ; Name         Instructions Cycles
  3952                           ; simple_byte            4     3 (average)
  3953                           ; direct_byte           11     8 (fixed)
  3954                           ; jumptable            260     6 (fixed)
  3955                           ;	Chosen strategy is simple_byte
  3956                           
  3957                           	movf 1+(??_sprintf+0)+0,w
  3958  0117  0848               	opt asmopt_push
  3959                           	opt asmopt_off
  3960                           	xorlw	0^0	; case 0
  3961  0118  3A00               	skipnz
  3962  0119  1903               	goto	l3339
  3963  011A  291C               	goto	l2941
  3964  011B  29CF               	opt asmopt_pop
  3965                           	
  3966                           l3339:	
  3967  011C                     ; Switch size 1, requested type "space"
  3968                           ; Number of cases is 3, Range of values is 0 to 105
  3969                           ; switch strategies available:
  3970                           ; Name         Instructions Cycles
  3971                           ; simple_byte           10     6 (average)
  3972                           ; jumptable            260     6 (fixed)
  3973                           ;	Chosen strategy is simple_byte
  3974                           
  3975                           	movf 0+(??_sprintf+0)+0,w
  3976  011C  0847               	opt asmopt_push
  3977                           	opt asmopt_off
  3978                           	xorlw	0^0	; case 0
  3979  011D  3A00               	skipnz
  3980  011E  1903               	goto	l2943
  3981  011F  29E3               	xorlw	100^0	; case 100
  3982  0120  3A64               	skipnz
  3983  0121  1903               	goto	l2903
  3984  0122  2927               	xorlw	105^100	; case 105
  3985  0123  3A0D               	skipnz
  3986  0124  1903               	goto	l2903
  3987  0125  2927               	goto	l2941
  3988  0126  29CF               	opt asmopt_pop
  3989                           
  3990                           	
  3991                           l703:	
  3992  0127                     	line	1278
  3993                           	
  3994                           l2903:	
  3995  0127                     ;C:\Program Files (x86)\Microchip\xc8\v2.00\pic\sources\c90\common\doprnt.c: 1272:   {;C
                                 :\Program Files (x86)\Microchip\xc8\v2.00\pic\sources\c90\common\doprnt.c: 1278:     val
                                  = (int)(*(int *)__va_arg((*(int **)ap), (int)0));
  3996                           	movf	(sprintf@ap),w
  3997  0127  084A               	movwf	fsr0
  3998  0128  0084               	bcf	status, 7	;select IRP bank0
  3999  0129  1383               	movf	indf,w
  4000  012A  0800               	movwf	(sprintf@val)
  4001  012B  00CD               	incf	fsr0,f
  4002  012C  0A84               	movf	indf,w
  4003  012D  0800               	movwf	(sprintf@val+1)
  4004  012E  00CE               	
  4005                           l2905:	
  4006  012F                     	movlw	low(02h)
  4007  012F  3002               	movwf	(??_sprintf+0)+0
  4008  0130  00C7               	movf	(??_sprintf+0)+0,w
  4009  0131  0847               	addwf	(sprintf@ap),f
  4010  0132  07CA               	line	1280
  4011                           	
  4012                           l2907:	
  4013  0133                     ;C:\Program Files (x86)\Microchip\xc8\v2.00\pic\sources\c90\common\doprnt.c: 1280:    if
                                 ((int)val < 0) {
  4014                           	btfss	(sprintf@val+1),7
  4015  0133  1FCE               	goto	u1181
  4016  0134  2936               	goto	u1180
  4017  0135  2937               u1181:
  4018  0136                     	goto	l2913
  4019  0136  2941               u1180:
  4020  0137                     	line	1281
  4021                           	
  4022                           l2909:	
  4023  0137                     ;C:\Program Files (x86)\Microchip\xc8\v2.00\pic\sources\c90\common\doprnt.c: 1281:     f
                                 lag |= 0x03;
  4024                           	movlw	low(03h)
  4025  0137  3003               	movwf	(??_sprintf+0)+0
  4026  0138  00C7               	movf	(??_sprintf+0)+0,w
  4027  0139  0847               	iorwf	(sprintf@flag),f
  4028  013A  04CB               	line	1282
  4029                           	
  4030                           l2911:	
  4031  013B                     ;C:\Program Files (x86)\Microchip\xc8\v2.00\pic\sources\c90\common\doprnt.c: 1282:     v
                                 al = -val;
  4032                           	comf	(sprintf@val),f
  4033  013B  09CD               	comf	(sprintf@val+1),f
  4034  013C  09CE               	incf	(sprintf@val),f
  4035  013D  0ACD               	skipnz
  4036  013E  1903               	incf	(sprintf@val+1),f
  4037  013F  0ACE               	goto	l2913
  4038  0140  2941               	line	1283
  4039                           ;C:\Program Files (x86)\Microchip\xc8\v2.00\pic\sources\c90\common\doprnt.c: 1283:    }

  4040                           	
  4041                           l705:	
  4042  0141                     	line	1324
  4043                           	
  4044                           l2913:	
  4045  0141                     ;C:\Program Files (x86)\Microchip\xc8\v2.00\pic\sources\c90\common\doprnt.c: 1285:   };C
                                 :\Program Files (x86)\Microchip\xc8\v2.00\pic\sources\c90\common\doprnt.c: 1324:    for(
                                 c = 1 ; c != sizeof dpowers/sizeof dpowers[0] ; c++)
  4046                           	clrf	(sprintf@c)
  4047  0141  01D0               	incf	(sprintf@c),f
  4048  0142  0AD0               	
  4049                           l2915:	
  4050  0143                     		movlw	5
  4051  0143  3005               	xorwf	((sprintf@c)),w
  4052  0144  0650               	btfss	status,2
  4053  0145  1D03               	goto	u1191
  4054  0146  2948               	goto	u1190
  4055  0147  2949               u1191:
  4056  0148                     	goto	l2919
  4057  0148  294B               u1190:
  4058  0149                     	goto	l2925
  4059  0149  2973               	
  4060                           l2917:	
  4061  014A                     	goto	l2925
  4062  014A  2973               	
  4063                           l706:	
  4064  014B                     	line	1325
  4065                           	
  4066                           l2919:	
  4067  014B                     ;C:\Program Files (x86)\Microchip\xc8\v2.00\pic\sources\c90\common\doprnt.c: 1325:     i
                                 f(val < dpowers[c])
  4068                           	movf	(sprintf@c),w
  4069  014B  0850               	movwf	(??_sprintf+0)+0
  4070  014C  00C7               	addwf	(??_sprintf+0)+0,w
  4071  014D  0747               	addlw	low((((_dpowers)-__stringbase)|8000h))
  4072  014E  3E01               	movwf	fsr0
  4073  014F  0084               	fcall	stringdir
  4074  0150  120A  158A  200A  120A  118A  	movwf	(??_sprintf+1)+0
  4075  0155  00C8               	fcall	stringdir
  4076  0156  120A  158A  200A  120A  118A  	movwf	(??_sprintf+1)+0+1
  4077  015B  00C9               	movf	1+(??_sprintf+1)+0,w
  4078  015C  0849               	subwf	(sprintf@val+1),w
  4079  015D  024E               	skipz
  4080  015E  1D03               	goto	u1205
  4081  015F  2962               	movf	0+(??_sprintf+1)+0,w
  4082  0160  0848               	subwf	(sprintf@val),w
  4083  0161  024D               u1205:
  4084  0162                     	skipnc
  4085  0162  1803               	goto	u1201
  4086  0163  2965               	goto	u1200
  4087  0164  2966               u1201:
  4088  0165                     	goto	l2923
  4089  0165  2968               u1200:
  4090  0166                     	goto	l2925
  4091  0166  2973               	line	1326
  4092                           	
  4093                           l2921:	
  4094  0167                     ;C:\Program Files (x86)\Microchip\xc8\v2.00\pic\sources\c90\common\doprnt.c: 1326:      
                                 break;
  4095                           	goto	l2925
  4096  0167  2973               	
  4097                           l708:	
  4098  0168                     	
  4099                           l2923:	
  4100  0168                     	movlw	low(01h)
  4101  0168  3001               	movwf	(??_sprintf+0)+0
  4102  0169  00C7               	movf	(??_sprintf+0)+0,w
  4103  016A  0847               	addwf	(sprintf@c),f
  4104  016B  07D0               		movlw	5
  4105  016C  3005               	xorwf	((sprintf@c)),w
  4106  016D  0650               	btfss	status,2
  4107  016E  1D03               	goto	u1211
  4108  016F  2971               	goto	u1210
  4109  0170  2972               u1211:
  4110  0171                     	goto	l2919
  4111  0171  294B               u1210:
  4112  0172                     	goto	l2925
  4113  0172  2973               	
  4114                           l707:	
  4115  0173                     	line	1457
  4116                           	
  4117                           l2925:	
  4118  0173                     ;C:\Program Files (x86)\Microchip\xc8\v2.00\pic\sources\c90\common\doprnt.c: 1441:   {;C
                                 :\Program Files (x86)\Microchip\xc8\v2.00\pic\sources\c90\common\doprnt.c: 1457:    if(f
                                 lag & 0x03)
  4119                           	movf	(sprintf@flag),w
  4120  0173  084B               	andlw	03h
  4121  0174  3903               	btfsc	status,2
  4122  0175  1903               	goto	u1221
  4123  0176  2978               	goto	u1220
  4124  0177  2979               u1221:
  4125  0178                     	goto	l2931
  4126  0178  2985               u1220:
  4127  0179                     	line	1458
  4128                           	
  4129                           l2927:	
  4130  0179                     ;C:\Program Files (x86)\Microchip\xc8\v2.00\pic\sources\c90\common\doprnt.c: 1458:     (
                                 (*sp++ = ('-')));
  4131                           	movlw	low(02Dh)
  4132  0179  302D               	movwf	(??_sprintf+0)+0
  4133  017A  00C7               	movf	(sprintf@sp),w
  4134  017B  084F               	movwf	fsr0
  4135  017C  0084               	movf	(??_sprintf+0)+0,w
  4136  017D  0847               	bcf	status, 7	;select IRP bank0
  4137  017E  1383               	movwf	indf
  4138  017F  0080               	
  4139                           l2929:	
  4140  0180                     	movlw	low(01h)
  4141  0180  3001               	movwf	(??_sprintf+0)+0
  4142  0181  00C7               	movf	(??_sprintf+0)+0,w
  4143  0182  0847               	addwf	(sprintf@sp),f
  4144  0183  07CF               	goto	l2931
  4145  0184  2985               	
  4146                           l709:	
  4147  0185                     	line	1491
  4148                           	
  4149                           l2931:	
  4150  0185                     ;C:\Program Files (x86)\Microchip\xc8\v2.00\pic\sources\c90\common\doprnt.c: 1488:   };C
                                 :\Program Files (x86)\Microchip\xc8\v2.00\pic\sources\c90\common\doprnt.c: 1491:   prec 
                                 = c;
  4151                           	movf	(sprintf@c),w
  4152  0185  0850               	movwf	(??_sprintf+0)+0
  4153  0186  00C7               	movf	(??_sprintf+0)+0,w
  4154  0187  0847               	movwf	(sprintf@prec)
  4155  0188  00CC               	line	1493
  4156                           ;C:\Program Files (x86)\Microchip\xc8\v2.00\pic\sources\c90\common\doprnt.c: 1493:   whi
                                 le(prec--) {
  4157                           	goto	l2939
  4158  0189  29C4               	
  4159                           l711:	
  4160  018A                     	line	1508
  4161                           	
  4162                           l2933:	
  4163  018A                     ;C:\Program Files (x86)\Microchip\xc8\v2.00\pic\sources\c90\common\doprnt.c: 1497:    {;
                                 C:\Program Files (x86)\Microchip\xc8\v2.00\pic\sources\c90\common\doprnt.c: 1508:     c 
                                 = (val / dpowers[prec]) % 10 + '0';
  4164                           	movlw	0Ah
  4165  018A  300A               	movwf	(___lwmod@divisor)
  4166  018B  00F8               	movlw	0
  4167  018C  3000               	movwf	((___lwmod@divisor))+1
  4168  018D  00F9               	movf	(sprintf@prec),w
  4169  018E  084C               	movwf	(??_sprintf+0)+0
  4170  018F  00C7               	addwf	(??_sprintf+0)+0,w
  4171  0190  0747               	addlw	low((((_dpowers)-__stringbase)|8000h))
  4172  0191  3E01               	movwf	fsr0
  4173  0192  0084               	fcall	stringdir
  4174  0193  120A  158A  200A  120A  118A  	movwf	(___lwdiv@divisor)
  4175  0198  00F0               	fcall	stringdir
  4176  0199  120A  158A  200A  120A  118A  	movwf	(___lwdiv@divisor+1)
  4177  019E  00F1               	movf	(sprintf@val+1),w
  4178  019F  084E               	movwf	(___lwdiv@dividend+1)
  4179  01A0  00F3               	movf	(sprintf@val),w
  4180  01A1  084D               	movwf	(___lwdiv@dividend)
  4181  01A2  00F2               	fcall	___lwdiv
  4182  01A3  120A  158A  23D2  120A  118A  	movf	(1+(?___lwdiv)),w
  4183  01A8  0871               	movwf	(___lwmod@dividend+1)
  4184  01A9  00FB               	movf	(0+(?___lwdiv)),w
  4185  01AA  0870               	movwf	(___lwmod@dividend)
  4186  01AB  00FA               	fcall	___lwmod
  4187  01AC  120A  158A  2349  120A  118A  	movf	(0+(?___lwmod)),w
  4188  01B1  0878               	addlw	030h
  4189  01B2  3E30               	bcf	status, 5	;RP0=0, select bank0
  4190  01B3  1283               	bcf	status, 6	;RP1=0, select bank0
  4191  01B4  1303               	movwf	(??_sprintf+1)+0
  4192  01B5  00C8               	movf	(??_sprintf+1)+0,w
  4193  01B6  0848               	movwf	(sprintf@c)
  4194  01B7  00D0               	line	1543
  4195                           	
  4196                           l2935:	
  4197  01B8                     ;C:\Program Files (x86)\Microchip\xc8\v2.00\pic\sources\c90\common\doprnt.c: 1542:    };
                                 C:\Program Files (x86)\Microchip\xc8\v2.00\pic\sources\c90\common\doprnt.c: 1543:    ((*
                                 sp++ = (c)));
  4198                           	movf	(sprintf@c),w
  4199  01B8  0850               	movwf	(??_sprintf+0)+0
  4200  01B9  00C7               	movf	(sprintf@sp),w
  4201  01BA  084F               	movwf	fsr0
  4202  01BB  0084               	movf	(??_sprintf+0)+0,w
  4203  01BC  0847               	bcf	status, 7	;select IRP bank0
  4204  01BD  1383               	movwf	indf
  4205  01BE  0080               	
  4206                           l2937:	
  4207  01BF                     	movlw	low(01h)
  4208  01BF  3001               	movwf	(??_sprintf+0)+0
  4209  01C0  00C7               	movf	(??_sprintf+0)+0,w
  4210  01C1  0847               	addwf	(sprintf@sp),f
  4211  01C2  07CF               	goto	l2939
  4212  01C3  29C4               	line	1544
  4213                           ;C:\Program Files (x86)\Microchip\xc8\v2.00\pic\sources\c90\common\doprnt.c: 1544:   }
  4214                           	
  4215                           l710:	
  4216  01C4                     	line	1493
  4217                           	
  4218                           l2939:	
  4219  01C4                     ;C:\Program Files (x86)\Microchip\xc8\v2.00\pic\sources\c90\common\doprnt.c: 1493:   whi
                                 le(prec--) {
  4220                           	movlw	low(-1)
  4221  01C4  30FF               	movwf	(??_sprintf+0)+0
  4222  01C5  00C7               	movf	(??_sprintf+0)+0,w
  4223  01C6  0847               	addwf	(sprintf@prec),f
  4224  01C7  07CC               		incf	(((sprintf@prec))),w
  4225  01C8  0A4C               	btfss	status,2
  4226  01C9  1D03               	goto	u1231
  4227  01CA  29CC               	goto	u1230
  4228  01CB  29CD               u1231:
  4229  01CC                     	goto	l2933
  4230  01CC  298A               u1230:
  4231  01CD                     	goto	l2941
  4232  01CD  29CF               	
  4233                           l712:	
  4234  01CE                     	goto	l2941
  4235  01CE  29CF               	line	1552
  4236                           ;C:\Program Files (x86)\Microchip\xc8\v2.00\pic\sources\c90\common\doprnt.c: 1552:  }
  4237                           	
  4238                           l695:	
  4239  01CF                     	line	548
  4240                           	
  4241                           l2941:	
  4242  01CF                     ;C:\Program Files (x86)\Microchip\xc8\v2.00\pic\sources\c90\common\doprnt.c: 548:  while
                                 ((c = *f++)) {
  4243                           	movlw	01h
  4244  01CF  3001               	addwf	(sprintf@f),f
  4245  01D0  07C4               	movlw	-01h
  4246  01D1  30FF               	addwf	(sprintf@f),w
  4247  01D2  0744               	movwf	fsr0
  4248  01D3  0084               	fcall	stringdir
  4249  01D4  120A  158A  200A  120A  118A  	movwf	(??_sprintf+0)+0
  4250  01D9  00C7               	movf	(??_sprintf+0)+0,w
  4251  01DA  0847               	movwf	(sprintf@c)
  4252  01DB  00D0               	movf	(((sprintf@c))),w
  4253  01DC  0850               	btfss	status,2
  4254  01DD  1D03               	goto	u1241
  4255  01DE  29E0               	goto	u1240
  4256  01DF  29E1               u1241:
  4257  01E0                     	goto	l2891
  4258  01E0  28F1               u1240:
  4259  01E1                     	goto	l2943
  4260  01E1  29E3               	
  4261                           l713:	
  4262  01E2                     	goto	l2943
  4263  01E2  29E3               	line	1554
  4264                           ;C:\Program Files (x86)\Microchip\xc8\v2.00\pic\sources\c90\common\doprnt.c: 1554: alldo
                                 ne:
  4265                           	
  4266                           l700:	
  4267  01E3                     	line	1557
  4268                           	
  4269                           l2943:	
  4270  01E3                     ;C:\Program Files (x86)\Microchip\xc8\v2.00\pic\sources\c90\common\doprnt.c: 1557:  *sp 
                                 = 0;
  4271                           	movf	(sprintf@sp),w
  4272  01E3  084F               	movwf	fsr0
  4273  01E4  0084               	bcf	status, 7	;select IRP bank0
  4274  01E5  1383               	clrf	indf
  4275  01E6  0180               	goto	l714
  4276  01E7  29E8               	line	1559
  4277                           	
  4278                           l2945:	
  4279  01E8                     	line	1560
  4280                           ;C:\Program Files (x86)\Microchip\xc8\v2.00\pic\sources\c90\common\doprnt.c: 1559:  retu
                                 rn 0;;	Return value of _sprintf is never used
  4281                           	
  4282                           l714:	
  4283  01E8                     	return
  4284  01E8  0008               	opt stack 0
  4285                           GLOBAL	__end_of_sprintf
  4286                           	__end_of_sprintf:
  4287  01E9                     	signat	_sprintf,4698
  4288                           	global	___lwmod
  4289                           
  4290 ;; *************** function ___lwmod *****************
  4291 ;; Defined at:
  4292 ;;		line 5 in file "C:\Program Files (x86)\Microchip\xc8\v2.00\pic\sources\c90\common\lwmod.c"
  4293 ;; Parameters:    Size  Location     Type
  4294 ;;  divisor         2    8[COMMON] unsigned int 
  4295 ;;  dividend        2   10[COMMON] unsigned int 
  4296 ;; Auto vars:     Size  Location     Type
  4297 ;;  counter         1   13[COMMON] unsigned char 
  4298 ;; Return value:  Size  Location     Type
  4299 ;;                  2    8[COMMON] unsigned int 
  4300 ;; Registers used:
  4301 ;;		wreg, status,2, status,0
  4302 ;; Tracked objects:
  4303 ;;		On entry : 0/0
  4304 ;;		On exit  : 0/0
  4305 ;;		Unchanged: 0/0
  4306 ;; Data sizes:     COMMON   BANK0   BANK1   BANK3   BANK2
  4307 ;;      Params:         4       0       0       0       0
  4308 ;;      Locals:         1       0       0       0       0
  4309 ;;      Temps:          1       0       0       0       0
  4310 ;;      Totals:         6       0       0       0       0
  4311 ;;Total ram usage:        6 bytes
  4312 ;; Hardware stack levels used:    1
  4313 ;; This function calls:
  4314 ;;		Nothing
  4315 ;; This function is called by:
  4316 ;;		_sprintf
  4317 ;; This function uses a non-reentrant model
  4318 ;;
  4319                           psect	text9,local,class=CODE,delta=2,merge=1,group=1
  4320                           	file	"C:\Program Files (x86)\Microchip\xc8\v2.00\pic\sources\c90\common\lwmod.c"
  4321                           	line	5
  4322                           global __ptext9
  4323                           __ptext9:	;psect for function ___lwmod
  4324  0B49                     psect	text9
  4325                           	file	"C:\Program Files (x86)\Microchip\xc8\v2.00\pic\sources\c90\common\lwmod.c"
  4326                           	line	5
  4327                           	global	__size_of___lwmod
  4328                           	__size_of___lwmod	equ	__end_of___lwmod-___lwmod
  4329  0041                     	
  4330                           ___lwmod:	
  4331  0B49                     ;incstack = 0
  4332                           	opt	stack 4
  4333                           ; Regs used in ___lwmod: [wreg+status,2+status,0]
  4334                           	line	12
  4335                           	
  4336                           l2763:	
  4337  0B49                     	movf	((___lwmod@divisor)),w
  4338  0B49  0878               iorwf	((___lwmod@divisor+1)),w
  4339  0B4A  0479               	btfsc	status,2
  4340  0B4B  1903               	goto	u1021
  4341  0B4C  2B4E               	goto	u1020
  4342  0B4D  2B4F               u1021:
  4343  0B4E                     	goto	l2781
  4344  0B4E  2B84               u1020:
  4345  0B4F                     	line	13
  4346                           	
  4347                           l2765:	
  4348  0B4F                     	clrf	(___lwmod@counter)
  4349  0B4F  01FD               	incf	(___lwmod@counter),f
  4350  0B50  0AFD               	line	14
  4351                           	goto	l2771
  4352  0B51  2B5E               	
  4353                           l995:	
  4354  0B52                     	line	15
  4355                           	
  4356                           l2767:	
  4357  0B52                     	movlw	01h
  4358  0B52  3001               	
  4359                           u1035:
  4360  0B53                     	clrc
  4361  0B53  1003               	rlf	(___lwmod@divisor),f
  4362  0B54  0DF8               	rlf	(___lwmod@divisor+1),f
  4363  0B55  0DF9               	addlw	-1
  4364  0B56  3EFF               	skipz
  4365  0B57  1D03               	goto	u1035
  4366  0B58  2B53               	line	16
  4367                           	
  4368                           l2769:	
  4369  0B59                     	movlw	low(01h)
  4370  0B59  3001               	movwf	(??___lwmod+0)+0
  4371  0B5A  00FC               	movf	(??___lwmod+0)+0,w
  4372  0B5B  087C               	addwf	(___lwmod@counter),f
  4373  0B5C  07FD               	goto	l2771
  4374  0B5D  2B5E               	line	17
  4375                           	
  4376                           l994:	
  4377  0B5E                     	line	14
  4378                           	
  4379                           l2771:	
  4380  0B5E                     	btfss	(___lwmod@divisor+1),(15)&7
  4381  0B5E  1FF9               	goto	u1041
  4382  0B5F  2B61               	goto	u1040
  4383  0B60  2B62               u1041:
  4384  0B61                     	goto	l2767
  4385  0B61  2B52               u1040:
  4386  0B62                     	goto	l2773
  4387  0B62  2B64               	
  4388                           l996:	
  4389  0B63                     	goto	l2773
  4390  0B63  2B64               	line	18
  4391                           	
  4392                           l997:	
  4393  0B64                     	line	19
  4394                           	
  4395                           l2773:	
  4396  0B64                     	movf	(___lwmod@divisor+1),w
  4397  0B64  0879               	subwf	(___lwmod@dividend+1),w
  4398  0B65  027B               	skipz
  4399  0B66  1D03               	goto	u1055
  4400  0B67  2B6A               	movf	(___lwmod@divisor),w
  4401  0B68  0878               	subwf	(___lwmod@dividend),w
  4402  0B69  027A               u1055:
  4403  0B6A                     	skipc
  4404  0B6A  1C03               	goto	u1051
  4405  0B6B  2B6D               	goto	u1050
  4406  0B6C  2B6E               u1051:
  4407  0B6D                     	goto	l2777
  4408  0B6D  2B75               u1050:
  4409  0B6E                     	line	20
  4410                           	
  4411                           l2775:	
  4412  0B6E                     	movf	(___lwmod@divisor),w
  4413  0B6E  0878               	subwf	(___lwmod@dividend),f
  4414  0B6F  02FA               	movf	(___lwmod@divisor+1),w
  4415  0B70  0879               	skipc
  4416  0B71  1C03               	decf	(___lwmod@dividend+1),f
  4417  0B72  03FB               	subwf	(___lwmod@dividend+1),f
  4418  0B73  02FB               	goto	l2777
  4419  0B74  2B75               	
  4420                           l998:	
  4421  0B75                     	line	21
  4422                           	
  4423                           l2777:	
  4424  0B75                     	movlw	01h
  4425  0B75  3001               	
  4426                           u1065:
  4427  0B76                     	clrc
  4428  0B76  1003               	rrf	(___lwmod@divisor+1),f
  4429  0B77  0CF9               	rrf	(___lwmod@divisor),f
  4430  0B78  0CF8               	addlw	-1
  4431  0B79  3EFF               	skipz
  4432  0B7A  1D03               	goto	u1065
  4433  0B7B  2B76               	line	22
  4434                           	
  4435                           l2779:	
  4436  0B7C                     	movlw	01h
  4437  0B7C  3001               	subwf	(___lwmod@counter),f
  4438  0B7D  02FD               	btfss	status,2
  4439  0B7E  1D03               	goto	u1071
  4440  0B7F  2B81               	goto	u1070
  4441  0B80  2B82               u1071:
  4442  0B81                     	goto	l2773
  4443  0B81  2B64               u1070:
  4444  0B82                     	goto	l2781
  4445  0B82  2B84               	
  4446                           l999:	
  4447  0B83                     	goto	l2781
  4448  0B83  2B84               	line	23
  4449                           	
  4450                           l993:	
  4451  0B84                     	line	24
  4452                           	
  4453                           l2781:	
  4454  0B84                     	movf	(___lwmod@dividend+1),w
  4455  0B84  087B               	movwf	(?___lwmod+1)
  4456  0B85  00F9               	movf	(___lwmod@dividend),w
  4457  0B86  087A               	movwf	(?___lwmod)
  4458  0B87  00F8               	goto	l1000
  4459  0B88  2B89               	
  4460                           l2783:	
  4461  0B89                     	line	25
  4462                           	
  4463                           l1000:	
  4464  0B89                     	return
  4465  0B89  0008               	opt stack 0
  4466                           GLOBAL	__end_of___lwmod
  4467                           	__end_of___lwmod:
  4468  0B8A                     	signat	___lwmod,8314
  4469                           	global	___lwdiv
  4470                           
  4471 ;; *************** function ___lwdiv *****************
  4472 ;; Defined at:
  4473 ;;		line 5 in file "C:\Program Files (x86)\Microchip\xc8\v2.00\pic\sources\c90\common\lwdiv.c"
  4474 ;; Parameters:    Size  Location     Type
  4475 ;;  divisor         2    0[COMMON] unsigned int 
  4476 ;;  dividend        2    2[COMMON] unsigned int 
  4477 ;; Auto vars:     Size  Location     Type
  4478 ;;  quotient        2    5[COMMON] unsigned int 
  4479 ;;  counter         1    7[COMMON] unsigned char 
  4480 ;; Return value:  Size  Location     Type
  4481 ;;                  2    0[COMMON] unsigned int 
  4482 ;; Registers used:
  4483 ;;		wreg, status,2, status,0
  4484 ;; Tracked objects:
  4485 ;;		On entry : 0/0
  4486 ;;		On exit  : 0/0
  4487 ;;		Unchanged: 0/0
  4488 ;; Data sizes:     COMMON   BANK0   BANK1   BANK3   BANK2
  4489 ;;      Params:         4       0       0       0       0
  4490 ;;      Locals:         3       0       0       0       0
  4491 ;;      Temps:          1       0       0       0       0
  4492 ;;      Totals:         8       0       0       0       0
  4493 ;;Total ram usage:        8 bytes
  4494 ;; Hardware stack levels used:    1
  4495 ;; This function calls:
  4496 ;;		Nothing
  4497 ;; This function is called by:
  4498 ;;		_sprintf
  4499 ;; This function uses a non-reentrant model
  4500 ;;
  4501                           psect	text10,local,class=CODE,delta=2,merge=1,group=1
  4502                           	file	"C:\Program Files (x86)\Microchip\xc8\v2.00\pic\sources\c90\common\lwdiv.c"
  4503                           	line	5
  4504                           global __ptext10
  4505                           __ptext10:	;psect for function ___lwdiv
  4506  0BD2                     psect	text10
  4507                           	file	"C:\Program Files (x86)\Microchip\xc8\v2.00\pic\sources\c90\common\lwdiv.c"
  4508                           	line	5
  4509                           	global	__size_of___lwdiv
  4510                           	__size_of___lwdiv	equ	__end_of___lwdiv-___lwdiv
  4511  004B                     	
  4512                           ___lwdiv:	
  4513  0BD2                     ;incstack = 0
  4514                           	opt	stack 4
  4515                           ; Regs used in ___lwdiv: [wreg+status,2+status,0]
  4516                           	line	13
  4517                           	
  4518                           l2737:	
  4519  0BD2                     	clrf	(___lwdiv@quotient)
  4520  0BD2  01F5               	clrf	(___lwdiv@quotient+1)
  4521  0BD3  01F6               	line	14
  4522                           	
  4523                           l2739:	
  4524  0BD4                     	movf	((___lwdiv@divisor)),w
  4525  0BD4  0870               iorwf	((___lwdiv@divisor+1)),w
  4526  0BD5  0471               	btfsc	status,2
  4527  0BD6  1903               	goto	u951
  4528  0BD7  2BD9               	goto	u950
  4529  0BD8  2BDA               u951:
  4530  0BD9                     	goto	l2759
  4531  0BD9  2C17               u950:
  4532  0BDA                     	line	15
  4533                           	
  4534                           l2741:	
  4535  0BDA                     	clrf	(___lwdiv@counter)
  4536  0BDA  01F7               	incf	(___lwdiv@counter),f
  4537  0BDB  0AF7               	line	16
  4538                           	goto	l2747
  4539  0BDC  2BE9               	
  4540                           l985:	
  4541  0BDD                     	line	17
  4542                           	
  4543                           l2743:	
  4544  0BDD                     	movlw	01h
  4545  0BDD  3001               	
  4546                           u965:
  4547  0BDE                     	clrc
  4548  0BDE  1003               	rlf	(___lwdiv@divisor),f
  4549  0BDF  0DF0               	rlf	(___lwdiv@divisor+1),f
  4550  0BE0  0DF1               	addlw	-1
  4551  0BE1  3EFF               	skipz
  4552  0BE2  1D03               	goto	u965
  4553  0BE3  2BDE               	line	18
  4554                           	
  4555                           l2745:	
  4556  0BE4                     	movlw	low(01h)
  4557  0BE4  3001               	movwf	(??___lwdiv+0)+0
  4558  0BE5  00F4               	movf	(??___lwdiv+0)+0,w
  4559  0BE6  0874               	addwf	(___lwdiv@counter),f
  4560  0BE7  07F7               	goto	l2747
  4561  0BE8  2BE9               	line	19
  4562                           	
  4563                           l984:	
  4564  0BE9                     	line	16
  4565                           	
  4566                           l2747:	
  4567  0BE9                     	btfss	(___lwdiv@divisor+1),(15)&7
  4568  0BE9  1FF1               	goto	u971
  4569  0BEA  2BEC               	goto	u970
  4570  0BEB  2BED               u971:
  4571  0BEC                     	goto	l2743
  4572  0BEC  2BDD               u970:
  4573  0BED                     	goto	l2749
  4574  0BED  2BEF               	
  4575                           l986:	
  4576  0BEE                     	goto	l2749
  4577  0BEE  2BEF               	line	20
  4578                           	
  4579                           l987:	
  4580  0BEF                     	line	21
  4581                           	
  4582                           l2749:	
  4583  0BEF                     	movlw	01h
  4584  0BEF  3001               	
  4585                           u985:
  4586  0BF0                     	clrc
  4587  0BF0  1003               	rlf	(___lwdiv@quotient),f
  4588  0BF1  0DF5               	rlf	(___lwdiv@quotient+1),f
  4589  0BF2  0DF6               	addlw	-1
  4590  0BF3  3EFF               	skipz
  4591  0BF4  1D03               	goto	u985
  4592  0BF5  2BF0               	line	22
  4593                           	movf	(___lwdiv@divisor+1),w
  4594  0BF6  0871               	subwf	(___lwdiv@dividend+1),w
  4595  0BF7  0273               	skipz
  4596  0BF8  1D03               	goto	u995
  4597  0BF9  2BFC               	movf	(___lwdiv@divisor),w
  4598  0BFA  0870               	subwf	(___lwdiv@dividend),w
  4599  0BFB  0272               u995:
  4600  0BFC                     	skipc
  4601  0BFC  1C03               	goto	u991
  4602  0BFD  2BFF               	goto	u990
  4603  0BFE  2C00               u991:
  4604  0BFF                     	goto	l2755
  4605  0BFF  2C08               u990:
  4606  0C00                     	line	23
  4607                           	
  4608                           l2751:	
  4609  0C00                     	movf	(___lwdiv@divisor),w
  4610  0C00  0870               	subwf	(___lwdiv@dividend),f
  4611  0C01  02F2               	movf	(___lwdiv@divisor+1),w
  4612  0C02  0871               	skipc
  4613  0C03  1C03               	decf	(___lwdiv@dividend+1),f
  4614  0C04  03F3               	subwf	(___lwdiv@dividend+1),f
  4615  0C05  02F3               	line	24
  4616                           	
  4617                           l2753:	
  4618  0C06                     	bsf	(___lwdiv@quotient)+(0/8),(0)&7
  4619  0C06  1475               	goto	l2755
  4620  0C07  2C08               	line	25
  4621                           	
  4622                           l988:	
  4623  0C08                     	line	26
  4624                           	
  4625                           l2755:	
  4626  0C08                     	movlw	01h
  4627  0C08  3001               	
  4628                           u1005:
  4629  0C09                     	clrc
  4630  0C09  1003               	rrf	(___lwdiv@divisor+1),f
  4631  0C0A  0CF1               	rrf	(___lwdiv@divisor),f
  4632  0C0B  0CF0               	addlw	-1
  4633  0C0C  3EFF               	skipz
  4634  0C0D  1D03               	goto	u1005
  4635  0C0E  2C09               	line	27
  4636                           	
  4637                           l2757:	
  4638  0C0F                     	movlw	01h
  4639  0C0F  3001               	subwf	(___lwdiv@counter),f
  4640  0C10  02F7               	btfss	status,2
  4641  0C11  1D03               	goto	u1011
  4642  0C12  2C14               	goto	u1010
  4643  0C13  2C15               u1011:
  4644  0C14                     	goto	l2749
  4645  0C14  2BEF               u1010:
  4646  0C15                     	goto	l2759
  4647  0C15  2C17               	
  4648                           l989:	
  4649  0C16                     	goto	l2759
  4650  0C16  2C17               	line	28
  4651                           	
  4652                           l983:	
  4653  0C17                     	line	29
  4654                           	
  4655                           l2759:	
  4656  0C17                     	movf	(___lwdiv@quotient+1),w
  4657  0C17  0876               	movwf	(?___lwdiv+1)
  4658  0C18  00F1               	movf	(___lwdiv@quotient),w
  4659  0C19  0875               	movwf	(?___lwdiv)
  4660  0C1A  00F0               	goto	l990
  4661  0C1B  2C1C               	
  4662                           l2761:	
  4663  0C1C                     	line	30
  4664                           	
  4665                           l990:	
  4666  0C1C                     	return
  4667  0C1C  0008               	opt stack 0
  4668                           GLOBAL	__end_of___lwdiv
  4669                           	__end_of___lwdiv:
  4670  0C1D                     	signat	___lwdiv,8314
  4671                           	global	_MotorDC
  4672                           
  4673 ;; *************** function _MotorDC *****************
  4674 ;; Defined at:
  4675 ;;		line 182 in file "CodigoYoselinYDiana.c"
  4676 ;; Parameters:    Size  Location     Type
  4677 ;;  Mode            2    4[COMMON] unsigned int 
  4678 ;; Auto vars:     Size  Location     Type
  4679 ;;		None
  4680 ;; Return value:  Size  Location     Type
  4681 ;;                  1    wreg      void 
  4682 ;; Registers used:
  4683 ;;		wreg, fsr0l, fsr0h, status,2, status,0, pclath, cstack
  4684 ;; Tracked objects:
  4685 ;;		On entry : 0/0
  4686 ;;		On exit  : 0/0
  4687 ;;		Unchanged: 0/0
  4688 ;; Data sizes:     COMMON   BANK0   BANK1   BANK3   BANK2
  4689 ;;      Params:         2       0       0       0       0
  4690 ;;      Locals:         0       0       0       0       0
  4691 ;;      Temps:          0       0       0       0       0
  4692 ;;      Totals:         2       0       0       0       0
  4693 ;;Total ram usage:        2 bytes
  4694 ;; Hardware stack levels used:    1
  4695 ;; Hardware stack levels required when called:    1
  4696 ;; This function calls:
  4697 ;;		_digitalWrite
  4698 ;; This function is called by:
  4699 ;;		_ModoEncendido
  4700 ;; This function uses a non-reentrant model
  4701 ;;
  4702                           psect	text11,local,class=CODE,delta=2,merge=1,group=0
  4703                           	file	"CodigoYoselinYDiana.c"
  4704                           	line	182
  4705                           global __ptext11
  4706                           __ptext11:	;psect for function _MotorDC
  4707  0C6B                     psect	text11
  4708                           	file	"CodigoYoselinYDiana.c"
  4709                           	line	182
  4710                           	global	__size_of_MotorDC
  4711                           	__size_of_MotorDC	equ	__end_of_MotorDC-_MotorDC
  4712  0066                     	
  4713                           _MotorDC:	
  4714  0C6B                     ;incstack = 0
  4715                           	opt	stack 4
  4716                           ; Regs used in _MotorDC: [wreg-fsr0h+status,2+status,0+pclath+cstack]
  4717                           	line	184
  4718                           	
  4719                           l2951:	
  4720  0C6B                     ;CodigoYoselinYDiana.c: 182: void MotorDC(unsigned int Mode);CodigoYoselinYDiana.c: 183:
                                  {;CodigoYoselinYDiana.c: 184:  switch(Mode)
  4721                           	goto	l2961
  4722  0C6B  2CC0               	line	186
  4723                           ;CodigoYoselinYDiana.c: 185:  {;CodigoYoselinYDiana.c: 186:   case 1:
  4724                           	
  4725                           l495:	
  4726  0C6C                     	line	187
  4727                           	
  4728                           l2953:	
  4729  0C6C                     ;CodigoYoselinYDiana.c: 187:    digitalWrite(MotorDCN,1);
  4730                           	clrf	(digitalWrite@value)
  4731  0C6C  01F0               	incf	(digitalWrite@value),f
  4732  0C6D  0AF0               	movlw	low((_MotorDCN-__stringbase))
  4733  0C6E  3013               	movwf	fsr0
  4734  0C6F  0084               	fcall	stringdir
  4735  0C70  120A  158A  200A  120A  158A  	fcall	_digitalWrite
  4736  0C75  120A  118A  241C  120A  158A  	line	188
  4737                           ;CodigoYoselinYDiana.c: 188:    digitalWrite(MotorDCP,0);
  4738                           	clrf	(digitalWrite@value)
  4739  0C7A  01F0               	movlw	low((_MotorDCP-__stringbase))
  4740  0C7B  3015               	movwf	fsr0
  4741  0C7C  0084               	fcall	stringdir
  4742  0C7D  120A  158A  200A  120A  158A  	fcall	_digitalWrite
  4743  0C82  120A  118A  241C  120A  158A  	line	189
  4744                           ;CodigoYoselinYDiana.c: 189:   break;
  4745                           	goto	l499
  4746  0C87  2CD0               	line	190
  4747                           ;CodigoYoselinYDiana.c: 190:   case 2:
  4748                           	
  4749                           l497:	
  4750  0C88                     	line	191
  4751                           	
  4752                           l2955:	
  4753  0C88                     ;CodigoYoselinYDiana.c: 191:    digitalWrite(MotorDCN,0);
  4754                           	clrf	(digitalWrite@value)
  4755  0C88  01F0               	movlw	low((_MotorDCN-__stringbase))
  4756  0C89  3013               	movwf	fsr0
  4757  0C8A  0084               	fcall	stringdir
  4758  0C8B  120A  158A  200A  120A  158A  	fcall	_digitalWrite
  4759  0C90  120A  118A  241C  120A  158A  	line	192
  4760                           ;CodigoYoselinYDiana.c: 192:    digitalWrite(MotorDCP,1);
  4761                           	clrf	(digitalWrite@value)
  4762  0C95  01F0               	incf	(digitalWrite@value),f
  4763  0C96  0AF0               	movlw	low((_MotorDCP-__stringbase))
  4764  0C97  3015               	movwf	fsr0
  4765  0C98  0084               	fcall	stringdir
  4766  0C99  120A  158A  200A  120A  158A  	fcall	_digitalWrite
  4767  0C9E  120A  118A  241C  120A  158A  	line	193
  4768                           ;CodigoYoselinYDiana.c: 193:   break;
  4769                           	goto	l499
  4770  0CA3  2CD0               	line	194
  4771                           ;CodigoYoselinYDiana.c: 194:   case 0:
  4772                           	
  4773                           l498:	
  4774  0CA4                     	line	195
  4775                           	
  4776                           l2957:	
  4777  0CA4                     ;CodigoYoselinYDiana.c: 195:    digitalWrite(MotorDCN,0);
  4778                           	clrf	(digitalWrite@value)
  4779  0CA4  01F0               	movlw	low((_MotorDCN-__stringbase))
  4780  0CA5  3013               	movwf	fsr0
  4781  0CA6  0084               	fcall	stringdir
  4782  0CA7  120A  158A  200A  120A  158A  	fcall	_digitalWrite
  4783  0CAC  120A  118A  241C  120A  158A  	line	196
  4784                           ;CodigoYoselinYDiana.c: 196:    digitalWrite(MotorDCP,0);
  4785                           	clrf	(digitalWrite@value)
  4786  0CB1  01F0               	movlw	low((_MotorDCP-__stringbase))
  4787  0CB2  3015               	movwf	fsr0
  4788  0CB3  0084               	fcall	stringdir
  4789  0CB4  120A  158A  200A  120A  158A  	fcall	_digitalWrite
  4790  0CB9  120A  118A  241C  120A  158A  	line	197
  4791                           ;CodigoYoselinYDiana.c: 197:   break;
  4792                           	goto	l499
  4793  0CBE  2CD0               	line	198
  4794                           	
  4795                           l2959:	
  4796  0CBF                     ;CodigoYoselinYDiana.c: 198:  }
  4797                           	goto	l499
  4798  0CBF  2CD0               	
  4799                           l494:	
  4800  0CC0                     	
  4801                           l2961:	
  4802  0CC0                     	; Switch on 2 bytes has been partitioned into a top level switch of size 1, and 1 sub-s
                                 witches
  4803                           ; Switch size 1, requested type "space"
  4804                           ; Number of cases is 1, Range of values is 0 to 0
  4805                           ; switch strategies available:
  4806                           ; Name         Instructions Cycles
  4807                           ; simple_byte            4     3 (average)
  4808                           ; direct_byte           11     8 (fixed)
  4809                           ; jumptable            260     6 (fixed)
  4810                           ;	Chosen strategy is simple_byte
  4811                           
  4812                           	movf (MotorDC@Mode+1),w
  4813  0CC0  0875               	opt asmopt_push
  4814                           	opt asmopt_off
  4815                           	xorlw	0^0	; case 0
  4816  0CC1  3A00               	skipnz
  4817  0CC2  1903               	goto	l3341
  4818  0CC3  2CC5               	goto	l499
  4819  0CC4  2CD0               	opt asmopt_pop
  4820                           	
  4821                           l3341:	
  4822  0CC5                     ; Switch size 1, requested type "space"
  4823                           ; Number of cases is 3, Range of values is 0 to 2
  4824                           ; switch strategies available:
  4825                           ; Name         Instructions Cycles
  4826                           ; simple_byte           10     6 (average)
  4827                           ; direct_byte           17     8 (fixed)
  4828                           ; jumptable            260     6 (fixed)
  4829                           ;	Chosen strategy is simple_byte
  4830                           
  4831                           	movf (MotorDC@Mode),w
  4832  0CC5  0874               	opt asmopt_push
  4833                           	opt asmopt_off
  4834                           	xorlw	0^0	; case 0
  4835  0CC6  3A00               	skipnz
  4836  0CC7  1903               	goto	l2957
  4837  0CC8  2CA4               	xorlw	1^0	; case 1
  4838  0CC9  3A01               	skipnz
  4839  0CCA  1903               	goto	l2953
  4840  0CCB  2C6C               	xorlw	2^1	; case 2
  4841  0CCC  3A03               	skipnz
  4842  0CCD  1903               	goto	l2955
  4843  0CCE  2C88               	goto	l499
  4844  0CCF  2CD0               	opt asmopt_pop
  4845                           
  4846                           	
  4847                           l496:	
  4848  0CD0                     	line	199
  4849                           	
  4850                           l499:	
  4851  0CD0                     	return
  4852  0CD0  0008               	opt stack 0
  4853                           GLOBAL	__end_of_MotorDC
  4854                           	__end_of_MotorDC:
  4855  0CD1                     	signat	_MotorDC,4217
  4856                           	global	_Contador
  4857                           
  4858 ;; *************** function _Contador *****************
  4859 ;; Defined at:
  4860 ;;		line 156 in file "CodigoYoselinYDiana.c"
  4861 ;; Parameters:    Size  Location     Type
  4862 ;;  mode            2    7[COMMON] unsigned int 
  4863 ;; Auto vars:     Size  Location     Type
  4864 ;;		None
  4865 ;; Return value:  Size  Location     Type
  4866 ;;                  2    7[COMMON] unsigned int 
  4867 ;; Registers used:
  4868 ;;		wreg, fsr0l, fsr0h, status,2, status,0, btemp+1, pclath, cstack
  4869 ;; Tracked objects:
  4870 ;;		On entry : 0/0
  4871 ;;		On exit  : 0/0
  4872 ;;		Unchanged: 0/0
  4873 ;; Data sizes:     COMMON   BANK0   BANK1   BANK3   BANK2
  4874 ;;      Params:         2       0       0       0       0
  4875 ;;      Locals:         0       0       0       0       0
  4876 ;;      Temps:          2       0       0       0       0
  4877 ;;      Totals:         4       0       0       0       0
  4878 ;;Total ram usage:        4 bytes
  4879 ;; Hardware stack levels used:    1
  4880 ;; Hardware stack levels required when called:    1
  4881 ;; This function calls:
  4882 ;;		_analogRead
  4883 ;;		_delay
  4884 ;; This function is called by:
  4885 ;;		_ModoEncendido
  4886 ;; This function uses a non-reentrant model
  4887 ;;
  4888                           psect	text12,local,class=CODE,delta=2,merge=1,group=0
  4889                           	line	156
  4890                           global __ptext12
  4891                           __ptext12:	;psect for function _Contador
  4892  0CD1                     psect	text12
  4893                           	file	"CodigoYoselinYDiana.c"
  4894                           	line	156
  4895                           	global	__size_of_Contador
  4896                           	__size_of_Contador	equ	__end_of_Contador-_Contador
  4897  0080                     	
  4898                           _Contador:	
  4899  0CD1                     ;incstack = 0
  4900                           	opt	stack 4
  4901                           ; Regs used in _Contador: [wreg-fsr0h+status,2+status,0+btemp+1+pclath+cstack]
  4902                           	line	160
  4903                           	
  4904                           l2867:	
  4905  0CD1                     ;CodigoYoselinYDiana.c: 156: unsigned int Contador(unsigned int mode);CodigoYoselinYDian
                                 a.c: 157: {;CodigoYoselinYDiana.c: 158:     const unsigned int Threshold = 20;;CodigoYos
                                 elinYDiana.c: 159:  static int cuenta;;CodigoYoselinYDiana.c: 160:  if(mode == 0)
  4906                           	movf	((Contador@mode)),w
  4907  0CD1  0877               iorwf	((Contador@mode+1)),w
  4908  0CD2  0478               	btfss	status,2
  4909  0CD3  1D03               	goto	u1131
  4910  0CD4  2CD6               	goto	u1130
  4911  0CD5  2CD7               u1131:
  4912  0CD6                     	goto	l2883
  4913  0CD6  2D41               u1130:
  4914  0CD7                     	line	162
  4915                           	
  4916                           l2869:	
  4917  0CD7                     ;CodigoYoselinYDiana.c: 161:  {;CodigoYoselinYDiana.c: 162:   if(analogRead(SensorProxim
                                 idad) >= Threshold)
  4918                           	movlw	low((Contador@Threshold-__stringbase))
  4919  0CD7  300B               	movwf	fsr0
  4920  0CD8  0084               	fcall	stringdir
  4921  0CD9  120A  158A  200A  120A  158A  	movwf	(??_Contador+0)+0
  4922  0CDE  00F9               	fcall	stringdir
  4923  0CDF  120A  158A  200A  120A  158A  	movwf	(??_Contador+0)+0+1
  4924  0CE4  00FA               	movlw	low((_SensorProximidad-__stringbase))
  4925  0CE5  3011               	movwf	fsr0
  4926  0CE6  0084               	fcall	stringdir
  4927  0CE7  120A  158A  200A  120A  158A  	fcall	_analogRead
  4928  0CEC  120A  158A  2656  120A  158A  	movf	1+(??_Contador+0)+0,w
  4929  0CF1  087A               	subwf	(1+(?_analogRead)),w
  4930  0CF2  0271               	skipz
  4931  0CF3  1D03               	goto	u1145
  4932  0CF4  2CF7               	movf	0+(??_Contador+0)+0,w
  4933  0CF5  0879               	subwf	(0+(?_analogRead)),w
  4934  0CF6  0270               u1145:
  4935  0CF7                     	skipc
  4936  0CF7  1C03               	goto	u1141
  4937  0CF8  2CFA               	goto	u1140
  4938  0CF9  2CFB               u1141:
  4939  0CFA                     	goto	l2879
  4940  0CFA  2D38               u1140:
  4941  0CFB                     	line	164
  4942                           	
  4943                           l2871:	
  4944  0CFB                     ;CodigoYoselinYDiana.c: 163:         {;CodigoYoselinYDiana.c: 164:             delay(15)
                                 ;
  4945                           	movlw	0Fh
  4946  0CFB  300F               	movwf	(delay@milis)
  4947  0CFC  00F0               	movlw	0
  4948  0CFD  3000               	movwf	((delay@milis))+1
  4949  0CFE  00F1               	fcall	_delay
  4950  0CFF  120A  158A  241D  120A  158A  	line	165
  4951                           	
  4952                           l2873:	
  4953  0D04                     ;CodigoYoselinYDiana.c: 165:             if(analogRead(SensorProximidad) >= Threshold)
  4954                           	movlw	low((Contador@Threshold-__stringbase))
  4955  0D04  300B               	movwf	fsr0
  4956  0D05  0084               	fcall	stringdir
  4957  0D06  120A  158A  200A  120A  158A  	movwf	(??_Contador+0)+0
  4958  0D0B  00F9               	fcall	stringdir
  4959  0D0C  120A  158A  200A  120A  158A  	movwf	(??_Contador+0)+0+1
  4960  0D11  00FA               	movlw	low((_SensorProximidad-__stringbase))
  4961  0D12  3011               	movwf	fsr0
  4962  0D13  0084               	fcall	stringdir
  4963  0D14  120A  158A  200A  120A  158A  	fcall	_analogRead
  4964  0D19  120A  158A  2656  120A  158A  	movf	1+(??_Contador+0)+0,w
  4965  0D1E  087A               	subwf	(1+(?_analogRead)),w
  4966  0D1F  0271               	skipz
  4967  0D20  1D03               	goto	u1155
  4968  0D21  2D24               	movf	0+(??_Contador+0)+0,w
  4969  0D22  0879               	subwf	(0+(?_analogRead)),w
  4970  0D23  0270               u1155:
  4971  0D24                     	skipc
  4972  0D24  1C03               	goto	u1151
  4973  0D25  2D27               	goto	u1150
  4974  0D26  2D28               u1151:
  4975  0D27                     	goto	l488
  4976  0D27  2D50               u1150:
  4977  0D28                     	line	167
  4978                           	
  4979                           l2875:	
  4980  0D28                     ;CodigoYoselinYDiana.c: 166:             {;CodigoYoselinYDiana.c: 167:                 r
                                 eturn cuenta++;
  4981                           	bcf	status, 5	;RP0=0, select bank0
  4982  0D28  1283               	bcf	status, 6	;RP1=0, select bank0
  4983  0D29  1303               	movf	(Contador@cuenta+1),w
  4984  0D2A  0831               	movwf	(??_Contador+0)+0+1
  4985  0D2B  00FA               	movf	(Contador@cuenta),w
  4986  0D2C  0830               	movwf	(??_Contador+0)+0
  4987  0D2D  00F9               	incf	(Contador@cuenta),f
  4988  0D2E  0AB0               	skipnz
  4989  0D2F  1903               	incf	(Contador@cuenta+1),f
  4990  0D30  0AB1               	movf	0+(??_Contador+0)+0,w
  4991  0D31  0879               	movwf	(?_Contador)
  4992  0D32  00F7               	movf	1+(??_Contador+0)+0,w
  4993  0D33  087A               	movwf	(?_Contador+1)
  4994  0D34  00F8               	goto	l488
  4995  0D35  2D50               	
  4996                           l2877:	
  4997  0D36                     	goto	l488
  4998  0D36  2D50               	line	168
  4999                           ;CodigoYoselinYDiana.c: 168:             }
  5000                           	
  5001                           l487:	
  5002  0D37                     	line	169
  5003                           ;CodigoYoselinYDiana.c: 169:         }
  5004                           	goto	l488
  5005  0D37  2D50               	line	170
  5006                           ;CodigoYoselinYDiana.c: 170:         else
  5007                           	
  5008                           l486:	
  5009  0D38                     	line	172
  5010                           	
  5011                           l2879:	
  5012  0D38                     ;CodigoYoselinYDiana.c: 171:         {;CodigoYoselinYDiana.c: 172:             return cu
                                 enta;
  5013                           	bcf	status, 5	;RP0=0, select bank0
  5014  0D38  1283               	bcf	status, 6	;RP1=0, select bank0
  5015  0D39  1303               	movf	(Contador@cuenta+1),w
  5016  0D3A  0831               	movwf	(?_Contador+1)
  5017  0D3B  00F8               	movf	(Contador@cuenta),w
  5018  0D3C  0830               	movwf	(?_Contador)
  5019  0D3D  00F7               	goto	l488
  5020  0D3E  2D50               	
  5021                           l2881:	
  5022  0D3F                     	goto	l488
  5023  0D3F  2D50               	line	173
  5024                           ;CodigoYoselinYDiana.c: 173:         }
  5025                           	
  5026                           l489:	
  5027  0D40                     	line	174
  5028                           ;CodigoYoselinYDiana.c: 174:  }
  5029                           	goto	l488
  5030  0D40  2D50               	line	175
  5031                           ;CodigoYoselinYDiana.c: 175:  else if(mode == 1)
  5032                           	
  5033                           l485:	
  5034  0D41                     	
  5035                           l2883:	
  5036  0D41                     		decf	((Contador@mode)),w
  5037  0D41  0377               iorwf	((Contador@mode+1)),w
  5038  0D42  0478               	btfss	status,2
  5039  0D43  1D03               	goto	u1161
  5040  0D44  2D46               	goto	u1160
  5041  0D45  2D47               u1161:
  5042  0D46                     	goto	l488
  5043  0D46  2D50               u1160:
  5044  0D47                     	line	177
  5045                           	
  5046                           l2885:	
  5047  0D47                     ;CodigoYoselinYDiana.c: 176:  {;CodigoYoselinYDiana.c: 177:         cuenta = 0;
  5048                           	bcf	status, 5	;RP0=0, select bank0
  5049  0D47  1283               	bcf	status, 6	;RP1=0, select bank0
  5050  0D48  1303               	clrf	(Contador@cuenta)
  5051  0D49  01B0               	clrf	(Contador@cuenta+1)
  5052  0D4A  01B1               	line	178
  5053                           ;CodigoYoselinYDiana.c: 178:   return 0;
  5054                           	clrf	(?_Contador)
  5055  0D4B  01F7               	clrf	(?_Contador+1)
  5056  0D4C  01F8               	goto	l488
  5057  0D4D  2D50               	
  5058                           l2887:	
  5059  0D4E                     	goto	l488
  5060  0D4E  2D50               	line	179
  5061                           ;CodigoYoselinYDiana.c: 179:  }
  5062                           	
  5063                           l491:	
  5064  0D4F                     	goto	l488
  5065  0D4F  2D50               	
  5066                           l490:	
  5067  0D50                     	line	180
  5068                           	
  5069                           l488:	
  5070  0D50                     	return
  5071  0D50  0008               	opt stack 0
  5072                           GLOBAL	__end_of_Contador
  5073                           	__end_of_Contador:
  5074  0D51                     	signat	_Contador,4218
  5075                           	global	_analogRead
  5076                           
  5077 ;; *************** function _analogRead *****************
  5078 ;; Defined at:
  5079 ;;		line 349 in file "source.c"
  5080 ;; Parameters:    Size  Location     Type
  5081 ;;  channel         1    wreg     unsigned char 
  5082 ;; Auto vars:     Size  Location     Type
  5083 ;;  channel         1    4[COMMON] unsigned char 
  5084 ;; Return value:  Size  Location     Type
  5085 ;;                  2    0[COMMON] unsigned int 
  5086 ;; Registers used:
  5087 ;;		wreg, fsr0l, fsr0h, status,2, status,0
  5088 ;; Tracked objects:
  5089 ;;		On entry : 0/0
  5090 ;;		On exit  : 0/0
  5091 ;;		Unchanged: 0/0
  5092 ;; Data sizes:     COMMON   BANK0   BANK1   BANK3   BANK2
  5093 ;;      Params:         2       0       0       0       0
  5094 ;;      Locals:         1       0       0       0       0
  5095 ;;      Temps:          2       0       0       0       0
  5096 ;;      Totals:         5       0       0       0       0
  5097 ;;Total ram usage:        5 bytes
  5098 ;; Hardware stack levels used:    1
  5099 ;; This function calls:
  5100 ;;		Nothing
  5101 ;; This function is called by:
  5102 ;;		_Contador
  5103 ;; This function uses a non-reentrant model
  5104 ;;
  5105                           psect	text13,local,class=CODE,delta=2,merge=1,group=0
  5106                           	file	"source.c"
  5107                           	line	349
  5108                           global __ptext13
  5109                           __ptext13:	;psect for function _analogRead
  5110  0E56                     psect	text13
  5111                           	file	"source.c"
  5112                           	line	349
  5113                           	global	__size_of_analogRead
  5114                           	__size_of_analogRead	equ	__end_of_analogRead-_analogRead
  5115  0086                     	
  5116                           _analogRead:	
  5117  0E56                     ;incstack = 0
  5118                           	opt	stack 4
  5119                           ; Regs used in _analogRead: [wreg-fsr0h+status,2+status,0]
  5120                           ;analogRead@channel stored from wreg
  5121                           	movwf	(analogRead@channel)
  5122  0E56  00F4               	line	351
  5123                           	
  5124                           l2661:	
  5125  0E57                     ;source.c: 349: unsigned int analogRead(char channel);source.c: 350: {;source.c: 351:   
                                   switch(channel)
  5126                           	goto	l2695
  5127  0E57  2EC2               	line	353
  5128                           ;source.c: 352:     {;source.c: 353:         case 0:
  5129                           	
  5130                           l243:	
  5131  0E58                     	line	354
  5132                           ;source.c: 354:             ADCON0bits.CHS2 = 0;
  5133                           	bcf	status, 5	;RP0=0, select bank0
  5134  0E58  1283               	bcf	status, 6	;RP1=0, select bank0
  5135  0E59  1303               	bcf	(31),5	;volatile
  5136  0E5A  129F               	line	355
  5137                           ;source.c: 355:             ADCON0bits.CHS1 = 0;
  5138                           	bcf	(31),4	;volatile
  5139  0E5B  121F               	line	356
  5140                           ;source.c: 356:             ADCON0bits.CHS0 = 0;
  5141                           	bcf	(31),3	;volatile
  5142  0E5C  119F               	line	357
  5143                           ;source.c: 357:             ADCON0bits.GO_DONE = 1;
  5144                           	bsf	(31),2	;volatile
  5145  0E5D  151F               	line	358
  5146                           ;source.c: 358:             while(ADCON0bits.GO_DONE != 0)
  5147                           	goto	l244
  5148  0E5E  2E5F               	
  5149                           l245:	
  5150  0E5F                     	line	361
  5151                           ;source.c: 359:             {;source.c: 361:             }
  5152                           	
  5153                           l244:	
  5154  0E5F                     	line	358
  5155                           ;source.c: 358:             while(ADCON0bits.GO_DONE != 0)
  5156                           	btfsc	(31),2	;volatile
  5157  0E5F  191F               	goto	u891
  5158  0E60  2E62               	goto	u890
  5159  0E61  2E63               u891:
  5160  0E62                     	goto	l244
  5161  0E62  2E5F               u890:
  5162  0E63                     	goto	l2663
  5163  0E63  2E64               	
  5164                           l246:	
  5165  0E64                     	line	362
  5166                           	
  5167                           l2663:	
  5168  0E64                     ;source.c: 362:             return (ADRESH << 8)+ ADRESL;
  5169                           	movf	(30),w	;volatile
  5170  0E64  081E               	movwf	(?_analogRead+1)
  5171  0E65  00F1               	bsf	status, 5	;RP0=1, select bank1
  5172  0E66  1683               	bcf	status, 6	;RP1=0, select bank1
  5173  0E67  1303               	movf	(158)^080h,w	;volatile
  5174  0E68  081E               	movwf	(?_analogRead)
  5175  0E69  00F0               	goto	l247
  5176  0E6A  2EDB               	
  5177                           l2665:	
  5178  0E6B                     	goto	l247
  5179  0E6B  2EDB               	line	363
  5180                           	
  5181                           l2667:	
  5182  0E6C                     ;source.c: 363:             break;
  5183                           	goto	l247
  5184  0E6C  2EDB               	line	364
  5185                           ;source.c: 364:         case 1:
  5186                           	
  5187                           l249:	
  5188  0E6D                     	line	365
  5189                           ;source.c: 365:             ADCON0bits.CHS2 = 0;
  5190                           	bcf	status, 5	;RP0=0, select bank0
  5191  0E6D  1283               	bcf	status, 6	;RP1=0, select bank0
  5192  0E6E  1303               	bcf	(31),5	;volatile
  5193  0E6F  129F               	line	366
  5194                           ;source.c: 366:             ADCON0bits.CHS1 = 0;
  5195                           	bcf	(31),4	;volatile
  5196  0E70  121F               	line	367
  5197                           ;source.c: 367:             ADCON0bits.CHS0 = 1;
  5198                           	bsf	(31),3	;volatile
  5199  0E71  159F               	line	368
  5200                           ;source.c: 368:             ADCON0bits.GO_DONE = 1;
  5201                           	bsf	(31),2	;volatile
  5202  0E72  151F               	line	369
  5203                           ;source.c: 369:             while(ADCON0bits.GO_DONE != 0)
  5204                           	goto	l250
  5205  0E73  2E74               	
  5206                           l251:	
  5207  0E74                     	line	372
  5208                           ;source.c: 370:             {;source.c: 372:             }
  5209                           	
  5210                           l250:	
  5211  0E74                     	line	369
  5212                           ;source.c: 369:             while(ADCON0bits.GO_DONE != 0)
  5213                           	btfsc	(31),2	;volatile
  5214  0E74  191F               	goto	u901
  5215  0E75  2E77               	goto	u900
  5216  0E76  2E78               u901:
  5217  0E77                     	goto	l250
  5218  0E77  2E74               u900:
  5219  0E78                     	goto	l2669
  5220  0E78  2E79               	
  5221                           l252:	
  5222  0E79                     	line	373
  5223                           	
  5224                           l2669:	
  5225  0E79                     ;source.c: 373:             return (ADRESH << 8)+ ADRESL;
  5226                           	movf	(30),w	;volatile
  5227  0E79  081E               	movwf	(?_analogRead+1)
  5228  0E7A  00F1               	bsf	status, 5	;RP0=1, select bank1
  5229  0E7B  1683               	bcf	status, 6	;RP1=0, select bank1
  5230  0E7C  1303               	movf	(158)^080h,w	;volatile
  5231  0E7D  081E               	movwf	(?_analogRead)
  5232  0E7E  00F0               	goto	l247
  5233  0E7F  2EDB               	
  5234                           l2671:	
  5235  0E80                     	goto	l247
  5236  0E80  2EDB               	line	374
  5237                           	
  5238                           l2673:	
  5239  0E81                     ;source.c: 374:             break;
  5240                           	goto	l247
  5241  0E81  2EDB               	line	375
  5242                           ;source.c: 375:         case 2:
  5243                           	
  5244                           l253:	
  5245  0E82                     	line	376
  5246                           ;source.c: 376:             ADCON0bits.CHS2 = 0;
  5247                           	bcf	status, 5	;RP0=0, select bank0
  5248  0E82  1283               	bcf	status, 6	;RP1=0, select bank0
  5249  0E83  1303               	bcf	(31),5	;volatile
  5250  0E84  129F               	line	377
  5251                           ;source.c: 377:             ADCON0bits.CHS1 = 1;
  5252                           	bsf	(31),4	;volatile
  5253  0E85  161F               	line	378
  5254                           ;source.c: 378:             ADCON0bits.CHS0 = 0;
  5255                           	bcf	(31),3	;volatile
  5256  0E86  119F               	line	379
  5257                           ;source.c: 379:             ADCON0bits.GO_DONE = 1;
  5258                           	bsf	(31),2	;volatile
  5259  0E87  151F               	line	380
  5260                           ;source.c: 380:             while(ADCON0bits.GO_DONE != 0)
  5261                           	goto	l254
  5262  0E88  2E89               	
  5263                           l255:	
  5264  0E89                     	line	383
  5265                           ;source.c: 381:             {;source.c: 383:             }
  5266                           	
  5267                           l254:	
  5268  0E89                     	line	380
  5269                           ;source.c: 380:             while(ADCON0bits.GO_DONE != 0)
  5270                           	btfsc	(31),2	;volatile
  5271  0E89  191F               	goto	u911
  5272  0E8A  2E8C               	goto	u910
  5273  0E8B  2E8D               u911:
  5274  0E8C                     	goto	l254
  5275  0E8C  2E89               u910:
  5276  0E8D                     	goto	l2675
  5277  0E8D  2E8E               	
  5278                           l256:	
  5279  0E8E                     	line	384
  5280                           	
  5281                           l2675:	
  5282  0E8E                     ;source.c: 384:             return (ADRESH << 8)+ ADRESL;
  5283                           	movf	(30),w	;volatile
  5284  0E8E  081E               	movwf	(?_analogRead+1)
  5285  0E8F  00F1               	bsf	status, 5	;RP0=1, select bank1
  5286  0E90  1683               	bcf	status, 6	;RP1=0, select bank1
  5287  0E91  1303               	movf	(158)^080h,w	;volatile
  5288  0E92  081E               	movwf	(?_analogRead)
  5289  0E93  00F0               	goto	l247
  5290  0E94  2EDB               	
  5291                           l2677:	
  5292  0E95                     	goto	l247
  5293  0E95  2EDB               	line	385
  5294                           	
  5295                           l2679:	
  5296  0E96                     ;source.c: 385:             break;
  5297                           	goto	l247
  5298  0E96  2EDB               	line	386
  5299                           ;source.c: 386:         case 3:
  5300                           	
  5301                           l257:	
  5302  0E97                     	line	387
  5303                           ;source.c: 387:             ADCON0bits.CHS2 = 0;
  5304                           	bcf	status, 5	;RP0=0, select bank0
  5305  0E97  1283               	bcf	status, 6	;RP1=0, select bank0
  5306  0E98  1303               	bcf	(31),5	;volatile
  5307  0E99  129F               	line	388
  5308                           ;source.c: 388:             ADCON0bits.CHS1 = 1;
  5309                           	bsf	(31),4	;volatile
  5310  0E9A  161F               	line	389
  5311                           ;source.c: 389:             ADCON0bits.CHS0 = 1;
  5312                           	bsf	(31),3	;volatile
  5313  0E9B  159F               	line	390
  5314                           ;source.c: 390:             ADCON0bits.GO_DONE = 1;
  5315                           	bsf	(31),2	;volatile
  5316  0E9C  151F               	line	391
  5317                           ;source.c: 391:             while(ADCON0bits.GO_DONE != 0)
  5318                           	goto	l258
  5319  0E9D  2E9E               	
  5320                           l259:	
  5321  0E9E                     	line	394
  5322                           ;source.c: 392:             {;source.c: 394:             }
  5323                           	
  5324                           l258:	
  5325  0E9E                     	line	391
  5326                           ;source.c: 391:             while(ADCON0bits.GO_DONE != 0)
  5327                           	btfsc	(31),2	;volatile
  5328  0E9E  191F               	goto	u921
  5329  0E9F  2EA1               	goto	u920
  5330  0EA0  2EA2               u921:
  5331  0EA1                     	goto	l258
  5332  0EA1  2E9E               u920:
  5333  0EA2                     	goto	l2681
  5334  0EA2  2EA3               	
  5335                           l260:	
  5336  0EA3                     	line	395
  5337                           	
  5338                           l2681:	
  5339  0EA3                     ;source.c: 395:             return (ADRESH << 8)+ ADRESL;
  5340                           	movf	(30),w	;volatile
  5341  0EA3  081E               	movwf	(?_analogRead+1)
  5342  0EA4  00F1               	bsf	status, 5	;RP0=1, select bank1
  5343  0EA5  1683               	bcf	status, 6	;RP1=0, select bank1
  5344  0EA6  1303               	movf	(158)^080h,w	;volatile
  5345  0EA7  081E               	movwf	(?_analogRead)
  5346  0EA8  00F0               	goto	l247
  5347  0EA9  2EDB               	
  5348                           l2683:	
  5349  0EAA                     	goto	l247
  5350  0EAA  2EDB               	line	396
  5351                           	
  5352                           l2685:	
  5353  0EAB                     ;source.c: 396:             break;
  5354                           	goto	l247
  5355  0EAB  2EDB               	line	397
  5356                           ;source.c: 397:         case 4:
  5357                           	
  5358                           l261:	
  5359  0EAC                     	line	398
  5360                           ;source.c: 398:             ADCON0bits.CHS2 = 1;
  5361                           	bcf	status, 5	;RP0=0, select bank0
  5362  0EAC  1283               	bcf	status, 6	;RP1=0, select bank0
  5363  0EAD  1303               	bsf	(31),5	;volatile
  5364  0EAE  169F               	line	399
  5365                           ;source.c: 399:             ADCON0bits.CHS1 = 0;
  5366                           	bcf	(31),4	;volatile
  5367  0EAF  121F               	line	400
  5368                           ;source.c: 400:             ADCON0bits.CHS0 = 0;
  5369                           	bcf	(31),3	;volatile
  5370  0EB0  119F               	line	401
  5371                           ;source.c: 401:             ADCON0bits.GO_DONE = 1;
  5372                           	bsf	(31),2	;volatile
  5373  0EB1  151F               	line	402
  5374                           ;source.c: 402:             while(ADCON0bits.GO_DONE != 0)
  5375                           	goto	l262
  5376  0EB2  2EB3               	
  5377                           l263:	
  5378  0EB3                     	line	405
  5379                           ;source.c: 403:             {;source.c: 405:             }
  5380                           	
  5381                           l262:	
  5382  0EB3                     	line	402
  5383                           ;source.c: 402:             while(ADCON0bits.GO_DONE != 0)
  5384                           	btfsc	(31),2	;volatile
  5385  0EB3  191F               	goto	u931
  5386  0EB4  2EB6               	goto	u930
  5387  0EB5  2EB7               u931:
  5388  0EB6                     	goto	l262
  5389  0EB6  2EB3               u930:
  5390  0EB7                     	goto	l2687
  5391  0EB7  2EB8               	
  5392                           l264:	
  5393  0EB8                     	line	406
  5394                           	
  5395                           l2687:	
  5396  0EB8                     ;source.c: 406:             return (ADRESH << 8)+ ADRESL;
  5397                           	movf	(30),w	;volatile
  5398  0EB8  081E               	movwf	(?_analogRead+1)
  5399  0EB9  00F1               	bsf	status, 5	;RP0=1, select bank1
  5400  0EBA  1683               	bcf	status, 6	;RP1=0, select bank1
  5401  0EBB  1303               	movf	(158)^080h,w	;volatile
  5402  0EBC  081E               	movwf	(?_analogRead)
  5403  0EBD  00F0               	goto	l247
  5404  0EBE  2EDB               	
  5405                           l2689:	
  5406  0EBF                     	goto	l247
  5407  0EBF  2EDB               	line	407
  5408                           	
  5409                           l2691:	
  5410  0EC0                     ;source.c: 407:             break;
  5411                           	goto	l247
  5412  0EC0  2EDB               	line	408
  5413                           	
  5414                           l2693:	
  5415  0EC1                     ;source.c: 408:     }
  5416                           	goto	l247
  5417  0EC1  2EDB               	
  5418                           l242:	
  5419  0EC2                     	
  5420                           l2695:	
  5421  0EC2                     	movf	(analogRead@channel),w
  5422  0EC2  0874               	movwf	(??_analogRead+0)+0
  5423  0EC3  00F2               	clrf	(??_analogRead+0)+0+1
  5424  0EC4  01F3               	; Switch on 2 bytes has been partitioned into a top level switch of size 1, and 1 sub-s
                                 witches
  5425                           ; Switch size 1, requested type "space"
  5426                           ; Number of cases is 1, Range of values is 0 to 0
  5427                           ; switch strategies available:
  5428                           ; Name         Instructions Cycles
  5429                           ; simple_byte            4     3 (average)
  5430                           ; direct_byte           11     8 (fixed)
  5431                           ; jumptable            260     6 (fixed)
  5432                           ;	Chosen strategy is simple_byte
  5433                           
  5434                           	movf 1+(??_analogRead+0)+0,w
  5435  0EC5  0873               	opt asmopt_push
  5436                           	opt asmopt_off
  5437                           	xorlw	0^0	; case 0
  5438  0EC6  3A00               	skipnz
  5439  0EC7  1903               	goto	l3343
  5440  0EC8  2ECA               	goto	l247
  5441  0EC9  2EDB               	opt asmopt_pop
  5442                           	
  5443                           l3343:	
  5444  0ECA                     ; Switch size 1, requested type "space"
  5445                           ; Number of cases is 5, Range of values is 0 to 4
  5446                           ; switch strategies available:
  5447                           ; Name         Instructions Cycles
  5448                           ; simple_byte           16     9 (average)
  5449                           ; direct_byte           23     8 (fixed)
  5450                           ; jumptable            260     6 (fixed)
  5451                           ;	Chosen strategy is simple_byte
  5452                           
  5453                           	movf 0+(??_analogRead+0)+0,w
  5454  0ECA  0872               	opt asmopt_push
  5455                           	opt asmopt_off
  5456                           	xorlw	0^0	; case 0
  5457  0ECB  3A00               	skipnz
  5458  0ECC  1903               	goto	l243
  5459  0ECD  2E58               	xorlw	1^0	; case 1
  5460  0ECE  3A01               	skipnz
  5461  0ECF  1903               	goto	l249
  5462  0ED0  2E6D               	xorlw	2^1	; case 2
  5463  0ED1  3A03               	skipnz
  5464  0ED2  1903               	goto	l253
  5465  0ED3  2E82               	xorlw	3^2	; case 3
  5466  0ED4  3A01               	skipnz
  5467  0ED5  1903               	goto	l257
  5468  0ED6  2E97               	xorlw	4^3	; case 4
  5469  0ED7  3A07               	skipnz
  5470  0ED8  1903               	goto	l261
  5471  0ED9  2EAC               	goto	l247
  5472  0EDA  2EDB               	opt asmopt_pop
  5473                           
  5474                           	
  5475                           l248:	
  5476  0EDB                     	line	409
  5477                           	
  5478                           l247:	
  5479  0EDB                     	return
  5480  0EDB  0008               	opt stack 0
  5481                           GLOBAL	__end_of_analogRead
  5482                           	__end_of_analogRead:
  5483  0EDC                     	signat	_analogRead,4218
  5484                           	global	_ModoApagado
  5485                           
  5486 ;; *************** function _ModoApagado *****************
  5487 ;; Defined at:
  5488 ;;		line 103 in file "CodigoYoselinYDiana.c"
  5489 ;; Parameters:    Size  Location     Type
  5490 ;;		None
  5491 ;; Auto vars:     Size  Location     Type
  5492 ;;		None
  5493 ;; Return value:  Size  Location     Type
  5494 ;;                  1    wreg      void 
  5495 ;; Registers used:
  5496 ;;		wreg, fsr0l, fsr0h, status,2, status,0, btemp+1, pclath, cstack
  5497 ;; Tracked objects:
  5498 ;;		On entry : 0/0
  5499 ;;		On exit  : 0/0
  5500 ;;		Unchanged: 0/0
  5501 ;; Data sizes:     COMMON   BANK0   BANK1   BANK3   BANK2
  5502 ;;      Params:         0       0       0       0       0
  5503 ;;      Locals:         0       0       0       0       0
  5504 ;;      Temps:          0       0       0       0       0
  5505 ;;      Totals:         0       0       0       0       0
  5506 ;;Total ram usage:        0 bytes
  5507 ;; Hardware stack levels used:    1
  5508 ;; Hardware stack levels required when called:    5
  5509 ;; This function calls:
  5510 ;;		_lcdPrint
  5511 ;;		_lcdSetCursor
  5512 ;; This function is called by:
  5513 ;;		_loop
  5514 ;; This function uses a non-reentrant model
  5515 ;;
  5516                           psect	text14,local,class=CODE,delta=2,merge=1,group=0
  5517                           	file	"CodigoYoselinYDiana.c"
  5518                           	line	103
  5519                           global __ptext14
  5520                           __ptext14:	;psect for function _ModoApagado
  5521  0AC8                     psect	text14
  5522                           	file	"CodigoYoselinYDiana.c"
  5523                           	line	103
  5524                           	global	__size_of_ModoApagado
  5525                           	__size_of_ModoApagado	equ	__end_of_ModoApagado-_ModoApagado
  5526  0027                     	
  5527                           _ModoApagado:	
  5528  0AC8                     ;incstack = 0
  5529                           	opt	stack 1
  5530                           ; Regs used in _ModoApagado: [wreg-fsr0h+status,2+status,0+btemp+1+pclath+cstack]
  5531                           	line	105
  5532                           	
  5533                           l3025:	
  5534  0AC8                     ;CodigoYoselinYDiana.c: 105:     lcdSetCursor(1,1);
  5535                           	clrf	(lcdSetCursor@column)
  5536  0AC8  01FC               	incf	(lcdSetCursor@column),f
  5537  0AC9  0AFC               	movlw	low(01h)
  5538  0ACA  3001               	fcall	_lcdSetCursor
  5539  0ACB  120A  158A  22EF  120A  158A  	line	106
  5540                           ;CodigoYoselinYDiana.c: 106:     lcdPrint(" Equipo Divinas ");
  5541                           	movlw	(low((((STR_1)-__stringbase)|8000h)))&0ffh
  5542  0AD0  3027               	bcf	status, 5	;RP0=0, select bank0
  5543  0AD1  1283               	bcf	status, 6	;RP1=0, select bank0
  5544  0AD2  1303               	movwf	(lcdPrint@string)
  5545  0AD3  00C4               	movlw	80h
  5546  0AD4  3080               	movwf	(lcdPrint@string+1)
  5547  0AD5  00C5               	fcall	_lcdPrint
  5548  0AD6  120A  158A  238A  120A  158A  	line	107
  5549                           ;CodigoYoselinYDiana.c: 107:     lcdSetCursor(2,1);
  5550                           	clrf	(lcdSetCursor@column)
  5551  0ADB  01FC               	incf	(lcdSetCursor@column),f
  5552  0ADC  0AFC               	movlw	low(02h)
  5553  0ADD  3002               	fcall	_lcdSetCursor
  5554  0ADE  120A  158A  22EF  120A  158A  	line	108
  5555                           ;CodigoYoselinYDiana.c: 108:     lcdPrint("18:Feb:20-5BIEE");
  5556                           	movlw	(low((((STR_2)-__stringbase)|8000h)))&0ffh
  5557  0AE3  3038               	bcf	status, 5	;RP0=0, select bank0
  5558  0AE4  1283               	bcf	status, 6	;RP1=0, select bank0
  5559  0AE5  1303               	movwf	(lcdPrint@string)
  5560  0AE6  00C4               	movlw	80h
  5561  0AE7  3080               	movwf	(lcdPrint@string+1)
  5562  0AE8  00C5               	fcall	_lcdPrint
  5563  0AE9  120A  158A  238A  120A  158A  	line	113
  5564                           	
  5565                           l465:	
  5566  0AEE                     	return
  5567  0AEE  0008               	opt stack 0
  5568                           GLOBAL	__end_of_ModoApagado
  5569                           	__end_of_ModoApagado:
  5570  0AEF                     	signat	_ModoApagado,89
  5571                           	global	_lcdSetCursor
  5572                           
  5573 ;; *************** function _lcdSetCursor *****************
  5574 ;; Defined at:
  5575 ;;		line 49 in file "LCD16x2.c"
  5576 ;; Parameters:    Size  Location     Type
  5577 ;;  row             1    wreg     unsigned char 
  5578 ;;  column          1   12[COMMON] unsigned char 
  5579 ;; Auto vars:     Size  Location     Type
  5580 ;;  row             1    0[BANK0 ] unsigned char 
  5581 ;;  location        1    1[BANK0 ] unsigned char 
  5582 ;; Return value:  Size  Location     Type
  5583 ;;                  1    wreg      void 
  5584 ;; Registers used:
  5585 ;;		wreg, fsr0l, fsr0h, status,2, status,0, btemp+1, pclath, cstack
  5586 ;; Tracked objects:
  5587 ;;		On entry : 0/0
  5588 ;;		On exit  : 0/0
  5589 ;;		Unchanged: 0/0
  5590 ;; Data sizes:     COMMON   BANK0   BANK1   BANK3   BANK2
  5591 ;;      Params:         1       0       0       0       0
  5592 ;;      Locals:         0       2       0       0       0
  5593 ;;      Temps:          1       0       0       0       0
  5594 ;;      Totals:         2       2       0       0       0
  5595 ;;Total ram usage:        4 bytes
  5596 ;; Hardware stack levels used:    1
  5597 ;; Hardware stack levels required when called:    3
  5598 ;; This function calls:
  5599 ;;		_WriteInstruction
  5600 ;; This function is called by:
  5601 ;;		_ModoApagado
  5602 ;;		_ModoEncendido
  5603 ;; This function uses a non-reentrant model
  5604 ;;
  5605                           psect	text15,local,class=CODE,delta=2,merge=1,group=0
  5606                           	file	"LCD16x2.c"
  5607                           	line	49
  5608                           global __ptext15
  5609                           __ptext15:	;psect for function _lcdSetCursor
  5610  0AEF                     psect	text15
  5611                           	file	"LCD16x2.c"
  5612                           	line	49
  5613                           	global	__size_of_lcdSetCursor
  5614                           	__size_of_lcdSetCursor	equ	__end_of_lcdSetCursor-_lcdSetCursor
  5615  002C                     	
  5616                           _lcdSetCursor:	
  5617  0AEF                     ;incstack = 0
  5618                           	opt	stack 2
  5619                           ; Regs used in _lcdSetCursor: [wreg-fsr0h+status,2+status,0+btemp+1+pclath+cstack]
  5620                           ;lcdSetCursor@row stored from wreg
  5621                           	bcf	status, 5	;RP0=0, select bank0
  5622  0AEF  1283               	bcf	status, 6	;RP1=0, select bank0
  5623  0AF0  1303               	movwf	(lcdSetCursor@row)
  5624  0AF1  00C4               	line	51
  5625                           	
  5626                           l2845:	
  5627  0AF2                     ;LCD16x2.c: 49: void lcdSetCursor(char row, char column);LCD16x2.c: 50: {;LCD16x2.c: 51:
                                      char location = 0;
  5628                           	clrf	(lcdSetCursor@location)
  5629  0AF2  01C5               	line	52
  5630                           	
  5631                           l2847:	
  5632  0AF3                     ;LCD16x2.c: 52:     if(row == 1)
  5633                           		decf	((lcdSetCursor@row)),w
  5634  0AF3  0344               	btfss	status,2
  5635  0AF4  1D03               	goto	u1081
  5636  0AF5  2AF7               	goto	u1080
  5637  0AF6  2AF8               u1081:
  5638  0AF7                     	goto	l2853
  5639  0AF7  2B04               u1080:
  5640  0AF8                     	line	54
  5641                           	
  5642                           l2849:	
  5643  0AF8                     ;LCD16x2.c: 53:     {;LCD16x2.c: 54:         location = (0x80) + (column - 1);
  5644                           	movf	(lcdSetCursor@column),w
  5645  0AF8  087C               	addlw	07Fh
  5646  0AF9  3E7F               	movwf	(??_lcdSetCursor+0)+0
  5647  0AFA  00FD               	movf	(??_lcdSetCursor+0)+0,w
  5648  0AFB  087D               	movwf	(lcdSetCursor@location)
  5649  0AFC  00C5               	line	55
  5650                           	
  5651                           l2851:	
  5652  0AFD                     ;LCD16x2.c: 55:         WriteInstruction(location);
  5653                           	movf	(lcdSetCursor@location),w
  5654  0AFD  0845               	fcall	_WriteInstruction
  5655  0AFE  120A  158A  2551  120A  158A  	line	56
  5656                           ;LCD16x2.c: 56:     }
  5657                           	goto	l542
  5658  0B03  2B1A               	line	57
  5659                           ;LCD16x2.c: 57:     else if(row == 2)
  5660                           	
  5661                           l538:	
  5662  0B04                     	
  5663                           l2853:	
  5664  0B04                     		movlw	2
  5665  0B04  3002               	bcf	status, 5	;RP0=0, select bank0
  5666  0B05  1283               	bcf	status, 6	;RP1=0, select bank0
  5667  0B06  1303               	xorwf	((lcdSetCursor@row)),w
  5668  0B07  0644               	btfss	status,2
  5669  0B08  1D03               	goto	u1091
  5670  0B09  2B0B               	goto	u1090
  5671  0B0A  2B0C               u1091:
  5672  0B0B                     	goto	l542
  5673  0B0B  2B1A               u1090:
  5674  0B0C                     	line	59
  5675                           	
  5676                           l2855:	
  5677  0B0C                     ;LCD16x2.c: 58:     {;LCD16x2.c: 59:         location = 0xC0 + (column - 1);
  5678                           	movf	(lcdSetCursor@column),w
  5679  0B0C  087C               	addlw	0BFh
  5680  0B0D  3EBF               	movwf	(??_lcdSetCursor+0)+0
  5681  0B0E  00FD               	movf	(??_lcdSetCursor+0)+0,w
  5682  0B0F  087D               	movwf	(lcdSetCursor@location)
  5683  0B10  00C5               	line	60
  5684                           	
  5685                           l2857:	
  5686  0B11                     ;LCD16x2.c: 60:         WriteInstruction(location);
  5687                           	movf	(lcdSetCursor@location),w
  5688  0B11  0845               	fcall	_WriteInstruction
  5689  0B12  120A  158A  2551  120A  158A  	line	61
  5690                           ;LCD16x2.c: 61:     }
  5691                           	goto	l542
  5692  0B17  2B1A               	line	62
  5693                           ;LCD16x2.c: 62:     else
  5694                           	
  5695                           l540:	
  5696  0B18                     	line	64
  5697                           ;LCD16x2.c: 63:     {;LCD16x2.c: 64:         return;
  5698                           	goto	l542
  5699  0B18  2B1A               	line	65
  5700                           ;LCD16x2.c: 65:     }
  5701                           	
  5702                           l541:	
  5703  0B19                     	goto	l542
  5704  0B19  2B1A               	
  5705                           l539:	
  5706  0B1A                     	line	66
  5707                           	
  5708                           l542:	
  5709  0B1A                     	return
  5710  0B1A  0008               	opt stack 0
  5711                           GLOBAL	__end_of_lcdSetCursor
  5712                           	__end_of_lcdSetCursor:
  5713  0B1B                     	signat	_lcdSetCursor,8313
  5714                           	global	_WriteInstruction
  5715                           
  5716 ;; *************** function _WriteInstruction *****************
  5717 ;; Defined at:
  5718 ;;		line 128 in file "LCD16x2.c"
  5719 ;; Parameters:    Size  Location     Type
  5720 ;;  instruction     1    wreg     unsigned char 
  5721 ;; Auto vars:     Size  Location     Type
  5722 ;;  instruction     1   10[COMMON] unsigned char 
  5723 ;;  MSNibble        1   11[COMMON] unsigned char 
  5724 ;;  LSNibble        1    9[COMMON] unsigned char 
  5725 ;; Return value:  Size  Location     Type
  5726 ;;                  1    wreg      void 
  5727 ;; Registers used:
  5728 ;;		wreg, fsr0l, fsr0h, status,2, status,0, btemp+1, pclath, cstack
  5729 ;; Tracked objects:
  5730 ;;		On entry : 0/0
  5731 ;;		On exit  : 0/0
  5732 ;;		Unchanged: 0/0
  5733 ;; Data sizes:     COMMON   BANK0   BANK1   BANK3   BANK2
  5734 ;;      Params:         0       0       0       0       0
  5735 ;;      Locals:         3       0       0       0       0
  5736 ;;      Temps:          2       0       0       0       0
  5737 ;;      Totals:         5       0       0       0       0
  5738 ;;Total ram usage:        5 bytes
  5739 ;; Hardware stack levels used:    1
  5740 ;; Hardware stack levels required when called:    2
  5741 ;; This function calls:
  5742 ;;		_ByteByNibble
  5743 ;;		_delay
  5744 ;;		_digitalWrite
  5745 ;; This function is called by:
  5746 ;;		_lcdBegin
  5747 ;;		_lcdClear
  5748 ;;		_lcdSetCursor
  5749 ;; This function uses a non-reentrant model
  5750 ;;
  5751                           psect	text16,local,class=CODE,delta=2,merge=1,group=0
  5752                           	line	128
  5753                           global __ptext16
  5754                           __ptext16:	;psect for function _WriteInstruction
  5755  0D51                     psect	text16
  5756                           	file	"LCD16x2.c"
  5757                           	line	128
  5758                           	global	__size_of_WriteInstruction
  5759                           	__size_of_WriteInstruction	equ	__end_of_WriteInstruction-_WriteInstruction
  5760  0082                     	
  5761                           _WriteInstruction:	
  5762  0D51                     ;incstack = 0
  5763                           	opt	stack 3
  5764                           ; Regs used in _WriteInstruction: [wreg-fsr0h+status,2+status,0+btemp+1+pclath+cstack]
  5765                           ;WriteInstruction@instruction stored from wreg
  5766                           	movwf	(WriteInstruction@instruction)
  5767  0D51  00FA               	line	130
  5768                           	
  5769                           l2701:	
  5770  0D52                     ;LCD16x2.c: 128: void WriteInstruction(char instruction);LCD16x2.c: 129: {;LCD16x2.c: 13
                                 0:     char MSNibble = 0;
  5771                           	clrf	(WriteInstruction@MSNibble)
  5772  0D52  01FB               	line	131
  5773                           ;LCD16x2.c: 131:     char LSNibble = 0;
  5774                           	clrf	(WriteInstruction@LSNibble)
  5775  0D53  01F9               	line	132
  5776                           	
  5777                           l2703:	
  5778  0D54                     ;LCD16x2.c: 132:     MSNibble = instruction & 0xF0;
  5779                           	movf	(WriteInstruction@instruction),w
  5780  0D54  087A               	andlw	0F0h
  5781  0D55  39F0               	movwf	(??_WriteInstruction+0)+0
  5782  0D56  00F7               	movf	(??_WriteInstruction+0)+0,w
  5783  0D57  0877               	movwf	(WriteInstruction@MSNibble)
  5784  0D58  00FB               	line	133
  5785                           	
  5786                           l2705:	
  5787  0D59                     ;LCD16x2.c: 133:     MSNibble = (MSNibble >> 4);
  5788                           	movf	(WriteInstruction@MSNibble),w
  5789  0D59  087B               	movwf	(??_WriteInstruction+0)+0
  5790  0D5A  00F7               	movlw	04h
  5791  0D5B  3004               u945:
  5792  0D5C                     	clrc
  5793  0D5C  1003               	rrf	(??_WriteInstruction+0)+0,f
  5794  0D5D  0CF7               	addlw	-1
  5795  0D5E  3EFF               	skipz
  5796  0D5F  1D03               	goto	u945
  5797  0D60  2D5C               	movf	0+(??_WriteInstruction+0)+0,w
  5798  0D61  0877               	movwf	(??_WriteInstruction+1)+0
  5799  0D62  00F8               	movf	(??_WriteInstruction+1)+0,w
  5800  0D63  0878               	movwf	(WriteInstruction@MSNibble)
  5801  0D64  00FB               	line	134
  5802                           	
  5803                           l2707:	
  5804  0D65                     ;LCD16x2.c: 134:     LSNibble = instruction & 0x0F;
  5805                           	movf	(WriteInstruction@instruction),w
  5806  0D65  087A               	andlw	0Fh
  5807  0D66  390F               	movwf	(??_WriteInstruction+0)+0
  5808  0D67  00F7               	movf	(??_WriteInstruction+0)+0,w
  5809  0D68  0877               	movwf	(WriteInstruction@LSNibble)
  5810  0D69  00F9               	line	135
  5811                           	
  5812                           l2709:	
  5813  0D6A                     ;LCD16x2.c: 135:     ByteByNibble(MSNibble);
  5814                           	movf	(WriteInstruction@MSNibble),w
  5815  0D6A  087B               	fcall	_ByteByNibble
  5816  0D6B  120A  118A  253F  120A  158A  	line	136
  5817                           	
  5818                           l2711:	
  5819  0D70                     ;LCD16x2.c: 136:     digitalWrite(RSPin,0);
  5820                           	clrf	(digitalWrite@value)
  5821  0D70  01F0               	bcf	status, 5	;RP0=0, select bank0
  5822  0D71  1283               	bcf	status, 6	;RP1=0, select bank0
  5823  0D72  1303               	movf	(_RSPin),w
  5824  0D73  0861               	fcall	_digitalWrite
  5825  0D74  120A  118A  241C  120A  158A  	line	137
  5826                           	
  5827                           l2713:	
  5828  0D79                     ;LCD16x2.c: 137:     digitalWrite(RWPin,0);
  5829                           	clrf	(digitalWrite@value)
  5830  0D79  01F0               	bcf	status, 5	;RP0=0, select bank0
  5831  0D7A  1283               	bcf	status, 6	;RP1=0, select bank0
  5832  0D7B  1303               	movf	(_RWPin),w
  5833  0D7C  085D               	fcall	_digitalWrite
  5834  0D7D  120A  118A  241C  120A  158A  	line	138
  5835                           	
  5836                           l2715:	
  5837  0D82                     ;LCD16x2.c: 138:     digitalWrite(ENPin,1);
  5838                           	clrf	(digitalWrite@value)
  5839  0D82  01F0               	incf	(digitalWrite@value),f
  5840  0D83  0AF0               	bcf	status, 5	;RP0=0, select bank0
  5841  0D84  1283               	bcf	status, 6	;RP1=0, select bank0
  5842  0D85  1303               	movf	(_ENPin),w
  5843  0D86  085F               	fcall	_digitalWrite
  5844  0D87  120A  118A  241C  120A  158A  	line	139
  5845                           	
  5846                           l2717:	
  5847  0D8C                     ;LCD16x2.c: 139:     delay(5);
  5848                           	movlw	05h
  5849  0D8C  3005               	movwf	(delay@milis)
  5850  0D8D  00F0               	movlw	0
  5851  0D8E  3000               	movwf	((delay@milis))+1
  5852  0D8F  00F1               	fcall	_delay
  5853  0D90  120A  158A  241D  120A  158A  	line	141
  5854                           	
  5855                           l2719:	
  5856  0D95                     ;LCD16x2.c: 141:     digitalWrite(ENPin,0);
  5857                           	clrf	(digitalWrite@value)
  5858  0D95  01F0               	bcf	status, 5	;RP0=0, select bank0
  5859  0D96  1283               	bcf	status, 6	;RP1=0, select bank0
  5860  0D97  1303               	movf	(_ENPin),w
  5861  0D98  085F               	fcall	_digitalWrite
  5862  0D99  120A  118A  241C  120A  158A  	line	142
  5863                           	
  5864                           l2721:	
  5865  0D9E                     ;LCD16x2.c: 142:     delay(5);
  5866                           	movlw	05h
  5867  0D9E  3005               	movwf	(delay@milis)
  5868  0D9F  00F0               	movlw	0
  5869  0DA0  3000               	movwf	((delay@milis))+1
  5870  0DA1  00F1               	fcall	_delay
  5871  0DA2  120A  158A  241D  120A  158A  	line	143
  5872                           	
  5873                           l2723:	
  5874  0DA7                     ;LCD16x2.c: 143:     ByteByNibble(LSNibble);
  5875                           	movf	(WriteInstruction@LSNibble),w
  5876  0DA7  0879               	fcall	_ByteByNibble
  5877  0DA8  120A  118A  253F  120A  158A  	line	144
  5878                           	
  5879                           l2725:	
  5880  0DAD                     ;LCD16x2.c: 144:     digitalWrite(ENPin,1);
  5881                           	clrf	(digitalWrite@value)
  5882  0DAD  01F0               	incf	(digitalWrite@value),f
  5883  0DAE  0AF0               	bcf	status, 5	;RP0=0, select bank0
  5884  0DAF  1283               	bcf	status, 6	;RP1=0, select bank0
  5885  0DB0  1303               	movf	(_ENPin),w
  5886  0DB1  085F               	fcall	_digitalWrite
  5887  0DB2  120A  118A  241C  120A  158A  	line	145
  5888                           	
  5889                           l2727:	
  5890  0DB7                     ;LCD16x2.c: 145:     delay(5);
  5891                           	movlw	05h
  5892  0DB7  3005               	movwf	(delay@milis)
  5893  0DB8  00F0               	movlw	0
  5894  0DB9  3000               	movwf	((delay@milis))+1
  5895  0DBA  00F1               	fcall	_delay
  5896  0DBB  120A  158A  241D  120A  158A  	line	147
  5897                           	
  5898                           l2729:	
  5899  0DC0                     ;LCD16x2.c: 147:     digitalWrite(ENPin,0);
  5900                           	clrf	(digitalWrite@value)
  5901  0DC0  01F0               	bcf	status, 5	;RP0=0, select bank0
  5902  0DC1  1283               	bcf	status, 6	;RP1=0, select bank0
  5903  0DC2  1303               	movf	(_ENPin),w
  5904  0DC3  085F               	fcall	_digitalWrite
  5905  0DC4  120A  118A  241C  120A  158A  	line	148
  5906                           	
  5907                           l2731:	
  5908  0DC9                     ;LCD16x2.c: 148:     delay(3);
  5909                           	movlw	03h
  5910  0DC9  3003               	movwf	(delay@milis)
  5911  0DCA  00F0               	movlw	0
  5912  0DCB  3000               	movwf	((delay@milis))+1
  5913  0DCC  00F1               	fcall	_delay
  5914  0DCD  120A  158A  241D  120A  158A  	line	149
  5915                           	
  5916                           l571:	
  5917  0DD2                     	return
  5918  0DD2  0008               	opt stack 0
  5919                           GLOBAL	__end_of_WriteInstruction
  5920                           	__end_of_WriteInstruction:
  5921  0DD3                     	signat	_WriteInstruction,4217
  5922                           	global	_lcdPrint
  5923                           
  5924 ;; *************** function _lcdPrint *****************
  5925 ;; Defined at:
  5926 ;;		line 72 in file "LCD16x2.c"
  5927 ;; Parameters:    Size  Location     Type
  5928 ;;  string          2    0[BANK0 ] PTR unsigned char 
  5929 ;;		 -> STR_8(14), STR_7(14), STR_6(14), STR_5(14), 
  5930 ;;		 -> STR_4(14), FirstROW(16), STR_2(16), STR_1(17), 
  5931 ;; Auto vars:     Size  Location     Type
  5932 ;;  i               2    5[BANK0 ] int 
  5933 ;; Return value:  Size  Location     Type
  5934 ;;                  1    wreg      void 
  5935 ;; Registers used:
  5936 ;;		wreg, fsr0l, fsr0h, status,2, status,0, btemp+1, pclath, cstack
  5937 ;; Tracked objects:
  5938 ;;		On entry : 0/0
  5939 ;;		On exit  : 0/0
  5940 ;;		Unchanged: 0/0
  5941 ;; Data sizes:     COMMON   BANK0   BANK1   BANK3   BANK2
  5942 ;;      Params:         0       2       0       0       0
  5943 ;;      Locals:         0       2       0       0       0
  5944 ;;      Temps:          0       3       0       0       0
  5945 ;;      Totals:         0       7       0       0       0
  5946 ;;Total ram usage:        7 bytes
  5947 ;; Hardware stack levels used:    1
  5948 ;; Hardware stack levels required when called:    4
  5949 ;; This function calls:
  5950 ;;		_lcdWrite
  5951 ;; This function is called by:
  5952 ;;		_ModoApagado
  5953 ;;		_ModoEncendido
  5954 ;; This function uses a non-reentrant model
  5955 ;;
  5956                           psect	text17,local,class=CODE,delta=2,merge=1,group=0
  5957                           	line	72
  5958                           global __ptext17
  5959                           __ptext17:	;psect for function _lcdPrint
  5960  0B8A                     psect	text17
  5961                           	file	"LCD16x2.c"
  5962                           	line	72
  5963                           	global	__size_of_lcdPrint
  5964                           	__size_of_lcdPrint	equ	__end_of_lcdPrint-_lcdPrint
  5965  0048                     	
  5966                           _lcdPrint:	
  5967  0B8A                     ;incstack = 0
  5968                           	opt	stack 1
  5969                           ; Regs used in _lcdPrint: [wreg-fsr0h+status,2+status,0+btemp+1+pclath+cstack]
  5970                           	line	74
  5971                           	
  5972                           l2859:	
  5973  0B8A                     ;LCD16x2.c: 72: void lcdPrint(char *string);LCD16x2.c: 73: {;LCD16x2.c: 74:     for(int 
                                 i=0;string[i] != '\0';i++)
  5974                           	bcf	status, 5	;RP0=0, select bank0
  5975  0B8A  1283               	bcf	status, 6	;RP1=0, select bank0
  5976  0B8B  1303               	clrf	(lcdPrint@i)
  5977  0B8C  01C9               	clrf	(lcdPrint@i+1)
  5978  0B8D  01CA               	goto	l2865
  5979  0B8E  2BB4               	
  5980                           l549:	
  5981  0B8F                     	line	76
  5982                           	
  5983                           l2861:	
  5984  0B8F                     ;LCD16x2.c: 75:     {;LCD16x2.c: 76:         lcdWrite(string[i]);
  5985                           	movf	(lcdPrint@i),w
  5986  0B8F  0849               	addwf	(lcdPrint@string),w
  5987  0B90  0744               	movwf	(??_lcdPrint+1)+0
  5988  0B91  00C7               	movf	(lcdPrint@string+1),w
  5989  0B92  0845               	movwf	(??_lcdPrint+0)+0
  5990  0B93  00C6               	skipnc
  5991  0B94  1803               	incf	(??_lcdPrint+0)+0,f
  5992  0B95  0AC6               	btfss	(lcdPrint@i),7
  5993  0B96  1FC9               	goto	u1100
  5994  0B97  2B99               	decf	(??_lcdPrint+0)+0,f
  5995  0B98  03C6               u1100:
  5996  0B99                     	bcf	status, 5	;RP0=0, select bank0
  5997  0B99  1283               	bcf	status, 6	;RP1=0, select bank0
  5998  0B9A  1303               	movf	(??_lcdPrint+0)+0,w
  5999  0B9B  0846               	movwf	0+((??_lcdPrint+1)+0)+1
  6000  0B9C  00C8               	movf	1+(??_lcdPrint+1)+0,w
  6001  0B9D  0848               	movwf	btemp+1
  6002  0B9E  00FF               	movf	0+(??_lcdPrint+1)+0,w
  6003  0B9F  0847               	movwf	fsr0
  6004  0BA0  0084               	fcall	stringtab
  6005  0BA1  120A  158A  2000  120A  158A  	fcall	_lcdWrite
  6006  0BA6  120A  158A  227C  120A  158A  	line	77
  6007                           	
  6008                           l2863:	
  6009  0BAB                     ;LCD16x2.c: 77:     }
  6010                           	movlw	01h
  6011  0BAB  3001               	bcf	status, 5	;RP0=0, select bank0
  6012  0BAC  1283               	bcf	status, 6	;RP1=0, select bank0
  6013  0BAD  1303               	addwf	(lcdPrint@i),f
  6014  0BAE  07C9               	skipnc
  6015  0BAF  1803               	incf	(lcdPrint@i+1),f
  6016  0BB0  0ACA               	movlw	0
  6017  0BB1  3000               	addwf	(lcdPrint@i+1),f
  6018  0BB2  07CA               	goto	l2865
  6019  0BB3  2BB4               	
  6020                           l548:	
  6021  0BB4                     	
  6022                           l2865:	
  6023  0BB4                     	movf	(lcdPrint@i),w
  6024  0BB4  0849               	addwf	(lcdPrint@string),w
  6025  0BB5  0744               	movwf	(??_lcdPrint+1)+0
  6026  0BB6  00C7               	movf	(lcdPrint@string+1),w
  6027  0BB7  0845               	movwf	(??_lcdPrint+0)+0
  6028  0BB8  00C6               	skipnc
  6029  0BB9  1803               	incf	(??_lcdPrint+0)+0,f
  6030  0BBA  0AC6               	btfss	(lcdPrint@i),7
  6031  0BBB  1FC9               	goto	u1110
  6032  0BBC  2BBE               	decf	(??_lcdPrint+0)+0,f
  6033  0BBD  03C6               u1110:
  6034  0BBE                     	bcf	status, 5	;RP0=0, select bank0
  6035  0BBE  1283               	bcf	status, 6	;RP1=0, select bank0
  6036  0BBF  1303               	movf	(??_lcdPrint+0)+0,w
  6037  0BC0  0846               	movwf	0+((??_lcdPrint+1)+0)+1
  6038  0BC1  00C8               	movf	1+(??_lcdPrint+1)+0,w
  6039  0BC2  0848               	movwf	btemp+1
  6040  0BC3  00FF               	movf	0+(??_lcdPrint+1)+0,w
  6041  0BC4  0847               	movwf	fsr0
  6042  0BC5  0084               	fcall	stringtab
  6043  0BC6  120A  158A  2000  120A  158A  	xorlw	0
  6044  0BCB  3A00               	skipz
  6045  0BCC  1D03               	goto	u1121
  6046  0BCD  2BCF               	goto	u1120
  6047  0BCE  2BD0               u1121:
  6048  0BCF                     	goto	l2861
  6049  0BCF  2B8F               u1120:
  6050  0BD0                     	goto	l551
  6051  0BD0  2BD1               	
  6052                           l550:	
  6053  0BD1                     	line	78
  6054                           	
  6055                           l551:	
  6056  0BD1                     	return
  6057  0BD1  0008               	opt stack 0
  6058                           GLOBAL	__end_of_lcdPrint
  6059                           	__end_of_lcdPrint:
  6060  0BD2                     	signat	_lcdPrint,4217
  6061                           	global	_lcdWrite
  6062                           
  6063 ;; *************** function _lcdWrite *****************
  6064 ;; Defined at:
  6065 ;;		line 67 in file "LCD16x2.c"
  6066 ;; Parameters:    Size  Location     Type
  6067 ;;  data            1    wreg     unsigned char 
  6068 ;; Auto vars:     Size  Location     Type
  6069 ;;  data            1   12[COMMON] unsigned char 
  6070 ;; Return value:  Size  Location     Type
  6071 ;;                  1    wreg      void 
  6072 ;; Registers used:
  6073 ;;		wreg, fsr0l, fsr0h, status,2, status,0, btemp+1, pclath, cstack
  6074 ;; Tracked objects:
  6075 ;;		On entry : 0/0
  6076 ;;		On exit  : 0/0
  6077 ;;		Unchanged: 0/0
  6078 ;; Data sizes:     COMMON   BANK0   BANK1   BANK3   BANK2
  6079 ;;      Params:         0       0       0       0       0
  6080 ;;      Locals:         1       0       0       0       0
  6081 ;;      Temps:          0       0       0       0       0
  6082 ;;      Totals:         1       0       0       0       0
  6083 ;;Total ram usage:        1 bytes
  6084 ;; Hardware stack levels used:    1
  6085 ;; Hardware stack levels required when called:    3
  6086 ;; This function calls:
  6087 ;;		_WriteData
  6088 ;;		_delay
  6089 ;; This function is called by:
  6090 ;;		_lcdPrint
  6091 ;; This function uses a non-reentrant model
  6092 ;;
  6093                           psect	text18,local,class=CODE,delta=2,merge=1,group=0
  6094                           	line	67
  6095                           global __ptext18
  6096                           __ptext18:	;psect for function _lcdWrite
  6097  0A7C                     psect	text18
  6098                           	file	"LCD16x2.c"
  6099                           	line	67
  6100                           	global	__size_of_lcdWrite
  6101                           	__size_of_lcdWrite	equ	__end_of_lcdWrite-_lcdWrite
  6102  0011                     	
  6103                           _lcdWrite:	
  6104  0A7C                     ;incstack = 0
  6105                           	opt	stack 1
  6106                           ; Regs used in _lcdWrite: [wreg-fsr0h+status,2+status,0+btemp+1+pclath+cstack]
  6107                           ;lcdWrite@data stored from wreg
  6108                           	movwf	(lcdWrite@data)
  6109  0A7C  00FC               	line	69
  6110                           	
  6111                           l2733:	
  6112  0A7D                     ;LCD16x2.c: 67: void lcdWrite(char data);LCD16x2.c: 68: {;LCD16x2.c: 69:     delay(8);
  6113                           	movlw	08h
  6114  0A7D  3008               	movwf	(delay@milis)
  6115  0A7E  00F0               	movlw	0
  6116  0A7F  3000               	movwf	((delay@milis))+1
  6117  0A80  00F1               	fcall	_delay
  6118  0A81  120A  158A  241D  120A  158A  	line	70
  6119                           	
  6120                           l2735:	
  6121  0A86                     ;LCD16x2.c: 70:     WriteData(data);
  6122                           	movf	(lcdWrite@data),w
  6123  0A86  087C               	fcall	_WriteData
  6124  0A87  120A  158A  25D3  120A  158A  	line	71
  6125                           	
  6126                           l545:	
  6127  0A8C                     	return
  6128  0A8C  0008               	opt stack 0
  6129                           GLOBAL	__end_of_lcdWrite
  6130                           	__end_of_lcdWrite:
  6131  0A8D                     	signat	_lcdWrite,4217
  6132                           	global	_WriteData
  6133                           
  6134 ;; *************** function _WriteData *****************
  6135 ;; Defined at:
  6136 ;;		line 151 in file "LCD16x2.c"
  6137 ;; Parameters:    Size  Location     Type
  6138 ;;  data            1    wreg     unsigned char 
  6139 ;; Auto vars:     Size  Location     Type
  6140 ;;  data            1   10[COMMON] unsigned char 
  6141 ;;  MSNibble        1   11[COMMON] unsigned char 
  6142 ;;  LSNibble        1    9[COMMON] unsigned char 
  6143 ;; Return value:  Size  Location     Type
  6144 ;;                  1    wreg      void 
  6145 ;; Registers used:
  6146 ;;		wreg, fsr0l, fsr0h, status,2, status,0, btemp+1, pclath, cstack
  6147 ;; Tracked objects:
  6148 ;;		On entry : 0/0
  6149 ;;		On exit  : 0/0
  6150 ;;		Unchanged: 0/0
  6151 ;; Data sizes:     COMMON   BANK0   BANK1   BANK3   BANK2
  6152 ;;      Params:         0       0       0       0       0
  6153 ;;      Locals:         3       0       0       0       0
  6154 ;;      Temps:          2       0       0       0       0
  6155 ;;      Totals:         5       0       0       0       0
  6156 ;;Total ram usage:        5 bytes
  6157 ;; Hardware stack levels used:    1
  6158 ;; Hardware stack levels required when called:    2
  6159 ;; This function calls:
  6160 ;;		_ByteByNibble
  6161 ;;		_delay
  6162 ;;		_digitalWrite
  6163 ;; This function is called by:
  6164 ;;		_lcdWrite
  6165 ;; This function uses a non-reentrant model
  6166 ;;
  6167                           psect	text19,local,class=CODE,delta=2,merge=1,group=0
  6168                           	line	151
  6169                           global __ptext19
  6170                           __ptext19:	;psect for function _WriteData
  6171  0DD3                     psect	text19
  6172                           	file	"LCD16x2.c"
  6173                           	line	151
  6174                           	global	__size_of_WriteData
  6175                           	__size_of_WriteData	equ	__end_of_WriteData-_WriteData
  6176  0083                     	
  6177                           _WriteData:	
  6178  0DD3                     ;incstack = 0
  6179                           	opt	stack 1
  6180                           ; Regs used in _WriteData: [wreg-fsr0h+status,2+status,0+btemp+1+pclath+cstack]
  6181                           ;WriteData@data stored from wreg
  6182                           	movwf	(WriteData@data)
  6183  0DD3  00FA               	line	153
  6184                           	
  6185                           l2629:	
  6186  0DD4                     ;LCD16x2.c: 151: void WriteData(char data);LCD16x2.c: 152: {;LCD16x2.c: 153:     char MS
                                 Nibble = 0;
  6187                           	clrf	(WriteData@MSNibble)
  6188  0DD4  01FB               	line	154
  6189                           ;LCD16x2.c: 154:     char LSNibble = 0;
  6190                           	clrf	(WriteData@LSNibble)
  6191  0DD5  01F9               	line	155
  6192                           	
  6193                           l2631:	
  6194  0DD6                     ;LCD16x2.c: 155:     MSNibble = data & 0xF0;
  6195                           	movf	(WriteData@data),w
  6196  0DD6  087A               	andlw	0F0h
  6197  0DD7  39F0               	movwf	(??_WriteData+0)+0
  6198  0DD8  00F7               	movf	(??_WriteData+0)+0,w
  6199  0DD9  0877               	movwf	(WriteData@MSNibble)
  6200  0DDA  00FB               	line	156
  6201                           	
  6202                           l2633:	
  6203  0DDB                     ;LCD16x2.c: 156:     MSNibble = (MSNibble >> 4);
  6204                           	movf	(WriteData@MSNibble),w
  6205  0DDB  087B               	movwf	(??_WriteData+0)+0
  6206  0DDC  00F7               	movlw	04h
  6207  0DDD  3004               u885:
  6208  0DDE                     	clrc
  6209  0DDE  1003               	rrf	(??_WriteData+0)+0,f
  6210  0DDF  0CF7               	addlw	-1
  6211  0DE0  3EFF               	skipz
  6212  0DE1  1D03               	goto	u885
  6213  0DE2  2DDE               	movf	0+(??_WriteData+0)+0,w
  6214  0DE3  0877               	movwf	(??_WriteData+1)+0
  6215  0DE4  00F8               	movf	(??_WriteData+1)+0,w
  6216  0DE5  0878               	movwf	(WriteData@MSNibble)
  6217  0DE6  00FB               	line	157
  6218                           	
  6219                           l2635:	
  6220  0DE7                     ;LCD16x2.c: 157:     LSNibble = data & 0x0F;
  6221                           	movf	(WriteData@data),w
  6222  0DE7  087A               	andlw	0Fh
  6223  0DE8  390F               	movwf	(??_WriteData+0)+0
  6224  0DE9  00F7               	movf	(??_WriteData+0)+0,w
  6225  0DEA  0877               	movwf	(WriteData@LSNibble)
  6226  0DEB  00F9               	line	158
  6227                           	
  6228                           l2637:	
  6229  0DEC                     ;LCD16x2.c: 158:     ByteByNibble(MSNibble);
  6230                           	movf	(WriteData@MSNibble),w
  6231  0DEC  087B               	fcall	_ByteByNibble
  6232  0DED  120A  118A  253F  120A  158A  	line	159
  6233                           	
  6234                           l2639:	
  6235  0DF2                     ;LCD16x2.c: 159:     digitalWrite(RSPin,1);
  6236                           	clrf	(digitalWrite@value)
  6237  0DF2  01F0               	incf	(digitalWrite@value),f
  6238  0DF3  0AF0               	bcf	status, 5	;RP0=0, select bank0
  6239  0DF4  1283               	bcf	status, 6	;RP1=0, select bank0
  6240  0DF5  1303               	movf	(_RSPin),w
  6241  0DF6  0861               	fcall	_digitalWrite
  6242  0DF7  120A  118A  241C  120A  158A  	line	160
  6243                           	
  6244                           l2641:	
  6245  0DFC                     ;LCD16x2.c: 160:     digitalWrite(RWPin,0);
  6246                           	clrf	(digitalWrite@value)
  6247  0DFC  01F0               	bcf	status, 5	;RP0=0, select bank0
  6248  0DFD  1283               	bcf	status, 6	;RP1=0, select bank0
  6249  0DFE  1303               	movf	(_RWPin),w
  6250  0DFF  085D               	fcall	_digitalWrite
  6251  0E00  120A  118A  241C  120A  158A  	line	161
  6252                           	
  6253                           l2643:	
  6254  0E05                     ;LCD16x2.c: 161:     digitalWrite(ENPin,1);
  6255                           	clrf	(digitalWrite@value)
  6256  0E05  01F0               	incf	(digitalWrite@value),f
  6257  0E06  0AF0               	bcf	status, 5	;RP0=0, select bank0
  6258  0E07  1283               	bcf	status, 6	;RP1=0, select bank0
  6259  0E08  1303               	movf	(_ENPin),w
  6260  0E09  085F               	fcall	_digitalWrite
  6261  0E0A  120A  118A  241C  120A  158A  	line	162
  6262                           	
  6263                           l2645:	
  6264  0E0F                     ;LCD16x2.c: 162:     delay(5);
  6265                           	movlw	05h
  6266  0E0F  3005               	movwf	(delay@milis)
  6267  0E10  00F0               	movlw	0
  6268  0E11  3000               	movwf	((delay@milis))+1
  6269  0E12  00F1               	fcall	_delay
  6270  0E13  120A  158A  241D  120A  158A  	line	164
  6271                           	
  6272                           l2647:	
  6273  0E18                     ;LCD16x2.c: 164:     digitalWrite(ENPin,0);
  6274                           	clrf	(digitalWrite@value)
  6275  0E18  01F0               	bcf	status, 5	;RP0=0, select bank0
  6276  0E19  1283               	bcf	status, 6	;RP1=0, select bank0
  6277  0E1A  1303               	movf	(_ENPin),w
  6278  0E1B  085F               	fcall	_digitalWrite
  6279  0E1C  120A  118A  241C  120A  158A  	line	165
  6280                           	
  6281                           l2649:	
  6282  0E21                     ;LCD16x2.c: 165:     delay(5);
  6283                           	movlw	05h
  6284  0E21  3005               	movwf	(delay@milis)
  6285  0E22  00F0               	movlw	0
  6286  0E23  3000               	movwf	((delay@milis))+1
  6287  0E24  00F1               	fcall	_delay
  6288  0E25  120A  158A  241D  120A  158A  	line	166
  6289                           	
  6290                           l2651:	
  6291  0E2A                     ;LCD16x2.c: 166:     ByteByNibble(LSNibble);
  6292                           	movf	(WriteData@LSNibble),w
  6293  0E2A  0879               	fcall	_ByteByNibble
  6294  0E2B  120A  118A  253F  120A  158A  	line	167
  6295                           	
  6296                           l2653:	
  6297  0E30                     ;LCD16x2.c: 167:     digitalWrite(ENPin,1);
  6298                           	clrf	(digitalWrite@value)
  6299  0E30  01F0               	incf	(digitalWrite@value),f
  6300  0E31  0AF0               	bcf	status, 5	;RP0=0, select bank0
  6301  0E32  1283               	bcf	status, 6	;RP1=0, select bank0
  6302  0E33  1303               	movf	(_ENPin),w
  6303  0E34  085F               	fcall	_digitalWrite
  6304  0E35  120A  118A  241C  120A  158A  	line	168
  6305                           	
  6306                           l2655:	
  6307  0E3A                     ;LCD16x2.c: 168:     delay(5);
  6308                           	movlw	05h
  6309  0E3A  3005               	movwf	(delay@milis)
  6310  0E3B  00F0               	movlw	0
  6311  0E3C  3000               	movwf	((delay@milis))+1
  6312  0E3D  00F1               	fcall	_delay
  6313  0E3E  120A  158A  241D  120A  158A  	line	170
  6314                           	
  6315                           l2657:	
  6316  0E43                     ;LCD16x2.c: 170:     digitalWrite(ENPin,0);
  6317                           	clrf	(digitalWrite@value)
  6318  0E43  01F0               	bcf	status, 5	;RP0=0, select bank0
  6319  0E44  1283               	bcf	status, 6	;RP1=0, select bank0
  6320  0E45  1303               	movf	(_ENPin),w
  6321  0E46  085F               	fcall	_digitalWrite
  6322  0E47  120A  118A  241C  120A  158A  	line	171
  6323                           	
  6324                           l2659:	
  6325  0E4C                     ;LCD16x2.c: 171:     delay(3);
  6326                           	movlw	03h
  6327  0E4C  3003               	movwf	(delay@milis)
  6328  0E4D  00F0               	movlw	0
  6329  0E4E  3000               	movwf	((delay@milis))+1
  6330  0E4F  00F1               	fcall	_delay
  6331  0E50  120A  158A  241D  120A  158A  	line	172
  6332                           	
  6333                           l574:	
  6334  0E55                     	return
  6335  0E55  0008               	opt stack 0
  6336                           GLOBAL	__end_of_WriteData
  6337                           	__end_of_WriteData:
  6338  0E56                     	signat	_WriteData,4217
  6339                           	global	_delay
  6340                           
  6341 ;; *************** function _delay *****************
  6342 ;; Defined at:
  6343 ;;		line 626 in file "source.c"
  6344 ;; Parameters:    Size  Location     Type
  6345 ;;  milis           2    0[COMMON] const int 
  6346 ;; Auto vars:     Size  Location     Type
  6347 ;;  i               2    5[COMMON] int 
  6348 ;;  j               2    3[COMMON] int 
  6349 ;; Return value:  Size  Location     Type
  6350 ;;                  1    wreg      void 
  6351 ;; Registers used:
  6352 ;;		wreg, status,2, btemp+1
  6353 ;; Tracked objects:
  6354 ;;		On entry : 0/0
  6355 ;;		On exit  : 0/0
  6356 ;;		Unchanged: 0/0
  6357 ;; Data sizes:     COMMON   BANK0   BANK1   BANK3   BANK2
  6358 ;;      Params:         2       0       0       0       0
  6359 ;;      Locals:         4       0       0       0       0
  6360 ;;      Temps:          1       0       0       0       0
  6361 ;;      Totals:         7       0       0       0       0
  6362 ;;Total ram usage:        7 bytes
  6363 ;; Hardware stack levels used:    1
  6364 ;; This function calls:
  6365 ;;		Nothing
  6366 ;; This function is called by:
  6367 ;;		_loop
  6368 ;;		_Contador
  6369 ;;		_lcdBegin
  6370 ;;		_lcdWrite
  6371 ;;		_WriteInstruction
  6372 ;;		_WriteData
  6373 ;; This function uses a non-reentrant model
  6374 ;;
  6375                           psect	text20,local,class=CODE,delta=2,merge=1,group=0
  6376                           	file	"source.c"
  6377                           	line	626
  6378                           global __ptext20
  6379                           __ptext20:	;psect for function _delay
  6380  0C1D                     psect	text20
  6381                           	file	"source.c"
  6382                           	line	626
  6383                           	global	__size_of_delay
  6384                           	__size_of_delay	equ	__end_of_delay-_delay
  6385  004E                     	
  6386                           _delay:	
  6387  0C1D                     ;incstack = 0
  6388                           	opt	stack 4
  6389                           ; Regs used in _delay: [wreg+status,2+btemp+1]
  6390                           	line	628
  6391                           	
  6392                           l2569:	
  6393  0C1D                     ;source.c: 626: void delay(const int milis);source.c: 627: {;source.c: 628:     for(int 
                                 j=0;j<milis;j++)
  6394                           	clrf	(delay@j)
  6395  0C1D  01F3               	clrf	(delay@j+1)
  6396  0C1E  01F4               	
  6397                           l2571:	
  6398  0C1F                     	movf	(delay@j+1),w
  6399  0C1F  0874               	xorlw	80h
  6400  0C20  3A80               	movwf	(??_delay+0)+0
  6401  0C21  00F2               	movf	(delay@milis+1),w
  6402  0C22  0871               	xorlw	80h
  6403  0C23  3A80               	subwf	(??_delay+0)+0,w
  6404  0C24  0272               	skipz
  6405  0C25  1D03               	goto	u845
  6406  0C26  2C29               	movf	(delay@milis),w
  6407  0C27  0870               	subwf	(delay@j),w
  6408  0C28  0273               u845:
  6409  0C29                     
  6410                           	skipc
  6411  0C29  1C03               	goto	u841
  6412  0C2A  2C2C               	goto	u840
  6413  0C2B  2C2D               u841:
  6414  0C2C                     	goto	l2575
  6415  0C2C  2C2F               u840:
  6416  0C2D                     	goto	l379
  6417  0C2D  2C6A               	
  6418                           l2573:	
  6419  0C2E                     	goto	l379
  6420  0C2E  2C6A               	
  6421                           l375:	
  6422  0C2F                     	line	631
  6423                           	
  6424                           l2575:	
  6425  0C2F                     ;source.c: 629:     {;source.c: 631:         for(int i=0;i<400;i++)
  6426                           	clrf	(delay@i)
  6427  0C2F  01F5               	clrf	(delay@i+1)
  6428  0C30  01F6               	
  6429                           l2577:	
  6430  0C31                     	movf	(delay@i+1),w
  6431  0C31  0876               	xorlw	80h
  6432  0C32  3A80               	movwf	btemp+1
  6433  0C33  00FF               	movlw	(01h)^80h
  6434  0C34  3081               	subwf	btemp+1,w
  6435  0C35  027F               	skipz
  6436  0C36  1D03               	goto	u855
  6437  0C37  2C3A               	movlw	090h
  6438  0C38  3090               	subwf	(delay@i),w
  6439  0C39  0275               u855:
  6440  0C3A                     
  6441                           	skipc
  6442  0C3A  1C03               	goto	u851
  6443  0C3B  2C3D               	goto	u850
  6444  0C3C  2C3E               u851:
  6445  0C3D                     	goto	l377
  6446  0C3D  2C40               u850:
  6447  0C3E                     	goto	l2585
  6448  0C3E  2C55               	
  6449                           l2579:	
  6450  0C3F                     	goto	l2585
  6451  0C3F  2C55               	
  6452                           l377:	
  6453  0C40                     	line	633
  6454                           # 633 "source.c"
  6455                           NOP ;# 
  6456  0C40  0000               psect	text20
  6457                           	line	634
  6458                           	
  6459                           l2581:	
  6460  0C41                     ;source.c: 634:         }
  6461                           	movlw	01h
  6462  0C41  3001               	addwf	(delay@i),f
  6463  0C42  07F5               	skipnc
  6464  0C43  1803               	incf	(delay@i+1),f
  6465  0C44  0AF6               	movlw	0
  6466  0C45  3000               	addwf	(delay@i+1),f
  6467  0C46  07F6               	
  6468                           l2583:	
  6469  0C47                     	movf	(delay@i+1),w
  6470  0C47  0876               	xorlw	80h
  6471  0C48  3A80               	movwf	btemp+1
  6472  0C49  00FF               	movlw	(01h)^80h
  6473  0C4A  3081               	subwf	btemp+1,w
  6474  0C4B  027F               	skipz
  6475  0C4C  1D03               	goto	u865
  6476  0C4D  2C50               	movlw	090h
  6477  0C4E  3090               	subwf	(delay@i),w
  6478  0C4F  0275               u865:
  6479  0C50                     
  6480                           	skipc
  6481  0C50  1C03               	goto	u861
  6482  0C51  2C53               	goto	u860
  6483  0C52  2C54               u861:
  6484  0C53                     	goto	l377
  6485  0C53  2C40               u860:
  6486  0C54                     	goto	l2585
  6487  0C54  2C55               	
  6488                           l378:	
  6489  0C55                     	line	635
  6490                           	
  6491                           l2585:	
  6492  0C55                     ;source.c: 635:     }
  6493                           	movlw	01h
  6494  0C55  3001               	addwf	(delay@j),f
  6495  0C56  07F3               	skipnc
  6496  0C57  1803               	incf	(delay@j+1),f
  6497  0C58  0AF4               	movlw	0
  6498  0C59  3000               	addwf	(delay@j+1),f
  6499  0C5A  07F4               	movf	(delay@j+1),w
  6500  0C5B  0874               	xorlw	80h
  6501  0C5C  3A80               	movwf	(??_delay+0)+0
  6502  0C5D  00F2               	movf	(delay@milis+1),w
  6503  0C5E  0871               	xorlw	80h
  6504  0C5F  3A80               	subwf	(??_delay+0)+0,w
  6505  0C60  0272               	skipz
  6506  0C61  1D03               	goto	u875
  6507  0C62  2C65               	movf	(delay@milis),w
  6508  0C63  0870               	subwf	(delay@j),w
  6509  0C64  0273               u875:
  6510  0C65                     
  6511                           	skipc
  6512  0C65  1C03               	goto	u871
  6513  0C66  2C68               	goto	u870
  6514  0C67  2C69               u871:
  6515  0C68                     	goto	l2575
  6516  0C68  2C2F               u870:
  6517  0C69                     	goto	l379
  6518  0C69  2C6A               	
  6519                           l376:	
  6520  0C6A                     	line	636
  6521                           	
  6522                           l379:	
  6523  0C6A                     	return
  6524  0C6A  0008               	opt stack 0
  6525                           GLOBAL	__end_of_delay
  6526                           	__end_of_delay:
  6527  0C6B                     	signat	_delay,4217
  6528                           	global	_ByteByNibble
  6529                           
  6530 ;; *************** function _ByteByNibble *****************
  6531 ;; Defined at:
  6532 ;;		line 174 in file "LCD16x2.c"
  6533 ;; Parameters:    Size  Location     Type
  6534 ;;  NibbleValue     1    wreg     unsigned char 
  6535 ;; Auto vars:     Size  Location     Type
  6536 ;;  NibbleValue     1    6[COMMON] unsigned char 
  6537 ;; Return value:  Size  Location     Type
  6538 ;;                  1    wreg      void 
  6539 ;; Registers used:
  6540 ;;		wreg, fsr0l, fsr0h, status,2, status,0, pclath, cstack
  6541 ;; Tracked objects:
  6542 ;;		On entry : 0/0
  6543 ;;		On exit  : 0/0
  6544 ;;		Unchanged: 0/0
  6545 ;; Data sizes:     COMMON   BANK0   BANK1   BANK3   BANK2
  6546 ;;      Params:         0       0       0       0       0
  6547 ;;      Locals:         1       0       0       0       0
  6548 ;;      Temps:          2       0       0       0       0
  6549 ;;      Totals:         3       0       0       0       0
  6550 ;;Total ram usage:        3 bytes
  6551 ;; Hardware stack levels used:    1
  6552 ;; Hardware stack levels required when called:    1
  6553 ;; This function calls:
  6554 ;;		_digitalWrite
  6555 ;; This function is called by:
  6556 ;;		_WriteInstruction
  6557 ;;		_WriteData
  6558 ;; This function uses a non-reentrant model
  6559 ;;
  6560                           psect	text21,local,class=CODE,delta=2,merge=1,group=0
  6561                           	file	"LCD16x2.c"
  6562                           	line	174
  6563                           global __ptext21
  6564                           __ptext21:	;psect for function _ByteByNibble
  6565  053F                     psect	text21
  6566                           	file	"LCD16x2.c"
  6567                           	line	174
  6568                           	global	__size_of_ByteByNibble
  6569                           	__size_of_ByteByNibble	equ	__end_of_ByteByNibble-_ByteByNibble
  6570  02AE                     	
  6571                           _ByteByNibble:	
  6572  053F                     ;incstack = 0
  6573                           	opt	stack 3
  6574                           ; Regs used in _ByteByNibble: [wreg-fsr0h+status,2+status,0+pclath+cstack]
  6575                           ;ByteByNibble@NibbleValue stored from wreg
  6576                           	movwf	(ByteByNibble@NibbleValue)
  6577  053F  00F6               	line	176
  6578                           	
  6579                           l2587:	
  6580  0540                     ;LCD16x2.c: 174: void ByteByNibble(char NibbleValue);LCD16x2.c: 175: {;LCD16x2.c: 176:  
                                    switch(NibbleValue)
  6581                           	goto	l2623
  6582  0540  2FB2               	line	178
  6583                           ;LCD16x2.c: 177:     {;LCD16x2.c: 178:         case 0x00:
  6584                           	
  6585                           l578:	
  6586  0541                     	line	179
  6587                           	
  6588                           l2589:	
  6589  0541                     ;LCD16x2.c: 179:             digitalWrite(d7Pin,0);
  6590                           	clrf	(digitalWrite@value)
  6591  0541  01F0               	bcf	status, 5	;RP0=0, select bank0
  6592  0542  1283               	bcf	status, 6	;RP1=0, select bank0
  6593  0543  1303               	movf	(_d7Pin),w
  6594  0544  0855               	fcall	_digitalWrite
  6595  0545  120A  118A  241C  120A  118A  	line	180
  6596                           ;LCD16x2.c: 180:             digitalWrite(d6Pin,0);
  6597                           	clrf	(digitalWrite@value)
  6598  054A  01F0               	bcf	status, 5	;RP0=0, select bank0
  6599  054B  1283               	bcf	status, 6	;RP1=0, select bank0
  6600  054C  1303               	movf	(_d6Pin),w
  6601  054D  0857               	fcall	_digitalWrite
  6602  054E  120A  118A  241C  120A  118A  	line	181
  6603                           ;LCD16x2.c: 181:             digitalWrite(d5Pin,0);
  6604                           	clrf	(digitalWrite@value)
  6605  0553  01F0               	bcf	status, 5	;RP0=0, select bank0
  6606  0554  1283               	bcf	status, 6	;RP1=0, select bank0
  6607  0555  1303               	movf	(_d5Pin),w
  6608  0556  0859               	fcall	_digitalWrite
  6609  0557  120A  118A  241C  120A  118A  	line	182
  6610                           ;LCD16x2.c: 182:             digitalWrite(d4Pin,0);
  6611                           	clrf	(digitalWrite@value)
  6612  055C  01F0               	bcf	status, 5	;RP0=0, select bank0
  6613  055D  1283               	bcf	status, 6	;RP1=0, select bank0
  6614  055E  1303               	movf	(_d4Pin),w
  6615  055F  085B               	fcall	_digitalWrite
  6616  0560  120A  118A  241C  120A  118A  	line	183
  6617                           ;LCD16x2.c: 183:             break;
  6618                           	goto	l595
  6619  0565  2FEC               	line	184
  6620                           ;LCD16x2.c: 184:         case 0x01:
  6621                           	
  6622                           l580:	
  6623  0566                     	line	185
  6624                           	
  6625                           l2591:	
  6626  0566                     ;LCD16x2.c: 185:             digitalWrite(d7Pin,0);
  6627                           	clrf	(digitalWrite@value)
  6628  0566  01F0               	bcf	status, 5	;RP0=0, select bank0
  6629  0567  1283               	bcf	status, 6	;RP1=0, select bank0
  6630  0568  1303               	movf	(_d7Pin),w
  6631  0569  0855               	fcall	_digitalWrite
  6632  056A  120A  118A  241C  120A  118A  	line	186
  6633                           ;LCD16x2.c: 186:             digitalWrite(d6Pin,0);
  6634                           	clrf	(digitalWrite@value)
  6635  056F  01F0               	bcf	status, 5	;RP0=0, select bank0
  6636  0570  1283               	bcf	status, 6	;RP1=0, select bank0
  6637  0571  1303               	movf	(_d6Pin),w
  6638  0572  0857               	fcall	_digitalWrite
  6639  0573  120A  118A  241C  120A  118A  	line	187
  6640                           ;LCD16x2.c: 187:             digitalWrite(d5Pin,0);
  6641                           	clrf	(digitalWrite@value)
  6642  0578  01F0               	bcf	status, 5	;RP0=0, select bank0
  6643  0579  1283               	bcf	status, 6	;RP1=0, select bank0
  6644  057A  1303               	movf	(_d5Pin),w
  6645  057B  0859               	fcall	_digitalWrite
  6646  057C  120A  118A  241C  120A  118A  	line	188
  6647                           ;LCD16x2.c: 188:             digitalWrite(d4Pin,1);
  6648                           	clrf	(digitalWrite@value)
  6649  0581  01F0               	incf	(digitalWrite@value),f
  6650  0582  0AF0               	bcf	status, 5	;RP0=0, select bank0
  6651  0583  1283               	bcf	status, 6	;RP1=0, select bank0
  6652  0584  1303               	movf	(_d4Pin),w
  6653  0585  085B               	fcall	_digitalWrite
  6654  0586  120A  118A  241C  120A  118A  	line	189
  6655                           ;LCD16x2.c: 189:             break;
  6656                           	goto	l595
  6657  058B  2FEC               	line	190
  6658                           ;LCD16x2.c: 190:         case 0x02:
  6659                           	
  6660                           l581:	
  6661  058C                     	line	191
  6662                           	
  6663                           l2593:	
  6664  058C                     ;LCD16x2.c: 191:             digitalWrite(d7Pin,0);
  6665                           	clrf	(digitalWrite@value)
  6666  058C  01F0               	bcf	status, 5	;RP0=0, select bank0
  6667  058D  1283               	bcf	status, 6	;RP1=0, select bank0
  6668  058E  1303               	movf	(_d7Pin),w
  6669  058F  0855               	fcall	_digitalWrite
  6670  0590  120A  118A  241C  120A  118A  	line	192
  6671                           ;LCD16x2.c: 192:             digitalWrite(d6Pin,0);
  6672                           	clrf	(digitalWrite@value)
  6673  0595  01F0               	bcf	status, 5	;RP0=0, select bank0
  6674  0596  1283               	bcf	status, 6	;RP1=0, select bank0
  6675  0597  1303               	movf	(_d6Pin),w
  6676  0598  0857               	fcall	_digitalWrite
  6677  0599  120A  118A  241C  120A  118A  	line	193
  6678                           ;LCD16x2.c: 193:             digitalWrite(d5Pin,1);
  6679                           	clrf	(digitalWrite@value)
  6680  059E  01F0               	incf	(digitalWrite@value),f
  6681  059F  0AF0               	bcf	status, 5	;RP0=0, select bank0
  6682  05A0  1283               	bcf	status, 6	;RP1=0, select bank0
  6683  05A1  1303               	movf	(_d5Pin),w
  6684  05A2  0859               	fcall	_digitalWrite
  6685  05A3  120A  118A  241C  120A  118A  	line	194
  6686                           ;LCD16x2.c: 194:             digitalWrite(d4Pin,0);
  6687                           	clrf	(digitalWrite@value)
  6688  05A8  01F0               	bcf	status, 5	;RP0=0, select bank0
  6689  05A9  1283               	bcf	status, 6	;RP1=0, select bank0
  6690  05AA  1303               	movf	(_d4Pin),w
  6691  05AB  085B               	fcall	_digitalWrite
  6692  05AC  120A  118A  241C  120A  118A  	line	195
  6693                           ;LCD16x2.c: 195:             break;
  6694                           	goto	l595
  6695  05B1  2FEC               	line	196
  6696                           ;LCD16x2.c: 196:         case 0x03:
  6697                           	
  6698                           l582:	
  6699  05B2                     	line	197
  6700                           	
  6701                           l2595:	
  6702  05B2                     ;LCD16x2.c: 197:             digitalWrite(d7Pin,0);
  6703                           	clrf	(digitalWrite@value)
  6704  05B2  01F0               	bcf	status, 5	;RP0=0, select bank0
  6705  05B3  1283               	bcf	status, 6	;RP1=0, select bank0
  6706  05B4  1303               	movf	(_d7Pin),w
  6707  05B5  0855               	fcall	_digitalWrite
  6708  05B6  120A  118A  241C  120A  118A  	line	198
  6709                           ;LCD16x2.c: 198:             digitalWrite(d6Pin,0);
  6710                           	clrf	(digitalWrite@value)
  6711  05BB  01F0               	bcf	status, 5	;RP0=0, select bank0
  6712  05BC  1283               	bcf	status, 6	;RP1=0, select bank0
  6713  05BD  1303               	movf	(_d6Pin),w
  6714  05BE  0857               	fcall	_digitalWrite
  6715  05BF  120A  118A  241C  120A  118A  	line	199
  6716                           ;LCD16x2.c: 199:             digitalWrite(d5Pin,1);
  6717                           	clrf	(digitalWrite@value)
  6718  05C4  01F0               	incf	(digitalWrite@value),f
  6719  05C5  0AF0               	bcf	status, 5	;RP0=0, select bank0
  6720  05C6  1283               	bcf	status, 6	;RP1=0, select bank0
  6721  05C7  1303               	movf	(_d5Pin),w
  6722  05C8  0859               	fcall	_digitalWrite
  6723  05C9  120A  118A  241C  120A  118A  	line	200
  6724                           ;LCD16x2.c: 200:             digitalWrite(d4Pin,1);
  6725                           	clrf	(digitalWrite@value)
  6726  05CE  01F0               	incf	(digitalWrite@value),f
  6727  05CF  0AF0               	bcf	status, 5	;RP0=0, select bank0
  6728  05D0  1283               	bcf	status, 6	;RP1=0, select bank0
  6729  05D1  1303               	movf	(_d4Pin),w
  6730  05D2  085B               	fcall	_digitalWrite
  6731  05D3  120A  118A  241C  120A  118A  	line	201
  6732                           ;LCD16x2.c: 201:             break;
  6733                           	goto	l595
  6734  05D8  2FEC               	line	202
  6735                           ;LCD16x2.c: 202:         case 0x04:
  6736                           	
  6737                           l583:	
  6738  05D9                     	line	203
  6739                           	
  6740                           l2597:	
  6741  05D9                     ;LCD16x2.c: 203:             digitalWrite(d7Pin,0);
  6742                           	clrf	(digitalWrite@value)
  6743  05D9  01F0               	bcf	status, 5	;RP0=0, select bank0
  6744  05DA  1283               	bcf	status, 6	;RP1=0, select bank0
  6745  05DB  1303               	movf	(_d7Pin),w
  6746  05DC  0855               	fcall	_digitalWrite
  6747  05DD  120A  118A  241C  120A  118A  	line	204
  6748                           ;LCD16x2.c: 204:             digitalWrite(d6Pin,1);
  6749                           	clrf	(digitalWrite@value)
  6750  05E2  01F0               	incf	(digitalWrite@value),f
  6751  05E3  0AF0               	bcf	status, 5	;RP0=0, select bank0
  6752  05E4  1283               	bcf	status, 6	;RP1=0, select bank0
  6753  05E5  1303               	movf	(_d6Pin),w
  6754  05E6  0857               	fcall	_digitalWrite
  6755  05E7  120A  118A  241C  120A  118A  	line	205
  6756                           ;LCD16x2.c: 205:             digitalWrite(d5Pin,0);
  6757                           	clrf	(digitalWrite@value)
  6758  05EC  01F0               	bcf	status, 5	;RP0=0, select bank0
  6759  05ED  1283               	bcf	status, 6	;RP1=0, select bank0
  6760  05EE  1303               	movf	(_d5Pin),w
  6761  05EF  0859               	fcall	_digitalWrite
  6762  05F0  120A  118A  241C  120A  118A  	line	206
  6763                           ;LCD16x2.c: 206:             digitalWrite(d4Pin,0);
  6764                           	clrf	(digitalWrite@value)
  6765  05F5  01F0               	bcf	status, 5	;RP0=0, select bank0
  6766  05F6  1283               	bcf	status, 6	;RP1=0, select bank0
  6767  05F7  1303               	movf	(_d4Pin),w
  6768  05F8  085B               	fcall	_digitalWrite
  6769  05F9  120A  118A  241C  120A  118A  	line	207
  6770                           ;LCD16x2.c: 207:             break;
  6771                           	goto	l595
  6772  05FE  2FEC               	line	208
  6773                           ;LCD16x2.c: 208:         case 0x05:
  6774                           	
  6775                           l584:	
  6776  05FF                     	line	209
  6777                           	
  6778                           l2599:	
  6779  05FF                     ;LCD16x2.c: 209:             digitalWrite(d7Pin,0);
  6780                           	clrf	(digitalWrite@value)
  6781  05FF  01F0               	bcf	status, 5	;RP0=0, select bank0
  6782  0600  1283               	bcf	status, 6	;RP1=0, select bank0
  6783  0601  1303               	movf	(_d7Pin),w
  6784  0602  0855               	fcall	_digitalWrite
  6785  0603  120A  118A  241C  120A  118A  	line	210
  6786                           ;LCD16x2.c: 210:             digitalWrite(d6Pin,1);
  6787                           	clrf	(digitalWrite@value)
  6788  0608  01F0               	incf	(digitalWrite@value),f
  6789  0609  0AF0               	bcf	status, 5	;RP0=0, select bank0
  6790  060A  1283               	bcf	status, 6	;RP1=0, select bank0
  6791  060B  1303               	movf	(_d6Pin),w
  6792  060C  0857               	fcall	_digitalWrite
  6793  060D  120A  118A  241C  120A  118A  	line	211
  6794                           ;LCD16x2.c: 211:             digitalWrite(d5Pin,0);
  6795                           	clrf	(digitalWrite@value)
  6796  0612  01F0               	bcf	status, 5	;RP0=0, select bank0
  6797  0613  1283               	bcf	status, 6	;RP1=0, select bank0
  6798  0614  1303               	movf	(_d5Pin),w
  6799  0615  0859               	fcall	_digitalWrite
  6800  0616  120A  118A  241C  120A  118A  	line	212
  6801                           ;LCD16x2.c: 212:             digitalWrite(d4Pin,1);
  6802                           	clrf	(digitalWrite@value)
  6803  061B  01F0               	incf	(digitalWrite@value),f
  6804  061C  0AF0               	bcf	status, 5	;RP0=0, select bank0
  6805  061D  1283               	bcf	status, 6	;RP1=0, select bank0
  6806  061E  1303               	movf	(_d4Pin),w
  6807  061F  085B               	fcall	_digitalWrite
  6808  0620  120A  118A  241C  120A  118A  	line	213
  6809                           ;LCD16x2.c: 213:             break;
  6810                           	goto	l595
  6811  0625  2FEC               	line	214
  6812                           ;LCD16x2.c: 214:         case 0x06:
  6813                           	
  6814                           l585:	
  6815  0626                     	line	215
  6816                           	
  6817                           l2601:	
  6818  0626                     ;LCD16x2.c: 215:             digitalWrite(d7Pin,0);
  6819                           	clrf	(digitalWrite@value)
  6820  0626  01F0               	bcf	status, 5	;RP0=0, select bank0
  6821  0627  1283               	bcf	status, 6	;RP1=0, select bank0
  6822  0628  1303               	movf	(_d7Pin),w
  6823  0629  0855               	fcall	_digitalWrite
  6824  062A  120A  118A  241C  120A  118A  	line	216
  6825                           ;LCD16x2.c: 216:             digitalWrite(d6Pin,1);
  6826                           	clrf	(digitalWrite@value)
  6827  062F  01F0               	incf	(digitalWrite@value),f
  6828  0630  0AF0               	bcf	status, 5	;RP0=0, select bank0
  6829  0631  1283               	bcf	status, 6	;RP1=0, select bank0
  6830  0632  1303               	movf	(_d6Pin),w
  6831  0633  0857               	fcall	_digitalWrite
  6832  0634  120A  118A  241C  120A  118A  	line	217
  6833                           ;LCD16x2.c: 217:             digitalWrite(d5Pin,1);
  6834                           	clrf	(digitalWrite@value)
  6835  0639  01F0               	incf	(digitalWrite@value),f
  6836  063A  0AF0               	bcf	status, 5	;RP0=0, select bank0
  6837  063B  1283               	bcf	status, 6	;RP1=0, select bank0
  6838  063C  1303               	movf	(_d5Pin),w
  6839  063D  0859               	fcall	_digitalWrite
  6840  063E  120A  118A  241C  120A  118A  	line	218
  6841                           ;LCD16x2.c: 218:             digitalWrite(d4Pin,0);
  6842                           	clrf	(digitalWrite@value)
  6843  0643  01F0               	bcf	status, 5	;RP0=0, select bank0
  6844  0644  1283               	bcf	status, 6	;RP1=0, select bank0
  6845  0645  1303               	movf	(_d4Pin),w
  6846  0646  085B               	fcall	_digitalWrite
  6847  0647  120A  118A  241C  120A  118A  	line	219
  6848                           ;LCD16x2.c: 219:             break;
  6849                           	goto	l595
  6850  064C  2FEC               	line	220
  6851                           ;LCD16x2.c: 220:         case 0x07:
  6852                           	
  6853                           l586:	
  6854  064D                     	line	221
  6855                           	
  6856                           l2603:	
  6857  064D                     ;LCD16x2.c: 221:             digitalWrite(d7Pin,0);
  6858                           	clrf	(digitalWrite@value)
  6859  064D  01F0               	bcf	status, 5	;RP0=0, select bank0
  6860  064E  1283               	bcf	status, 6	;RP1=0, select bank0
  6861  064F  1303               	movf	(_d7Pin),w
  6862  0650  0855               	fcall	_digitalWrite
  6863  0651  120A  118A  241C  120A  118A  	line	222
  6864                           ;LCD16x2.c: 222:             digitalWrite(d6Pin,1);
  6865                           	clrf	(digitalWrite@value)
  6866  0656  01F0               	incf	(digitalWrite@value),f
  6867  0657  0AF0               	bcf	status, 5	;RP0=0, select bank0
  6868  0658  1283               	bcf	status, 6	;RP1=0, select bank0
  6869  0659  1303               	movf	(_d6Pin),w
  6870  065A  0857               	fcall	_digitalWrite
  6871  065B  120A  118A  241C  120A  118A  	line	223
  6872                           ;LCD16x2.c: 223:             digitalWrite(d5Pin,1);
  6873                           	clrf	(digitalWrite@value)
  6874  0660  01F0               	incf	(digitalWrite@value),f
  6875  0661  0AF0               	bcf	status, 5	;RP0=0, select bank0
  6876  0662  1283               	bcf	status, 6	;RP1=0, select bank0
  6877  0663  1303               	movf	(_d5Pin),w
  6878  0664  0859               	fcall	_digitalWrite
  6879  0665  120A  118A  241C  120A  118A  	line	224
  6880                           ;LCD16x2.c: 224:             digitalWrite(d4Pin,1);
  6881                           	clrf	(digitalWrite@value)
  6882  066A  01F0               	incf	(digitalWrite@value),f
  6883  066B  0AF0               	bcf	status, 5	;RP0=0, select bank0
  6884  066C  1283               	bcf	status, 6	;RP1=0, select bank0
  6885  066D  1303               	movf	(_d4Pin),w
  6886  066E  085B               	fcall	_digitalWrite
  6887  066F  120A  118A  241C  120A  118A  	line	225
  6888                           ;LCD16x2.c: 225:             break;
  6889                           	goto	l595
  6890  0674  2FEC               	line	226
  6891                           ;LCD16x2.c: 226:         case 0x08:
  6892                           	
  6893                           l587:	
  6894  0675                     	line	227
  6895                           	
  6896                           l2605:	
  6897  0675                     ;LCD16x2.c: 227:             digitalWrite(d7Pin,1);
  6898                           	clrf	(digitalWrite@value)
  6899  0675  01F0               	incf	(digitalWrite@value),f
  6900  0676  0AF0               	bcf	status, 5	;RP0=0, select bank0
  6901  0677  1283               	bcf	status, 6	;RP1=0, select bank0
  6902  0678  1303               	movf	(_d7Pin),w
  6903  0679  0855               	fcall	_digitalWrite
  6904  067A  120A  118A  241C  120A  118A  	line	228
  6905                           ;LCD16x2.c: 228:             digitalWrite(d6Pin,0);
  6906                           	clrf	(digitalWrite@value)
  6907  067F  01F0               	bcf	status, 5	;RP0=0, select bank0
  6908  0680  1283               	bcf	status, 6	;RP1=0, select bank0
  6909  0681  1303               	movf	(_d6Pin),w
  6910  0682  0857               	fcall	_digitalWrite
  6911  0683  120A  118A  241C  120A  118A  	line	229
  6912                           ;LCD16x2.c: 229:             digitalWrite(d5Pin,0);
  6913                           	clrf	(digitalWrite@value)
  6914  0688  01F0               	bcf	status, 5	;RP0=0, select bank0
  6915  0689  1283               	bcf	status, 6	;RP1=0, select bank0
  6916  068A  1303               	movf	(_d5Pin),w
  6917  068B  0859               	fcall	_digitalWrite
  6918  068C  120A  118A  241C  120A  118A  	line	230
  6919                           ;LCD16x2.c: 230:             digitalWrite(d4Pin,0);
  6920                           	clrf	(digitalWrite@value)
  6921  0691  01F0               	bcf	status, 5	;RP0=0, select bank0
  6922  0692  1283               	bcf	status, 6	;RP1=0, select bank0
  6923  0693  1303               	movf	(_d4Pin),w
  6924  0694  085B               	fcall	_digitalWrite
  6925  0695  120A  118A  241C  120A  118A  	line	231
  6926                           ;LCD16x2.c: 231:             break;
  6927                           	goto	l595
  6928  069A  2FEC               	line	232
  6929                           ;LCD16x2.c: 232:         case 0x09:
  6930                           	
  6931                           l588:	
  6932  069B                     	line	233
  6933                           	
  6934                           l2607:	
  6935  069B                     ;LCD16x2.c: 233:             digitalWrite(d7Pin,1);
  6936                           	clrf	(digitalWrite@value)
  6937  069B  01F0               	incf	(digitalWrite@value),f
  6938  069C  0AF0               	bcf	status, 5	;RP0=0, select bank0
  6939  069D  1283               	bcf	status, 6	;RP1=0, select bank0
  6940  069E  1303               	movf	(_d7Pin),w
  6941  069F  0855               	fcall	_digitalWrite
  6942  06A0  120A  118A  241C  120A  118A  	line	234
  6943                           ;LCD16x2.c: 234:             digitalWrite(d6Pin,0);
  6944                           	clrf	(digitalWrite@value)
  6945  06A5  01F0               	bcf	status, 5	;RP0=0, select bank0
  6946  06A6  1283               	bcf	status, 6	;RP1=0, select bank0
  6947  06A7  1303               	movf	(_d6Pin),w
  6948  06A8  0857               	fcall	_digitalWrite
  6949  06A9  120A  118A  241C  120A  118A  	line	235
  6950                           ;LCD16x2.c: 235:             digitalWrite(d5Pin,0);
  6951                           	clrf	(digitalWrite@value)
  6952  06AE  01F0               	bcf	status, 5	;RP0=0, select bank0
  6953  06AF  1283               	bcf	status, 6	;RP1=0, select bank0
  6954  06B0  1303               	movf	(_d5Pin),w
  6955  06B1  0859               	fcall	_digitalWrite
  6956  06B2  120A  118A  241C  120A  118A  	line	236
  6957                           ;LCD16x2.c: 236:             digitalWrite(d4Pin,1);
  6958                           	clrf	(digitalWrite@value)
  6959  06B7  01F0               	incf	(digitalWrite@value),f
  6960  06B8  0AF0               	bcf	status, 5	;RP0=0, select bank0
  6961  06B9  1283               	bcf	status, 6	;RP1=0, select bank0
  6962  06BA  1303               	movf	(_d4Pin),w
  6963  06BB  085B               	fcall	_digitalWrite
  6964  06BC  120A  118A  241C  120A  118A  	line	237
  6965                           ;LCD16x2.c: 237:             break;
  6966                           	goto	l595
  6967  06C1  2FEC               	line	238
  6968                           ;LCD16x2.c: 238:         case 0x0A:
  6969                           	
  6970                           l589:	
  6971  06C2                     	line	239
  6972                           	
  6973                           l2609:	
  6974  06C2                     ;LCD16x2.c: 239:             digitalWrite(d7Pin,1);
  6975                           	clrf	(digitalWrite@value)
  6976  06C2  01F0               	incf	(digitalWrite@value),f
  6977  06C3  0AF0               	bcf	status, 5	;RP0=0, select bank0
  6978  06C4  1283               	bcf	status, 6	;RP1=0, select bank0
  6979  06C5  1303               	movf	(_d7Pin),w
  6980  06C6  0855               	fcall	_digitalWrite
  6981  06C7  120A  118A  241C  120A  118A  	line	240
  6982                           ;LCD16x2.c: 240:             digitalWrite(d6Pin,0);
  6983                           	clrf	(digitalWrite@value)
  6984  06CC  01F0               	bcf	status, 5	;RP0=0, select bank0
  6985  06CD  1283               	bcf	status, 6	;RP1=0, select bank0
  6986  06CE  1303               	movf	(_d6Pin),w
  6987  06CF  0857               	fcall	_digitalWrite
  6988  06D0  120A  118A  241C  120A  118A  	line	241
  6989                           ;LCD16x2.c: 241:             digitalWrite(d5Pin,1);
  6990                           	clrf	(digitalWrite@value)
  6991  06D5  01F0               	incf	(digitalWrite@value),f
  6992  06D6  0AF0               	bcf	status, 5	;RP0=0, select bank0
  6993  06D7  1283               	bcf	status, 6	;RP1=0, select bank0
  6994  06D8  1303               	movf	(_d5Pin),w
  6995  06D9  0859               	fcall	_digitalWrite
  6996  06DA  120A  118A  241C  120A  118A  	line	242
  6997                           ;LCD16x2.c: 242:             digitalWrite(d4Pin,0);
  6998                           	clrf	(digitalWrite@value)
  6999  06DF  01F0               	bcf	status, 5	;RP0=0, select bank0
  7000  06E0  1283               	bcf	status, 6	;RP1=0, select bank0
  7001  06E1  1303               	movf	(_d4Pin),w
  7002  06E2  085B               	fcall	_digitalWrite
  7003  06E3  120A  118A  241C  120A  118A  	line	243
  7004                           ;LCD16x2.c: 243:             break;
  7005                           	goto	l595
  7006  06E8  2FEC               	line	244
  7007                           ;LCD16x2.c: 244:         case 0x0B:
  7008                           	
  7009                           l590:	
  7010  06E9                     	line	245
  7011                           	
  7012                           l2611:	
  7013  06E9                     ;LCD16x2.c: 245:             digitalWrite(d7Pin,1);
  7014                           	clrf	(digitalWrite@value)
  7015  06E9  01F0               	incf	(digitalWrite@value),f
  7016  06EA  0AF0               	bcf	status, 5	;RP0=0, select bank0
  7017  06EB  1283               	bcf	status, 6	;RP1=0, select bank0
  7018  06EC  1303               	movf	(_d7Pin),w
  7019  06ED  0855               	fcall	_digitalWrite
  7020  06EE  120A  118A  241C  120A  118A  	line	246
  7021                           ;LCD16x2.c: 246:             digitalWrite(d6Pin,0);
  7022                           	clrf	(digitalWrite@value)
  7023  06F3  01F0               	bcf	status, 5	;RP0=0, select bank0
  7024  06F4  1283               	bcf	status, 6	;RP1=0, select bank0
  7025  06F5  1303               	movf	(_d6Pin),w
  7026  06F6  0857               	fcall	_digitalWrite
  7027  06F7  120A  118A  241C  120A  118A  	line	247
  7028                           ;LCD16x2.c: 247:             digitalWrite(d5Pin,1);
  7029                           	clrf	(digitalWrite@value)
  7030  06FC  01F0               	incf	(digitalWrite@value),f
  7031  06FD  0AF0               	bcf	status, 5	;RP0=0, select bank0
  7032  06FE  1283               	bcf	status, 6	;RP1=0, select bank0
  7033  06FF  1303               	movf	(_d5Pin),w
  7034  0700  0859               	fcall	_digitalWrite
  7035  0701  120A  118A  241C  120A  118A  	line	248
  7036                           ;LCD16x2.c: 248:             digitalWrite(d4Pin,1);
  7037                           	clrf	(digitalWrite@value)
  7038  0706  01F0               	incf	(digitalWrite@value),f
  7039  0707  0AF0               	bcf	status, 5	;RP0=0, select bank0
  7040  0708  1283               	bcf	status, 6	;RP1=0, select bank0
  7041  0709  1303               	movf	(_d4Pin),w
  7042  070A  085B               	fcall	_digitalWrite
  7043  070B  120A  118A  241C  120A  118A  	line	249
  7044                           ;LCD16x2.c: 249:             break;
  7045                           	goto	l595
  7046  0710  2FEC               	line	250
  7047                           ;LCD16x2.c: 250:         case 0x0C:
  7048                           	
  7049                           l591:	
  7050  0711                     	line	251
  7051                           	
  7052                           l2613:	
  7053  0711                     ;LCD16x2.c: 251:             digitalWrite(d7Pin,1);
  7054                           	clrf	(digitalWrite@value)
  7055  0711  01F0               	incf	(digitalWrite@value),f
  7056  0712  0AF0               	bcf	status, 5	;RP0=0, select bank0
  7057  0713  1283               	bcf	status, 6	;RP1=0, select bank0
  7058  0714  1303               	movf	(_d7Pin),w
  7059  0715  0855               	fcall	_digitalWrite
  7060  0716  120A  118A  241C  120A  118A  	line	252
  7061                           ;LCD16x2.c: 252:             digitalWrite(d6Pin,1);
  7062                           	clrf	(digitalWrite@value)
  7063  071B  01F0               	incf	(digitalWrite@value),f
  7064  071C  0AF0               	bcf	status, 5	;RP0=0, select bank0
  7065  071D  1283               	bcf	status, 6	;RP1=0, select bank0
  7066  071E  1303               	movf	(_d6Pin),w
  7067  071F  0857               	fcall	_digitalWrite
  7068  0720  120A  118A  241C  120A  118A  	line	253
  7069                           ;LCD16x2.c: 253:             digitalWrite(d5Pin,0);
  7070                           	clrf	(digitalWrite@value)
  7071  0725  01F0               	bcf	status, 5	;RP0=0, select bank0
  7072  0726  1283               	bcf	status, 6	;RP1=0, select bank0
  7073  0727  1303               	movf	(_d5Pin),w
  7074  0728  0859               	fcall	_digitalWrite
  7075  0729  120A  118A  241C  120A  118A  	line	254
  7076                           ;LCD16x2.c: 254:             digitalWrite(d4Pin,0);
  7077                           	clrf	(digitalWrite@value)
  7078  072E  01F0               	bcf	status, 5	;RP0=0, select bank0
  7079  072F  1283               	bcf	status, 6	;RP1=0, select bank0
  7080  0730  1303               	movf	(_d4Pin),w
  7081  0731  085B               	fcall	_digitalWrite
  7082  0732  120A  118A  241C  120A  118A  	line	255
  7083                           ;LCD16x2.c: 255:             break;
  7084                           	goto	l595
  7085  0737  2FEC               	line	256
  7086                           ;LCD16x2.c: 256:         case 0x0D:
  7087                           	
  7088                           l592:	
  7089  0738                     	line	257
  7090                           	
  7091                           l2615:	
  7092  0738                     ;LCD16x2.c: 257:             digitalWrite(d7Pin,1);
  7093                           	clrf	(digitalWrite@value)
  7094  0738  01F0               	incf	(digitalWrite@value),f
  7095  0739  0AF0               	bcf	status, 5	;RP0=0, select bank0
  7096  073A  1283               	bcf	status, 6	;RP1=0, select bank0
  7097  073B  1303               	movf	(_d7Pin),w
  7098  073C  0855               	fcall	_digitalWrite
  7099  073D  120A  118A  241C  120A  118A  	line	258
  7100                           ;LCD16x2.c: 258:             digitalWrite(d6Pin,1);
  7101                           	clrf	(digitalWrite@value)
  7102  0742  01F0               	incf	(digitalWrite@value),f
  7103  0743  0AF0               	bcf	status, 5	;RP0=0, select bank0
  7104  0744  1283               	bcf	status, 6	;RP1=0, select bank0
  7105  0745  1303               	movf	(_d6Pin),w
  7106  0746  0857               	fcall	_digitalWrite
  7107  0747  120A  118A  241C  120A  118A  	line	259
  7108                           ;LCD16x2.c: 259:             digitalWrite(d5Pin,0);
  7109                           	clrf	(digitalWrite@value)
  7110  074C  01F0               	bcf	status, 5	;RP0=0, select bank0
  7111  074D  1283               	bcf	status, 6	;RP1=0, select bank0
  7112  074E  1303               	movf	(_d5Pin),w
  7113  074F  0859               	fcall	_digitalWrite
  7114  0750  120A  118A  241C  120A  118A  	line	260
  7115                           ;LCD16x2.c: 260:             digitalWrite(d4Pin,1);
  7116                           	clrf	(digitalWrite@value)
  7117  0755  01F0               	incf	(digitalWrite@value),f
  7118  0756  0AF0               	bcf	status, 5	;RP0=0, select bank0
  7119  0757  1283               	bcf	status, 6	;RP1=0, select bank0
  7120  0758  1303               	movf	(_d4Pin),w
  7121  0759  085B               	fcall	_digitalWrite
  7122  075A  120A  118A  241C  120A  118A  	line	261
  7123                           ;LCD16x2.c: 261:             break;
  7124                           	goto	l595
  7125  075F  2FEC               	line	262
  7126                           ;LCD16x2.c: 262:         case 0x0E:
  7127                           	
  7128                           l593:	
  7129  0760                     	line	263
  7130                           	
  7131                           l2617:	
  7132  0760                     ;LCD16x2.c: 263:             digitalWrite(d7Pin,1);
  7133                           	clrf	(digitalWrite@value)
  7134  0760  01F0               	incf	(digitalWrite@value),f
  7135  0761  0AF0               	bcf	status, 5	;RP0=0, select bank0
  7136  0762  1283               	bcf	status, 6	;RP1=0, select bank0
  7137  0763  1303               	movf	(_d7Pin),w
  7138  0764  0855               	fcall	_digitalWrite
  7139  0765  120A  118A  241C  120A  118A  	line	264
  7140                           ;LCD16x2.c: 264:             digitalWrite(d6Pin,1);
  7141                           	clrf	(digitalWrite@value)
  7142  076A  01F0               	incf	(digitalWrite@value),f
  7143  076B  0AF0               	bcf	status, 5	;RP0=0, select bank0
  7144  076C  1283               	bcf	status, 6	;RP1=0, select bank0
  7145  076D  1303               	movf	(_d6Pin),w
  7146  076E  0857               	fcall	_digitalWrite
  7147  076F  120A  118A  241C  120A  118A  	line	265
  7148                           ;LCD16x2.c: 265:             digitalWrite(d5Pin,1);
  7149                           	clrf	(digitalWrite@value)
  7150  0774  01F0               	incf	(digitalWrite@value),f
  7151  0775  0AF0               	bcf	status, 5	;RP0=0, select bank0
  7152  0776  1283               	bcf	status, 6	;RP1=0, select bank0
  7153  0777  1303               	movf	(_d5Pin),w
  7154  0778  0859               	fcall	_digitalWrite
  7155  0779  120A  118A  241C  120A  118A  	line	266
  7156                           ;LCD16x2.c: 266:             digitalWrite(d4Pin,0);
  7157                           	clrf	(digitalWrite@value)
  7158  077E  01F0               	bcf	status, 5	;RP0=0, select bank0
  7159  077F  1283               	bcf	status, 6	;RP1=0, select bank0
  7160  0780  1303               	movf	(_d4Pin),w
  7161  0781  085B               	fcall	_digitalWrite
  7162  0782  120A  118A  241C  120A  118A  	line	267
  7163                           ;LCD16x2.c: 267:             break;
  7164                           	goto	l595
  7165  0787  2FEC               	line	268
  7166                           ;LCD16x2.c: 268:         case 0x0F:
  7167                           	
  7168                           l594:	
  7169  0788                     	line	269
  7170                           	
  7171                           l2619:	
  7172  0788                     ;LCD16x2.c: 269:             digitalWrite(d7Pin,1);
  7173                           	clrf	(digitalWrite@value)
  7174  0788  01F0               	incf	(digitalWrite@value),f
  7175  0789  0AF0               	bcf	status, 5	;RP0=0, select bank0
  7176  078A  1283               	bcf	status, 6	;RP1=0, select bank0
  7177  078B  1303               	movf	(_d7Pin),w
  7178  078C  0855               	fcall	_digitalWrite
  7179  078D  120A  118A  241C  120A  118A  	line	270
  7180                           ;LCD16x2.c: 270:             digitalWrite(d6Pin,1);
  7181                           	clrf	(digitalWrite@value)
  7182  0792  01F0               	incf	(digitalWrite@value),f
  7183  0793  0AF0               	bcf	status, 5	;RP0=0, select bank0
  7184  0794  1283               	bcf	status, 6	;RP1=0, select bank0
  7185  0795  1303               	movf	(_d6Pin),w
  7186  0796  0857               	fcall	_digitalWrite
  7187  0797  120A  118A  241C  120A  118A  	line	271
  7188                           ;LCD16x2.c: 271:             digitalWrite(d5Pin,1);
  7189                           	clrf	(digitalWrite@value)
  7190  079C  01F0               	incf	(digitalWrite@value),f
  7191  079D  0AF0               	bcf	status, 5	;RP0=0, select bank0
  7192  079E  1283               	bcf	status, 6	;RP1=0, select bank0
  7193  079F  1303               	movf	(_d5Pin),w
  7194  07A0  0859               	fcall	_digitalWrite
  7195  07A1  120A  118A  241C  120A  118A  	line	272
  7196                           ;LCD16x2.c: 272:             digitalWrite(d4Pin,1);
  7197                           	clrf	(digitalWrite@value)
  7198  07A6  01F0               	incf	(digitalWrite@value),f
  7199  07A7  0AF0               	bcf	status, 5	;RP0=0, select bank0
  7200  07A8  1283               	bcf	status, 6	;RP1=0, select bank0
  7201  07A9  1303               	movf	(_d4Pin),w
  7202  07AA  085B               	fcall	_digitalWrite
  7203  07AB  120A  118A  241C  120A  118A  	line	273
  7204                           ;LCD16x2.c: 273:             break;
  7205                           	goto	l595
  7206  07B0  2FEC               	line	274
  7207                           	
  7208                           l2621:	
  7209  07B1                     ;LCD16x2.c: 274:     }
  7210                           	goto	l595
  7211  07B1  2FEC               	
  7212                           l577:	
  7213  07B2                     	
  7214                           l2623:	
  7215  07B2                     	movf	(ByteByNibble@NibbleValue),w
  7216  07B2  0876               	movwf	(??_ByteByNibble+0)+0
  7217  07B3  00F4               	clrf	(??_ByteByNibble+0)+0+1
  7218  07B4  01F5               	; Switch on 2 bytes has been partitioned into a top level switch of size 1, and 1 sub-s
                                 witches
  7219                           ; Switch size 1, requested type "space"
  7220                           ; Number of cases is 1, Range of values is 0 to 0
  7221                           ; switch strategies available:
  7222                           ; Name         Instructions Cycles
  7223                           ; simple_byte            4     3 (average)
  7224                           ; direct_byte           11     8 (fixed)
  7225                           ; jumptable            260     6 (fixed)
  7226                           ;	Chosen strategy is simple_byte
  7227                           
  7228                           	movf 1+(??_ByteByNibble+0)+0,w
  7229  07B5  0875               	opt asmopt_push
  7230                           	opt asmopt_off
  7231                           	xorlw	0^0	; case 0
  7232  07B6  3A00               	skipnz
  7233  07B7  1903               	goto	l3345
  7234  07B8  2FBA               	goto	l595
  7235  07B9  2FEC               	opt asmopt_pop
  7236                           	
  7237                           l3345:	
  7238  07BA                     ; Switch size 1, requested type "space"
  7239                           ; Number of cases is 16, Range of values is 0 to 15
  7240                           ; switch strategies available:
  7241                           ; Name         Instructions Cycles
  7242                           ; simple_byte           49    25 (average)
  7243                           ; direct_byte           56     8 (fixed)
  7244                           ; jumptable            260     6 (fixed)
  7245                           ;	Chosen strategy is simple_byte
  7246                           
  7247                           	movf 0+(??_ByteByNibble+0)+0,w
  7248  07BA  0874               	opt asmopt_push
  7249                           	opt asmopt_off
  7250                           	xorlw	0^0	; case 0
  7251  07BB  3A00               	skipnz
  7252  07BC  1903               	goto	l2589
  7253  07BD  2D41               	xorlw	1^0	; case 1
  7254  07BE  3A01               	skipnz
  7255  07BF  1903               	goto	l2591
  7256  07C0  2D66               	xorlw	2^1	; case 2
  7257  07C1  3A03               	skipnz
  7258  07C2  1903               	goto	l2593
  7259  07C3  2D8C               	xorlw	3^2	; case 3
  7260  07C4  3A01               	skipnz
  7261  07C5  1903               	goto	l2595
  7262  07C6  2DB2               	xorlw	4^3	; case 4
  7263  07C7  3A07               	skipnz
  7264  07C8  1903               	goto	l2597
  7265  07C9  2DD9               	xorlw	5^4	; case 5
  7266  07CA  3A01               	skipnz
  7267  07CB  1903               	goto	l2599
  7268  07CC  2DFF               	xorlw	6^5	; case 6
  7269  07CD  3A03               	skipnz
  7270  07CE  1903               	goto	l2601
  7271  07CF  2E26               	xorlw	7^6	; case 7
  7272  07D0  3A01               	skipnz
  7273  07D1  1903               	goto	l2603
  7274  07D2  2E4D               	xorlw	8^7	; case 8
  7275  07D3  3A0F               	skipnz
  7276  07D4  1903               	goto	l2605
  7277  07D5  2E75               	xorlw	9^8	; case 9
  7278  07D6  3A01               	skipnz
  7279  07D7  1903               	goto	l2607
  7280  07D8  2E9B               	xorlw	10^9	; case 10
  7281  07D9  3A03               	skipnz
  7282  07DA  1903               	goto	l2609
  7283  07DB  2EC2               	xorlw	11^10	; case 11
  7284  07DC  3A01               	skipnz
  7285  07DD  1903               	goto	l2611
  7286  07DE  2EE9               	xorlw	12^11	; case 12
  7287  07DF  3A07               	skipnz
  7288  07E0  1903               	goto	l2613
  7289  07E1  2F11               	xorlw	13^12	; case 13
  7290  07E2  3A01               	skipnz
  7291  07E3  1903               	goto	l2615
  7292  07E4  2F38               	xorlw	14^13	; case 14
  7293  07E5  3A03               	skipnz
  7294  07E6  1903               	goto	l2617
  7295  07E7  2F60               	xorlw	15^14	; case 15
  7296  07E8  3A01               	skipnz
  7297  07E9  1903               	goto	l2619
  7298  07EA  2F88               	goto	l595
  7299  07EB  2FEC               	opt asmopt_pop
  7300                           
  7301                           	
  7302                           l579:	
  7303  07EC                     	line	275
  7304                           	
  7305                           l595:	
  7306  07EC                     	return
  7307  07EC  0008               	opt stack 0
  7308                           GLOBAL	__end_of_ByteByNibble
  7309                           	__end_of_ByteByNibble:
  7310  07ED                     	signat	_ByteByNibble,4217
  7311                           	global	_digitalWrite
  7312                           
  7313 ;; *************** function _digitalWrite *****************
  7314 ;; Defined at:
  7315 ;;		line 169 in file "source.c"
  7316 ;; Parameters:    Size  Location     Type
  7317 ;;  pin             1    wreg     unsigned char 
  7318 ;;  value           1    0[COMMON] unsigned char 
  7319 ;; Auto vars:     Size  Location     Type
  7320 ;;  pin             1    3[COMMON] unsigned char 
  7321 ;; Return value:  Size  Location     Type
  7322 ;;                  1    wreg      void 
  7323 ;; Registers used:
  7324 ;;		wreg, fsr0l, fsr0h, status,2, status,0
  7325 ;; Tracked objects:
  7326 ;;		On entry : 0/0
  7327 ;;		On exit  : 0/0
  7328 ;;		Unchanged: 0/0
  7329 ;; Data sizes:     COMMON   BANK0   BANK1   BANK3   BANK2
  7330 ;;      Params:         1       0       0       0       0
  7331 ;;      Locals:         1       0       0       0       0
  7332 ;;      Temps:          2       0       0       0       0
  7333 ;;      Totals:         4       0       0       0       0
  7334 ;;Total ram usage:        4 bytes
  7335 ;; Hardware stack levels used:    1
  7336 ;; This function calls:
  7337 ;;		Nothing
  7338 ;; This function is called by:
  7339 ;;		_loop
  7340 ;;		_ModoEncendido
  7341 ;;		_MotorDC
  7342 ;;		_WriteInstruction
  7343 ;;		_WriteData
  7344 ;;		_ByteByNibble
  7345 ;;		_lcdWritePort
  7346 ;; This function uses a non-reentrant model
  7347 ;;
  7348                           psect	text22,local,class=CODE,delta=2,merge=1,group=0
  7349                           	file	"source.c"
  7350                           	line	169
  7351                           global __ptext22
  7352                           __ptext22:	;psect for function _digitalWrite
  7353  041C                     psect	text22
  7354                           	file	"source.c"
  7355                           	line	169
  7356                           	global	__size_of_digitalWrite
  7357                           	__size_of_digitalWrite	equ	__end_of_digitalWrite-_digitalWrite
  7358  0123                     	
  7359                           _digitalWrite:	
  7360  041C                     ;incstack = 0
  7361                           	opt	stack 4
  7362                           ; Regs used in _digitalWrite: [wreg-fsr0h+status,2+status,0]
  7363                           ;digitalWrite@pin stored from wreg
  7364                           	movwf	(digitalWrite@pin)
  7365  041C  00F3               	line	171
  7366                           	
  7367                           l2505:	
  7368  041D                     ;source.c: 169: void digitalWrite(char pin, char value);source.c: 170: {;source.c: 171: 
                                     switch(pin)
  7369                           	goto	l2563
  7370  041D  2CE9               	line	173
  7371                           ;source.c: 172:     {;source.c: 173:         case 0:
  7372                           	
  7373                           l183:	
  7374  041E                     	line	174
  7375                           	
  7376                           l2507:	
  7377  041E                     ;source.c: 174:             PORTCbits.RC7 = value;
  7378                           	rrf	(digitalWrite@value),w
  7379  041E  0C70               	bcf	status, 5	;RP0=0, select bank0
  7380  041F  1283               	bcf	status, 6	;RP1=0, select bank0
  7381  0420  1303               	skipc
  7382  0421  1C03               	bcf	(7),7	;volatile
  7383  0422  1387               	skipnc
  7384  0423  1803               	bsf	(7),7	;volatile
  7385  0424  1787               	line	175
  7386                           ;source.c: 175:             break;
  7387                           	goto	l209
  7388  0425  2D3E               	line	176
  7389                           ;source.c: 176:         case 1:
  7390                           	
  7391                           l185:	
  7392  0426                     	line	177
  7393                           	
  7394                           l2509:	
  7395  0426                     ;source.c: 177:             PORTCbits.RC6 = value;
  7396                           	rrf	(digitalWrite@value),w
  7397  0426  0C70               	bcf	status, 5	;RP0=0, select bank0
  7398  0427  1283               	bcf	status, 6	;RP1=0, select bank0
  7399  0428  1303               	skipc
  7400  0429  1C03               	bcf	(7),6	;volatile
  7401  042A  1307               	skipnc
  7402  042B  1803               	bsf	(7),6	;volatile
  7403  042C  1707               	line	178
  7404                           ;source.c: 178:             break;
  7405                           	goto	l209
  7406  042D  2D3E               	line	179
  7407                           ;source.c: 179:         case 2:
  7408                           	
  7409                           l186:	
  7410  042E                     	line	180
  7411                           	
  7412                           l2511:	
  7413  042E                     ;source.c: 180:             PORTCbits.RC5 = value;
  7414                           	rrf	(digitalWrite@value),w
  7415  042E  0C70               	bcf	status, 5	;RP0=0, select bank0
  7416  042F  1283               	bcf	status, 6	;RP1=0, select bank0
  7417  0430  1303               	skipc
  7418  0431  1C03               	bcf	(7),5	;volatile
  7419  0432  1287               	skipnc
  7420  0433  1803               	bsf	(7),5	;volatile
  7421  0434  1687               	line	181
  7422                           ;source.c: 181:             break;
  7423                           	goto	l209
  7424  0435  2D3E               	line	182
  7425                           ;source.c: 182:         case 3:
  7426                           	
  7427                           l187:	
  7428  0436                     	line	183
  7429                           	
  7430                           l2513:	
  7431  0436                     ;source.c: 183:             PORTCbits.RC4 = value;
  7432                           	rrf	(digitalWrite@value),w
  7433  0436  0C70               	bcf	status, 5	;RP0=0, select bank0
  7434  0437  1283               	bcf	status, 6	;RP1=0, select bank0
  7435  0438  1303               	skipc
  7436  0439  1C03               	bcf	(7),4	;volatile
  7437  043A  1207               	skipnc
  7438  043B  1803               	bsf	(7),4	;volatile
  7439  043C  1607               	line	184
  7440                           ;source.c: 184:             break;
  7441                           	goto	l209
  7442  043D  2D3E               	line	185
  7443                           ;source.c: 185:         case 4:
  7444                           	
  7445                           l188:	
  7446  043E                     	line	186
  7447                           	
  7448                           l2515:	
  7449  043E                     ;source.c: 186:             PORTCbits.RC3 = value;
  7450                           	rrf	(digitalWrite@value),w
  7451  043E  0C70               	bcf	status, 5	;RP0=0, select bank0
  7452  043F  1283               	bcf	status, 6	;RP1=0, select bank0
  7453  0440  1303               	skipc
  7454  0441  1C03               	bcf	(7),3	;volatile
  7455  0442  1187               	skipnc
  7456  0443  1803               	bsf	(7),3	;volatile
  7457  0444  1587               	line	187
  7458                           ;source.c: 187:             break;
  7459                           	goto	l209
  7460  0445  2D3E               	line	188
  7461                           ;source.c: 188:         case 5:
  7462                           	
  7463                           l189:	
  7464  0446                     	line	189
  7465                           	
  7466                           l2517:	
  7467  0446                     ;source.c: 189:             CCP1CON = 0x00;
  7468                           	bcf	status, 5	;RP0=0, select bank0
  7469  0446  1283               	bcf	status, 6	;RP1=0, select bank0
  7470  0447  1303               	clrf	(23)	;volatile
  7471  0448  0197               	line	190
  7472                           	
  7473                           l2519:	
  7474  0449                     ;source.c: 190:             PORTCbits.RC2 = value;
  7475                           	rrf	(digitalWrite@value),w
  7476  0449  0C70               	skipc
  7477  044A  1C03               	bcf	(7),2	;volatile
  7478  044B  1107               	skipnc
  7479  044C  1803               	bsf	(7),2	;volatile
  7480  044D  1507               	line	191
  7481                           ;source.c: 191:             break;
  7482                           	goto	l209
  7483  044E  2D3E               	line	192
  7484                           ;source.c: 192:         case 6:
  7485                           	
  7486                           l190:	
  7487  044F                     	line	193
  7488                           	
  7489                           l2521:	
  7490  044F                     ;source.c: 193:             CCP2CON = 0x00;
  7491                           	bcf	status, 5	;RP0=0, select bank0
  7492  044F  1283               	bcf	status, 6	;RP1=0, select bank0
  7493  0450  1303               	clrf	(29)	;volatile
  7494  0451  019D               	line	194
  7495                           	
  7496                           l2523:	
  7497  0452                     ;source.c: 194:             PORTCbits.RC1 = value;
  7498                           	rrf	(digitalWrite@value),w
  7499  0452  0C70               	skipc
  7500  0453  1C03               	bcf	(7),1	;volatile
  7501  0454  1087               	skipnc
  7502  0455  1803               	bsf	(7),1	;volatile
  7503  0456  1487               	line	195
  7504                           ;source.c: 195:             break;
  7505                           	goto	l209
  7506  0457  2D3E               	line	196
  7507                           ;source.c: 196:         case 7:
  7508                           	
  7509                           l191:	
  7510  0458                     	line	197
  7511                           	
  7512                           l2525:	
  7513  0458                     ;source.c: 197:             PORTCbits.RC0 = value;
  7514                           	rrf	(digitalWrite@value),w
  7515  0458  0C70               	bcf	status, 5	;RP0=0, select bank0
  7516  0459  1283               	bcf	status, 6	;RP1=0, select bank0
  7517  045A  1303               	skipc
  7518  045B  1C03               	bcf	(7),0	;volatile
  7519  045C  1007               	skipnc
  7520  045D  1803               	bsf	(7),0	;volatile
  7521  045E  1407               	line	198
  7522                           ;source.c: 198:             break;
  7523                           	goto	l209
  7524  045F  2D3E               	line	199
  7525                           ;source.c: 199:         case 8:
  7526                           	
  7527                           l192:	
  7528  0460                     	line	200
  7529                           	
  7530                           l2527:	
  7531  0460                     ;source.c: 200:             PORTBbits.RB0 = value;
  7532                           	rrf	(digitalWrite@value),w
  7533  0460  0C70               	bcf	status, 5	;RP0=0, select bank0
  7534  0461  1283               	bcf	status, 6	;RP1=0, select bank0
  7535  0462  1303               	skipc
  7536  0463  1C03               	bcf	(6),0	;volatile
  7537  0464  1006               	skipnc
  7538  0465  1803               	bsf	(6),0	;volatile
  7539  0466  1406               	line	201
  7540                           ;source.c: 201:             break;
  7541                           	goto	l209
  7542  0467  2D3E               	line	202
  7543                           ;source.c: 202:         case 9:
  7544                           	
  7545                           l193:	
  7546  0468                     	line	203
  7547                           	
  7548                           l2529:	
  7549  0468                     ;source.c: 203:             PORTBbits.RB1 = value;
  7550                           	rrf	(digitalWrite@value),w
  7551  0468  0C70               	bcf	status, 5	;RP0=0, select bank0
  7552  0469  1283               	bcf	status, 6	;RP1=0, select bank0
  7553  046A  1303               	skipc
  7554  046B  1C03               	bcf	(6),1	;volatile
  7555  046C  1086               	skipnc
  7556  046D  1803               	bsf	(6),1	;volatile
  7557  046E  1486               	line	204
  7558                           ;source.c: 204:             break;
  7559                           	goto	l209
  7560  046F  2D3E               	line	205
  7561                           ;source.c: 205:         case 10:
  7562                           	
  7563                           l194:	
  7564  0470                     	line	206
  7565                           	
  7566                           l2531:	
  7567  0470                     ;source.c: 206:             PORTBbits.RB2 = value;
  7568                           	rrf	(digitalWrite@value),w
  7569  0470  0C70               	bcf	status, 5	;RP0=0, select bank0
  7570  0471  1283               	bcf	status, 6	;RP1=0, select bank0
  7571  0472  1303               	skipc
  7572  0473  1C03               	bcf	(6),2	;volatile
  7573  0474  1106               	skipnc
  7574  0475  1803               	bsf	(6),2	;volatile
  7575  0476  1506               	line	207
  7576                           ;source.c: 207:             break;
  7577                           	goto	l209
  7578  0477  2D3E               	line	208
  7579                           ;source.c: 208:         case 11:
  7580                           	
  7581                           l195:	
  7582  0478                     	line	209
  7583                           	
  7584                           l2533:	
  7585  0478                     ;source.c: 209:             PORTBbits.RB3 = value;
  7586                           	rrf	(digitalWrite@value),w
  7587  0478  0C70               	bcf	status, 5	;RP0=0, select bank0
  7588  0479  1283               	bcf	status, 6	;RP1=0, select bank0
  7589  047A  1303               	skipc
  7590  047B  1C03               	bcf	(6),3	;volatile
  7591  047C  1186               	skipnc
  7592  047D  1803               	bsf	(6),3	;volatile
  7593  047E  1586               	line	210
  7594                           ;source.c: 210:             break;
  7595                           	goto	l209
  7596  047F  2D3E               	line	211
  7597                           ;source.c: 211:         case 12:
  7598                           	
  7599                           l196:	
  7600  0480                     	line	212
  7601                           	
  7602                           l2535:	
  7603  0480                     ;source.c: 212:             PORTBbits.RB4 = value;
  7604                           	rrf	(digitalWrite@value),w
  7605  0480  0C70               	bcf	status, 5	;RP0=0, select bank0
  7606  0481  1283               	bcf	status, 6	;RP1=0, select bank0
  7607  0482  1303               	skipc
  7608  0483  1C03               	bcf	(6),4	;volatile
  7609  0484  1206               	skipnc
  7610  0485  1803               	bsf	(6),4	;volatile
  7611  0486  1606               	line	213
  7612                           ;source.c: 213:             break;
  7613                           	goto	l209
  7614  0487  2D3E               	line	214
  7615                           ;source.c: 214:         case 13:
  7616                           	
  7617                           l197:	
  7618  0488                     	line	215
  7619                           	
  7620                           l2537:	
  7621  0488                     ;source.c: 215:             PORTBbits.RB5 = value;
  7622                           	rrf	(digitalWrite@value),w
  7623  0488  0C70               	bcf	status, 5	;RP0=0, select bank0
  7624  0489  1283               	bcf	status, 6	;RP1=0, select bank0
  7625  048A  1303               	skipc
  7626  048B  1C03               	bcf	(6),5	;volatile
  7627  048C  1286               	skipnc
  7628  048D  1803               	bsf	(6),5	;volatile
  7629  048E  1686               	line	216
  7630                           ;source.c: 216:             break;
  7631                           	goto	l209
  7632  048F  2D3E               	line	217
  7633                           ;source.c: 217:         case 14:
  7634                           	
  7635                           l198:	
  7636  0490                     	line	218
  7637                           	
  7638                           l2539:	
  7639  0490                     ;source.c: 218:             PORTBbits.RB6 = value;
  7640                           	rrf	(digitalWrite@value),w
  7641  0490  0C70               	bcf	status, 5	;RP0=0, select bank0
  7642  0491  1283               	bcf	status, 6	;RP1=0, select bank0
  7643  0492  1303               	skipc
  7644  0493  1C03               	bcf	(6),6	;volatile
  7645  0494  1306               	skipnc
  7646  0495  1803               	bsf	(6),6	;volatile
  7647  0496  1706               	line	219
  7648                           ;source.c: 219:             break;
  7649                           	goto	l209
  7650  0497  2D3E               	line	220
  7651                           ;source.c: 220:         case 15:
  7652                           	
  7653                           l199:	
  7654  0498                     	line	221
  7655                           	
  7656                           l2541:	
  7657  0498                     ;source.c: 221:             PORTBbits.RB7 = value;
  7658                           	rrf	(digitalWrite@value),w
  7659  0498  0C70               	bcf	status, 5	;RP0=0, select bank0
  7660  0499  1283               	bcf	status, 6	;RP1=0, select bank0
  7661  049A  1303               	skipc
  7662  049B  1C03               	bcf	(6),7	;volatile
  7663  049C  1386               	skipnc
  7664  049D  1803               	bsf	(6),7	;volatile
  7665  049E  1786               	line	222
  7666                           ;source.c: 222:             break;
  7667                           	goto	l209
  7668  049F  2D3E               	line	223
  7669                           ;source.c: 223:         case 16:
  7670                           	
  7671                           l200:	
  7672  04A0                     	line	224
  7673                           	
  7674                           l2543:	
  7675  04A0                     ;source.c: 224:             PORTDbits.RD0 = value;
  7676                           	rrf	(digitalWrite@value),w
  7677  04A0  0C70               	bcf	status, 5	;RP0=0, select bank0
  7678  04A1  1283               	bcf	status, 6	;RP1=0, select bank0
  7679  04A2  1303               	skipc
  7680  04A3  1C03               	bcf	(8),0	;volatile
  7681  04A4  1008               	skipnc
  7682  04A5  1803               	bsf	(8),0	;volatile
  7683  04A6  1408               	line	225
  7684                           ;source.c: 225:             break;
  7685                           	goto	l209
  7686  04A7  2D3E               	line	226
  7687                           ;source.c: 226:         case 17:
  7688                           	
  7689                           l201:	
  7690  04A8                     	line	227
  7691                           	
  7692                           l2545:	
  7693  04A8                     ;source.c: 227:             PORTDbits.RD1 = value;
  7694                           	rrf	(digitalWrite@value),w
  7695  04A8  0C70               	bcf	status, 5	;RP0=0, select bank0
  7696  04A9  1283               	bcf	status, 6	;RP1=0, select bank0
  7697  04AA  1303               	skipc
  7698  04AB  1C03               	bcf	(8),1	;volatile
  7699  04AC  1088               	skipnc
  7700  04AD  1803               	bsf	(8),1	;volatile
  7701  04AE  1488               	line	228
  7702                           ;source.c: 228:             break;
  7703                           	goto	l209
  7704  04AF  2D3E               	line	229
  7705                           ;source.c: 229:         case 18:
  7706                           	
  7707                           l202:	
  7708  04B0                     	line	230
  7709                           	
  7710                           l2547:	
  7711  04B0                     ;source.c: 230:             PORTDbits.RD2 = value;
  7712                           	rrf	(digitalWrite@value),w
  7713  04B0  0C70               	bcf	status, 5	;RP0=0, select bank0
  7714  04B1  1283               	bcf	status, 6	;RP1=0, select bank0
  7715  04B2  1303               	skipc
  7716  04B3  1C03               	bcf	(8),2	;volatile
  7717  04B4  1108               	skipnc
  7718  04B5  1803               	bsf	(8),2	;volatile
  7719  04B6  1508               	line	231
  7720                           ;source.c: 231:             break;
  7721                           	goto	l209
  7722  04B7  2D3E               	line	232
  7723                           ;source.c: 232:         case 19:
  7724                           	
  7725                           l203:	
  7726  04B8                     	line	233
  7727                           	
  7728                           l2549:	
  7729  04B8                     ;source.c: 233:             PORTDbits.RD3 = value;
  7730                           	rrf	(digitalWrite@value),w
  7731  04B8  0C70               	bcf	status, 5	;RP0=0, select bank0
  7732  04B9  1283               	bcf	status, 6	;RP1=0, select bank0
  7733  04BA  1303               	skipc
  7734  04BB  1C03               	bcf	(8),3	;volatile
  7735  04BC  1188               	skipnc
  7736  04BD  1803               	bsf	(8),3	;volatile
  7737  04BE  1588               	line	234
  7738                           ;source.c: 234:             break;
  7739                           	goto	l209
  7740  04BF  2D3E               	line	235
  7741                           ;source.c: 235:         case 20:
  7742                           	
  7743                           l204:	
  7744  04C0                     	line	236
  7745                           	
  7746                           l2551:	
  7747  04C0                     ;source.c: 236:             PORTDbits.RD4 = value;
  7748                           	rrf	(digitalWrite@value),w
  7749  04C0  0C70               	bcf	status, 5	;RP0=0, select bank0
  7750  04C1  1283               	bcf	status, 6	;RP1=0, select bank0
  7751  04C2  1303               	skipc
  7752  04C3  1C03               	bcf	(8),4	;volatile
  7753  04C4  1208               	skipnc
  7754  04C5  1803               	bsf	(8),4	;volatile
  7755  04C6  1608               	line	237
  7756                           ;source.c: 237:             break;
  7757                           	goto	l209
  7758  04C7  2D3E               	line	238
  7759                           ;source.c: 238:         case 21:
  7760                           	
  7761                           l205:	
  7762  04C8                     	line	239
  7763                           	
  7764                           l2553:	
  7765  04C8                     ;source.c: 239:             PORTDbits.RD5 = value;
  7766                           	rrf	(digitalWrite@value),w
  7767  04C8  0C70               	bcf	status, 5	;RP0=0, select bank0
  7768  04C9  1283               	bcf	status, 6	;RP1=0, select bank0
  7769  04CA  1303               	skipc
  7770  04CB  1C03               	bcf	(8),5	;volatile
  7771  04CC  1288               	skipnc
  7772  04CD  1803               	bsf	(8),5	;volatile
  7773  04CE  1688               	line	240
  7774                           ;source.c: 240:             break;
  7775                           	goto	l209
  7776  04CF  2D3E               	line	241
  7777                           ;source.c: 241:         case 22:
  7778                           	
  7779                           l206:	
  7780  04D0                     	line	242
  7781                           	
  7782                           l2555:	
  7783  04D0                     ;source.c: 242:             PORTDbits.RD6 = value;
  7784                           	rrf	(digitalWrite@value),w
  7785  04D0  0C70               	bcf	status, 5	;RP0=0, select bank0
  7786  04D1  1283               	bcf	status, 6	;RP1=0, select bank0
  7787  04D2  1303               	skipc
  7788  04D3  1C03               	bcf	(8),6	;volatile
  7789  04D4  1308               	skipnc
  7790  04D5  1803               	bsf	(8),6	;volatile
  7791  04D6  1708               	line	243
  7792                           ;source.c: 243:             break;
  7793                           	goto	l209
  7794  04D7  2D3E               	line	244
  7795                           ;source.c: 244:         case 23:
  7796                           	
  7797                           l207:	
  7798  04D8                     	line	245
  7799                           	
  7800                           l2557:	
  7801  04D8                     ;source.c: 245:             PORTDbits.RD7 = value;
  7802                           	rrf	(digitalWrite@value),w
  7803  04D8  0C70               	bcf	status, 5	;RP0=0, select bank0
  7804  04D9  1283               	bcf	status, 6	;RP1=0, select bank0
  7805  04DA  1303               	skipc
  7806  04DB  1C03               	bcf	(8),7	;volatile
  7807  04DC  1388               	skipnc
  7808  04DD  1803               	bsf	(8),7	;volatile
  7809  04DE  1788               	line	246
  7810                           ;source.c: 246:             break;
  7811                           	goto	l209
  7812  04DF  2D3E               	line	247
  7813                           ;source.c: 247:         case 24:
  7814                           	
  7815                           l208:	
  7816  04E0                     	line	248
  7817                           	
  7818                           l2559:	
  7819  04E0                     ;source.c: 248:             PORTAbits.RA4 = value;
  7820                           	rrf	(digitalWrite@value),w
  7821  04E0  0C70               	bcf	status, 5	;RP0=0, select bank0
  7822  04E1  1283               	bcf	status, 6	;RP1=0, select bank0
  7823  04E2  1303               	skipc
  7824  04E3  1C03               	bcf	(5),4	;volatile
  7825  04E4  1205               	skipnc
  7826  04E5  1803               	bsf	(5),4	;volatile
  7827  04E6  1605               	line	249
  7828                           ;source.c: 249:             break;
  7829                           	goto	l209
  7830  04E7  2D3E               	line	258
  7831                           	
  7832                           l2561:	
  7833  04E8                     ;source.c: 258:     }
  7834                           	goto	l209
  7835  04E8  2D3E               	
  7836                           l182:	
  7837  04E9                     	
  7838                           l2563:	
  7839  04E9                     	movf	(digitalWrite@pin),w
  7840  04E9  0873               	movwf	(??_digitalWrite+0)+0
  7841  04EA  00F1               	clrf	(??_digitalWrite+0)+0+1
  7842  04EB  01F2               	; Switch on 2 bytes has been partitioned into a top level switch of size 1, and 1 sub-s
                                 witches
  7843                           ; Switch size 1, requested type "space"
  7844                           ; Number of cases is 1, Range of values is 0 to 0
  7845                           ; switch strategies available:
  7846                           ; Name         Instructions Cycles
  7847                           ; simple_byte            4     3 (average)
  7848                           ; direct_byte           11     8 (fixed)
  7849                           ; jumptable            260     6 (fixed)
  7850                           ;	Chosen strategy is simple_byte
  7851                           
  7852                           	movf 1+(??_digitalWrite+0)+0,w
  7853  04EC  0872               	opt asmopt_push
  7854                           	opt asmopt_off
  7855                           	xorlw	0^0	; case 0
  7856  04ED  3A00               	skipnz
  7857  04EE  1903               	goto	l3347
  7858  04EF  2CF1               	goto	l209
  7859  04F0  2D3E               	opt asmopt_pop
  7860                           	
  7861                           l3347:	
  7862  04F1                     ; Switch size 1, requested type "space"
  7863                           ; Number of cases is 25, Range of values is 0 to 24
  7864                           ; switch strategies available:
  7865                           ; Name         Instructions Cycles
  7866                           ; simple_byte           76    39 (average)
  7867                           ; direct_byte           83     8 (fixed)
  7868                           ; jumptable            260     6 (fixed)
  7869                           ;	Chosen strategy is simple_byte
  7870                           
  7871                           	movf 0+(??_digitalWrite+0)+0,w
  7872  04F1  0871               	opt asmopt_push
  7873                           	opt asmopt_off
  7874                           	xorlw	0^0	; case 0
  7875  04F2  3A00               	skipnz
  7876  04F3  1903               	goto	l2507
  7877  04F4  2C1E               	xorlw	1^0	; case 1
  7878  04F5  3A01               	skipnz
  7879  04F6  1903               	goto	l2509
  7880  04F7  2C26               	xorlw	2^1	; case 2
  7881  04F8  3A03               	skipnz
  7882  04F9  1903               	goto	l2511
  7883  04FA  2C2E               	xorlw	3^2	; case 3
  7884  04FB  3A01               	skipnz
  7885  04FC  1903               	goto	l2513
  7886  04FD  2C36               	xorlw	4^3	; case 4
  7887  04FE  3A07               	skipnz
  7888  04FF  1903               	goto	l2515
  7889  0500  2C3E               	xorlw	5^4	; case 5
  7890  0501  3A01               	skipnz
  7891  0502  1903               	goto	l2517
  7892  0503  2C46               	xorlw	6^5	; case 6
  7893  0504  3A03               	skipnz
  7894  0505  1903               	goto	l2521
  7895  0506  2C4F               	xorlw	7^6	; case 7
  7896  0507  3A01               	skipnz
  7897  0508  1903               	goto	l2525
  7898  0509  2C58               	xorlw	8^7	; case 8
  7899  050A  3A0F               	skipnz
  7900  050B  1903               	goto	l2527
  7901  050C  2C60               	xorlw	9^8	; case 9
  7902  050D  3A01               	skipnz
  7903  050E  1903               	goto	l2529
  7904  050F  2C68               	xorlw	10^9	; case 10
  7905  0510  3A03               	skipnz
  7906  0511  1903               	goto	l2531
  7907  0512  2C70               	xorlw	11^10	; case 11
  7908  0513  3A01               	skipnz
  7909  0514  1903               	goto	l2533
  7910  0515  2C78               	xorlw	12^11	; case 12
  7911  0516  3A07               	skipnz
  7912  0517  1903               	goto	l2535
  7913  0518  2C80               	xorlw	13^12	; case 13
  7914  0519  3A01               	skipnz
  7915  051A  1903               	goto	l2537
  7916  051B  2C88               	xorlw	14^13	; case 14
  7917  051C  3A03               	skipnz
  7918  051D  1903               	goto	l2539
  7919  051E  2C90               	xorlw	15^14	; case 15
  7920  051F  3A01               	skipnz
  7921  0520  1903               	goto	l2541
  7922  0521  2C98               	xorlw	16^15	; case 16
  7923  0522  3A1F               	skipnz
  7924  0523  1903               	goto	l2543
  7925  0524  2CA0               	xorlw	17^16	; case 17
  7926  0525  3A01               	skipnz
  7927  0526  1903               	goto	l2545
  7928  0527  2CA8               	xorlw	18^17	; case 18
  7929  0528  3A03               	skipnz
  7930  0529  1903               	goto	l2547
  7931  052A  2CB0               	xorlw	19^18	; case 19
  7932  052B  3A01               	skipnz
  7933  052C  1903               	goto	l2549
  7934  052D  2CB8               	xorlw	20^19	; case 20
  7935  052E  3A07               	skipnz
  7936  052F  1903               	goto	l2551
  7937  0530  2CC0               	xorlw	21^20	; case 21
  7938  0531  3A01               	skipnz
  7939  0532  1903               	goto	l2553
  7940  0533  2CC8               	xorlw	22^21	; case 22
  7941  0534  3A03               	skipnz
  7942  0535  1903               	goto	l2555
  7943  0536  2CD0               	xorlw	23^22	; case 23
  7944  0537  3A01               	skipnz
  7945  0538  1903               	goto	l2557
  7946  0539  2CD8               	xorlw	24^23	; case 24
  7947  053A  3A0F               	skipnz
  7948  053B  1903               	goto	l2559
  7949  053C  2CE0               	goto	l209
  7950  053D  2D3E               	opt asmopt_pop
  7951                           
  7952                           	
  7953                           l184:	
  7954  053E                     	line	259
  7955                           	
  7956                           l209:	
  7957  053E                     	return
  7958  053E  0008               	opt stack 0
  7959                           GLOBAL	__end_of_digitalWrite
  7960                           	__end_of_digitalWrite:
  7961  053F                     	signat	_digitalWrite,8313
  7962                           	global	_Initialization
  7963                           
  7964 ;; *************** function _Initialization *****************
  7965 ;; Defined at:
  7966 ;;		line 18 in file "source.c"
  7967 ;; Parameters:    Size  Location     Type
  7968 ;;		None
  7969 ;; Auto vars:     Size  Location     Type
  7970 ;;		None
  7971 ;; Return value:  Size  Location     Type
  7972 ;;                  1    wreg      void 
  7973 ;; Registers used:
  7974 ;;		wreg, status,2, status,0, pclath, cstack
  7975 ;; Tracked objects:
  7976 ;;		On entry : 0/0
  7977 ;;		On exit  : 0/0
  7978 ;;		Unchanged: 0/0
  7979 ;; Data sizes:     COMMON   BANK0   BANK1   BANK3   BANK2
  7980 ;;      Params:         0       0       0       0       0
  7981 ;;      Locals:         0       0       0       0       0
  7982 ;;      Temps:          0       0       0       0       0
  7983 ;;      Totals:         0       0       0       0       0
  7984 ;;Total ram usage:        0 bytes
  7985 ;; Hardware stack levels used:    1
  7986 ;; Hardware stack levels required when called:    1
  7987 ;; This function calls:
  7988 ;;		_CCP1Configuration
  7989 ;;		_CCP2Configuration
  7990 ;; This function is called by:
  7991 ;;		_main
  7992 ;; This function uses a non-reentrant model
  7993 ;;
  7994                           psect	text23,local,class=CODE,delta=2,merge=1,group=0
  7995                           	line	18
  7996                           global __ptext23
  7997                           __ptext23:	;psect for function _Initialization
  7998  0AA2                     psect	text23
  7999                           	file	"source.c"
  8000                           	line	18
  8001                           	global	__size_of_Initialization
  8002                           	__size_of_Initialization	equ	__end_of_Initialization-_Initialization
  8003  0026                     	
  8004                           _Initialization:	
  8005  0AA2                     ;incstack = 0
  8006                           	opt	stack 6
  8007                           ; Regs used in _Initialization: [wreg+status,2+status,0+pclath+cstack]
  8008                           	line	21
  8009                           	
  8010                           l1783:	
  8011  0AA2                     ;source.c: 21:     ADCON0 = 0x81;
  8012                           	movlw	low(081h)
  8013  0AA2  3081               	bcf	status, 5	;RP0=0, select bank0
  8014  0AA3  1283               	bcf	status, 6	;RP1=0, select bank0
  8015  0AA4  1303               	movwf	(31)	;volatile
  8016  0AA5  009F               	line	22
  8017                           ;source.c: 22:     ADCON1 = 0xC2;
  8018                           	movlw	low(0C2h)
  8019  0AA6  30C2               	bsf	status, 5	;RP0=1, select bank1
  8020  0AA7  1683               	bcf	status, 6	;RP1=0, select bank1
  8021  0AA8  1303               	movwf	(159)^080h	;volatile
  8022  0AA9  009F               	line	24
  8023                           # 24 "source.c"
  8024                           CLRF PORTA ;# 
  8025  0AAA  0185               	line	25
  8026                           # 25 "source.c"
  8027                           MOVLW 0x3F ;# 
  8028  0AAB  303F               	line	26
  8029                           # 26 "source.c"
  8030                           MOVWF TRISA ;# 
  8031  0AAC  0085               	line	28
  8032                           # 28 "source.c"
  8033                           CLRF PORTB ;# 
  8034  0AAD  0186               	line	29
  8035                           # 29 "source.c"
  8036                           MOVLW 0x00 ;# 
  8037  0AAE  3000               	line	30
  8038                           # 30 "source.c"
  8039                           MOVWF TRISB ;# 
  8040  0AAF  0086               	line	32
  8041                           # 32 "source.c"
  8042                           CLRF PORTC ;# 
  8043  0AB0  0187               	line	33
  8044                           # 33 "source.c"
  8045                           MOVLW 0x00 ;# 
  8046  0AB1  3000               	line	34
  8047                           # 34 "source.c"
  8048                           MOVWF TRISC ;# 
  8049  0AB2  0087               psect	text23
  8050                           	line	35
  8051                           	
  8052                           l1785:	
  8053  0AB3                     ;source.c: 35:     CCP1Configuration();
  8054                           	fcall	_CCP1Configuration
  8055  0AB3  120A  118A  2007  120A  158A  	line	36
  8056                           	
  8057                           l1787:	
  8058  0AB8                     ;source.c: 36:     CCP2Configuration();
  8059                           	fcall	_CCP2Configuration
  8060  0AB8  120A  158A  2268  120A  158A  	line	38
  8061                           # 38 "source.c"
  8062                           CLRF PORTD ;# 
  8063  0ABD  0188               	line	39
  8064                           # 39 "source.c"
  8065                           MOVLW 0x00 ;# 
  8066  0ABE  3000               	line	40
  8067                           # 40 "source.c"
  8068                           MOVF TRISD ;# 
  8069  0ABF  0888               psect	text23
  8070                           	line	41
  8071                           	
  8072                           l1789:	
  8073  0AC0                     ;source.c: 41:     PORTE = 0x00;
  8074                           	bcf	status, 5	;RP0=0, select bank0
  8075  0AC0  1283               	bcf	status, 6	;RP1=0, select bank0
  8076  0AC1  1303               	clrf	(9)	;volatile
  8077  0AC2  0189               	line	42
  8078                           	
  8079                           l1791:	
  8080  0AC3                     ;source.c: 42:     TRISE = 0x07;
  8081                           	movlw	low(07h)
  8082  0AC3  3007               	bsf	status, 5	;RP0=1, select bank1
  8083  0AC4  1683               	bcf	status, 6	;RP1=0, select bank1
  8084  0AC5  1303               	movwf	(137)^080h	;volatile
  8085  0AC6  0089               	line	43
  8086                           	
  8087                           l137:	
  8088  0AC7                     	return
  8089  0AC7  0008               	opt stack 0
  8090                           GLOBAL	__end_of_Initialization
  8091                           	__end_of_Initialization:
  8092  0AC8                     	signat	_Initialization,89
  8093                           	global	_CCP2Configuration
  8094                           
  8095 ;; *************** function _CCP2Configuration *****************
  8096 ;; Defined at:
  8097 ;;		line 55 in file "source.c"
  8098 ;; Parameters:    Size  Location     Type
  8099 ;;		None
  8100 ;; Auto vars:     Size  Location     Type
  8101 ;;		None
  8102 ;; Return value:  Size  Location     Type
  8103 ;;                  1    wreg      void 
  8104 ;; Registers used:
  8105 ;;		wreg
  8106 ;; Tracked objects:
  8107 ;;		On entry : 0/0
  8108 ;;		On exit  : 0/0
  8109 ;;		Unchanged: 0/0
  8110 ;; Data sizes:     COMMON   BANK0   BANK1   BANK3   BANK2
  8111 ;;      Params:         0       0       0       0       0
  8112 ;;      Locals:         0       0       0       0       0
  8113 ;;      Temps:          0       0       0       0       0
  8114 ;;      Totals:         0       0       0       0       0
  8115 ;;Total ram usage:        0 bytes
  8116 ;; Hardware stack levels used:    1
  8117 ;; This function calls:
  8118 ;;		Nothing
  8119 ;; This function is called by:
  8120 ;;		_Initialization
  8121 ;; This function uses a non-reentrant model
  8122 ;;
  8123                           psect	text24,local,class=CODE,delta=2,merge=1,group=0
  8124                           	line	55
  8125                           global __ptext24
  8126                           __ptext24:	;psect for function _CCP2Configuration
  8127  0A68                     psect	text24
  8128                           	file	"source.c"
  8129                           	line	55
  8130                           	global	__size_of_CCP2Configuration
  8131                           	__size_of_CCP2Configuration	equ	__end_of_CCP2Configuration-_CCP2Configuration
  8132  0005                     	
  8133                           _CCP2Configuration:	
  8134  0A68                     ;incstack = 0
  8135                           	opt	stack 6
  8136                           ; Regs used in _CCP2Configuration: [wreg]
  8137                           	line	57
  8138                           	
  8139                           l1689:	
  8140  0A68                     ;source.c: 57:     CCP2CON = 0x4F;
  8141                           	movlw	low(04Fh)
  8142  0A68  304F               	bcf	status, 5	;RP0=0, select bank0
  8143  0A69  1283               	bcf	status, 6	;RP1=0, select bank0
  8144  0A6A  1303               	movwf	(29)	;volatile
  8145  0A6B  009D               	line	58
  8146                           	
  8147                           l146:	
  8148  0A6C                     	return
  8149  0A6C  0008               	opt stack 0
  8150                           GLOBAL	__end_of_CCP2Configuration
  8151                           	__end_of_CCP2Configuration:
  8152  0A6D                     	signat	_CCP2Configuration,89
  8153                           	global	_CCP1Configuration
  8154                           
  8155 ;; *************** function _CCP1Configuration *****************
  8156 ;; Defined at:
  8157 ;;		line 44 in file "source.c"
  8158 ;; Parameters:    Size  Location     Type
  8159 ;;		None
  8160 ;; Auto vars:     Size  Location     Type
  8161 ;;		None
  8162 ;; Return value:  Size  Location     Type
  8163 ;;                  1    wreg      void 
  8164 ;; Registers used:
  8165 ;;		wreg
  8166 ;; Tracked objects:
  8167 ;;		On entry : 0/0
  8168 ;;		On exit  : 0/0
  8169 ;;		Unchanged: 0/0
  8170 ;; Data sizes:     COMMON   BANK0   BANK1   BANK3   BANK2
  8171 ;;      Params:         0       0       0       0       0
  8172 ;;      Locals:         0       0       0       0       0
  8173 ;;      Temps:          0       0       0       0       0
  8174 ;;      Totals:         0       0       0       0       0
  8175 ;;Total ram usage:        0 bytes
  8176 ;; Hardware stack levels used:    1
  8177 ;; This function calls:
  8178 ;;		Nothing
  8179 ;; This function is called by:
  8180 ;;		_Initialization
  8181 ;; This function uses a non-reentrant model
  8182 ;;
  8183                           psect	text25,local,class=CODE,delta=2,merge=1,group=0
  8184                           	line	44
  8185                           global __ptext25
  8186                           __ptext25:	;psect for function _CCP1Configuration
  8187  0007                     psect	text25
  8188                           	file	"source.c"
  8189                           	line	44
  8190                           	global	__size_of_CCP1Configuration
  8191                           	__size_of_CCP1Configuration	equ	__end_of_CCP1Configuration-_CCP1Configuration
  8192  000B                     	
  8193                           _CCP1Configuration:	
  8194  0007                     ;incstack = 0
  8195                           	opt	stack 6
  8196                           ; Regs used in _CCP1Configuration: [wreg]
  8197                           	line	46
  8198                           	
  8199                           l1687:	
  8200  0007                     ;source.c: 46:     PR2 = 0xFF;
  8201                           	movlw	low(0FFh)
  8202  0007  30FF               	bsf	status, 5	;RP0=1, select bank1
  8203  0008  1683               	bcf	status, 6	;RP1=0, select bank1
  8204  0009  1303               	movwf	(146)^080h	;volatile
  8205  000A  0092               	line	47
  8206                           ;source.c: 47:     T2CON = 0x05;
  8207                           	movlw	low(05h)
  8208  000B  3005               	bcf	status, 5	;RP0=0, select bank0
  8209  000C  1283               	bcf	status, 6	;RP1=0, select bank0
  8210  000D  1303               	movwf	(18)	;volatile
  8211  000E  0092               	line	48
  8212                           ;source.c: 48:     CCP1CON = 0x4F;
  8213                           	movlw	low(04Fh)
  8214  000F  304F               	movwf	(23)	;volatile
  8215  0010  0097               	line	49
  8216                           	
  8217                           l140:	
  8218  0011                     	return
  8219  0011  0008               	opt stack 0
  8220                           GLOBAL	__end_of_CCP1Configuration
  8221                           	__end_of_CCP1Configuration:
  8222  0012                     	signat	_CCP1Configuration,89
  8223                           global	___latbits
  8224                           ___latbits	equ	2
  8225  0002                     	global	btemp
  8226                           	btemp set 07Eh
  8227  007E                     
  8228                           	DABS	1,126,2	;btemp
  8229                           	global	wtemp0
  8230                           	wtemp0 set btemp+0
  8231  007E                     	end


Data Sizes:
    Strings     117
    Constant    38
    Data        1
    BSS         36
    Persistent  14
    Stack       0

Auto Spaces:
    Space          Size  Autos    Used
    COMMON           14     14      14
    BANK0            80     17      68
    BANK1            80      0       0
    BANK3            96      0       0
    BANK2            96      0       0

Pointer List with Targets:

    sprintf@f	PTR const unsigned char  size(1) Largest target is 14
		 -> STR_3(CODE[14]), 

    sprintf@sp	PTR unsigned char  size(1) Largest target is 16
		 -> FirstROW(BANK0[16]), 

    sprintf@ap	PTR void [1] size(1) Largest target is 2
		 -> ?_sprintf(BANK0[2]), 

    lcdPrint@string	PTR unsigned char  size(2) Largest target is 17
		 -> STR_8(CODE[14]), STR_7(CODE[14]), STR_6(CODE[14]), STR_5(CODE[14]), 
		 -> STR_4(CODE[14]), FirstROW(BANK0[16]), STR_2(CODE[16]), STR_1(CODE[17]), 


Critical Paths under _main in COMMON

    _setup->_lcdBegin
    _lcdBegin->_WriteInstruction
    _lcdClear->_WriteInstruction
    _ModoEncendido->_lcdSetCursor
    _sprintf->___lwmod
    ___lwmod->___lwdiv
    _MotorDC->_digitalWrite
    _Contador->_delay
    _ModoApagado->_lcdSetCursor
    _lcdSetCursor->_WriteInstruction
    _WriteInstruction->_ByteByNibble
    _WriteInstruction->_delay
    _lcdPrint->_lcdWrite
    _lcdWrite->_WriteData
    _WriteData->_ByteByNibble
    _WriteData->_delay
    _ByteByNibble->_digitalWrite

Critical Paths under _main in BANK0

    _main->_loop
    _setup->_lcdBegin
    _loop->_ModoEncendido
    _ModoEncendido->_sprintf
    _ModoApagado->_lcdPrint

Critical Paths under _main in BANK1

    None.

Critical Paths under _main in BANK3

    None.

Critical Paths under _main in BANK2

    None.

Call Graph Tables:

 ---------------------------------------------------------------------------------
 (Depth) Function   	        Calls       Base Space   Used Autos Params    Refs
 ---------------------------------------------------------------------------------
 (0) _main                                                 0     0      0  159116
                     _Initialization
                               _loop
                              _setup
 ---------------------------------------------------------------------------------
 (1) _setup                                                6     6      0   39458
                                              7 BANK0      6     6      0
                           _lcdBegin
                           _lcdClear
                            _pinMode
 ---------------------------------------------------------------------------------
 (2) _lcdBegin                                             9     3      6   20749
                                             12 COMMON     2     2      0
                                              0 BANK0      7     1      6
                   _WriteInstruction
                              _delay
                            _pinMode
 ---------------------------------------------------------------------------------
 (2) _pinMode                                              4     3      1    1408
                                              0 COMMON     4     3      1
 ---------------------------------------------------------------------------------
 (1) _loop                                                 3     3      0  119658
                                             14 BANK0      3     3      0
                        _ModoApagado
                      _ModoEncendido
                             _PBRead
                              _delay
                       _digitalWrite
                           _lcdClear
 ---------------------------------------------------------------------------------
 (2) _lcdClear                                             0     0      0   17301
                   _WriteInstruction
 ---------------------------------------------------------------------------------
 (2) _PBRead                                               3     3      0      22
                                              0 COMMON     3     3      0
 ---------------------------------------------------------------------------------
 (2) _ModoEncendido                                        1     1      0   56032
                                             13 BANK0      1     1      0
                           _Contador
                            _MotorDC
                       _digitalWrite
                           _lcdPrint
                       _lcdSetCursor
                            _sprintf
 ---------------------------------------------------------------------------------
 (3) _sprintf                                             21    18      3    1211
                                              0 BANK0     13    10      3
                            ___lwdiv
                            ___lwmod
 ---------------------------------------------------------------------------------
 (4) ___lwmod                                              6     2      4     311
                                              8 COMMON     6     2      4
                            ___lwdiv (ARG)
 ---------------------------------------------------------------------------------
 (4) ___lwdiv                                              8     4      4     314
                                              0 COMMON     8     4      4
 ---------------------------------------------------------------------------------
 (3) _MotorDC                                              2     0      2    8346
                                              4 COMMON     2     0      2
                       _digitalWrite
 ---------------------------------------------------------------------------------
 (3) _Contador                                             4     2      2    1494
                                              7 COMMON     4     2      2
                         _analogRead
                              _delay
 ---------------------------------------------------------------------------------
 (4) _analogRead                                           5     3      2      22
                                              0 COMMON     5     3      2
 ---------------------------------------------------------------------------------
 (2) _ModoApagado                                          0     0      0   37037
                           _lcdPrint
                       _lcdSetCursor
 ---------------------------------------------------------------------------------
 (3) _lcdSetCursor                                         4     3      1   17740
                                             12 COMMON     2     1      1
                                              0 BANK0      2     2      0
                   _WriteInstruction
 ---------------------------------------------------------------------------------
 (3) _WriteInstruction                                     5     5      0   17301
                                              7 COMMON     5     5      0
                       _ByteByNibble
                              _delay
                       _digitalWrite
 ---------------------------------------------------------------------------------
 (3) _lcdPrint                                             7     5      2   19297
                                              0 BANK0      7     5      2
                           _lcdWrite
 ---------------------------------------------------------------------------------
 (4) _lcdWrite                                             1     1      0   18599
                                             12 COMMON     1     1      0
                          _WriteData
                              _delay
 ---------------------------------------------------------------------------------
 (5) _WriteData                                            5     5      0   17301
                                              7 COMMON     5     5      0
                       _ByteByNibble
                              _delay
                       _digitalWrite
 ---------------------------------------------------------------------------------
 (4) _delay                                                7     5      2    1276
                                              0 COMMON     7     5      2
 ---------------------------------------------------------------------------------
 (4) _ByteByNibble                                         3     3      0    7966
                                              4 COMMON     3     3      0
                       _digitalWrite
 ---------------------------------------------------------------------------------
 (4) _digitalWrite                                         4     3      1    7944
                                              0 COMMON     4     3      1
 ---------------------------------------------------------------------------------
 (1) _Initialization                                       0     0      0       0
                  _CCP1Configuration
                  _CCP2Configuration
 ---------------------------------------------------------------------------------
 (2) _CCP2Configuration                                    0     0      0       0
 ---------------------------------------------------------------------------------
 (2) _CCP1Configuration                                    0     0      0       0
 ---------------------------------------------------------------------------------
 Estimated maximum stack depth 5
 ---------------------------------------------------------------------------------

 Call Graph Graphs:

 _main (ROOT)
   _Initialization
     _CCP1Configuration
     _CCP2Configuration
   _loop
     _ModoApagado
       _lcdPrint
         _lcdWrite
           _WriteData
             _ByteByNibble
               _digitalWrite
             _delay
             _digitalWrite
           _delay
       _lcdSetCursor
         _WriteInstruction
           _ByteByNibble
             _digitalWrite
           _delay
           _digitalWrite
     _ModoEncendido
       _Contador
         _analogRead
         _delay
       _MotorDC
         _digitalWrite
       _digitalWrite
       _lcdPrint
         _lcdWrite
           _WriteData
             _ByteByNibble
               _digitalWrite
             _delay
             _digitalWrite
           _delay
       _lcdSetCursor
         _WriteInstruction
           _ByteByNibble
             _digitalWrite
           _delay
           _digitalWrite
       _sprintf
         ___lwdiv
         ___lwmod
           ___lwdiv (ARG)
     _PBRead
     _delay
     _digitalWrite
     _lcdClear
       _WriteInstruction
         _ByteByNibble
           _digitalWrite
         _delay
         _digitalWrite
   _setup
     _lcdBegin
       _WriteInstruction
         _ByteByNibble
           _digitalWrite
         _delay
         _digitalWrite
       _delay
       _pinMode
     _lcdClear
       _WriteInstruction
         _ByteByNibble
           _digitalWrite
         _delay
         _digitalWrite
     _pinMode

 Address spaces:
Name               Size   Autos  Total    Cost      Usage
BANK3               60      0       0       9        0.0%
BITBANK3            60      0       0       8        0.0%
SFR3                 0      0       0       4        0.0%
BITSFR3              0      0       0       4        0.0%
BANK2               60      0       0      11        0.0%
BITBANK2            60      0       0      10        0.0%
SFR2                 0      0       0       5        0.0%
BITSFR2              0      0       0       5        0.0%
BANK1               50      0       0       7        0.0%
BITBANK1            50      0       0       6        0.0%
SFR1                 0      0       0       2        0.0%
BITSFR1              0      0       0       2        0.0%
BANK0               50     11      44       5       85.0%
BITBANK0            50      0       0       4        0.0%
SFR0                 0      0       0       1        0.0%
BITSFR0              0      0       0       1        0.0%
COMMON               E      E       E       1      100.0%
BITCOMMON            E      0       0       0        0.0%
CODE                 0      0       0       0        0.0%
DATA                 0      0      52      12        0.0%
ABS                  0      0      52       3        0.0%
NULL                 0      0       0       0        0.0%
STACK                0      0       0       2        0.0%
EEDATA             100      0       0       0        0.0%


Microchip Technology PIC Macro Assembler V2.00 build -1524193055 
Symbol Table                                                                                   Wed Feb 19 10:41:35 2020

                          pc 0002                  __CFG_CP$OFF 0000                           _D4 082E  
                         _D5 082C                           _D6 082A                           _D7 0828  
                         _En 0832                           _RW 0830                           _Rs 0834  
                         fsr 0004                 lcdWrite@data 007C                ?_ByteByNibble 0070  
                __CFG_LVP$ON 0000                          l200 04A0                          l201 04A8  
                        l202 04B0                          l203 04B8                          l131 0A98  
                        l140 0011                          l204 04C0                          l132 0A9E  
                        l205 04C8                          l133 0A9F                          l206 04D0  
                        l134 0A9F                          l207 04D8                          l208 04E0  
                        l152 03C6                          l160 032D                          l137 0AC7  
                        l209 053E                          l161 0335                          l153 02FD  
                        l146 0A6C                          l242 0EC2                          l250 0E74  
                        l154 041B                          l170 037D                          l162 033D  
                        l251 0E74                          l243 0E58                          l171 0385  
                        l163 0345                          l155 0305                          l260 0EA3  
                        l252 0E79                          l244 0E5F                          l172 038D  
                        l164 034D                          l156 030D                          l261 0EAC  
                        l253 0E82                          l245 0E5F                          l173 0395  
                        l165 0355                          l157 0315                          l182 04E9  
                        l190 044F                          l262 0EB3                          l254 0E89  
                        l246 0E64                          l174 039D                          l166 035D  
                        l158 031D                          l191 0458                          l183 041E  
                        l263 0EB3                          l255 0E89                          l247 0EDB  
                        l175 03A5                          l167 0365                          l159 0325  
                        l184 053E                          l192 0460                          l248 0EDB  
                        l264 0EB8                          l256 0E8E                          l176 03AD  
                        l168 036D                          l193 0468                          l185 0426  
                        l257 0E97                          l249 0E6D                          l177 03B5  
                        l169 0375                          l194 0470                          l186 042E  
                        l258 0E9E                          l274 0B35                          l450 00D6  
                        l178 03BD                          l195 0478                          l187 0436  
                        l259 0E9E                          l275 0B1D                          l451 0013  
                        l179 041B                          l196 0480                          l188 043E  
                        l540 0B18                          l700 01E3                          l276 0B48  
                        l460 00CC                          l452 004D                          l532 0FFF  
                        l197 0488                          l189 0446                          l541 0B19  
                        l701 0106                          l277 0B48                          l461 00D4  
                        l453 004C                          l198 0490                          l550 0BD1  
                        l542 0B1A                          l710 01C4                          l702 0107  
                        l470 02DF                          l278 0B24                          l454 0052  
                        l462 00E8                          l199 0498                          l375 0C2F  
                        l551 0BD1                          l711 018A                          l703 0127  
                        l471 0223                          l279 0B2B                          l535 0A73  
                        l455 00E8                          l447 0F66                          l376 0C6A  
                        l712 01CE                          l704 0108                          l472 02FA  
                        l456 0053                          l377 0C40                          l545 0A8C  
                        l465 0AEE                          l713 01E2                          l705 0141  
                        l473 0244                          l457 00D0                          l378 0C55  
                        l538 0B04                          l490 0D50                          l714 01E8  
                        l706 014B                          l474 0267                          l458 00CF  
                        l379 0C6A                          l571 0DD2                          l539 0B1A  
                        l491 0D4F                          l707 0173                          l475 0289  
                        l459 0093                          l580 0566                          l548 0BB4  
                        l708 0168                          l476 02AB                          l581 058C  
                        l549 0B8F                          l485 0D41                          l709 0185  
                        l477 02CE                          l590 06E9                          l582 05B2  
                        l574 0E55                          l486 0D38                          l494 0CC0  
                        l478 02FA                          l591 0711                          l583 05D9  
                        l487 0D37                          l495 0C6C                          l592 0738  
                        l584 05FF                          l488 0D50                          l496 0CD0  
                        l577 07B2                          l593 0760                          l585 0626  
                        l489 0D40                          l497 0C88                          l594 0788  
                        l586 064D                          l578 0541                          l498 0CA4  
                        l579 07EC                          l587 0675                          l595 07EC  
                        l499 0CD0                          l588 069B                          l589 06C2  
                        l695 01CF                          l696 00F1                          l697 0103  
                        l698 010A                          l699 0105                          l990 0C1C  
                        l983 0C17                          l984 0BE9                          l985 0BDD  
                        l993 0B84                          l986 0BEE                          l994 0B5E  
                        l987 0BEF                          l995 0B52                          _GIE 005F  
                        l988 0C08                          l996 0B63                          l989 0C16  
                        l997 0B64                          l998 0B75                          l999 0B83  
                        _PR2 0092                          _PEN 048A                 __CFG_CPD$OFF 0000  
                        u900 0E78                          _SEN 0488                          u901 0E77  
                        u910 0E8D                          u911 0E8C                          u840 0C2D  
                        u920 0EA2                          u841 0C2C                          u921 0EA1  
                        u850 0C3E                          u930 0EB7                          u851 0C3D  
                        u931 0EB6                          u860 0C54                          u861 0C53  
                        u845 0C29                          u870 0C69                          u950 0BDA  
                        u871 0C68                          u855 0C3A                          u951 0BD9  
                        u865 0C50                          u945 0D5C                          u890 0E63  
                        u970 0BED                          u875 0C65                          u891 0E62  
                        u971 0BEC                          u885 0DDE                          u965 0BDE  
                        u990 0C00                          u991 0BFF                          u985 0BF0  
                        u995 0BFC                          fsr0 0004                          indf 0000  
               __CFG_FOSC$HS 0000                         l1000 0B89                         l3001 0FAB  
                       PORTA 0005                         PORTB 0006                         l3011 0FD8  
                       l3003 0FB4                         PORTC 0007                         PORTD 0008  
                       l3101 0093                         l3021 0FF9                         l3013 0FE1  
                       l3005 0FBD                         l3031 0238                         l3023 0A6D  
                       l3103 00A1                         l3111 00D0                         l3015 0FE7  
                       l3007 0FC6                         l3025 0AC8                         l3041 0289  
                       l3033 0244                         l3113 00D5                         l3105 00AA  
                       l3017 0FED                         l3009 0FCF                         l3121 0A8D  
                       l3051 02DE                         l3043 029F                         l3035 025B  
                       l3027 01E9                         l3107 00C0                         l3115 00D6  
                       l3019 0FF3                         l3123 0A92                         l3045 02AB  
                       l3037 0267                         l3029 0223                         l3053 02DF  
                       l3109 00C6                         l3061 0EE0                         l3125 0A98  
                       l2511 042E                         l3047 02C2                         l3039 027D  
                       l3071 0012                         l3063 0F2D                         l2521 044F  
                       l2513 0436                         l2505 041D                         l2601 0626  
                       l3049 02CE                         l3081 0043                         l3073 0013  
                       l3065 0F3A                         l2531 0470                         l2523 0452  
                       l2515 043E                         l2507 041E                         l2611 06E9  
                       l2603 064D                         l3091 0072                         l3083 0046  
                       l3075 0018                         l3331 03CE                         l3067 0F47  
                       l3059 0EDC                         l2541 0498                         l2533 0478  
                       l2525 0458                         l2517 0446                         l2509 0426  
                       l2621 07B1                         l2613 0711                         l2605 0675  
                       l2701 0D52                         l3341 0CC5                         l3333 00E0  
                       l3093 0083                         l3085 0053                         l3077 0029  
                       l3069 0F54                         l2551 04C0                         l2543 04A0  
                       l2535 0480                         l2527 0460                         l2519 0449  
                       l2615 0738                         l2607 069B                         l2623 07B2  
                       l2631 0DD6                         l2711 0D70                         l2703 0D54  
                       l3343 0ECA                         l3335 0B3D                         l3095 0088  
                       l3087 0058                         l3079 0032                         l2561 04E8  
                       l2553 04C8                         l2545 04A8                         l2537 0488  
                       l2529 0468                         l3345 07BA                         l2617 0760  
                       l2609 06C2                         l2641 0DFC                         l2633 0DDB  
                       l2721 0D9E                         l2713 0D79                         l2705 0D59  
                       l3337 02E6                         l3097 008B                         l3089 0069  
                       l2801 0335                         l3347 04F1                         l2555 04D0  
                       l2547 04B0                         l2539 0490                         l2563 04E9  
                       l2619 0788                         l2571 0C1F                         l2651 0E2A  
                       l2643 0E05                         l2635 0DE7                         l2731 0DC9  
                       l2723 0DA7                         l2715 0D82                         l2707 0D65  
                       l3339 011C                         l3099 0092                         l2811 035D  
                       l2803 033D                         l2557 04D8                         l2549 04B8  
                       l2581 0C41                         l2573 0C2E                         l2653 0E30  
                       l2645 0E0F                         l2637 0DEC                         l2629 0DD4  
                       l2733 0A7D                         l2725 0DAD                         l2717 0D8C  
                       l2709 0D6A                         l2661 0E57                         l2741 0BDA  
                       l2901 010A                         l2821 0385                         l2813 0365  
                       l2805 0345                         l1687 0007                         l1791 0AC3  
                       l1783 0AA2                         l2559 04E0                         l2591 0566  
                       l2583 0C47                         l2575 0C2F                         l2655 0E3A  
                       l2647 0E18                         l2639 0DF2                         l2735 0A86  
                       l2727 0DB7                         l2719 0D95                         l2671 0E80  
                       l2663 0E64                         l2751 0C00                         l2743 0BDD  
                       l2911 013B                         l2903 0127                         l2831 03AD  
                       l2823 038D                         l2815 036D                         l2807 034D  
                       l1689 0A68                         l1785 0AB3                         l2593 058C  
                       l2585 0C55                         l2577 0C31                         l2569 0C1D  
                       l2657 0E43                         l2649 0E21                         l2729 0DC0  
                       l2681 0EA3                         l2673 0E81                         l2665 0E6B  
                       l2761 0C1C                         l2753 0C06                         l2745 0BE4  
                       l2737 0BD2                         l2921 0167                         l2913 0141  
                       l2905 012F                         l2833 03B5                         l2825 0395  
                       l2817 0375                         l2809 0355                         l1787 0AB8  
                       l2595 05B2                         l2587 0540                         l2579 0C3F  
                       l2659 0E4C                         l2851 0AFD                         l2691 0EC0  
                       l2683 0EAA                         l2675 0E8E                         l2667 0E6C  
                       l2755 0C08                         l2747 0BE9                         l2739 0BD4  
                       l2771 0B5E                         l2763 0B49                         l2931 0185  
                       l2923 0168                         l2915 0143                         l2907 0133  
                       l2835 03BD                         l2827 039D                         l2819 037D  
                       l1789 0AC0                         l2597 05D9                         l2589 0541  
                       l2861 0B8F                         l2853 0B04                         l2845 0AF2  
                       l2693 0EC1                         l2685 0EAB                         l2677 0E95  
                       l2669 0E79                         l2757 0C0F                         l2749 0BEF  
                       l2773 0B64                         l2765 0B4F                         l2781 0B84  
                       l2933 018A                         l2917 014A                         l2925 0173  
                       l2909 0137                         l2941 01CF                         l2837 03C5  
                       l2829 03A5                         l2599 05FF                         l2863 0BAB  
                       l2855 0B0C                         l2847 0AF3                         l2687 0EB8  
                       l2679 0E96                         l2695 0EC2                         l2871 0CFB  
                       l2951 0C6B                         l2759 0C17                         l2783 0B89  
                       l2775 0B6E                         l2767 0B52                         l2935 01B8  
                       l2927 0179                         l2919 014B                         l2943 01E3  
                       l2791 030D                         l2839 03C6                         l2865 0BB4  
                       l2857 0B11                         l2849 0AF8                         l2689 0EBF  
                       l2881 0D3F                         l2873 0D04                         l2953 0C6C  
                       l2961 0CC0                         l2777 0B75                         l2769 0B59  
                       l2945 01E8                         l2937 01BF                         l2929 0180  
                       l2793 0315                         l2785 02FC                         l2859 0B8A  
                       l2875 0D28                         l2883 0D41                         l2867 0CD1  
                       l2955 0C88                         l2779 0B7C                         l2939 01C4  
                       l2891 00F1                         l2971 0B22                         l2795 031D  
                       l2787 02FD                         l2885 0D47                         l2877 0D36  
                       l2869 0CD7                         l2957 0CA4                         l2893 00F7  
                       l2981 0B2B                         l2973 0B23                         l2797 0325  
                       l2789 0305                         l2887 0D4E                         l2879 0D38  
                       l2959 0CBF                         l2895 00FE                         l2983 0B32  
                       l2975 0B24                         l2967 0B1C                         l2799 032D  
                       l2897 0103                         l2889 00EC                         l2985 0B33  
                       l2977 0B29                         l2969 0B1D                         l2899 0109  
                       l2987 0B34                         l2979 0B2A                         l2995 0F6A  
                       TRISA 0085                         TRISB 0086                         l2989 0B35  
                       l2997 0F9B                         TRISC 0087                         TRISD 0088  
                       l2999 0FA2                         STR_1 0836                         STR_2 0847  
                       STR_3 0857                         STR_4 088F                         STR_5 0881  
                       STR_6 089D                         STR_7 0865                         STR_8 0873  
                       _BRGH 04C2                         _CREN 00C4                         u1010 0C15  
                       _FERR 00C2                         u1011 0C14                         u1100 0B99  
                       u1020 0B4F                         u1005 0C09                         u1021 0B4E  
                       u1110 0BBE                         u1120 0BD0                         u1040 0B62  
                       u1200 0166                         u1121 0BCF                         u1041 0B61  
                       u1201 0165                         u1130 0CD7                         u1050 0B6E  
                       u1210 0172                         u1131 0CD6                         u1051 0B6D  
                       u1035 0B53                         u1211 0171                         u1140 0CFB  
                       u1220 0179                         u1300 00CC                         u1141 0CFA  
                       u1221 0178                         u1205 0162                         u1301 00CB  
                       u1150 0D28                         u1070 0B82                         u1230 01CD  
                       u1151 0D27                         u1071 0B81                         u1055 0B6A  
                       u1231 01CC                         u1080 0AF8                         u1160 0D47  
                       u1240 01E1                         u1081 0AF7                         u1161 0D46  
                       u1145 0CF7                         u1065 0B76                         u1241 01E0  
                       u1090 0B0C                         u1170 00F7                         u1250 0029  
                       u1091 0B0B                         u1155 0D24                         u1171 00F6  
                       u1251 0028                         u1180 0137                         u1260 0043  
                       u1181 0136                         u1261 0042                         u1190 0149  
                       u1270 0069                         u1191 0148                         u1271 0068  
                       u1280 0083                         u1281 0082                         u1290 0091  
                       u1291 0090                         _PEIE 005E                         _RCEN 048B  
                       _RCIF 0065                         _OERR 00C1                         _SPEN 00C7  
                       _RSEN 0489                         _TRMT 04C1                         _TXEN 04C5  
                       _TXIF 0064                         _SYNC 04C4                 __CFG_WRT$OFF 0000  
                       _main 0A8D                         _loop 0012                         btemp 007E  
          ?_WriteInstruction 0070                         start 0000           ??_WriteInstruction 0077  
          _CCP2Configuration 0A68              __end_of_MotorAC 0828              __end_of_MotorDC 0CD1  
             ??_ByteByNibble 0074           ?_CCP2Configuration 0070                        ?_main 0070  
                      _ACKEN 048C                        _ACKDT 048D                        _CCP1X 00BD  
                      _CCP1Y 00BC                        _CCP2X 00ED                        _CCP2Y 00EC  
                      ?_loop 0070                __CFG_WDTE$OFF 0000                        _T2CON 0012  
            __end_of___lwdiv 0C1D              __end_of___lwmod 0B8A                        _ENPin 005F  
                      _RCREG 001A                        _SPBRG 0099                        _PORTE 0009  
                      _SSPIE 0463                        _TRISE 0089                        _SSPIF 0063  
                      _TXREG 0019                ??_ModoApagado 007E                        _RSPin 0061  
                      _RWPin 005D                        _d4Pin 005B                        _d5Pin 0059  
                      _d6Pin 0057                        _d7Pin 0055          ??_CCP2Configuration 0070  
                      _delay 0C1D              __end_of_dpowers 081A              __end_of_pinMode 041C  
                      _setup 0EDC       __size_of_ModoEncendido 0112               __CFG_BOREN$OFF 0000  
                      pclath 000A                        loop@i 0054                        status 0003  
                      wtemp0 007E              __end_of_sprintf 01E9   __size_of_CCP1Configuration 000B  
       __end_of_digitalWrite 053F              __initialization 07ED    __end_of_CCP2Configuration 0A6D  
           __end_of_Contador 0D51                 __end_of_main 0AA2                 __end_of_loop 00E9  
    __size_of_Initialization 0026                       ??_main 007E                       ??_loop 0052  
           __end_of_MotorDCN 0824             __end_of_MotorDCP 0826         __end_of_lcdSetCursor 0B1B  
         lcdSetCursor@column 007C                       ?_delay 0070                       _ADCON0 001F  
                     _ADCON1 009F                       _ADRESH 001E                       _ADRESL 009E  
                     _CCPR1L 0015                       _CCPR2L 001B                       ?_setup 0070  
        __end_of_ModoApagado 0AEF                       _PBRead 0B1B                       _SSPADD 0093  
                     _TRISC3 043B                       _TRISC4 043C                       _TRISC6 043E  
                     _TRISC7 043F                       _SSPCON 0014                       _SSPBUF 0013  
                     _Alarma 081E             __end_of_lcdBegin 1000             __end_of_lcdClear 0A74  
             __CFG_PWRTE$OFF 0000                       _Estado 0063             __end_of_lcdPrint 0BD2  
                  ??_MotorDC 0076             __end_of_lcdWrite 0A8D                _ModoEncendido 01E9  
                  ??___lwdiv 0074                    ??___lwmod 007C                       delay@i 0075  
                     delay@j 0073            analogRead@channel 0074                    ??_pinMode 0071  
           _SensorProximidad 0820                    ??_sprintf 0047      __end_of__initialization 07FC  
       __end_of_ByteByNibble 07ED           __size_of_WriteData 0083                  pinMode@mode 0070  
          WriteData@LSNibble 0079   __size_of_CCP2Configuration 0005               __pcstackCOMMON 0070  
          WriteData@MSNibble 007B               ?_ModoEncendido 0070                 __pidataBANK0 0006  
              __end_of_delay 0C6B                __end_of_setup 0F67                   __end_of_D4 0830  
                 __end_of_D5 082E                   __end_of_D6 082C                   __end_of_D7 082A  
                 __end_of_En 0834                   __end_of_RW 0832                   __end_of_Rs 0836  
                _ModoApagado 0AC8                      ??_delay 0072                      ??_setup 004B  
                  ?_Contador 0077                   __pbssBANK0 0020                      ?_PBRead 0070  
      __size_of_digitalWrite 0123                   _analogRead 0E56                  MotorDC@Mode 0074  
                 __pmaintext 0A8D                    PBRead@pin 0072               _Initialization 0AA2  
                    _CCP1CON 0017                      _CCP2CON 001D        __size_of_lcdSetCursor 002C  
  __size_of_WriteInstruction 0082            __end_of_WriteData 0E56                    ?_lcdBegin 0044  
                  ?_lcdClear 0070                 _digitalWrite 041C            Contador@Threshold 081A  
                  ?_lcdPrint 0044                      _SSPCON2 0091                    ?_lcdWrite 0070  
                    _SSPSTAT 0094                   ??_Contador 0079                   __stringtab 0800  
            __size_of_PBRead 002E                 _lcdSetCursor 0AEF              ??_ModoEncendido 0051  
            lcdSetCursor@row 0044                      _MotorAC 0826       __end_of_Initialization 0AC8  
                    _MotorDC 0C6B                      ___lwdiv 0BD2                      ___lwmod 0B49  
           _ControlEncendido 081C                      __ptext1 0EDC                      __ptext2 0F67  
                    __ptext3 02FB                      __ptext4 0012                      __ptext5 0A6D  
                    __ptext6 0B1B                      __ptext7 01E9                      __ptext8 00E9  
                    __ptext9 0B49                      _dpowers 0810                      _pinMode 02FB  
                 delay@milis 0070    __end_ofContador@Threshold 081C                   ??_lcdBegin 007C  
                 ??_lcdClear 007C        __size_of_ByteByNibble 02AE                   ??_lcdPrint 0046  
                 ??_lcdWrite 007C                      _sprintf 00E9     WriteInstruction@LSNibble 0079  
                    clrloop0 0A75                   lcdBegin@EN 0044                   lcdBegin@RS 004A  
                 lcdBegin@d4 0046                   lcdBegin@d5 0047                   lcdBegin@d6 0048  
                 lcdBegin@d7 0049     WriteInstruction@MSNibble 007B         end_of_initialization 07FC  
    ByteByNibble@NibbleValue 0076                  ?_analogRead 0070              ?_Initialization 0070  
   __end_of_SensorProximidad 0822                    _PORTAbits 0005                    _PORTBbits 0006  
                  _PORTCbits 0007                    _PORTDbits 0008                    _PORTEbits 0009  
               _ByteByNibble 053F                    _TRISAbits 0085                    _TRISBbits 0086  
                  _TRISCbits 0087                    _TRISDbits 0088               __end_of_PBRead 0B49  
             __end_of_Alarma 0820             _WriteInstruction 0D51          __size_of_analogRead 0086  
        start_initialization 07ED                 ?_ModoApagado 0070                     ??_PBRead 0070  
              WriteData@data 007A                    _SecondROW 0020            __size_of_Contador 0080  
                __pdataBANK0 0063                    ___latbits 0002                __pcstackBANK0 0044  
                 pinMode@pin 0073                    _WriteData 0DD3            __size_of_lcdBegin 0099  
          __size_of_lcdClear 0007            __size_of_lcdPrint 0048            __size_of_lcdWrite 0011  
                sprintf@flag 004B     __end_of_ControlEncendido 081E                  sprintf@prec 004C  
                  __pnvBANK0 0055             ___lwdiv@dividend 0072                     ?_MotorDC 0074  
                   ?___lwdiv 0070                     ?___lwmod 0078                    __pstrings 0800  
       lcdSetCursor@location 0045                     ?_pinMode 0070                   ?_WriteData 0070  
           ___lwdiv@quotient 0075               __size_of_delay 004E                     ?_sprintf 0044  
             __size_of_setup 008B             ??_Initialization 0070                 ??_analogRead 0072  
                  clear_ram0 0A74        __end_of_ModoEncendido 02FB                    lcdPrint@i 0049  
                 _ADCON0bits 001F                  __stringbase 080F           __end_of_analogRead 0EDC  
       __size_of_ModoApagado 0027                     _Contador 0CD1                     _FirstROW 0034  
   __end_of_WriteInstruction 0DD3                     _MotorDCN 0822                     _MotorDCP 0824  
           __size_of_MotorDC 0066             __size_of___lwdiv 004B             __size_of___lwmod 0041  
         __end_of__stringtab 0810                   sprintf@val 004D                     _lcdBegin 0F67  
           __size_of_pinMode 0121                     _lcdClear 0A6D              ___lwdiv@divisor 0070  
                ??_WriteData 0077              ___lwdiv@counter 0077                     __ptext10 0BD2  
                   __ptext11 0C6B                     __ptext20 0C1D                     __ptext12 0CD1  
                   __ptext21 053F                     __ptext13 0E56                     __ptext22 041C  
                   __ptext14 0AC8                     __ptext23 0AA2                     __ptext15 0AEF  
                   __ptext24 0A68                     __ptext16 0D51                     __ptext25 0007  
                   __ptext17 0B8A                     __ptext18 0A7C                     __ptext19 0DD3  
                   _lcdPrint 0B8A                     _lcdWrite 0A7C             __size_of_sprintf 0100  
        ModoEncendido@contar 0032                __size_of_main 0015                __size_of_loop 00D7  
             lcdPrint@string 0044                  lcdBegin@R_W 0045                ?_digitalWrite 0070  
                  sprintf@ap 004A                    sprintf@sp 004F            digitalWrite@value 0070  
           ___lwmod@dividend 007A                ?_lcdSetCursor 007C                    stringcode 080A  
             Contador@cuenta 0030            _CCP1Configuration 0007           ?_CCP1Configuration 0070  
                   sprintf@c 0050                     sprintf@f 0044              ___lwmod@divisor 0078  
            ___lwmod@counter 007D               ??_digitalWrite 0071                     stringdir 080A  
                   stringtab 0800          ??_CCP1Configuration 0070              digitalWrite@pin 0073  
               Contador@mode 0077               ??_lcdSetCursor 007D  WriteInstruction@instruction 007A  
  __end_of_CCP1Configuration 0012  
