

Microchip Technology PIC LITE Macro Assembler V2.00 build -1524193055 
                                                                                               Mon Nov 11 18:15:11 2019

Microchip Technology Omniscient Code Generator v2.00 (Free mode) build 20180527130849
     1  0000                     
      + 0000                     
     2                           ; Version 2.00
     3                           ; Generated 27/05/2018 GMT
     4                           
     5                           ; 
     6                           ; Copyright © 2018, Microchip Technology Inc. and its subsidiaries ("Microchip")
     7                           ; All rights reserved.
     8                           ; 
     9                           ; This software is developed by Microchip Technology Inc. and its subsidiaries ("Microch
                                 ip").
    10                           ; 
    11                           ; Redistribution and use in source and binary forms, with or without modification, are
    12                           ; permitted provided that the following conditions are met:
    13                           ; 
    14                           ;     1. Redistributions of source code must retain the above copyright notice, this lis
                                 t of
    15                           ;        conditions and the following disclaimer.
    16                           ; 
    17                           ;     2. Redistributions in binary form must reproduce the above copyright notice, this 
                                 list
    18                           ;        of conditions and the following disclaimer in the documentation and/or other
    19                           ;        materials provided with the distribution.
    20                           ; 
    21                           ;     3. Microchip's name may not be used to endorse or promote products derived from th
                                 is
    22                           ;        software without specific prior written permission.
    23                           ; 
    24                           ; THIS SOFTWARE IS PROVIDED BY MICROCHIP "AS IS" AND ANY EXPRESS OR IMPLIED WARRANTIES,

    25                           ; INCLUDING, BUT NOT LIMITED TO, THE IMPLIED WARRANTIES OF MERCHANTABILITY AND FITNESS F
                                 OR
    26                           ; PURPOSE ARE DISCLAIMED.  IN NO EVENT SHALL MICROCHIP BE LIABLE FOR ANY DIRECT, INDIREC
                                 T,
    27                           ; INCIDENTAL, SPECIAL, EXEMPLARY, OR CONSEQUENTIAL DAMAGES (INCLUDING BUT NOT LIMITED TO
                                 
    28                           ; PROCUREMENT OF SUBSTITUTE GOODS OR SERVICES; LOSS OF USE, DATA OR PROFITS; OR BUSINESS
                                 
    29                           ; INTERRUPTION) HOWSOEVER CAUSED AND ON ANY THEORY OF LIABILITY, WHETHER IN CONTRACT, ST
                                 RICT
    30                           ; LIABILITY, OR TORT (INCLUDING NEGLIGENCE OR OTHERWISE) ARISING IN ANY WAY OUT OF THE U
                                 SE OF
    31                           ; THIS SOFTWARE, EVEN IF ADVISED OF THE POSSIBILITY OF SUCH DAMAGE.
    32                           ; 
    33                           
    34                           
    35                           ; 
    36                           ; Code-generator required, PIC16F877A Definitions
    37                           ; 
    38  0004                     fsr0 equ 04h
    39  0004                     indf equ 00h
    40  0000                     indf0 equ 00h
    41  0000                     pc equ 02h
    42  0002                     pcl equ 02h
    43  0002                     pclath equ 0Ah
    44  000A                     status equ 03h
    45  0003                     
     2                           opt pagewidth 120
     3  0000                     byte0	macro	val
     4                           	(getbyte(val,0))
     5                           endm
     6  0000                     byte1	macro	val
     7                           	(getbyte(val,1))
     8                           endm
     9  0000                     byte2	macro	val
    10                           	(getbyte(val,2))
    11                           endm
    12  0000                     byte3	macro	val
    13                           	(getbyte(val,3))
    14                           endm
    15  0000                     byte4	macro	val
    16                           	(getbyte(val,4))
    17                           endm
    18  0000                     byte5	macro	val
    19                           	(getbyte(val,5))
    20                           endm
    21  0000                     byte6	macro	val
    22                           	(getbyte(val,6))
    23                           endm
    24  0000                     byte7	macro	val
    25                           	(getbyte(val,7))
    26                           endm
    27  0000                     getword	macro	val,pos
    28                           	(((val) >> (8 * pos)) and 0xffff)
    29                           endm
    30  0000                     word0	macro	val
    31                           	(getword(val,0))
    32                           endm
    33  0000                     word1	macro	val
    34                           	(getword(val,2))
    35                           endm
    36  0000                     word2	macro	val
    37                           	(getword(val,4))
    38                           endm
    39  0000                     word3	macro	val
    40                           	(getword(val,6))
    41                           endm
    42  0000                     gettword	macro	val,pos
    43                           	(((val) >> (8 * pos)) and 0xffffff)
    44                           endm
    45  0000                     tword0	macro	val
    46                           	(gettword(val,0))
    47                           endm
    48  0000                     tword1	macro	val
    49                           	(gettword(val,3))
    50                           endm
    51  0000                     tword2	macro	val
    52                           	(gettword(val,6))
    53                           endm
    54  0000                     getdword	macro	val,pos
    55                           	(((val) >> (8 * pos)) and 0xffffffff)
    56                           endm
    57  0000                     dword0	macro	val
    58                           	(getdword(val,0))
    59                           endm
    60  0000                     dword1	macro	val
    61                           	(getdword(val,4))
    62                           endm
    63  0000                     clrc	macro
    64                           	bcf	3,0
    65                           	endm
    66  0000                     clrz	macro
    67                           	bcf	3,2
    68                           	endm
    69  0000                     setc	macro
    70                           	bsf	3,0
    71                           	endm
    72  0000                     setz	macro
    73                           	bsf	3,2
    74                           	endm
    75  0000                     skipc	macro
    76                           	btfss	3,0
    77                           	endm
    78  0000                     skipz	macro
    79                           	btfss	3,2
    80                           	endm
    81  0000                     skipnc	macro
    82                           	btfsc	3,0
    83                           	endm
    84  0000                     skipnz	macro
    85                           	btfsc	3,2
    86                           	endm
    87  0000                     # 54 "C:\Program Files (x86)\Microchip\xc8\v2.00\pic\include\pic16f877a.h"
    88                           INDF equ 00h ;# 
    89  0000                     # 61 "C:\Program Files (x86)\Microchip\xc8\v2.00\pic\include\pic16f877a.h"
    90                           TMR0 equ 01h ;# 
    91  0001                     # 68 "C:\Program Files (x86)\Microchip\xc8\v2.00\pic\include\pic16f877a.h"
    92                           PCL equ 02h ;# 
    93  0002                     # 75 "C:\Program Files (x86)\Microchip\xc8\v2.00\pic\include\pic16f877a.h"
    94                           STATUS equ 03h ;# 
    95  0003                     # 161 "C:\Program Files (x86)\Microchip\xc8\v2.00\pic\include\pic16f877a.h"
    96                           FSR equ 04h ;# 
    97  0004                     # 168 "C:\Program Files (x86)\Microchip\xc8\v2.00\pic\include\pic16f877a.h"
    98                           PORTA equ 05h ;# 
    99  0005                     # 218 "C:\Program Files (x86)\Microchip\xc8\v2.00\pic\include\pic16f877a.h"
   100                           PORTB equ 06h ;# 
   101  0006                     # 280 "C:\Program Files (x86)\Microchip\xc8\v2.00\pic\include\pic16f877a.h"
   102                           PORTC equ 07h ;# 
   103  0007                     # 342 "C:\Program Files (x86)\Microchip\xc8\v2.00\pic\include\pic16f877a.h"
   104                           PORTD equ 08h ;# 
   105  0008                     # 404 "C:\Program Files (x86)\Microchip\xc8\v2.00\pic\include\pic16f877a.h"
   106                           PORTE equ 09h ;# 
   107  0009                     # 436 "C:\Program Files (x86)\Microchip\xc8\v2.00\pic\include\pic16f877a.h"
   108                           PCLATH equ 0Ah ;# 
   109  000A                     # 456 "C:\Program Files (x86)\Microchip\xc8\v2.00\pic\include\pic16f877a.h"
   110                           INTCON equ 0Bh ;# 
   111  000B                     # 534 "C:\Program Files (x86)\Microchip\xc8\v2.00\pic\include\pic16f877a.h"
   112                           PIR1 equ 0Ch ;# 
   113  000C                     # 596 "C:\Program Files (x86)\Microchip\xc8\v2.00\pic\include\pic16f877a.h"
   114                           PIR2 equ 0Dh ;# 
   115  000D                     # 636 "C:\Program Files (x86)\Microchip\xc8\v2.00\pic\include\pic16f877a.h"
   116                           TMR1 equ 0Eh ;# 
   117  000E                     # 643 "C:\Program Files (x86)\Microchip\xc8\v2.00\pic\include\pic16f877a.h"
   118                           TMR1L equ 0Eh ;# 
   119  000E                     # 650 "C:\Program Files (x86)\Microchip\xc8\v2.00\pic\include\pic16f877a.h"
   120                           TMR1H equ 0Fh ;# 
   121  000F                     # 657 "C:\Program Files (x86)\Microchip\xc8\v2.00\pic\include\pic16f877a.h"
   122                           T1CON equ 010h ;# 
   123  0010                     # 732 "C:\Program Files (x86)\Microchip\xc8\v2.00\pic\include\pic16f877a.h"
   124                           TMR2 equ 011h ;# 
   125  0011                     # 739 "C:\Program Files (x86)\Microchip\xc8\v2.00\pic\include\pic16f877a.h"
   126                           T2CON equ 012h ;# 
   127  0012                     # 810 "C:\Program Files (x86)\Microchip\xc8\v2.00\pic\include\pic16f877a.h"
   128                           SSPBUF equ 013h ;# 
   129  0013                     # 817 "C:\Program Files (x86)\Microchip\xc8\v2.00\pic\include\pic16f877a.h"
   130                           SSPCON equ 014h ;# 
   131  0014                     # 887 "C:\Program Files (x86)\Microchip\xc8\v2.00\pic\include\pic16f877a.h"
   132                           CCPR1 equ 015h ;# 
   133  0015                     # 894 "C:\Program Files (x86)\Microchip\xc8\v2.00\pic\include\pic16f877a.h"
   134                           CCPR1L equ 015h ;# 
   135  0015                     # 901 "C:\Program Files (x86)\Microchip\xc8\v2.00\pic\include\pic16f877a.h"
   136                           CCPR1H equ 016h ;# 
   137  0016                     # 908 "C:\Program Files (x86)\Microchip\xc8\v2.00\pic\include\pic16f877a.h"
   138                           CCP1CON equ 017h ;# 
   139  0017                     # 966 "C:\Program Files (x86)\Microchip\xc8\v2.00\pic\include\pic16f877a.h"
   140                           RCSTA equ 018h ;# 
   141  0018                     # 1061 "C:\Program Files (x86)\Microchip\xc8\v2.00\pic\include\pic16f877a.h"
   142                           TXREG equ 019h ;# 
   143  0019                     # 1068 "C:\Program Files (x86)\Microchip\xc8\v2.00\pic\include\pic16f877a.h"
   144                           RCREG equ 01Ah ;# 
   145  001A                     # 1075 "C:\Program Files (x86)\Microchip\xc8\v2.00\pic\include\pic16f877a.h"
   146                           CCPR2 equ 01Bh ;# 
   147  001B                     # 1082 "C:\Program Files (x86)\Microchip\xc8\v2.00\pic\include\pic16f877a.h"
   148                           CCPR2L equ 01Bh ;# 
   149  001B                     # 1089 "C:\Program Files (x86)\Microchip\xc8\v2.00\pic\include\pic16f877a.h"
   150                           CCPR2H equ 01Ch ;# 
   151  001C                     # 1096 "C:\Program Files (x86)\Microchip\xc8\v2.00\pic\include\pic16f877a.h"
   152                           CCP2CON equ 01Dh ;# 
   153  001D                     # 1154 "C:\Program Files (x86)\Microchip\xc8\v2.00\pic\include\pic16f877a.h"
   154                           ADRESH equ 01Eh ;# 
   155  001E                     # 1161 "C:\Program Files (x86)\Microchip\xc8\v2.00\pic\include\pic16f877a.h"
   156                           ADCON0 equ 01Fh ;# 
   157  001F                     # 1257 "C:\Program Files (x86)\Microchip\xc8\v2.00\pic\include\pic16f877a.h"
   158                           OPTION_REG equ 081h ;# 
   159  0081                     # 1327 "C:\Program Files (x86)\Microchip\xc8\v2.00\pic\include\pic16f877a.h"
   160                           TRISA equ 085h ;# 
   161  0085                     # 1377 "C:\Program Files (x86)\Microchip\xc8\v2.00\pic\include\pic16f877a.h"
   162                           TRISB equ 086h ;# 
   163  0086                     # 1439 "C:\Program Files (x86)\Microchip\xc8\v2.00\pic\include\pic16f877a.h"
   164                           TRISC equ 087h ;# 
   165  0087                     # 1501 "C:\Program Files (x86)\Microchip\xc8\v2.00\pic\include\pic16f877a.h"
   166                           TRISD equ 088h ;# 
   167  0088                     # 1563 "C:\Program Files (x86)\Microchip\xc8\v2.00\pic\include\pic16f877a.h"
   168                           TRISE equ 089h ;# 
   169  0089                     # 1620 "C:\Program Files (x86)\Microchip\xc8\v2.00\pic\include\pic16f877a.h"
   170                           PIE1 equ 08Ch ;# 
   171  008C                     # 1682 "C:\Program Files (x86)\Microchip\xc8\v2.00\pic\include\pic16f877a.h"
   172                           PIE2 equ 08Dh ;# 
   173  008D                     # 1722 "C:\Program Files (x86)\Microchip\xc8\v2.00\pic\include\pic16f877a.h"
   174                           PCON equ 08Eh ;# 
   175  008E                     # 1756 "C:\Program Files (x86)\Microchip\xc8\v2.00\pic\include\pic16f877a.h"
   176                           SSPCON2 equ 091h ;# 
   177  0091                     # 1818 "C:\Program Files (x86)\Microchip\xc8\v2.00\pic\include\pic16f877a.h"
   178                           PR2 equ 092h ;# 
   179  0092                     # 1825 "C:\Program Files (x86)\Microchip\xc8\v2.00\pic\include\pic16f877a.h"
   180                           SSPADD equ 093h ;# 
   181  0093                     # 1832 "C:\Program Files (x86)\Microchip\xc8\v2.00\pic\include\pic16f877a.h"
   182                           SSPSTAT equ 094h ;# 
   183  0094                     # 2001 "C:\Program Files (x86)\Microchip\xc8\v2.00\pic\include\pic16f877a.h"
   184                           TXSTA equ 098h ;# 
   185  0098                     # 2082 "C:\Program Files (x86)\Microchip\xc8\v2.00\pic\include\pic16f877a.h"
   186                           SPBRG equ 099h ;# 
   187  0099                     # 2089 "C:\Program Files (x86)\Microchip\xc8\v2.00\pic\include\pic16f877a.h"
   188                           CMCON equ 09Ch ;# 
   189  009C                     # 2159 "C:\Program Files (x86)\Microchip\xc8\v2.00\pic\include\pic16f877a.h"
   190                           CVRCON equ 09Dh ;# 
   191  009D                     # 2224 "C:\Program Files (x86)\Microchip\xc8\v2.00\pic\include\pic16f877a.h"
   192                           ADRESL equ 09Eh ;# 
   193  009E                     # 2231 "C:\Program Files (x86)\Microchip\xc8\v2.00\pic\include\pic16f877a.h"
   194                           ADCON1 equ 09Fh ;# 
   195  009F                     # 2290 "C:\Program Files (x86)\Microchip\xc8\v2.00\pic\include\pic16f877a.h"
   196                           EEDATA equ 010Ch ;# 
   197  010C                     # 2297 "C:\Program Files (x86)\Microchip\xc8\v2.00\pic\include\pic16f877a.h"
   198                           EEADR equ 010Dh ;# 
   199  010D                     # 2304 "C:\Program Files (x86)\Microchip\xc8\v2.00\pic\include\pic16f877a.h"
   200                           EEDATH equ 010Eh ;# 
   201  010E                     # 2311 "C:\Program Files (x86)\Microchip\xc8\v2.00\pic\include\pic16f877a.h"
   202                           EEADRH equ 010Fh ;# 
   203  010F                     # 2318 "C:\Program Files (x86)\Microchip\xc8\v2.00\pic\include\pic16f877a.h"
   204                           EECON1 equ 018Ch ;# 
   205  018C                     # 2363 "C:\Program Files (x86)\Microchip\xc8\v2.00\pic\include\pic16f877a.h"
   206                           EECON2 equ 018Dh ;# 
   207  018D                     # 54 "C:\Program Files (x86)\Microchip\xc8\v2.00\pic\include\pic16f877a.h"
   208                           INDF equ 00h ;# 
   209  0000                     # 61 "C:\Program Files (x86)\Microchip\xc8\v2.00\pic\include\pic16f877a.h"
   210                           TMR0 equ 01h ;# 
   211  0001                     # 68 "C:\Program Files (x86)\Microchip\xc8\v2.00\pic\include\pic16f877a.h"
   212                           PCL equ 02h ;# 
   213  0002                     # 75 "C:\Program Files (x86)\Microchip\xc8\v2.00\pic\include\pic16f877a.h"
   214                           STATUS equ 03h ;# 
   215  0003                     # 161 "C:\Program Files (x86)\Microchip\xc8\v2.00\pic\include\pic16f877a.h"
   216                           FSR equ 04h ;# 
   217  0004                     # 168 "C:\Program Files (x86)\Microchip\xc8\v2.00\pic\include\pic16f877a.h"
   218                           PORTA equ 05h ;# 
   219  0005                     # 218 "C:\Program Files (x86)\Microchip\xc8\v2.00\pic\include\pic16f877a.h"
   220                           PORTB equ 06h ;# 
   221  0006                     # 280 "C:\Program Files (x86)\Microchip\xc8\v2.00\pic\include\pic16f877a.h"
   222                           PORTC equ 07h ;# 
   223  0007                     # 342 "C:\Program Files (x86)\Microchip\xc8\v2.00\pic\include\pic16f877a.h"
   224                           PORTD equ 08h ;# 
   225  0008                     # 404 "C:\Program Files (x86)\Microchip\xc8\v2.00\pic\include\pic16f877a.h"
   226                           PORTE equ 09h ;# 
   227  0009                     # 436 "C:\Program Files (x86)\Microchip\xc8\v2.00\pic\include\pic16f877a.h"
   228                           PCLATH equ 0Ah ;# 
   229  000A                     # 456 "C:\Program Files (x86)\Microchip\xc8\v2.00\pic\include\pic16f877a.h"
   230                           INTCON equ 0Bh ;# 
   231  000B                     # 534 "C:\Program Files (x86)\Microchip\xc8\v2.00\pic\include\pic16f877a.h"
   232                           PIR1 equ 0Ch ;# 
   233  000C                     # 596 "C:\Program Files (x86)\Microchip\xc8\v2.00\pic\include\pic16f877a.h"
   234                           PIR2 equ 0Dh ;# 
   235  000D                     # 636 "C:\Program Files (x86)\Microchip\xc8\v2.00\pic\include\pic16f877a.h"
   236                           TMR1 equ 0Eh ;# 
   237  000E                     # 643 "C:\Program Files (x86)\Microchip\xc8\v2.00\pic\include\pic16f877a.h"
   238                           TMR1L equ 0Eh ;# 
   239  000E                     # 650 "C:\Program Files (x86)\Microchip\xc8\v2.00\pic\include\pic16f877a.h"
   240                           TMR1H equ 0Fh ;# 
   241  000F                     # 657 "C:\Program Files (x86)\Microchip\xc8\v2.00\pic\include\pic16f877a.h"
   242                           T1CON equ 010h ;# 
   243  0010                     # 732 "C:\Program Files (x86)\Microchip\xc8\v2.00\pic\include\pic16f877a.h"
   244                           TMR2 equ 011h ;# 
   245  0011                     # 739 "C:\Program Files (x86)\Microchip\xc8\v2.00\pic\include\pic16f877a.h"
   246                           T2CON equ 012h ;# 
   247  0012                     # 810 "C:\Program Files (x86)\Microchip\xc8\v2.00\pic\include\pic16f877a.h"
   248                           SSPBUF equ 013h ;# 
   249  0013                     # 817 "C:\Program Files (x86)\Microchip\xc8\v2.00\pic\include\pic16f877a.h"
   250                           SSPCON equ 014h ;# 
   251  0014                     # 887 "C:\Program Files (x86)\Microchip\xc8\v2.00\pic\include\pic16f877a.h"
   252                           CCPR1 equ 015h ;# 
   253  0015                     # 894 "C:\Program Files (x86)\Microchip\xc8\v2.00\pic\include\pic16f877a.h"
   254                           CCPR1L equ 015h ;# 
   255  0015                     # 901 "C:\Program Files (x86)\Microchip\xc8\v2.00\pic\include\pic16f877a.h"
   256                           CCPR1H equ 016h ;# 
   257  0016                     # 908 "C:\Program Files (x86)\Microchip\xc8\v2.00\pic\include\pic16f877a.h"
   258                           CCP1CON equ 017h ;# 
   259  0017                     # 966 "C:\Program Files (x86)\Microchip\xc8\v2.00\pic\include\pic16f877a.h"
   260                           RCSTA equ 018h ;# 
   261  0018                     # 1061 "C:\Program Files (x86)\Microchip\xc8\v2.00\pic\include\pic16f877a.h"
   262                           TXREG equ 019h ;# 
   263  0019                     # 1068 "C:\Program Files (x86)\Microchip\xc8\v2.00\pic\include\pic16f877a.h"
   264                           RCREG equ 01Ah ;# 
   265  001A                     # 1075 "C:\Program Files (x86)\Microchip\xc8\v2.00\pic\include\pic16f877a.h"
   266                           CCPR2 equ 01Bh ;# 
   267  001B                     # 1082 "C:\Program Files (x86)\Microchip\xc8\v2.00\pic\include\pic16f877a.h"
   268                           CCPR2L equ 01Bh ;# 
   269  001B                     # 1089 "C:\Program Files (x86)\Microchip\xc8\v2.00\pic\include\pic16f877a.h"
   270                           CCPR2H equ 01Ch ;# 
   271  001C                     # 1096 "C:\Program Files (x86)\Microchip\xc8\v2.00\pic\include\pic16f877a.h"
   272                           CCP2CON equ 01Dh ;# 
   273  001D                     # 1154 "C:\Program Files (x86)\Microchip\xc8\v2.00\pic\include\pic16f877a.h"
   274                           ADRESH equ 01Eh ;# 
   275  001E                     # 1161 "C:\Program Files (x86)\Microchip\xc8\v2.00\pic\include\pic16f877a.h"
   276                           ADCON0 equ 01Fh ;# 
   277  001F                     # 1257 "C:\Program Files (x86)\Microchip\xc8\v2.00\pic\include\pic16f877a.h"
   278                           OPTION_REG equ 081h ;# 
   279  0081                     # 1327 "C:\Program Files (x86)\Microchip\xc8\v2.00\pic\include\pic16f877a.h"
   280                           TRISA equ 085h ;# 
   281  0085                     # 1377 "C:\Program Files (x86)\Microchip\xc8\v2.00\pic\include\pic16f877a.h"
   282                           TRISB equ 086h ;# 
   283  0086                     # 1439 "C:\Program Files (x86)\Microchip\xc8\v2.00\pic\include\pic16f877a.h"
   284                           TRISC equ 087h ;# 
   285  0087                     # 1501 "C:\Program Files (x86)\Microchip\xc8\v2.00\pic\include\pic16f877a.h"
   286                           TRISD equ 088h ;# 
   287  0088                     # 1563 "C:\Program Files (x86)\Microchip\xc8\v2.00\pic\include\pic16f877a.h"
   288                           TRISE equ 089h ;# 
   289  0089                     # 1620 "C:\Program Files (x86)\Microchip\xc8\v2.00\pic\include\pic16f877a.h"
   290                           PIE1 equ 08Ch ;# 
   291  008C                     # 1682 "C:\Program Files (x86)\Microchip\xc8\v2.00\pic\include\pic16f877a.h"
   292                           PIE2 equ 08Dh ;# 
   293  008D                     # 1722 "C:\Program Files (x86)\Microchip\xc8\v2.00\pic\include\pic16f877a.h"
   294                           PCON equ 08Eh ;# 
   295  008E                     # 1756 "C:\Program Files (x86)\Microchip\xc8\v2.00\pic\include\pic16f877a.h"
   296                           SSPCON2 equ 091h ;# 
   297  0091                     # 1818 "C:\Program Files (x86)\Microchip\xc8\v2.00\pic\include\pic16f877a.h"
   298                           PR2 equ 092h ;# 
   299  0092                     # 1825 "C:\Program Files (x86)\Microchip\xc8\v2.00\pic\include\pic16f877a.h"
   300                           SSPADD equ 093h ;# 
   301  0093                     # 1832 "C:\Program Files (x86)\Microchip\xc8\v2.00\pic\include\pic16f877a.h"
   302                           SSPSTAT equ 094h ;# 
   303  0094                     # 2001 "C:\Program Files (x86)\Microchip\xc8\v2.00\pic\include\pic16f877a.h"
   304                           TXSTA equ 098h ;# 
   305  0098                     # 2082 "C:\Program Files (x86)\Microchip\xc8\v2.00\pic\include\pic16f877a.h"
   306                           SPBRG equ 099h ;# 
   307  0099                     # 2089 "C:\Program Files (x86)\Microchip\xc8\v2.00\pic\include\pic16f877a.h"
   308                           CMCON equ 09Ch ;# 
   309  009C                     # 2159 "C:\Program Files (x86)\Microchip\xc8\v2.00\pic\include\pic16f877a.h"
   310                           CVRCON equ 09Dh ;# 
   311  009D                     # 2224 "C:\Program Files (x86)\Microchip\xc8\v2.00\pic\include\pic16f877a.h"
   312                           ADRESL equ 09Eh ;# 
   313  009E                     # 2231 "C:\Program Files (x86)\Microchip\xc8\v2.00\pic\include\pic16f877a.h"
   314                           ADCON1 equ 09Fh ;# 
   315  009F                     # 2290 "C:\Program Files (x86)\Microchip\xc8\v2.00\pic\include\pic16f877a.h"
   316                           EEDATA equ 010Ch ;# 
   317  010C                     # 2297 "C:\Program Files (x86)\Microchip\xc8\v2.00\pic\include\pic16f877a.h"
   318                           EEADR equ 010Dh ;# 
   319  010D                     # 2304 "C:\Program Files (x86)\Microchip\xc8\v2.00\pic\include\pic16f877a.h"
   320                           EEDATH equ 010Eh ;# 
   321  010E                     # 2311 "C:\Program Files (x86)\Microchip\xc8\v2.00\pic\include\pic16f877a.h"
   322                           EEADRH equ 010Fh ;# 
   323  010F                     # 2318 "C:\Program Files (x86)\Microchip\xc8\v2.00\pic\include\pic16f877a.h"
   324                           EECON1 equ 018Ch ;# 
   325  018C                     # 2363 "C:\Program Files (x86)\Microchip\xc8\v2.00\pic\include\pic16f877a.h"
   326                           EECON2 equ 018Dh ;# 
   327  018D                     # 54 "C:\Program Files (x86)\Microchip\xc8\v2.00\pic\include\pic16f877a.h"
   328                           INDF equ 00h ;# 
   329  0000                     # 61 "C:\Program Files (x86)\Microchip\xc8\v2.00\pic\include\pic16f877a.h"
   330                           TMR0 equ 01h ;# 
   331  0001                     # 68 "C:\Program Files (x86)\Microchip\xc8\v2.00\pic\include\pic16f877a.h"
   332                           PCL equ 02h ;# 
   333  0002                     # 75 "C:\Program Files (x86)\Microchip\xc8\v2.00\pic\include\pic16f877a.h"
   334                           STATUS equ 03h ;# 
   335  0003                     # 161 "C:\Program Files (x86)\Microchip\xc8\v2.00\pic\include\pic16f877a.h"
   336                           FSR equ 04h ;# 
   337  0004                     # 168 "C:\Program Files (x86)\Microchip\xc8\v2.00\pic\include\pic16f877a.h"
   338                           PORTA equ 05h ;# 
   339  0005                     # 218 "C:\Program Files (x86)\Microchip\xc8\v2.00\pic\include\pic16f877a.h"
   340                           PORTB equ 06h ;# 
   341  0006                     # 280 "C:\Program Files (x86)\Microchip\xc8\v2.00\pic\include\pic16f877a.h"
   342                           PORTC equ 07h ;# 
   343  0007                     # 342 "C:\Program Files (x86)\Microchip\xc8\v2.00\pic\include\pic16f877a.h"
   344                           PORTD equ 08h ;# 
   345  0008                     # 404 "C:\Program Files (x86)\Microchip\xc8\v2.00\pic\include\pic16f877a.h"
   346                           PORTE equ 09h ;# 
   347  0009                     # 436 "C:\Program Files (x86)\Microchip\xc8\v2.00\pic\include\pic16f877a.h"
   348                           PCLATH equ 0Ah ;# 
   349  000A                     # 456 "C:\Program Files (x86)\Microchip\xc8\v2.00\pic\include\pic16f877a.h"
   350                           INTCON equ 0Bh ;# 
   351  000B                     # 534 "C:\Program Files (x86)\Microchip\xc8\v2.00\pic\include\pic16f877a.h"
   352                           PIR1 equ 0Ch ;# 
   353  000C                     # 596 "C:\Program Files (x86)\Microchip\xc8\v2.00\pic\include\pic16f877a.h"
   354                           PIR2 equ 0Dh ;# 
   355  000D                     # 636 "C:\Program Files (x86)\Microchip\xc8\v2.00\pic\include\pic16f877a.h"
   356                           TMR1 equ 0Eh ;# 
   357  000E                     # 643 "C:\Program Files (x86)\Microchip\xc8\v2.00\pic\include\pic16f877a.h"
   358                           TMR1L equ 0Eh ;# 
   359  000E                     # 650 "C:\Program Files (x86)\Microchip\xc8\v2.00\pic\include\pic16f877a.h"
   360                           TMR1H equ 0Fh ;# 
   361  000F                     # 657 "C:\Program Files (x86)\Microchip\xc8\v2.00\pic\include\pic16f877a.h"
   362                           T1CON equ 010h ;# 
   363  0010                     # 732 "C:\Program Files (x86)\Microchip\xc8\v2.00\pic\include\pic16f877a.h"
   364                           TMR2 equ 011h ;# 
   365  0011                     # 739 "C:\Program Files (x86)\Microchip\xc8\v2.00\pic\include\pic16f877a.h"
   366                           T2CON equ 012h ;# 
   367  0012                     # 810 "C:\Program Files (x86)\Microchip\xc8\v2.00\pic\include\pic16f877a.h"
   368                           SSPBUF equ 013h ;# 
   369  0013                     # 817 "C:\Program Files (x86)\Microchip\xc8\v2.00\pic\include\pic16f877a.h"
   370                           SSPCON equ 014h ;# 
   371  0014                     # 887 "C:\Program Files (x86)\Microchip\xc8\v2.00\pic\include\pic16f877a.h"
   372                           CCPR1 equ 015h ;# 
   373  0015                     # 894 "C:\Program Files (x86)\Microchip\xc8\v2.00\pic\include\pic16f877a.h"
   374                           CCPR1L equ 015h ;# 
   375  0015                     # 901 "C:\Program Files (x86)\Microchip\xc8\v2.00\pic\include\pic16f877a.h"
   376                           CCPR1H equ 016h ;# 
   377  0016                     # 908 "C:\Program Files (x86)\Microchip\xc8\v2.00\pic\include\pic16f877a.h"
   378                           CCP1CON equ 017h ;# 
   379  0017                     # 966 "C:\Program Files (x86)\Microchip\xc8\v2.00\pic\include\pic16f877a.h"
   380                           RCSTA equ 018h ;# 
   381  0018                     # 1061 "C:\Program Files (x86)\Microchip\xc8\v2.00\pic\include\pic16f877a.h"
   382                           TXREG equ 019h ;# 
   383  0019                     # 1068 "C:\Program Files (x86)\Microchip\xc8\v2.00\pic\include\pic16f877a.h"
   384                           RCREG equ 01Ah ;# 
   385  001A                     # 1075 "C:\Program Files (x86)\Microchip\xc8\v2.00\pic\include\pic16f877a.h"
   386                           CCPR2 equ 01Bh ;# 
   387  001B                     # 1082 "C:\Program Files (x86)\Microchip\xc8\v2.00\pic\include\pic16f877a.h"
   388                           CCPR2L equ 01Bh ;# 
   389  001B                     # 1089 "C:\Program Files (x86)\Microchip\xc8\v2.00\pic\include\pic16f877a.h"
   390                           CCPR2H equ 01Ch ;# 
   391  001C                     # 1096 "C:\Program Files (x86)\Microchip\xc8\v2.00\pic\include\pic16f877a.h"
   392                           CCP2CON equ 01Dh ;# 
   393  001D                     # 1154 "C:\Program Files (x86)\Microchip\xc8\v2.00\pic\include\pic16f877a.h"
   394                           ADRESH equ 01Eh ;# 
   395  001E                     # 1161 "C:\Program Files (x86)\Microchip\xc8\v2.00\pic\include\pic16f877a.h"
   396                           ADCON0 equ 01Fh ;# 
   397  001F                     # 1257 "C:\Program Files (x86)\Microchip\xc8\v2.00\pic\include\pic16f877a.h"
   398                           OPTION_REG equ 081h ;# 
   399  0081                     # 1327 "C:\Program Files (x86)\Microchip\xc8\v2.00\pic\include\pic16f877a.h"
   400                           TRISA equ 085h ;# 
   401  0085                     # 1377 "C:\Program Files (x86)\Microchip\xc8\v2.00\pic\include\pic16f877a.h"
   402                           TRISB equ 086h ;# 
   403  0086                     # 1439 "C:\Program Files (x86)\Microchip\xc8\v2.00\pic\include\pic16f877a.h"
   404                           TRISC equ 087h ;# 
   405  0087                     # 1501 "C:\Program Files (x86)\Microchip\xc8\v2.00\pic\include\pic16f877a.h"
   406                           TRISD equ 088h ;# 
   407  0088                     # 1563 "C:\Program Files (x86)\Microchip\xc8\v2.00\pic\include\pic16f877a.h"
   408                           TRISE equ 089h ;# 
   409  0089                     # 1620 "C:\Program Files (x86)\Microchip\xc8\v2.00\pic\include\pic16f877a.h"
   410                           PIE1 equ 08Ch ;# 
   411  008C                     # 1682 "C:\Program Files (x86)\Microchip\xc8\v2.00\pic\include\pic16f877a.h"
   412                           PIE2 equ 08Dh ;# 
   413  008D                     # 1722 "C:\Program Files (x86)\Microchip\xc8\v2.00\pic\include\pic16f877a.h"
   414                           PCON equ 08Eh ;# 
   415  008E                     # 1756 "C:\Program Files (x86)\Microchip\xc8\v2.00\pic\include\pic16f877a.h"
   416                           SSPCON2 equ 091h ;# 
   417  0091                     # 1818 "C:\Program Files (x86)\Microchip\xc8\v2.00\pic\include\pic16f877a.h"
   418                           PR2 equ 092h ;# 
   419  0092                     # 1825 "C:\Program Files (x86)\Microchip\xc8\v2.00\pic\include\pic16f877a.h"
   420                           SSPADD equ 093h ;# 
   421  0093                     # 1832 "C:\Program Files (x86)\Microchip\xc8\v2.00\pic\include\pic16f877a.h"
   422                           SSPSTAT equ 094h ;# 
   423  0094                     # 2001 "C:\Program Files (x86)\Microchip\xc8\v2.00\pic\include\pic16f877a.h"
   424                           TXSTA equ 098h ;# 
   425  0098                     # 2082 "C:\Program Files (x86)\Microchip\xc8\v2.00\pic\include\pic16f877a.h"
   426                           SPBRG equ 099h ;# 
   427  0099                     # 2089 "C:\Program Files (x86)\Microchip\xc8\v2.00\pic\include\pic16f877a.h"
   428                           CMCON equ 09Ch ;# 
   429  009C                     # 2159 "C:\Program Files (x86)\Microchip\xc8\v2.00\pic\include\pic16f877a.h"
   430                           CVRCON equ 09Dh ;# 
   431  009D                     # 2224 "C:\Program Files (x86)\Microchip\xc8\v2.00\pic\include\pic16f877a.h"
   432                           ADRESL equ 09Eh ;# 
   433  009E                     # 2231 "C:\Program Files (x86)\Microchip\xc8\v2.00\pic\include\pic16f877a.h"
   434                           ADCON1 equ 09Fh ;# 
   435  009F                     # 2290 "C:\Program Files (x86)\Microchip\xc8\v2.00\pic\include\pic16f877a.h"
   436                           EEDATA equ 010Ch ;# 
   437  010C                     # 2297 "C:\Program Files (x86)\Microchip\xc8\v2.00\pic\include\pic16f877a.h"
   438                           EEADR equ 010Dh ;# 
   439  010D                     # 2304 "C:\Program Files (x86)\Microchip\xc8\v2.00\pic\include\pic16f877a.h"
   440                           EEDATH equ 010Eh ;# 
   441  010E                     # 2311 "C:\Program Files (x86)\Microchip\xc8\v2.00\pic\include\pic16f877a.h"
   442                           EEADRH equ 010Fh ;# 
   443  010F                     # 2318 "C:\Program Files (x86)\Microchip\xc8\v2.00\pic\include\pic16f877a.h"
   444                           EECON1 equ 018Ch ;# 
   445  018C                     # 2363 "C:\Program Files (x86)\Microchip\xc8\v2.00\pic\include\pic16f877a.h"
   446                           EECON2 equ 018Dh ;# 
   447  018D                     	FNCALL	_main,_Initialization
   448                           	FNCALL	_main,_loop
   449                           	FNCALL	_main,_setup
   450                           	FNCALL	_setup,_SerialBegin
   451                           	FNCALL	_setup,_SerialRead
   452                           	FNCALL	_setup,_SerialWrite
   453                           	FNCALL	_setup,_digitalWrite
   454                           	FNCALL	_setup,_pinMode
   455                           	FNCALL	_SerialBegin,___aldiv
   456                           	FNCALL	_loop,_ProcessCommand
   457                           	FNCALL	_loop,_SerialAvailable
   458                           	FNCALL	_loop,_SerialRead
   459                           	FNCALL	_loop,_SerialWrite
   460                           	FNCALL	_ProcessCommand,_analogRead
   461                           	FNCALL	_ProcessCommand,_analogWrite
   462                           	FNCALL	_ProcessCommand,_digitalRead
   463                           	FNCALL	_ProcessCommand,_digitalWrite
   464                           	FNCALL	_ProcessCommand,_pinMode
   465                           	FNCALL	_Initialization,_CCP1Configuration
   466                           	FNCALL	_Initialization,_CCP2Configuration
   467                           	FNROOT	_main
   468                           	global	_BufferLenght
   469                           psect	idataBANK0,class=CODE,space=0,delta=2,noexec
   470                           global __pidataBANK0
   471                           __pidataBANK0:
   472  0004                     	file	"LIFPIC.c"
   473                           	line	23
   474                           
   475                           ;initializer for _DatoEstadoEnviar
   476                           	retlw	030h
   477  0004  3430               	line	22
   478                           
   479                           ;initializer for _DatoDeEntrada
   480                           	retlw	030h
   481  0005  3430               	line	19
   482                           
   483                           ;initializer for _BufferLenght
   484                           	retlw	04h
   485  0006  3404               	global	_Informacion
   486                           	global	_Dato
   487                           	global	_DataEnviar
   488                           	global	_dada
   489                           	global	_Valor
   490                           	global	_Estado
   491                           	global	_SSPBUF
   492                           _SSPBUF	set	0x13
   493  0013                     	global	_SSPCON
   494                           _SSPCON	set	0x14
   495  0014                     	global	_RCREG
   496                           _RCREG	set	0x1A
   497  001A                     	global	_TXREG
   498                           _TXREG	set	0x19
   499  0019                     	global	_PORTEbits
   500                           _PORTEbits	set	0x9
   501  0009                     	global	_CCPR1L
   502                           _CCPR1L	set	0x15
   503  0015                     	global	_CCPR2L
   504                           _CCPR2L	set	0x1B
   505  001B                     	global	_ADRESH
   506                           _ADRESH	set	0x1E
   507  001E                     	global	_ADCON0bits
   508                           _ADCON0bits	set	0x1F
   509  001F                     	global	_PORTAbits
   510                           _PORTAbits	set	0x5
   511  0005                     	global	_PORTBbits
   512                           _PORTBbits	set	0x6
   513  0006                     	global	_PORTDbits
   514                           _PORTDbits	set	0x8
   515  0008                     	global	_PORTCbits
   516                           _PORTCbits	set	0x7
   517  0007                     	global	_CCP2CON
   518                           _CCP2CON	set	0x1D
   519  001D                     	global	_CCP1CON
   520                           _CCP1CON	set	0x17
   521  0017                     	global	_T2CON
   522                           _T2CON	set	0x12
   523  0012                     	global	_PORTE
   524                           _PORTE	set	0x9
   525  0009                     	global	_ADCON0
   526                           _ADCON0	set	0x1F
   527  001F                     	global	_SSPIF
   528                           _SSPIF	set	0x63
   529  0063                     	global	_PEIE
   530                           _PEIE	set	0x5E
   531  005E                     	global	_GIE
   532                           _GIE	set	0x5F
   533  005F                     	global	_RCIF
   534                           _RCIF	set	0x65
   535  0065                     	global	_TXIF
   536                           _TXIF	set	0x64
   537  0064                     	global	_OERR
   538                           _OERR	set	0xC1
   539  00C1                     	global	_FERR
   540                           _FERR	set	0xC2
   541  00C2                     	global	_CREN
   542                           _CREN	set	0xC4
   543  00C4                     	global	_SPEN
   544                           _SPEN	set	0xC7
   545  00C7                     	global	_CCP1Y
   546                           _CCP1Y	set	0xBC
   547  00BC                     	global	_CCP1X
   548                           _CCP1X	set	0xBD
   549  00BD                     	global	_CCP2Y
   550                           _CCP2Y	set	0xEC
   551  00EC                     	global	_CCP2X
   552                           _CCP2X	set	0xED
   553  00ED                     	global	_SSPSTAT
   554                           _SSPSTAT	set	0x94
   555  0094                     	global	_SSPADD
   556                           _SSPADD	set	0x93
   557  0093                     	global	_SSPCON2
   558                           _SSPCON2	set	0x91
   559  0091                     	global	_SPBRG
   560                           _SPBRG	set	0x99
   561  0099                     	global	_ADRESL
   562                           _ADRESL	set	0x9E
   563  009E                     	global	_ADCON1bits
   564                           _ADCON1bits	set	0x9F
   565  009F                     	global	_TRISAbits
   566                           _TRISAbits	set	0x85
   567  0085                     	global	_TRISBbits
   568                           _TRISBbits	set	0x86
   569  0086                     	global	_TRISDbits
   570                           _TRISDbits	set	0x88
   571  0088                     	global	_TRISCbits
   572                           _TRISCbits	set	0x87
   573  0087                     	global	_PR2
   574                           _PR2	set	0x92
   575  0092                     	global	_TRISE
   576                           _TRISE	set	0x89
   577  0089                     	global	_ADCON1
   578                           _ADCON1	set	0x9F
   579  009F                     	global	_ACKEN
   580                           _ACKEN	set	0x48C
   581  048C                     	global	_ACKDT
   582                           _ACKDT	set	0x48D
   583  048D                     	global	_RCEN
   584                           _RCEN	set	0x48B
   585  048B                     	global	_PEN
   586                           _PEN	set	0x48A
   587  048A                     	global	_RSEN
   588                           _RSEN	set	0x489
   589  0489                     	global	_SEN
   590                           _SEN	set	0x488
   591  0488                     	global	_SSPIE
   592                           _SSPIE	set	0x463
   593  0463                     	global	_TRISC4
   594                           _TRISC4	set	0x43C
   595  043C                     	global	_TRISC3
   596                           _TRISC3	set	0x43B
   597  043B                     	global	_TRMT
   598                           _TRMT	set	0x4C1
   599  04C1                     	global	_TXEN
   600                           _TXEN	set	0x4C5
   601  04C5                     	global	_TRISC6
   602                           _TRISC6	set	0x43E
   603  043E                     	global	_TRISC7
   604                           _TRISC7	set	0x43F
   605  043F                     	global	_SYNC
   606                           _SYNC	set	0x4C4
   607  04C4                     	global	_BRGH
   608                           _BRGH	set	0x4C2
   609  04C2                     ; #config settings
   610                           global __CFG_FOSC$HS
   611                           __CFG_FOSC$HS equ 0x0
   612  0000                     global __CFG_WDTE$OFF
   613                           __CFG_WDTE$OFF equ 0x0
   614  0000                     global __CFG_PWRTE$OFF
   615                           __CFG_PWRTE$OFF equ 0x0
   616  0000                     global __CFG_BOREN$OFF
   617                           __CFG_BOREN$OFF equ 0x0
   618  0000                     global __CFG_LVP$ON
   619                           __CFG_LVP$ON equ 0x0
   620  0000                     global __CFG_CPD$OFF
   621                           __CFG_CPD$OFF equ 0x0
   622  0000                     global __CFG_WRT$OFF
   623                           __CFG_WRT$OFF equ 0x0
   624  0000                     global __CFG_CP$OFF
   625                           __CFG_CP$OFF equ 0x0
   626  0000                     	file	"C:\Users\c4810\AppData\Local\Temp\s4bg."
   627                           	line	#
   628                           psect cinit,class=CODE,delta=2
   629                           global start_initialization
   630                           start_initialization:
   631  07DE                     
   632                           global __initialization
   633                           __initialization:
   634  07DE                     psect	bssBANK0,class=BANK0,space=1,noexec
   635                           global __pbssBANK0
   636                           __pbssBANK0:
   637  0020                     _Informacion:
   638  0020                            ds      4
   639  0020                     
   640                           _Dato:
   641  0024                            ds      2
   642  0024                     
   643                           _DataEnviar:
   644  0026                            ds      2
   645  0026                     
   646                           _dada:
   647  0028                            ds      1
   648  0028                     
   649                           _Valor:
   650  0029                            ds      1
   651  0029                     
   652                           _Val:
   653  002A                            ds      1
   654  002A                     
   655                           _Estado:
   656  002B                            ds      1
   657  002B                     
   658                           psect	dataBANK0,class=BANK0,space=1,noexec
   659                           global __pdataBANK0
   660                           __pdataBANK0:
   661  0038                     	file	"LIFPIC.c"
   662                           	line	23
   663                           _DatoEstadoEnviar:
   664  0038                            ds      1
   665  0038                     
   666                           psect	dataBANK0
   667                           	file	"LIFPIC.c"
   668                           	line	22
   669                           _DatoDeEntrada:
   670  0039                            ds      1
   671  0039                     
   672                           psect	dataBANK0
   673                           	file	"LIFPIC.c"
   674                           	line	19
   675                           _BufferLenght:
   676  003A                            ds      1
   677  003A                     
   678                           	file	"C:\Users\c4810\AppData\Local\Temp\s4bg."
   679                           	line	#
   680                           ; Initialize objects allocated to BANK0
   681                           	global __pidataBANK0
   682                           psect cinit,class=CODE,delta=2,merge=1
   683                           	fcall	__pidataBANK0+0		;fetch initializer
   684  07DE  120A  118A  2004  120A  118A  	movwf	__pdataBANK0+0&07fh		
   685  07E3  00B8               	fcall	__pidataBANK0+1		;fetch initializer
   686  07E4  120A  118A  2005  120A  118A  	movwf	__pdataBANK0+1&07fh		
   687  07E9  00B9               	fcall	__pidataBANK0+2		;fetch initializer
   688  07EA  120A  118A  2006  120A  118A  	movwf	__pdataBANK0+2&07fh		
   689  07EF  00BA               	line	#
   690                           ; Clear objects allocated to BANK0
   691                           psect cinit,class=CODE,delta=2,merge=1
   692                           	clrf	((__pbssBANK0)+0)&07Fh
   693  07F0  01A0               	clrf	((__pbssBANK0)+1)&07Fh
   694  07F1  01A1               	clrf	((__pbssBANK0)+2)&07Fh
   695  07F2  01A2               	clrf	((__pbssBANK0)+3)&07Fh
   696  07F3  01A3               	clrf	((__pbssBANK0)+4)&07Fh
   697  07F4  01A4               	clrf	((__pbssBANK0)+5)&07Fh
   698  07F5  01A5               	clrf	((__pbssBANK0)+6)&07Fh
   699  07F6  01A6               	clrf	((__pbssBANK0)+7)&07Fh
   700  07F7  01A7               	clrf	((__pbssBANK0)+8)&07Fh
   701  07F8  01A8               	clrf	((__pbssBANK0)+9)&07Fh
   702  07F9  01A9               	clrf	((__pbssBANK0)+10)&07Fh
   703  07FA  01AA               	clrf	((__pbssBANK0)+11)&07Fh
   704  07FB  01AB               psect cinit,class=CODE,delta=2,merge=1
   705                           global end_of_initialization,__end_of__initialization
   706                           
   707                           ;End of C runtime variable initialization code
   708                           
   709                           end_of_initialization:
   710  07FC                     __end_of__initialization:
   711  07FC                     clrf status
   712  07FC  0183               ljmp _main	;jump to C main() function
   713  07FD  120A  158A  2F81   psect	cstackCOMMON,class=COMMON,space=1,noexec
   714                           global __pcstackCOMMON
   715                           __pcstackCOMMON:
   716  0070                     ?_Initialization:	; 1 bytes @ 0x0
   717  0070                     ??_Initialization:	; 1 bytes @ 0x0
   718  0070                     ?_setup:	; 1 bytes @ 0x0
   719  0070                     ?_loop:	; 1 bytes @ 0x0
   720  0070                     ?_CCP1Configuration:	; 1 bytes @ 0x0
   721  0070                     ??_CCP1Configuration:	; 1 bytes @ 0x0
   722  0070                     ?_CCP2Configuration:	; 1 bytes @ 0x0
   723  0070                     ??_CCP2Configuration:	; 1 bytes @ 0x0
   724  0070                     ?_pinMode:	; 1 bytes @ 0x0
   725  0070                     ?_digitalWrite:	; 1 bytes @ 0x0
   726  0070                     ?_digitalRead:	; 1 bytes @ 0x0
   727  0070                     ??_digitalRead:	; 1 bytes @ 0x0
   728  0070                     ?_analogWrite:	; 1 bytes @ 0x0
   729  0070                     ?_SerialWrite:	; 1 bytes @ 0x0
   730  0070                     ??_SerialWrite:	; 1 bytes @ 0x0
   731  0070                     ?_SerialAvailable:	; 1 bytes @ 0x0
   732  0070                     ??_SerialAvailable:	; 1 bytes @ 0x0
   733  0070                     ?_SerialRead:	; 1 bytes @ 0x0
   734  0070                     ??_SerialRead:	; 1 bytes @ 0x0
   735  0070                     ?_main:	; 2 bytes @ 0x0
   736  0070                     	global	?_analogRead
   737                           ?_analogRead:	; 2 bytes @ 0x0
   738  0070                     	global	?___aldiv
   739                           ?___aldiv:	; 4 bytes @ 0x0
   740  0070                     	global	pinMode@mode
   741                           pinMode@mode:	; 1 bytes @ 0x0
   742  0070                     	global	digitalWrite@value
   743                           digitalWrite@value:	; 1 bytes @ 0x0
   744  0070                     	global	SerialWrite@dataWrite
   745                           SerialWrite@dataWrite:	; 1 bytes @ 0x0
   746  0070                     	global	_SerialAvailable$461
   747                           _SerialAvailable$461:	; 1 bytes @ 0x0
   748  0070                     	global	analogWrite@value
   749                           analogWrite@value:	; 2 bytes @ 0x0
   750  0070                     	global	___aldiv@divisor
   751                           ___aldiv@divisor:	; 4 bytes @ 0x0
   752  0070                     	ds	1
   753  0070                     ??_pinMode:	; 1 bytes @ 0x1
   754  0071                     ??_digitalWrite:	; 1 bytes @ 0x1
   755  0071                     	ds	1
   756  0071                     ??_analogRead:	; 1 bytes @ 0x2
   757  0072                     ??_analogWrite:	; 1 bytes @ 0x2
   758  0072                     	global	digitalRead@pin
   759                           digitalRead@pin:	; 1 bytes @ 0x2
   760  0072                     	ds	1
   761  0072                     	global	pinMode@pin
   762                           pinMode@pin:	; 1 bytes @ 0x3
   763  0073                     	global	digitalWrite@pin
   764                           digitalWrite@pin:	; 1 bytes @ 0x3
   765  0073                     	ds	1
   766  0073                     	global	analogRead@channel
   767                           analogRead@channel:	; 1 bytes @ 0x4
   768  0074                     	global	analogWrite@MSB
   769                           analogWrite@MSB:	; 1 bytes @ 0x4
   770  0074                     	global	___aldiv@dividend
   771                           ___aldiv@dividend:	; 4 bytes @ 0x4
   772  0074                     	ds	1
   773  0074                     	global	analogWrite@pin
   774                           analogWrite@pin:	; 1 bytes @ 0x5
   775  0075                     	ds	1
   776  0075                     	global	_analogWrite$428
   777                           _analogWrite$428:	; 1 bytes @ 0x6
   778  0076                     	ds	1
   779  0076                     	global	_analogWrite$429
   780                           _analogWrite$429:	; 1 bytes @ 0x7
   781  0077                     	ds	1
   782  0077                     ??___aldiv:	; 1 bytes @ 0x8
   783  0078                     	global	_analogWrite$430
   784                           _analogWrite$430:	; 1 bytes @ 0x8
   785  0078                     	ds	1
   786  0078                     ??_SerialBegin:	; 1 bytes @ 0x9
   787  0079                     	global	_analogWrite$431
   788                           _analogWrite$431:	; 1 bytes @ 0x9
   789  0079                     	ds	1
   790  0079                     	global	?_ProcessCommand
   791                           ?_ProcessCommand:	; 2 bytes @ 0xA
   792  007A                     	global	ProcessCommand@port
   793                           ProcessCommand@port:	; 1 bytes @ 0xA
   794  007A                     	ds	1
   795  007A                     	global	ProcessCommand@MSBData
   796                           ProcessCommand@MSBData:	; 1 bytes @ 0xB
   797  007B                     	ds	1
   798  007B                     	global	ProcessCommand@LSBData
   799                           ProcessCommand@LSBData:	; 1 bytes @ 0xC
   800  007C                     	ds	1
   801  007C                     ??_setup:	; 1 bytes @ 0xD
   802  007D                     	ds	1
   803  007D                     ??_main:	; 1 bytes @ 0xE
   804  007E                     psect	cstackBANK0,class=BANK0,space=1,noexec
   805                           global __pcstackBANK0
   806                           __pcstackBANK0:
   807  002C                     ??_ProcessCommand:	; 1 bytes @ 0x0
   808  002C                     	global	___aldiv@counter
   809                           ___aldiv@counter:	; 1 bytes @ 0x0
   810  002C                     	ds	1
   811  002C                     	global	___aldiv@sign
   812                           ___aldiv@sign:	; 1 bytes @ 0x1
   813  002D                     	ds	1
   814  002D                     	global	ProcessCommand@instruction
   815                           ProcessCommand@instruction:	; 1 bytes @ 0x2
   816  002E                     	global	___aldiv@quotient
   817                           ___aldiv@quotient:	; 4 bytes @ 0x2
   818  002E                     	ds	1
   819  002E                     	global	ProcessCommand@data
   820                           ProcessCommand@data:	; 2 bytes @ 0x3
   821  002F                     	ds	2
   822  002F                     ??_loop:	; 1 bytes @ 0x5
   823  0031                     	ds	1
   824  0031                     ?_SerialBegin:	; 1 bytes @ 0x6
   825  0032                     	global	SerialBegin@BaudRate
   826                           SerialBegin@BaudRate:	; 4 bytes @ 0x6
   827  0032                     	ds	2
   828  0032                     	global	loop@i
   829                           loop@i:	; 2 bytes @ 0x8
   830  0034                     	ds	2
   831  0034                     	global	SerialBegin@x
   832                           SerialBegin@x:	; 2 bytes @ 0xA
   833  0036                     	global	loop@j
   834                           loop@j:	; 2 bytes @ 0xA
   835  0036                     	ds	2
   836  0036                     ;!
   837                           ;!Data Sizes:
   838                           ;!    Strings     0
   839                           ;!    Constant    0
   840                           ;!    Data        3
   841                           ;!    BSS         12
   842                           ;!    Persistent  0
   843                           ;!    Stack       0
   844                           ;!
   845                           ;!Auto Spaces:
   846                           ;!    Space          Size  Autos    Used
   847                           ;!    COMMON           14     14      14
   848                           ;!    BANK0            80     12      27
   849                           ;!    BANK1            80      0       0
   850                           ;!    BANK3            96      0       0
   851                           ;!    BANK2            96      0       0
   852                           
   853                           ;!
   854                           ;!Pointer List with Targets:
   855                           ;!
   856                           ;!    None.
   857                           
   858                           
   859                           ;!
   860                           ;!Critical Paths under _main in COMMON
   861                           ;!
   862                           ;!    _main->_setup
   863                           ;!    _setup->_SerialBegin
   864                           ;!    _SerialBegin->___aldiv
   865                           ;!    _loop->_ProcessCommand
   866                           ;!    _ProcessCommand->_analogWrite
   867                           ;!
   868                           ;!Critical Paths under _main in BANK0
   869                           ;!
   870                           ;!    _main->_loop
   871                           ;!    _setup->_SerialBegin
   872                           ;!    _SerialBegin->___aldiv
   873                           ;!    _loop->_ProcessCommand
   874                           ;!
   875                           ;!Critical Paths under _main in BANK1
   876                           ;!
   877                           ;!    None.
   878                           ;!
   879                           ;!Critical Paths under _main in BANK3
   880                           ;!
   881                           ;!    None.
   882                           ;!
   883                           ;!Critical Paths under _main in BANK2
   884                           ;!
   885                           ;!    None.
   886                           
   887 ;;
   888 ;;Main: autosize = 0, tempsize = 0, incstack = 0, save=0
   889 ;;
   890                           
   891                           ;!
   892                           ;!Call Graph Tables:
   893                           ;!
   894                           ;! ---------------------------------------------------------------------------------
   895                           ;! (Depth) Function   	        Calls       Base Space   Used Autos Params    Refs
   896                           ;! ---------------------------------------------------------------------------------
   897                           ;! (0) _main                                                 0     0      0    5140
   898                           ;!                     _Initialization
   899                           ;!                               _loop
   900                           ;!                              _setup
   901                           ;! ---------------------------------------------------------------------------------
   902                           ;! (1) _setup                                                1     1      0    2426
   903                           ;!                                             13 COMMON     1     1      0
   904                           ;!                        _SerialBegin
   905                           ;!                         _SerialRead
   906                           ;!                        _SerialWrite
   907                           ;!                       _digitalWrite
   908                           ;!                            _pinMode
   909                           ;! ---------------------------------------------------------------------------------
   910                           ;! (2) _SerialBegin                                         10     6      4     792
   911                           ;!                                              9 COMMON     4     4      0
   912                           ;!                                              6 BANK0      6     2      4
   913                           ;!                            ___aldiv
   914                           ;! ---------------------------------------------------------------------------------
   915                           ;! (3) ___aldiv                                             15     7      8     604
   916                           ;!                                              0 COMMON     9     1      8
   917                           ;!                                              0 BANK0      6     6      0
   918                           ;! ---------------------------------------------------------------------------------
   919                           ;! (1) _loop                                                 7     7      0    2714
   920                           ;!                                              5 BANK0      7     7      0
   921                           ;!                     _ProcessCommand
   922                           ;!                    _SerialAvailable
   923                           ;!                         _SerialRead
   924                           ;!                        _SerialWrite
   925                           ;! ---------------------------------------------------------------------------------
   926                           ;! (2) _SerialWrite                                          1     1      0      22
   927                           ;!                                              0 COMMON     1     1      0
   928                           ;! ---------------------------------------------------------------------------------
   929                           ;! (2) _SerialRead                                           0     0      0       0
   930                           ;! ---------------------------------------------------------------------------------
   931                           ;! (2) _SerialAvailable                                      1     1      0       8
   932                           ;!                                              0 COMMON     1     1      0
   933                           ;! ---------------------------------------------------------------------------------
   934                           ;! (2) _ProcessCommand                                       8     5      3    2570
   935                           ;!                                             10 COMMON     3     0      3
   936                           ;!                                              0 BANK0      5     5      0
   937                           ;!                         _analogRead
   938                           ;!                        _analogWrite
   939                           ;!                        _digitalRead
   940                           ;!                       _digitalWrite
   941                           ;!                            _pinMode
   942                           ;! ---------------------------------------------------------------------------------
   943                           ;! (2) _pinMode                                              4     3      1     768
   944                           ;!                                              0 COMMON     4     3      1
   945                           ;! ---------------------------------------------------------------------------------
   946                           ;! (2) _digitalWrite                                         4     3      1     844
   947                           ;!                                              0 COMMON     4     3      1
   948                           ;! ---------------------------------------------------------------------------------
   949                           ;! (3) _digitalRead                                          3     3      0      22
   950                           ;!                                              0 COMMON     3     3      0
   951                           ;! ---------------------------------------------------------------------------------
   952                           ;! (3) _analogWrite                                         10     8      2     327
   953                           ;!                                              0 COMMON    10     8      2
   954                           ;! ---------------------------------------------------------------------------------
   955                           ;! (3) _analogRead                                           5     3      2      22
   956                           ;!                                              0 COMMON     5     3      2
   957                           ;! ---------------------------------------------------------------------------------
   958                           ;! (1) _Initialization                                       0     0      0       0
   959                           ;!                  _CCP1Configuration
   960                           ;!                  _CCP2Configuration
   961                           ;! ---------------------------------------------------------------------------------
   962                           ;! (2) _CCP2Configuration                                    0     0      0       0
   963                           ;! ---------------------------------------------------------------------------------
   964                           ;! (2) _CCP1Configuration                                    0     0      0       0
   965                           ;! ---------------------------------------------------------------------------------
   966                           ;! Estimated maximum stack depth 3
   967                           ;! ---------------------------------------------------------------------------------
   968                           ;!
   969                           ;! Call Graph Graphs:
   970                           ;!
   971                           ;! _main (ROOT)
   972                           ;!   _Initialization
   973                           ;!     _CCP1Configuration
   974                           ;!     _CCP2Configuration
   975                           ;!   _loop
   976                           ;!     _ProcessCommand
   977                           ;!       _analogRead
   978                           ;!       _analogWrite
   979                           ;!       _digitalRead
   980                           ;!       _digitalWrite
   981                           ;!       _pinMode
   982                           ;!     _SerialAvailable
   983                           ;!     _SerialRead
   984                           ;!     _SerialWrite
   985                           ;!   _setup
   986                           ;!     _SerialBegin
   987                           ;!       ___aldiv
   988                           ;!     _SerialRead
   989                           ;!     _SerialWrite
   990                           ;!     _digitalWrite
   991                           ;!     _pinMode
   992                           ;!
   993                           
   994                           ;! Address spaces:
   995                           
   996                           ;!Name               Size   Autos  Total    Cost      Usage
   997                           ;!BANK3               60      0       0       9        0.0%
   998                           ;!BITBANK3            60      0       0       8        0.0%
   999                           ;!SFR3                 0      0       0       4        0.0%
  1000                           ;!BITSFR3              0      0       0       4        0.0%
  1001                           ;!BANK2               60      0       0      11        0.0%
  1002                           ;!BITBANK2            60      0       0      10        0.0%
  1003                           ;!SFR2                 0      0       0       5        0.0%
  1004                           ;!BITSFR2              0      0       0       5        0.0%
  1005                           ;!BANK1               50      0       0       7        0.0%
  1006                           ;!BITBANK1            50      0       0       6        0.0%
  1007                           ;!SFR1                 0      0       0       2        0.0%
  1008                           ;!BITSFR1              0      0       0       2        0.0%
  1009                           ;!BANK0               50      C      1B       5       33.8%
  1010                           ;!BITBANK0            50      0       0       4        0.0%
  1011                           ;!SFR0                 0      0       0       1        0.0%
  1012                           ;!BITSFR0              0      0       0       1        0.0%
  1013                           ;!COMMON               E      E       E       1      100.0%
  1014                           ;!BITCOMMON            E      0       0       0        0.0%
  1015                           ;!CODE                 0      0       0       0        0.0%
  1016                           ;!DATA                 0      0      29      12        0.0%
  1017                           ;!ABS                  0      0      29       3        0.0%
  1018                           ;!NULL                 0      0       0       0        0.0%
  1019                           ;!STACK                0      0       0       2        0.0%
  1020                           ;!EEDATA             100      0       0       0        0.0%
  1021                           
  1022                           	global	_main
  1023                           
  1024 ;; *************** function _main *****************
  1025 ;; Defined at:
  1026 ;;		line 7 in file "source.c"
  1027 ;; Parameters:    Size  Location     Type
  1028 ;;		None
  1029 ;; Auto vars:     Size  Location     Type
  1030 ;;		None
  1031 ;; Return value:  Size  Location     Type
  1032 ;;                  2  132[None  ] int 
  1033 ;; Registers used:
  1034 ;;		wreg, fsr0l, fsr0h, status,2, status,0, btemp+1, pclath, cstack
  1035 ;; Tracked objects:
  1036 ;;		On entry : B00/0
  1037 ;;		On exit  : 0/0
  1038 ;;		Unchanged: 0/0
  1039 ;; Data sizes:     COMMON   BANK0   BANK1   BANK3   BANK2
  1040 ;;      Params:         0       0       0       0       0
  1041 ;;      Locals:         0       0       0       0       0
  1042 ;;      Temps:          0       0       0       0       0
  1043 ;;      Totals:         0       0       0       0       0
  1044 ;;Total ram usage:        0 bytes
  1045 ;; Hardware stack levels required when called:    3
  1046 ;; This function calls:
  1047 ;;		_Initialization
  1048 ;;		_loop
  1049 ;;		_setup
  1050 ;; This function is called by:
  1051 ;;		Startup code after reset
  1052 ;; This function uses a non-reentrant model
  1053 ;;
  1054                           psect	maintext,global,class=CODE,delta=2,split=1,group=0
  1055                           	file	"source.c"
  1056                           	line	7
  1057                           global __pmaintext
  1058                           __pmaintext:	;psect for function _main
  1059  0F81                     psect	maintext
  1060                           	file	"source.c"
  1061                           	line	7
  1062                           	global	__size_of_main
  1063                           	__size_of_main	equ	__end_of_main-_main
  1064  0015                     	
  1065                           _main:	
  1066  0F81                     ;incstack = 0
  1067                           	opt	stack 5
  1068                           ; Regs used in _main: [wreg-fsr0h+status,2+status,0+btemp+1+pclath+cstack]
  1069                           	line	9
  1070                           	
  1071                           l2741:	
  1072  0F81                     ;source.c: 9:     Initialization();
  1073                           	fcall	_Initialization
  1074  0F81  120A  118A  2013  120A  158A  	line	10
  1075                           	
  1076                           l2743:	
  1077  0F86                     ;source.c: 10:     setup();
  1078                           	fcall	_setup
  1079  0F86  120A  158A  27AD  120A  158A  	goto	l2745
  1080  0F8B  2F8C               	line	11
  1081                           ;source.c: 11:     while(1)
  1082                           	
  1083                           l133:	
  1084  0F8C                     	line	13
  1085                           	
  1086                           l2745:	
  1087  0F8C                     ;source.c: 12:     {;source.c: 13:         loop();
  1088                           	fcall	_loop
  1089  0F8C  120A  118A  2345  120A  158A  	goto	l2745
  1090  0F91  2F8C               	line	14
  1091                           ;source.c: 14:     }
  1092                           	
  1093                           l134:	
  1094  0F92                     	goto	l2745
  1095  0F92  2F8C               	
  1096                           l135:	
  1097  0F93                     	line	16
  1098                           ;source.c: 15:     return 0;;	Return value of _main is never used
  1099                           	
  1100                           l136:	
  1101  0F93                     	global	start
  1102                           	ljmp	start
  1103  0F93  120A  118A  2800   	opt stack 0
  1104                           GLOBAL	__end_of_main
  1105                           	__end_of_main:
  1106  0F96                     	signat	_main,90
  1107                           	global	_setup
  1108                           
  1109 ;; *************** function _setup *****************
  1110 ;; Defined at:
  1111 ;;		line 30 in file "LIFPIC.c"
  1112 ;; Parameters:    Size  Location     Type
  1113 ;;		None
  1114 ;; Auto vars:     Size  Location     Type
  1115 ;;		None
  1116 ;; Return value:  Size  Location     Type
  1117 ;;                  1    wreg      void 
  1118 ;; Registers used:
  1119 ;;		wreg, fsr0l, fsr0h, status,2, status,0, pclath, cstack
  1120 ;; Tracked objects:
  1121 ;;		On entry : 0/0
  1122 ;;		On exit  : 0/0
  1123 ;;		Unchanged: 0/0
  1124 ;; Data sizes:     COMMON   BANK0   BANK1   BANK3   BANK2
  1125 ;;      Params:         0       0       0       0       0
  1126 ;;      Locals:         0       0       0       0       0
  1127 ;;      Temps:          1       0       0       0       0
  1128 ;;      Totals:         1       0       0       0       0
  1129 ;;Total ram usage:        1 bytes
  1130 ;; Hardware stack levels used:    1
  1131 ;; Hardware stack levels required when called:    2
  1132 ;; This function calls:
  1133 ;;		_SerialBegin
  1134 ;;		_SerialRead
  1135 ;;		_SerialWrite
  1136 ;;		_digitalWrite
  1137 ;;		_pinMode
  1138 ;; This function is called by:
  1139 ;;		_main
  1140 ;; This function uses a non-reentrant model
  1141 ;;
  1142                           psect	text1,local,class=CODE,delta=2,merge=1,group=0
  1143                           	file	"LIFPIC.c"
  1144                           	line	30
  1145                           global __ptext1
  1146                           __ptext1:	;psect for function _setup
  1147  0FAD                     psect	text1
  1148                           	file	"LIFPIC.c"
  1149                           	line	30
  1150                           	global	__size_of_setup
  1151                           	__size_of_setup	equ	__end_of_setup-_setup
  1152  0053                     	
  1153                           _setup:	
  1154  0FAD                     ;incstack = 0
  1155                           	opt	stack 5
  1156                           ; Regs used in _setup: [wreg-fsr0h+status,2+status,0+pclath+cstack]
  1157                           	line	32
  1158                           	
  1159                           l2649:	
  1160  0FAD                     ;LIFPIC.c: 32:  SerialBegin(9600);
  1161                           	movlw	0
  1162  0FAD  3000               	bcf	status, 5	;RP0=0, select bank0
  1163  0FAE  1283               	bcf	status, 6	;RP1=0, select bank0
  1164  0FAF  1303               	movwf	(SerialBegin@BaudRate+3)
  1165  0FB0  00B5               	movlw	0
  1166  0FB1  3000               	movwf	(SerialBegin@BaudRate+2)
  1167  0FB2  00B4               	movlw	025h
  1168  0FB3  3025               	movwf	(SerialBegin@BaudRate+1)
  1169  0FB4  00B3               	movlw	080h
  1170  0FB5  3080               	movwf	(SerialBegin@BaudRate)
  1171  0FB6  00B2               
  1172                           	fcall	_SerialBegin
  1173  0FB7  120A  118A  2134  120A  158A  	line	33
  1174                           	
  1175                           l2651:	
  1176  0FBC                     ;LIFPIC.c: 33:     pinMode(13,0);
  1177                           	clrf	(pinMode@mode)
  1178  0FBC  01F0               	movlw	low(0Dh)
  1179  0FBD  300D               	fcall	_pinMode
  1180  0FBE  120A  118A  255E  120A  158A  	line	34
  1181                           ;LIFPIC.c: 34:  while(Valor != 1)
  1182                           	goto	l2665
  1183  0FC3  2FEA               	
  1184                           l444:	
  1185  0FC4                     	line	36
  1186                           	
  1187                           l2653:	
  1188  0FC4                     ;LIFPIC.c: 35:  {;LIFPIC.c: 36:         digitalWrite(13,1);
  1189                           	clrf	(digitalWrite@value)
  1190  0FC4  01F0               	incf	(digitalWrite@value),f
  1191  0FC5  0AF0               	movlw	low(0Dh)
  1192  0FC6  300D               	fcall	_digitalWrite
  1193  0FC7  120A  118A  2427  120A  158A  	line	37
  1194                           	
  1195                           l2655:	
  1196  0FCC                     ;LIFPIC.c: 37:         dada = SerialRead();
  1197                           	fcall	_SerialRead
  1198  0FCC  120A  158A  2776  120A  158A  	movwf	(??_setup+0)+0
  1199  0FD1  00FD               	movf	(??_setup+0)+0,w
  1200  0FD2  087D               	bcf	status, 5	;RP0=0, select bank0
  1201  0FD3  1283               	bcf	status, 6	;RP1=0, select bank0
  1202  0FD4  1303               	movwf	(_dada)
  1203  0FD5  00A8               	line	38
  1204                           	
  1205                           l2657:	
  1206  0FD6                     ;LIFPIC.c: 38:         SerialWrite('k');
  1207                           	movlw	low(06Bh)
  1208  0FD6  306B               	fcall	_SerialWrite
  1209  0FD7  120A  118A  2007  120A  158A  	line	39
  1210                           	
  1211                           l2659:	
  1212  0FDC                     ;LIFPIC.c: 39:         if(dada == 'k')
  1213                           		movlw	107
  1214  0FDC  306B               	bcf	status, 5	;RP0=0, select bank0
  1215  0FDD  1283               	bcf	status, 6	;RP1=0, select bank0
  1216  0FDE  1303               	xorwf	((_dada)),w
  1217  0FDF  0628               	btfss	status,2
  1218  0FE0  1D03               	goto	u961
  1219  0FE1  2FE3               	goto	u960
  1220  0FE2  2FE4               u961:
  1221  0FE3                     	goto	l2663
  1222  0FE3  2FE7               u960:
  1223  0FE4                     	line	41
  1224                           	
  1225                           l2661:	
  1226  0FE4                     ;LIFPIC.c: 40:         {;LIFPIC.c: 41:             Valor = 1;
  1227                           	clrf	(_Valor)
  1228  0FE4  01A9               	incf	(_Valor),f
  1229  0FE5  0AA9               	line	42
  1230                           ;LIFPIC.c: 42:         }
  1231                           	goto	l2665
  1232  0FE6  2FEA               	line	43
  1233                           ;LIFPIC.c: 43:         else
  1234                           	
  1235                           l445:	
  1236  0FE7                     	line	45
  1237                           	
  1238                           l2663:	
  1239  0FE7                     ;LIFPIC.c: 44:         {;LIFPIC.c: 45:             Valor = 0;
  1240                           	clrf	(_Valor)
  1241  0FE7  01A9               	goto	l2665
  1242  0FE8  2FEA               	line	46
  1243                           ;LIFPIC.c: 46:         }
  1244                           	
  1245                           l446:	
  1246  0FE9                     	goto	l2665
  1247  0FE9  2FEA               	line	47
  1248                           ;LIFPIC.c: 47:  }
  1249                           	
  1250                           l443:	
  1251  0FEA                     	line	34
  1252                           	
  1253                           l2665:	
  1254  0FEA                     ;LIFPIC.c: 34:  while(Valor != 1)
  1255                           	bcf	status, 5	;RP0=0, select bank0
  1256  0FEA  1283               	bcf	status, 6	;RP1=0, select bank0
  1257  0FEB  1303               		decf	((_Valor)),w
  1258  0FEC  0329               	btfss	status,2
  1259  0FED  1D03               	goto	u971
  1260  0FEE  2FF0               	goto	u970
  1261  0FEF  2FF1               u971:
  1262  0FF0                     	goto	l2653
  1263  0FF0  2FC4               u970:
  1264  0FF1                     	goto	l2667
  1265  0FF1  2FF2               	
  1266                           l447:	
  1267  0FF2                     	line	48
  1268                           	
  1269                           l2667:	
  1270  0FF2                     ;LIFPIC.c: 48:     Valor = 0;
  1271                           	clrf	(_Valor)
  1272  0FF2  01A9               	line	49
  1273                           ;LIFPIC.c: 49:     dada = 0;
  1274                           	clrf	(_dada)
  1275  0FF3  01A8               	line	50
  1276                           	
  1277                           l2669:	
  1278  0FF4                     ;LIFPIC.c: 50:     digitalWrite(13,0);
  1279                           	clrf	(digitalWrite@value)
  1280  0FF4  01F0               	movlw	low(0Dh)
  1281  0FF5  300D               	fcall	_digitalWrite
  1282  0FF6  120A  118A  2427  120A  158A  	line	51
  1283                           	
  1284                           l2671:	
  1285  0FFB                     ;LIFPIC.c: 51:  Estado = Recibir;
  1286                           	bcf	status, 5	;RP0=0, select bank0
  1287  0FFB  1283               	bcf	status, 6	;RP1=0, select bank0
  1288  0FFC  1303               	clrf	(_Estado)
  1289  0FFD  01AB               	incf	(_Estado),f
  1290  0FFE  0AAB               	line	52
  1291                           	
  1292                           l448:	
  1293  0FFF                     	return
  1294  0FFF  0008               	opt stack 0
  1295                           GLOBAL	__end_of_setup
  1296                           	__end_of_setup:
  1297  1000                     	signat	_setup,89
  1298                           	global	_SerialBegin
  1299                           
  1300 ;; *************** function _SerialBegin *****************
  1301 ;; Defined at:
  1302 ;;		line 436 in file "source.c"
  1303 ;; Parameters:    Size  Location     Type
  1304 ;;  BaudRate        4    6[BANK0 ] const long 
  1305 ;; Auto vars:     Size  Location     Type
  1306 ;;  x               2   10[BANK0 ] unsigned int 
  1307 ;; Return value:  Size  Location     Type
  1308 ;;                  1    wreg      unsigned char 
  1309 ;; Registers used:
  1310 ;;		wreg, status,2, status,0, pclath, cstack
  1311 ;; Tracked objects:
  1312 ;;		On entry : 0/0
  1313 ;;		On exit  : 0/0
  1314 ;;		Unchanged: 0/0
  1315 ;; Data sizes:     COMMON   BANK0   BANK1   BANK3   BANK2
  1316 ;;      Params:         0       4       0       0       0
  1317 ;;      Locals:         0       2       0       0       0
  1318 ;;      Temps:          4       0       0       0       0
  1319 ;;      Totals:         4       6       0       0       0
  1320 ;;Total ram usage:       10 bytes
  1321 ;; Hardware stack levels used:    1
  1322 ;; Hardware stack levels required when called:    1
  1323 ;; This function calls:
  1324 ;;		___aldiv
  1325 ;; This function is called by:
  1326 ;;		_setup
  1327 ;; This function uses a non-reentrant model
  1328 ;;
  1329                           psect	text2,local,class=CODE,delta=2,merge=1,group=0
  1330                           	file	"source.c"
  1331                           	line	436
  1332                           global __ptext2
  1333                           __ptext2:	;psect for function _SerialBegin
  1334  0134                     psect	text2
  1335                           	file	"source.c"
  1336                           	line	436
  1337                           	global	__size_of_SerialBegin
  1338                           	__size_of_SerialBegin	equ	__end_of_SerialBegin-_SerialBegin
  1339  00A5                     	
  1340                           _SerialBegin:	
  1341  0134                     ;incstack = 0
  1342                           	opt	stack 5
  1343                           ; Regs used in _SerialBegin: [wreg+status,2+status,0+pclath+cstack]
  1344                           	line	442
  1345                           	
  1346                           l2509:	
  1347  0134                     ;source.c: 436: char SerialBegin(const long int BaudRate);source.c: 437: {;source.c: 441
                                 :  unsigned int x;;source.c: 442:  BRGH = 0;
  1348                           	bsf	status, 5	;RP0=1, select bank1
  1349  0134  1683               	bcf	status, 6	;RP1=0, select bank1
  1350  0135  1303               	bcf	(1218/8)^080h,(1218)&7	;volatile
  1351  0136  1118               	line	443
  1352                           	
  1353                           l2511:	
  1354  0137                     ;source.c: 443:  x = (20000000 / (64 * BaudRate)) - 1;
  1355                           	bcf	status, 5	;RP0=0, select bank0
  1356  0137  1283               	bcf	status, 6	;RP1=0, select bank0
  1357  0138  1303               	movf	(SerialBegin@BaudRate),w
  1358  0139  0832               	movwf	(??_SerialBegin+0)+0
  1359  013A  00F9               	movf	(SerialBegin@BaudRate+1),w
  1360  013B  0833               	movwf	((??_SerialBegin+0)+0+1)
  1361  013C  00FA               	movf	(SerialBegin@BaudRate+2),w
  1362  013D  0834               	movwf	((??_SerialBegin+0)+0+2)
  1363  013E  00FB               	movf	(SerialBegin@BaudRate+3),w
  1364  013F  0835               	movwf	((??_SerialBegin+0)+0+3)
  1365  0140  00FC               	movlw	06h
  1366  0141  3006               u835:
  1367  0142                     	clrc
  1368  0142  1003               	rlf	(??_SerialBegin+0)+0,f
  1369  0143  0DF9               	rlf	(??_SerialBegin+0)+1,f
  1370  0144  0DFA               	rlf	(??_SerialBegin+0)+2,f
  1371  0145  0DFB               	rlf	(??_SerialBegin+0)+3,f
  1372  0146  0DFC               u830:
  1373  0147                     	addlw	-1
  1374  0147  3EFF               	skipz
  1375  0148  1D03               	goto	u835
  1376  0149  2942               	movf	3+(??_SerialBegin+0)+0,w
  1377  014A  087C               	movwf	(___aldiv@divisor+3)
  1378  014B  00F3               	movf	2+(??_SerialBegin+0)+0,w
  1379  014C  087B               	movwf	(___aldiv@divisor+2)
  1380  014D  00F2               	movf	1+(??_SerialBegin+0)+0,w
  1381  014E  087A               	movwf	(___aldiv@divisor+1)
  1382  014F  00F1               	movf	0+(??_SerialBegin+0)+0,w
  1383  0150  0879               	movwf	(___aldiv@divisor)
  1384  0151  00F0               
  1385                           	movlw	01h
  1386  0152  3001               	movwf	(___aldiv@dividend+3)
  1387  0153  00F7               	movlw	031h
  1388  0154  3031               	movwf	(___aldiv@dividend+2)
  1389  0155  00F6               	movlw	02Dh
  1390  0156  302D               	movwf	(___aldiv@dividend+1)
  1391  0157  00F5               	movlw	0
  1392  0158  3000               	movwf	(___aldiv@dividend)
  1393  0159  00F4               
  1394                           	fcall	___aldiv
  1395  015A  120A  118A  21D9  120A  118A  	movf	(0+(?___aldiv)),w
  1396  015F  0870               	addlw	low(0FFFFh)
  1397  0160  3EFF               	bcf	status, 5	;RP0=0, select bank0
  1398  0161  1283               	bcf	status, 6	;RP1=0, select bank0
  1399  0162  1303               	movwf	(SerialBegin@x)
  1400  0163  00B6               	movf	(1+(?___aldiv)),w
  1401  0164  0871               	skipnc
  1402  0165  1803               	addlw	1
  1403  0166  3E01               	addlw	high(0FFFFh)
  1404  0167  3EFF               	movwf	1+(SerialBegin@x)
  1405  0168  00B7               	line	444
  1406                           	
  1407                           l2513:	
  1408  0169                     ;source.c: 444:  if(x > 255)
  1409                           	movlw	01h
  1410  0169  3001               	subwf	(SerialBegin@x+1),w
  1411  016A  0237               	movlw	0
  1412  016B  3000               	skipnz
  1413  016C  1903               	subwf	(SerialBegin@x),w
  1414  016D  0236               	skipc
  1415  016E  1C03               	goto	u841
  1416  016F  2971               	goto	u840
  1417  0170  2972               u841:
  1418  0171                     	goto	l2541
  1419  0171  29C0               u840:
  1420  0172                     	line	446
  1421                           	
  1422                           l2515:	
  1423  0172                     ;source.c: 445:  {;source.c: 446:   BRGH = 1;
  1424                           	bsf	status, 5	;RP0=1, select bank1
  1425  0172  1683               	bcf	status, 6	;RP1=0, select bank1
  1426  0173  1303               	bsf	(1218/8)^080h,(1218)&7	;volatile
  1427  0174  1518               	line	447
  1428                           	
  1429                           l2517:	
  1430  0175                     ;source.c: 447:   x = (20000000 / (16 * BaudRate)) - 1;
  1431                           	bcf	status, 5	;RP0=0, select bank0
  1432  0175  1283               	bcf	status, 6	;RP1=0, select bank0
  1433  0176  1303               	movf	(SerialBegin@BaudRate),w
  1434  0177  0832               	movwf	(??_SerialBegin+0)+0
  1435  0178  00F9               	movf	(SerialBegin@BaudRate+1),w
  1436  0179  0833               	movwf	((??_SerialBegin+0)+0+1)
  1437  017A  00FA               	movf	(SerialBegin@BaudRate+2),w
  1438  017B  0834               	movwf	((??_SerialBegin+0)+0+2)
  1439  017C  00FB               	movf	(SerialBegin@BaudRate+3),w
  1440  017D  0835               	movwf	((??_SerialBegin+0)+0+3)
  1441  017E  00FC               	movlw	04h
  1442  017F  3004               u855:
  1443  0180                     	clrc
  1444  0180  1003               	rlf	(??_SerialBegin+0)+0,f
  1445  0181  0DF9               	rlf	(??_SerialBegin+0)+1,f
  1446  0182  0DFA               	rlf	(??_SerialBegin+0)+2,f
  1447  0183  0DFB               	rlf	(??_SerialBegin+0)+3,f
  1448  0184  0DFC               u850:
  1449  0185                     	addlw	-1
  1450  0185  3EFF               	skipz
  1451  0186  1D03               	goto	u855
  1452  0187  2980               	movf	3+(??_SerialBegin+0)+0,w
  1453  0188  087C               	movwf	(___aldiv@divisor+3)
  1454  0189  00F3               	movf	2+(??_SerialBegin+0)+0,w
  1455  018A  087B               	movwf	(___aldiv@divisor+2)
  1456  018B  00F2               	movf	1+(??_SerialBegin+0)+0,w
  1457  018C  087A               	movwf	(___aldiv@divisor+1)
  1458  018D  00F1               	movf	0+(??_SerialBegin+0)+0,w
  1459  018E  0879               	movwf	(___aldiv@divisor)
  1460  018F  00F0               
  1461                           	movlw	01h
  1462  0190  3001               	movwf	(___aldiv@dividend+3)
  1463  0191  00F7               	movlw	031h
  1464  0192  3031               	movwf	(___aldiv@dividend+2)
  1465  0193  00F6               	movlw	02Dh
  1466  0194  302D               	movwf	(___aldiv@dividend+1)
  1467  0195  00F5               	movlw	0
  1468  0196  3000               	movwf	(___aldiv@dividend)
  1469  0197  00F4               
  1470                           	fcall	___aldiv
  1471  0198  120A  118A  21D9  120A  118A  	movf	(0+(?___aldiv)),w
  1472  019D  0870               	addlw	low(0FFFFh)
  1473  019E  3EFF               	bcf	status, 5	;RP0=0, select bank0
  1474  019F  1283               	bcf	status, 6	;RP1=0, select bank0
  1475  01A0  1303               	movwf	(SerialBegin@x)
  1476  01A1  00B6               	movf	(1+(?___aldiv)),w
  1477  01A2  0871               	skipnc
  1478  01A3  1803               	addlw	1
  1479  01A4  3E01               	addlw	high(0FFFFh)
  1480  01A5  3EFF               	movwf	1+(SerialBegin@x)
  1481  01A6  00B7               	line	448
  1482                           	
  1483                           l2519:	
  1484  01A7                     ;source.c: 448:   SPBRG = x;
  1485                           	movf	(SerialBegin@x),w
  1486  01A7  0836               	bsf	status, 5	;RP0=1, select bank1
  1487  01A8  1683               	bcf	status, 6	;RP1=0, select bank1
  1488  01A9  1303               	movwf	(153)^080h	;volatile
  1489  01AA  0099               	line	449
  1490                           	
  1491                           l2521:	
  1492  01AB                     ;source.c: 449:   SYNC = 0;
  1493                           	bcf	(1220/8)^080h,(1220)&7	;volatile
  1494  01AB  1218               	line	450
  1495                           	
  1496                           l2523:	
  1497  01AC                     ;source.c: 450:   SPEN = 1;
  1498                           	bcf	status, 5	;RP0=0, select bank0
  1499  01AC  1283               	bcf	status, 6	;RP1=0, select bank0
  1500  01AD  1303               	bsf	(199/8),(199)&7	;volatile
  1501  01AE  1798               	line	451
  1502                           	
  1503                           l2525:	
  1504  01AF                     ;source.c: 451:   TRISC7 = 1;
  1505                           	bsf	status, 5	;RP0=1, select bank1
  1506  01AF  1683               	bcf	status, 6	;RP1=0, select bank1
  1507  01B0  1303               	bsf	(1087/8)^080h,(1087)&7	;volatile
  1508  01B1  1787               	line	452
  1509                           	
  1510                           l2527:	
  1511  01B2                     ;source.c: 452:   TRISC6 = 1;
  1512                           	bsf	(1086/8)^080h,(1086)&7	;volatile
  1513  01B2  1707               	line	453
  1514                           	
  1515                           l2529:	
  1516  01B3                     ;source.c: 453:   CREN = 1;
  1517                           	bcf	status, 5	;RP0=0, select bank0
  1518  01B3  1283               	bcf	status, 6	;RP1=0, select bank0
  1519  01B4  1303               	bsf	(196/8),(196)&7	;volatile
  1520  01B5  1618               	line	454
  1521                           	
  1522                           l2531:	
  1523  01B6                     ;source.c: 454:   TXEN = 1;
  1524                           	bsf	status, 5	;RP0=1, select bank1
  1525  01B6  1683               	bcf	status, 6	;RP1=0, select bank1
  1526  01B7  1303               	bsf	(1221/8)^080h,(1221)&7	;volatile
  1527  01B8  1698               	line	455
  1528                           	
  1529                           l2533:	
  1530  01B9                     ;source.c: 455:         TXREG = 0x00;
  1531                           	bcf	status, 5	;RP0=0, select bank0
  1532  01B9  1283               	bcf	status, 6	;RP1=0, select bank0
  1533  01BA  1303               	clrf	(25)	;volatile
  1534  01BB  0199               	line	456
  1535                           	
  1536                           l2535:	
  1537  01BC                     ;source.c: 456:         RCREG = 0x00;
  1538                           	clrf	(26)	;volatile
  1539  01BC  019A               	goto	l302
  1540  01BD  29D8               	line	457
  1541                           	
  1542                           l2537:	
  1543  01BE                     ;source.c: 457:   return 0;;	Return value of _SerialBegin is never used
  1544                           	goto	l302
  1545  01BE  29D8               	line	458
  1546                           	
  1547                           l2539:	
  1548  01BF                     ;source.c: 458:  }
  1549                           	goto	l302
  1550  01BF  29D8               	line	459
  1551                           ;source.c: 459:  else
  1552                           	
  1553                           l301:	
  1554  01C0                     	line	461
  1555                           	
  1556                           l2541:	
  1557  01C0                     ;source.c: 460:  {;source.c: 461:   SPBRG = x;
  1558                           	movf	(SerialBegin@x),w
  1559  01C0  0836               	bsf	status, 5	;RP0=1, select bank1
  1560  01C1  1683               	bcf	status, 6	;RP1=0, select bank1
  1561  01C2  1303               	movwf	(153)^080h	;volatile
  1562  01C3  0099               	line	462
  1563                           	
  1564                           l2543:	
  1565  01C4                     ;source.c: 462:   SYNC = 0;
  1566                           	bcf	(1220/8)^080h,(1220)&7	;volatile
  1567  01C4  1218               	line	463
  1568                           	
  1569                           l2545:	
  1570  01C5                     ;source.c: 463:   SPEN = 1;
  1571                           	bcf	status, 5	;RP0=0, select bank0
  1572  01C5  1283               	bcf	status, 6	;RP1=0, select bank0
  1573  01C6  1303               	bsf	(199/8),(199)&7	;volatile
  1574  01C7  1798               	line	464
  1575                           	
  1576                           l2547:	
  1577  01C8                     ;source.c: 464:   TRISC7 = 1;
  1578                           	bsf	status, 5	;RP0=1, select bank1
  1579  01C8  1683               	bcf	status, 6	;RP1=0, select bank1
  1580  01C9  1303               	bsf	(1087/8)^080h,(1087)&7	;volatile
  1581  01CA  1787               	line	465
  1582                           	
  1583                           l2549:	
  1584  01CB                     ;source.c: 465:   TRISC6 = 1;
  1585                           	bsf	(1086/8)^080h,(1086)&7	;volatile
  1586  01CB  1707               	line	466
  1587                           	
  1588                           l2551:	
  1589  01CC                     ;source.c: 466:   CREN = 1;
  1590                           	bcf	status, 5	;RP0=0, select bank0
  1591  01CC  1283               	bcf	status, 6	;RP1=0, select bank0
  1592  01CD  1303               	bsf	(196/8),(196)&7	;volatile
  1593  01CE  1618               	line	467
  1594                           	
  1595                           l2553:	
  1596  01CF                     ;source.c: 467:   TXEN = 1;
  1597                           	bsf	status, 5	;RP0=1, select bank1
  1598  01CF  1683               	bcf	status, 6	;RP1=0, select bank1
  1599  01D0  1303               	bsf	(1221/8)^080h,(1221)&7	;volatile
  1600  01D1  1698               	line	468
  1601                           	
  1602                           l2555:	
  1603  01D2                     ;source.c: 468:         TXREG = 0x00;
  1604                           	bcf	status, 5	;RP0=0, select bank0
  1605  01D2  1283               	bcf	status, 6	;RP1=0, select bank0
  1606  01D3  1303               	clrf	(25)	;volatile
  1607  01D4  0199               	line	469
  1608                           	
  1609                           l2557:	
  1610  01D5                     ;source.c: 469:         RCREG = 0x00;
  1611                           	clrf	(26)	;volatile
  1612  01D5  019A               	goto	l302
  1613  01D6  29D8               	line	470
  1614                           	
  1615                           l2559:	
  1616  01D7                     ;source.c: 470:   return 1;;	Return value of _SerialBegin is never used
  1617                           	goto	l302
  1618  01D7  29D8               	line	471
  1619                           ;source.c: 471:  }
  1620                           	
  1621                           l303:	
  1622  01D8                     	line	472
  1623                           	
  1624                           l302:	
  1625  01D8                     	return
  1626  01D8  0008               	opt stack 0
  1627                           GLOBAL	__end_of_SerialBegin
  1628                           	__end_of_SerialBegin:
  1629  01D9                     	signat	_SerialBegin,4217
  1630                           	global	___aldiv
  1631                           
  1632 ;; *************** function ___aldiv *****************
  1633 ;; Defined at:
  1634 ;;		line 5 in file "C:\Program Files (x86)\Microchip\xc8\v2.00\pic\sources\c90\common\aldiv.c"
  1635 ;; Parameters:    Size  Location     Type
  1636 ;;  divisor         4    0[COMMON] long 
  1637 ;;  dividend        4    4[COMMON] long 
  1638 ;; Auto vars:     Size  Location     Type
  1639 ;;  quotient        4    2[BANK0 ] long 
  1640 ;;  sign            1    1[BANK0 ] unsigned char 
  1641 ;;  counter         1    0[BANK0 ] unsigned char 
  1642 ;; Return value:  Size  Location     Type
  1643 ;;                  4    0[COMMON] long 
  1644 ;; Registers used:
  1645 ;;		wreg, status,2, status,0
  1646 ;; Tracked objects:
  1647 ;;		On entry : 0/0
  1648 ;;		On exit  : 0/0
  1649 ;;		Unchanged: 0/0
  1650 ;; Data sizes:     COMMON   BANK0   BANK1   BANK3   BANK2
  1651 ;;      Params:         8       0       0       0       0
  1652 ;;      Locals:         0       6       0       0       0
  1653 ;;      Temps:          1       0       0       0       0
  1654 ;;      Totals:         9       6       0       0       0
  1655 ;;Total ram usage:       15 bytes
  1656 ;; Hardware stack levels used:    1
  1657 ;; This function calls:
  1658 ;;		Nothing
  1659 ;; This function is called by:
  1660 ;;		_SerialBegin
  1661 ;; This function uses a non-reentrant model
  1662 ;;
  1663                           psect	text3,local,class=CODE,delta=2,merge=1,group=1
  1664                           	file	"C:\Program Files (x86)\Microchip\xc8\v2.00\pic\sources\c90\common\aldiv.c"
  1665                           	line	5
  1666                           global __ptext3
  1667                           __ptext3:	;psect for function ___aldiv
  1668  01D9                     psect	text3
  1669                           	file	"C:\Program Files (x86)\Microchip\xc8\v2.00\pic\sources\c90\common\aldiv.c"
  1670                           	line	5
  1671                           	global	__size_of___aldiv
  1672                           	__size_of___aldiv	equ	__end_of___aldiv-___aldiv
  1673  00A6                     	
  1674                           ___aldiv:	
  1675  01D9                     ;incstack = 0
  1676                           	opt	stack 5
  1677                           ; Regs used in ___aldiv: [wreg+status,2+status,0]
  1678                           	line	13
  1679                           	
  1680                           l2469:	
  1681  01D9                     	bcf	status, 5	;RP0=0, select bank0
  1682  01D9  1283               	bcf	status, 6	;RP1=0, select bank0
  1683  01DA  1303               	clrf	(___aldiv@sign)
  1684  01DB  01AD               	line	14
  1685                           	
  1686                           l2471:	
  1687  01DC                     	btfss	(___aldiv@divisor+3),7
  1688  01DC  1FF3               	goto	u731
  1689  01DD  29DF               	goto	u730
  1690  01DE  29E0               u731:
  1691  01DF                     	goto	l639
  1692  01DF  29ED               u730:
  1693  01E0                     	line	15
  1694                           	
  1695                           l2473:	
  1696  01E0                     	comf	(___aldiv@divisor),f
  1697  01E0  09F0               	comf	(___aldiv@divisor+1),f
  1698  01E1  09F1               	comf	(___aldiv@divisor+2),f
  1699  01E2  09F2               	comf	(___aldiv@divisor+3),f
  1700  01E3  09F3               	incf	(___aldiv@divisor),f
  1701  01E4  0AF0               	skipnz
  1702  01E5  1903               	incf	(___aldiv@divisor+1),f
  1703  01E6  0AF1               	skipnz
  1704  01E7  1903               	incf	(___aldiv@divisor+2),f
  1705  01E8  0AF2               	skipnz
  1706  01E9  1903               	incf	(___aldiv@divisor+3),f
  1707  01EA  0AF3               	line	16
  1708                           	clrf	(___aldiv@sign)
  1709  01EB  01AD               	incf	(___aldiv@sign),f
  1710  01EC  0AAD               	line	17
  1711                           	
  1712                           l639:	
  1713  01ED                     	line	18
  1714                           	btfss	(___aldiv@dividend+3),7
  1715  01ED  1FF7               	goto	u741
  1716  01EE  29F0               	goto	u740
  1717  01EF  29F1               u741:
  1718  01F0                     	goto	l2479
  1719  01F0  2A01               u740:
  1720  01F1                     	line	19
  1721                           	
  1722                           l2475:	
  1723  01F1                     	comf	(___aldiv@dividend),f
  1724  01F1  09F4               	comf	(___aldiv@dividend+1),f
  1725  01F2  09F5               	comf	(___aldiv@dividend+2),f
  1726  01F3  09F6               	comf	(___aldiv@dividend+3),f
  1727  01F4  09F7               	incf	(___aldiv@dividend),f
  1728  01F5  0AF4               	skipnz
  1729  01F6  1903               	incf	(___aldiv@dividend+1),f
  1730  01F7  0AF5               	skipnz
  1731  01F8  1903               	incf	(___aldiv@dividend+2),f
  1732  01F9  0AF6               	skipnz
  1733  01FA  1903               	incf	(___aldiv@dividend+3),f
  1734  01FB  0AF7               	line	20
  1735                           	
  1736                           l2477:	
  1737  01FC                     	movlw	low(01h)
  1738  01FC  3001               	movwf	(??___aldiv+0)+0
  1739  01FD  00F8               	movf	(??___aldiv+0)+0,w
  1740  01FE  0878               	xorwf	(___aldiv@sign),f
  1741  01FF  06AD               	goto	l2479
  1742  0200  2A01               	line	21
  1743                           	
  1744                           l640:	
  1745  0201                     	line	22
  1746                           	
  1747                           l2479:	
  1748  0201                     	movlw	high highword(0)
  1749  0201  3000               	movwf	(___aldiv@quotient+3)
  1750  0202  00B1               	movlw	low highword(0)
  1751  0203  3000               	movwf	(___aldiv@quotient+2)
  1752  0204  00B0               	movlw	high(0)
  1753  0205  3000               	movwf	(___aldiv@quotient+1)
  1754  0206  00AF               	movlw	low(0)
  1755  0207  3000               	movwf	(___aldiv@quotient)
  1756  0208  00AE               
  1757                           	line	23
  1758                           	
  1759                           l2481:	
  1760  0209                     	movf	(___aldiv@divisor+3),w
  1761  0209  0873               	iorwf	(___aldiv@divisor+2),w
  1762  020A  0472               	iorwf	(___aldiv@divisor+1),w
  1763  020B  0471               	iorwf	(___aldiv@divisor),w
  1764  020C  0470               	skipnz
  1765  020D  1903               	goto	u751
  1766  020E  2A10               	goto	u750
  1767  020F  2A11               u751:
  1768  0210                     	goto	l2501
  1769  0210  2A64               u750:
  1770  0211                     	line	24
  1771                           	
  1772                           l2483:	
  1773  0211                     	clrf	(___aldiv@counter)
  1774  0211  01AC               	incf	(___aldiv@counter),f
  1775  0212  0AAC               	line	25
  1776                           	goto	l2487
  1777  0213  2A22               	
  1778                           l643:	
  1779  0214                     	line	26
  1780                           	
  1781                           l2485:	
  1782  0214                     	movlw	01h
  1783  0214  3001               	movwf	(??___aldiv+0)+0
  1784  0215  00F8               u765:
  1785  0216                     	clrc
  1786  0216  1003               	rlf	(___aldiv@divisor),f
  1787  0217  0DF0               	rlf	(___aldiv@divisor+1),f
  1788  0218  0DF1               	rlf	(___aldiv@divisor+2),f
  1789  0219  0DF2               	rlf	(___aldiv@divisor+3),f
  1790  021A  0DF3               	decfsz	(??___aldiv+0)+0
  1791  021B  0BF8               	goto	u765
  1792  021C  2A16               	line	27
  1793                           	movlw	low(01h)
  1794  021D  3001               	movwf	(??___aldiv+0)+0
  1795  021E  00F8               	movf	(??___aldiv+0)+0,w
  1796  021F  0878               	addwf	(___aldiv@counter),f
  1797  0220  07AC               	goto	l2487
  1798  0221  2A22               	line	28
  1799                           	
  1800                           l642:	
  1801  0222                     	line	25
  1802                           	
  1803                           l2487:	
  1804  0222                     	btfss	(___aldiv@divisor+3),(31)&7
  1805  0222  1FF3               	goto	u771
  1806  0223  2A25               	goto	u770
  1807  0224  2A26               u771:
  1808  0225                     	goto	l2485
  1809  0225  2A14               u770:
  1810  0226                     	goto	l2489
  1811  0226  2A28               	
  1812                           l644:	
  1813  0227                     	goto	l2489
  1814  0227  2A28               	line	29
  1815                           	
  1816                           l645:	
  1817  0228                     	line	30
  1818                           	
  1819                           l2489:	
  1820  0228                     	movlw	01h
  1821  0228  3001               	movwf	(??___aldiv+0)+0
  1822  0229  00F8               u785:
  1823  022A                     	clrc
  1824  022A  1003               	rlf	(___aldiv@quotient),f
  1825  022B  0DAE               	rlf	(___aldiv@quotient+1),f
  1826  022C  0DAF               	rlf	(___aldiv@quotient+2),f
  1827  022D  0DB0               	rlf	(___aldiv@quotient+3),f
  1828  022E  0DB1               	decfsz	(??___aldiv+0)+0
  1829  022F  0BF8               	goto	u785
  1830  0230  2A2A               	line	31
  1831                           	
  1832                           l2491:	
  1833  0231                     	movf	(___aldiv@divisor+3),w
  1834  0231  0873               	subwf	(___aldiv@dividend+3),w
  1835  0232  0277               	skipz
  1836  0233  1D03               	goto	u795
  1837  0234  2A3F               	movf	(___aldiv@divisor+2),w
  1838  0235  0872               	subwf	(___aldiv@dividend+2),w
  1839  0236  0276               	skipz
  1840  0237  1D03               	goto	u795
  1841  0238  2A3F               	movf	(___aldiv@divisor+1),w
  1842  0239  0871               	subwf	(___aldiv@dividend+1),w
  1843  023A  0275               	skipz
  1844  023B  1D03               	goto	u795
  1845  023C  2A3F               	movf	(___aldiv@divisor),w
  1846  023D  0870               	subwf	(___aldiv@dividend),w
  1847  023E  0274               u795:
  1848  023F                     	skipc
  1849  023F  1C03               	goto	u791
  1850  0240  2A42               	goto	u790
  1851  0241  2A43               u791:
  1852  0242                     	goto	l2497
  1853  0242  2A53               u790:
  1854  0243                     	line	32
  1855                           	
  1856                           l2493:	
  1857  0243                     	movf	(___aldiv@divisor),w
  1858  0243  0870               	subwf	(___aldiv@dividend),f
  1859  0244  02F4               	movf	(___aldiv@divisor+1),w
  1860  0245  0871               	skipc
  1861  0246  1C03               	incfsz	(___aldiv@divisor+1),w
  1862  0247  0F71               	subwf	(___aldiv@dividend+1),f
  1863  0248  02F5               	movf	(___aldiv@divisor+2),w
  1864  0249  0872               	skipc
  1865  024A  1C03               	incfsz	(___aldiv@divisor+2),w
  1866  024B  0F72               	subwf	(___aldiv@dividend+2),f
  1867  024C  02F6               	movf	(___aldiv@divisor+3),w
  1868  024D  0873               	skipc
  1869  024E  1C03               	incfsz	(___aldiv@divisor+3),w
  1870  024F  0F73               	subwf	(___aldiv@dividend+3),f
  1871  0250  02F7               	line	33
  1872                           	
  1873                           l2495:	
  1874  0251                     	bsf	(___aldiv@quotient)+(0/8),(0)&7
  1875  0251  142E               	goto	l2497
  1876  0252  2A53               	line	34
  1877                           	
  1878                           l646:	
  1879  0253                     	line	35
  1880                           	
  1881                           l2497:	
  1882  0253                     	movlw	01h
  1883  0253  3001               u805:
  1884  0254                     	clrc
  1885  0254  1003               	rrf	(___aldiv@divisor+3),f
  1886  0255  0CF3               	rrf	(___aldiv@divisor+2),f
  1887  0256  0CF2               	rrf	(___aldiv@divisor+1),f
  1888  0257  0CF1               	rrf	(___aldiv@divisor),f
  1889  0258  0CF0               	addlw	-1
  1890  0259  3EFF               	skipz
  1891  025A  1D03               	goto	u805
  1892  025B  2A54               
  1893                           	line	36
  1894                           	
  1895                           l2499:	
  1896  025C                     	movlw	01h
  1897  025C  3001               	subwf	(___aldiv@counter),f
  1898  025D  02AC               	btfss	status,2
  1899  025E  1D03               	goto	u811
  1900  025F  2A61               	goto	u810
  1901  0260  2A62               u811:
  1902  0261                     	goto	l2489
  1903  0261  2A28               u810:
  1904  0262                     	goto	l2501
  1905  0262  2A64               	
  1906                           l647:	
  1907  0263                     	goto	l2501
  1908  0263  2A64               	line	37
  1909                           	
  1910                           l641:	
  1911  0264                     	line	38
  1912                           	
  1913                           l2501:	
  1914  0264                     	movf	((___aldiv@sign)),w
  1915  0264  082D               	btfsc	status,2
  1916  0265  1903               	goto	u821
  1917  0266  2A68               	goto	u820
  1918  0267  2A69               u821:
  1919  0268                     	goto	l2505
  1920  0268  2A75               u820:
  1921  0269                     	line	39
  1922                           	
  1923                           l2503:	
  1924  0269                     	comf	(___aldiv@quotient),f
  1925  0269  09AE               	comf	(___aldiv@quotient+1),f
  1926  026A  09AF               	comf	(___aldiv@quotient+2),f
  1927  026B  09B0               	comf	(___aldiv@quotient+3),f
  1928  026C  09B1               	incf	(___aldiv@quotient),f
  1929  026D  0AAE               	skipnz
  1930  026E  1903               	incf	(___aldiv@quotient+1),f
  1931  026F  0AAF               	skipnz
  1932  0270  1903               	incf	(___aldiv@quotient+2),f
  1933  0271  0AB0               	skipnz
  1934  0272  1903               	incf	(___aldiv@quotient+3),f
  1935  0273  0AB1               	goto	l2505
  1936  0274  2A75               	
  1937                           l648:	
  1938  0275                     	line	40
  1939                           	
  1940                           l2505:	
  1941  0275                     	movf	(___aldiv@quotient+3),w
  1942  0275  0831               	movwf	(?___aldiv+3)
  1943  0276  00F3               	movf	(___aldiv@quotient+2),w
  1944  0277  0830               	movwf	(?___aldiv+2)
  1945  0278  00F2               	movf	(___aldiv@quotient+1),w
  1946  0279  082F               	movwf	(?___aldiv+1)
  1947  027A  00F1               	movf	(___aldiv@quotient),w
  1948  027B  082E               	movwf	(?___aldiv)
  1949  027C  00F0               
  1950                           	goto	l649
  1951  027D  2A7E               	
  1952                           l2507:	
  1953  027E                     	line	41
  1954                           	
  1955                           l649:	
  1956  027E                     	return
  1957  027E  0008               	opt stack 0
  1958                           GLOBAL	__end_of___aldiv
  1959                           	__end_of___aldiv:
  1960  027F                     	signat	___aldiv,8316
  1961                           	global	_loop
  1962                           
  1963 ;; *************** function _loop *****************
  1964 ;; Defined at:
  1965 ;;		line 54 in file "LIFPIC.c"
  1966 ;; Parameters:    Size  Location     Type
  1967 ;;		None
  1968 ;; Auto vars:     Size  Location     Type
  1969 ;;  j               2   10[BANK0 ] int 
  1970 ;;  i               2    8[BANK0 ] int 
  1971 ;; Return value:  Size  Location     Type
  1972 ;;                  1    wreg      void 
  1973 ;; Registers used:
  1974 ;;		wreg, fsr0l, fsr0h, status,2, status,0, btemp+1, pclath, cstack
  1975 ;; Tracked objects:
  1976 ;;		On entry : 0/0
  1977 ;;		On exit  : 0/0
  1978 ;;		Unchanged: 0/0
  1979 ;; Data sizes:     COMMON   BANK0   BANK1   BANK3   BANK2
  1980 ;;      Params:         0       0       0       0       0
  1981 ;;      Locals:         0       4       0       0       0
  1982 ;;      Temps:          0       3       0       0       0
  1983 ;;      Totals:         0       7       0       0       0
  1984 ;;Total ram usage:        7 bytes
  1985 ;; Hardware stack levels used:    1
  1986 ;; Hardware stack levels required when called:    2
  1987 ;; This function calls:
  1988 ;;		_ProcessCommand
  1989 ;;		_SerialAvailable
  1990 ;;		_SerialRead
  1991 ;;		_SerialWrite
  1992 ;; This function is called by:
  1993 ;;		_main
  1994 ;; This function uses a non-reentrant model
  1995 ;;
  1996                           psect	text4,local,class=CODE,delta=2,merge=1,group=0
  1997                           	file	"LIFPIC.c"
  1998                           	line	54
  1999                           global __ptext4
  2000                           __ptext4:	;psect for function _loop
  2001  0345                     psect	text4
  2002                           	file	"LIFPIC.c"
  2003                           	line	54
  2004                           	global	__size_of_loop
  2005                           	__size_of_loop	equ	__end_of_loop-_loop
  2006  00E2                     	
  2007                           _loop:	
  2008  0345                     ;incstack = 0
  2009                           	opt	stack 5
  2010                           ; Regs used in _loop: [wreg-fsr0h+status,2+status,0+btemp+1+pclath+cstack]
  2011                           	line	56
  2012                           	
  2013                           l2673:	
  2014  0345                     ;LIFPIC.c: 56:  if(SerialAvailable() >= 0)
  2015                           	fcall	_SerialAvailable
  2016  0345  120A  158A  2796  120A  118A  	line	58
  2017                           ;LIFPIC.c: 57:  {;LIFPIC.c: 58:   switch(Estado)
  2018                           	goto	l2735
  2019  034A  2C10               	line	60
  2020                           ;LIFPIC.c: 59:   {;LIFPIC.c: 60:    case Decode:
  2021                           	
  2022                           l453:	
  2023  034B                     	line	62
  2024                           	
  2025                           l2675:	
  2026  034B                     ;LIFPIC.c: 62:     Dato = ProcessCommand(Informacion[0],Informacion[1],Informacion[2],In
                                 formacion[3]);
  2027                           	bcf	status, 5	;RP0=0, select bank0
  2028  034B  1283               	bcf	status, 6	;RP1=0, select bank0
  2029  034C  1303               	movf	0+(_Informacion)+01h,w
  2030  034D  0821               	movwf	(??_loop+0)+0
  2031  034E  00B1               	movf	(??_loop+0)+0,w
  2032  034F  0831               	movwf	(ProcessCommand@port)
  2033  0350  00FA               	movf	0+(_Informacion)+02h,w
  2034  0351  0822               	movwf	(??_loop+1)+0
  2035  0352  00B2               	movf	(??_loop+1)+0,w
  2036  0353  0832               	movwf	(ProcessCommand@MSBData)
  2037  0354  00FB               	movf	0+(_Informacion)+03h,w
  2038  0355  0823               	movwf	(??_loop+2)+0
  2039  0356  00B3               	movf	(??_loop+2)+0,w
  2040  0357  0833               	movwf	(ProcessCommand@LSBData)
  2041  0358  00FC               	movf	(_Informacion),w
  2042  0359  0820               	fcall	_ProcessCommand
  2043  035A  120A  118A  227F  120A  118A  	movf	(1+(?_ProcessCommand)),w
  2044  035F  087B               	bcf	status, 5	;RP0=0, select bank0
  2045  0360  1283               	bcf	status, 6	;RP1=0, select bank0
  2046  0361  1303               	movwf	(_Dato+1)
  2047  0362  00A5               	movf	(0+(?_ProcessCommand)),w
  2048  0363  087A               	movwf	(_Dato)
  2049  0364  00A4               	line	63
  2050                           	
  2051                           l2677:	
  2052  0365                     ;LIFPIC.c: 63:     DataEnviar[0] = Dato & 0xFF00;
  2053                           	clrf	(_DataEnviar)
  2054  0365  01A6               	line	64
  2055                           	
  2056                           l2679:	
  2057  0366                     ;LIFPIC.c: 64:     DataEnviar[0] = (Dato >> 8);
  2058                           	movf	(_Dato+1),w
  2059  0366  0825               	movwf	(??_loop+0)+0
  2060  0367  00B1               	movf	(??_loop+0)+0,w
  2061  0368  0831               	movwf	(_DataEnviar)
  2062  0369  00A6               	line	65
  2063                           	
  2064                           l2681:	
  2065  036A                     ;LIFPIC.c: 65:     DataEnviar[1] = Dato & 0xFF;
  2066                           	movf	(_Dato),w
  2067  036A  0824               	movwf	(??_loop+0)+0
  2068  036B  00B1               	movf	(??_loop+0)+0,w
  2069  036C  0831               	movwf	0+(_DataEnviar)+01h
  2070  036D  00A7               	line	66
  2071                           	
  2072                           l2683:	
  2073  036E                     ;LIFPIC.c: 66:     Estado = Enviar;
  2074                           	clrf	(_Estado)
  2075  036E  01AB               	line	67
  2076                           ;LIFPIC.c: 67:    break;
  2077                           	goto	l472
  2078  036F  2C26               	line	68
  2079                           ;LIFPIC.c: 68:    case Recibir:
  2080                           	
  2081                           l455:	
  2082  0370                     	line	69
  2083                           ;LIFPIC.c: 69:     while(Valor != 1)
  2084                           	goto	l2701
  2085  0370  2BAD               	
  2086                           l457:	
  2087  0371                     	line	71
  2088                           	
  2089                           l2685:	
  2090  0371                     ;LIFPIC.c: 70:     {;LIFPIC.c: 71:      for(int i=0;i<BufferLenght;i++)
  2091                           	clrf	(loop@i)
  2092  0371  01B4               	clrf	(loop@i+1)
  2093  0372  01B5               	goto	l2691
  2094  0373  2B89               	
  2095                           l459:	
  2096  0374                     	line	73
  2097                           	
  2098                           l2687:	
  2099  0374                     ;LIFPIC.c: 72:      {;LIFPIC.c: 73:       Informacion[i] = SerialRead();
  2100                           	fcall	_SerialRead
  2101  0374  120A  158A  2776  120A  118A  	bcf	status, 5	;RP0=0, select bank0
  2102  0379  1283               	bcf	status, 6	;RP1=0, select bank0
  2103  037A  1303               	movwf	(??_loop+0)+0
  2104  037B  00B1               	movf	(loop@i),w
  2105  037C  0834               	addlw	low(_Informacion|((0x0)<<8))&0ffh
  2106  037D  3E20               	movwf	fsr0
  2107  037E  0084               	movf	(??_loop+0)+0,w
  2108  037F  0831               	bcf	status, 7	;select IRP bank0
  2109  0380  1383               	movwf	indf
  2110  0381  0080               	line	74
  2111                           	
  2112                           l2689:	
  2113  0382                     ;LIFPIC.c: 74:      }
  2114                           	movlw	01h
  2115  0382  3001               	addwf	(loop@i),f
  2116  0383  07B4               	skipnc
  2117  0384  1803               	incf	(loop@i+1),f
  2118  0385  0AB5               	movlw	0
  2119  0386  3000               	addwf	(loop@i+1),f
  2120  0387  07B5               	goto	l2691
  2121  0388  2B89               	
  2122                           l458:	
  2123  0389                     	
  2124                           l2691:	
  2125  0389                     	movf	(loop@i+1),w
  2126  0389  0835               	xorlw	80h
  2127  038A  3A80               	movwf	(??_loop+0)+0
  2128  038B  00B1               	movlw	80h
  2129  038C  3080               	subwf	(??_loop+0)+0,w
  2130  038D  0231               	skipz
  2131  038E  1D03               	goto	u985
  2132  038F  2B92               	movf	(_BufferLenght),w
  2133  0390  083A               	subwf	(loop@i),w
  2134  0391  0234               u985:
  2135  0392                     
  2136                           	skipc
  2137  0392  1C03               	goto	u981
  2138  0393  2B95               	goto	u980
  2139  0394  2B96               u981:
  2140  0395                     	goto	l2687
  2141  0395  2B74               u980:
  2142  0396                     	goto	l2693
  2143  0396  2B97               	
  2144                           l460:	
  2145  0397                     	line	75
  2146                           	
  2147                           l2693:	
  2148  0397                     ;LIFPIC.c: 75:                     dada = SerialRead();
  2149                           	fcall	_SerialRead
  2150  0397  120A  158A  2776  120A  118A  	bcf	status, 5	;RP0=0, select bank0
  2151  039C  1283               	bcf	status, 6	;RP1=0, select bank0
  2152  039D  1303               	movwf	(??_loop+0)+0
  2153  039E  00B1               	movf	(??_loop+0)+0,w
  2154  039F  0831               	movwf	(_dada)
  2155  03A0  00A8               	line	76
  2156                           	
  2157                           l2695:	
  2158  03A1                     ;LIFPIC.c: 76:                     if(dada == 'k')
  2159                           		movlw	107
  2160  03A1  306B               	xorwf	((_dada)),w
  2161  03A2  0628               	btfss	status,2
  2162  03A3  1D03               	goto	u991
  2163  03A4  2BA6               	goto	u990
  2164  03A5  2BA7               u991:
  2165  03A6                     	goto	l2699
  2166  03A6  2BAA               u990:
  2167  03A7                     	line	78
  2168                           	
  2169                           l2697:	
  2170  03A7                     ;LIFPIC.c: 77:                     {;LIFPIC.c: 78:                         Valor = 1;
  2171                           	clrf	(_Valor)
  2172  03A7  01A9               	incf	(_Valor),f
  2173  03A8  0AA9               	line	79
  2174                           ;LIFPIC.c: 79:                     }
  2175                           	goto	l2701
  2176  03A9  2BAD               	line	80
  2177                           ;LIFPIC.c: 80:                     else
  2178                           	
  2179                           l461:	
  2180  03AA                     	line	82
  2181                           	
  2182                           l2699:	
  2183  03AA                     ;LIFPIC.c: 81:                     {;LIFPIC.c: 82:                         Valor = 0;
  2184                           	clrf	(_Valor)
  2185  03AA  01A9               	goto	l2701
  2186  03AB  2BAD               	line	83
  2187                           ;LIFPIC.c: 83:                     }
  2188                           	
  2189                           l462:	
  2190  03AC                     	goto	l2701
  2191  03AC  2BAD               	line	84
  2192                           ;LIFPIC.c: 84:     }
  2193                           	
  2194                           l456:	
  2195  03AD                     	line	69
  2196                           	
  2197                           l2701:	
  2198  03AD                     ;LIFPIC.c: 69:     while(Valor != 1)
  2199                           		decf	((_Valor)),w
  2200  03AD  0329               	btfss	status,2
  2201  03AE  1D03               	goto	u1001
  2202  03AF  2BB1               	goto	u1000
  2203  03B0  2BB2               u1001:
  2204  03B1                     	goto	l2685
  2205  03B1  2B71               u1000:
  2206  03B2                     	goto	l2703
  2207  03B2  2BB3               	
  2208                           l463:	
  2209  03B3                     	line	85
  2210                           	
  2211                           l2703:	
  2212  03B3                     ;LIFPIC.c: 85:                 dada = 0;
  2213                           	clrf	(_dada)
  2214  03B3  01A8               	line	86
  2215                           ;LIFPIC.c: 86:                 Valor = 0;
  2216                           	clrf	(_Valor)
  2217  03B4  01A9               	line	87
  2218                           	
  2219                           l2705:	
  2220  03B5                     ;LIFPIC.c: 87:                 Estado = Decode;
  2221                           	movlw	low(02h)
  2222  03B5  3002               	movwf	(??_loop+0)+0
  2223  03B6  00B1               	movf	(??_loop+0)+0,w
  2224  03B7  0831               	movwf	(_Estado)
  2225  03B8  00AB               	line	88
  2226                           ;LIFPIC.c: 88:    break;
  2227                           	goto	l472
  2228  03B9  2C26               	line	89
  2229                           ;LIFPIC.c: 89:    case Enviar:
  2230                           	
  2231                           l464:	
  2232  03BA                     	line	90
  2233                           ;LIFPIC.c: 90:                 while(Valor != 1)
  2234                           	goto	l2727
  2235  03BA  2C04               	
  2236                           l466:	
  2237  03BB                     	line	92
  2238                           	
  2239                           l2707:	
  2240  03BB                     ;LIFPIC.c: 91:                 {;LIFPIC.c: 92:                     for(int j=0;j<2;j++)

  2241                           	clrf	(loop@j)
  2242  03BB  01B6               	clrf	(loop@j+1)
  2243  03BC  01B7               	
  2244                           l2709:	
  2245  03BD                     	movf	(loop@j+1),w
  2246  03BD  0837               	xorlw	80h
  2247  03BE  3A80               	movwf	btemp+1
  2248  03BF  00FF               	movlw	(0)^80h
  2249  03C0  3080               	subwf	btemp+1,w
  2250  03C1  027F               	skipz
  2251  03C2  1D03               	goto	u1015
  2252  03C3  2BC6               	movlw	02h
  2253  03C4  3002               	subwf	(loop@j),w
  2254  03C5  0236               u1015:
  2255  03C6                     
  2256                           	skipc
  2257  03C6  1C03               	goto	u1011
  2258  03C7  2BC9               	goto	u1010
  2259  03C8  2BCA               u1011:
  2260  03C9                     	goto	l2713
  2261  03C9  2BCC               u1010:
  2262  03CA                     	goto	l2719
  2263  03CA  2BEE               	
  2264                           l2711:	
  2265  03CB                     	goto	l2719
  2266  03CB  2BEE               	
  2267                           l467:	
  2268  03CC                     	line	94
  2269                           	
  2270                           l2713:	
  2271  03CC                     ;LIFPIC.c: 93:                     {;LIFPIC.c: 94:                         SerialWrite(D
                                 ataEnviar[j]);
  2272                           	bcf	status, 5	;RP0=0, select bank0
  2273  03CC  1283               	bcf	status, 6	;RP1=0, select bank0
  2274  03CD  1303               	movf	(loop@j),w
  2275  03CE  0836               	addlw	low(_DataEnviar|((0x0)<<8))&0ffh
  2276  03CF  3E26               	movwf	fsr0
  2277  03D0  0084               	bcf	status, 7	;select IRP bank0
  2278  03D1  1383               	movf	indf,w
  2279  03D2  0800               	fcall	_SerialWrite
  2280  03D3  120A  118A  2007  120A  118A  	line	95
  2281                           	
  2282                           l2715:	
  2283  03D8                     ;LIFPIC.c: 95:                     }
  2284                           	movlw	01h
  2285  03D8  3001               	bcf	status, 5	;RP0=0, select bank0
  2286  03D9  1283               	bcf	status, 6	;RP1=0, select bank0
  2287  03DA  1303               	addwf	(loop@j),f
  2288  03DB  07B6               	skipnc
  2289  03DC  1803               	incf	(loop@j+1),f
  2290  03DD  0AB7               	movlw	0
  2291  03DE  3000               	addwf	(loop@j+1),f
  2292  03DF  07B7               	
  2293                           l2717:	
  2294  03E0                     	movf	(loop@j+1),w
  2295  03E0  0837               	xorlw	80h
  2296  03E1  3A80               	movwf	btemp+1
  2297  03E2  00FF               	movlw	(0)^80h
  2298  03E3  3080               	subwf	btemp+1,w
  2299  03E4  027F               	skipz
  2300  03E5  1D03               	goto	u1025
  2301  03E6  2BE9               	movlw	02h
  2302  03E7  3002               	subwf	(loop@j),w
  2303  03E8  0236               u1025:
  2304  03E9                     
  2305                           	skipc
  2306  03E9  1C03               	goto	u1021
  2307  03EA  2BEC               	goto	u1020
  2308  03EB  2BED               u1021:
  2309  03EC                     	goto	l2713
  2310  03EC  2BCC               u1020:
  2311  03ED                     	goto	l2719
  2312  03ED  2BEE               	
  2313                           l468:	
  2314  03EE                     	line	96
  2315                           	
  2316                           l2719:	
  2317  03EE                     ;LIFPIC.c: 96:                     dada = SerialRead();
  2318                           	fcall	_SerialRead
  2319  03EE  120A  158A  2776  120A  118A  	bcf	status, 5	;RP0=0, select bank0
  2320  03F3  1283               	bcf	status, 6	;RP1=0, select bank0
  2321  03F4  1303               	movwf	(??_loop+0)+0
  2322  03F5  00B1               	movf	(??_loop+0)+0,w
  2323  03F6  0831               	movwf	(_dada)
  2324  03F7  00A8               	line	97
  2325                           	
  2326                           l2721:	
  2327  03F8                     ;LIFPIC.c: 97:                     if(dada == 'k')
  2328                           		movlw	107
  2329  03F8  306B               	xorwf	((_dada)),w
  2330  03F9  0628               	btfss	status,2
  2331  03FA  1D03               	goto	u1031
  2332  03FB  2BFD               	goto	u1030
  2333  03FC  2BFE               u1031:
  2334  03FD                     	goto	l2725
  2335  03FD  2C01               u1030:
  2336  03FE                     	line	99
  2337                           	
  2338                           l2723:	
  2339  03FE                     ;LIFPIC.c: 98:                     {;LIFPIC.c: 99:                         Valor = 1;
  2340                           	clrf	(_Valor)
  2341  03FE  01A9               	incf	(_Valor),f
  2342  03FF  0AA9               	line	100
  2343                           ;LIFPIC.c: 100:                     }
  2344                           	goto	l2727
  2345  0400  2C04               	line	101
  2346                           ;LIFPIC.c: 101:                     else
  2347                           	
  2348                           l469:	
  2349  0401                     	line	103
  2350                           	
  2351                           l2725:	
  2352  0401                     ;LIFPIC.c: 102:                     {;LIFPIC.c: 103:                         Valor = 0;

  2353                           	clrf	(_Valor)
  2354  0401  01A9               	goto	l2727
  2355  0402  2C04               	line	104
  2356                           ;LIFPIC.c: 104:                     }
  2357                           	
  2358                           l470:	
  2359  0403                     	goto	l2727
  2360  0403  2C04               	line	105
  2361                           ;LIFPIC.c: 105:                 }
  2362                           	
  2363                           l465:	
  2364  0404                     	line	90
  2365                           	
  2366                           l2727:	
  2367  0404                     ;LIFPIC.c: 90:                 while(Valor != 1)
  2368                           		decf	((_Valor)),w
  2369  0404  0329               	btfss	status,2
  2370  0405  1D03               	goto	u1041
  2371  0406  2C08               	goto	u1040
  2372  0407  2C09               u1041:
  2373  0408                     	goto	l2707
  2374  0408  2BBB               u1040:
  2375  0409                     	goto	l2729
  2376  0409  2C0A               	
  2377                           l471:	
  2378  040A                     	line	106
  2379                           	
  2380                           l2729:	
  2381  040A                     ;LIFPIC.c: 106:                 Valor = 0;
  2382                           	clrf	(_Valor)
  2383  040A  01A9               	line	107
  2384                           ;LIFPIC.c: 107:                 dada = 0;
  2385                           	clrf	(_dada)
  2386  040B  01A8               	line	108
  2387                           	
  2388                           l2731:	
  2389  040C                     ;LIFPIC.c: 108:     Estado = Recibir;
  2390                           	clrf	(_Estado)
  2391  040C  01AB               	incf	(_Estado),f
  2392  040D  0AAB               	line	109
  2393                           ;LIFPIC.c: 109:    break;
  2394                           	goto	l472
  2395  040E  2C26               	line	110
  2396                           	
  2397                           l2733:	
  2398  040F                     ;LIFPIC.c: 110:   }
  2399                           	goto	l472
  2400  040F  2C26               	
  2401                           l452:	
  2402  0410                     	
  2403                           l2735:	
  2404  0410                     	bcf	status, 5	;RP0=0, select bank0
  2405  0410  1283               	bcf	status, 6	;RP1=0, select bank0
  2406  0411  1303               	movf	(_Estado),w
  2407  0412  082B               	movwf	(??_loop+0)+0
  2408  0413  00B1               	clrf	(??_loop+0)+0+1
  2409  0414  01B2               	; Switch on 2 bytes has been partitioned into a top level switch of size 1, and 1 sub-s
                                 witches
  2410                           ; Switch size 1, requested type "space"
  2411                           ; Number of cases is 1, Range of values is 0 to 0
  2412                           ; switch strategies available:
  2413                           ; Name         Instructions Cycles
  2414                           ; simple_byte            4     3 (average)
  2415                           ; direct_byte           11     8 (fixed)
  2416                           ; jumptable            260     6 (fixed)
  2417                           ;	Chosen strategy is simple_byte
  2418                           
  2419                           	movf 1+(??_loop+0)+0,w
  2420  0415  0832               	opt asmopt_push
  2421                           	opt asmopt_off
  2422                           	xorlw	0^0	; case 0
  2423  0416  3A00               	skipnz
  2424  0417  1903               	goto	l2921
  2425  0418  2C1A               	goto	l472
  2426  0419  2C26               	opt asmopt_pop
  2427                           	
  2428                           l2921:	
  2429  041A                     ; Switch size 1, requested type "space"
  2430                           ; Number of cases is 3, Range of values is 0 to 2
  2431                           ; switch strategies available:
  2432                           ; Name         Instructions Cycles
  2433                           ; simple_byte           10     6 (average)
  2434                           ; direct_byte           17     8 (fixed)
  2435                           ; jumptable            260     6 (fixed)
  2436                           ;	Chosen strategy is simple_byte
  2437                           
  2438                           	movf 0+(??_loop+0)+0,w
  2439  041A  0831               	opt asmopt_push
  2440                           	opt asmopt_off
  2441                           	xorlw	0^0	; case 0
  2442  041B  3A00               	skipnz
  2443  041C  1903               	goto	l2727
  2444  041D  2C04               	xorlw	1^0	; case 1
  2445  041E  3A01               	skipnz
  2446  041F  1903               	goto	l2701
  2447  0420  2BAD               	xorlw	2^1	; case 2
  2448  0421  3A03               	skipnz
  2449  0422  1903               	goto	l2675
  2450  0423  2B4B               	goto	l472
  2451  0424  2C26               	opt asmopt_pop
  2452                           
  2453                           	
  2454                           l454:	
  2455  0425                     	goto	l472
  2456  0425  2C26               	line	111
  2457                           ;LIFPIC.c: 111:  }
  2458                           	
  2459                           l451:	
  2460  0426                     	line	112
  2461                           	
  2462                           l472:	
  2463  0426                     	return
  2464  0426  0008               	opt stack 0
  2465                           GLOBAL	__end_of_loop
  2466                           	__end_of_loop:
  2467  0427                     	signat	_loop,89
  2468                           	global	_SerialWrite
  2469                           
  2470 ;; *************** function _SerialWrite *****************
  2471 ;; Defined at:
  2472 ;;		line 497 in file "source.c"
  2473 ;; Parameters:    Size  Location     Type
  2474 ;;  dataWrite       1    wreg     unsigned char 
  2475 ;; Auto vars:     Size  Location     Type
  2476 ;;  dataWrite       1    0[COMMON] unsigned char 
  2477 ;; Return value:  Size  Location     Type
  2478 ;;                  1    wreg      void 
  2479 ;; Registers used:
  2480 ;;		wreg
  2481 ;; Tracked objects:
  2482 ;;		On entry : 0/0
  2483 ;;		On exit  : 0/0
  2484 ;;		Unchanged: 0/0
  2485 ;; Data sizes:     COMMON   BANK0   BANK1   BANK3   BANK2
  2486 ;;      Params:         0       0       0       0       0
  2487 ;;      Locals:         1       0       0       0       0
  2488 ;;      Temps:          0       0       0       0       0
  2489 ;;      Totals:         1       0       0       0       0
  2490 ;;Total ram usage:        1 bytes
  2491 ;; Hardware stack levels used:    1
  2492 ;; This function calls:
  2493 ;;		Nothing
  2494 ;; This function is called by:
  2495 ;;		_setup
  2496 ;;		_loop
  2497 ;;		_SerialWriteText
  2498 ;;		_SerialPrint
  2499 ;;		_SerialPrintLn
  2500 ;; This function uses a non-reentrant model
  2501 ;;
  2502                           psect	text5,local,class=CODE,delta=2,merge=1,group=0
  2503                           	file	"source.c"
  2504                           	line	497
  2505                           global __ptext5
  2506                           __ptext5:	;psect for function _SerialWrite
  2507  0007                     psect	text5
  2508                           	file	"source.c"
  2509                           	line	497
  2510                           	global	__size_of_SerialWrite
  2511                           	__size_of_SerialWrite	equ	__end_of_SerialWrite-_SerialWrite
  2512  000C                     	
  2513                           _SerialWrite:	
  2514  0007                     ;incstack = 0
  2515                           	opt	stack 6
  2516                           ; Regs used in _SerialWrite: [wreg]
  2517                           ;SerialWrite@dataWrite stored from wreg
  2518                           	movwf	(SerialWrite@dataWrite)
  2519  0007  00F0               	line	499
  2520                           	
  2521                           l2561:	
  2522  0008                     ;source.c: 497: void SerialWrite(char dataWrite);source.c: 498: {;source.c: 499:     whi
                                 le(!TXIF);
  2523                           	goto	l322
  2524  0008  2809               	
  2525                           l323:	
  2526  0009                     	
  2527                           l322:	
  2528  0009                     	bcf	status, 5	;RP0=0, select bank0
  2529  0009  1283               	bcf	status, 6	;RP1=0, select bank0
  2530  000A  1303               	btfss	(100/8),(100)&7	;volatile
  2531  000B  1E0C               	goto	u861
  2532  000C  280E               	goto	u860
  2533  000D  280F               u861:
  2534  000E                     	goto	l322
  2535  000E  2809               u860:
  2536  000F                     	goto	l2563
  2537  000F  2810               	
  2538                           l324:	
  2539  0010                     	line	500
  2540                           	
  2541                           l2563:	
  2542  0010                     ;source.c: 500:     TXREG = dataWrite;
  2543                           	movf	(SerialWrite@dataWrite),w
  2544  0010  0870               	movwf	(25)	;volatile
  2545  0011  0099               	line	501
  2546                           	
  2547                           l325:	
  2548  0012                     	return
  2549  0012  0008               	opt stack 0
  2550                           GLOBAL	__end_of_SerialWrite
  2551                           	__end_of_SerialWrite:
  2552  0013                     	signat	_SerialWrite,4217
  2553                           	global	_SerialRead
  2554                           
  2555 ;; *************** function _SerialRead *****************
  2556 ;; Defined at:
  2557 ;;		line 532 in file "source.c"
  2558 ;; Parameters:    Size  Location     Type
  2559 ;;		None
  2560 ;; Auto vars:     Size  Location     Type
  2561 ;;		None
  2562 ;; Return value:  Size  Location     Type
  2563 ;;                  1    wreg      unsigned char 
  2564 ;; Registers used:
  2565 ;;		wreg
  2566 ;; Tracked objects:
  2567 ;;		On entry : 0/0
  2568 ;;		On exit  : 0/0
  2569 ;;		Unchanged: 0/0
  2570 ;; Data sizes:     COMMON   BANK0   BANK1   BANK3   BANK2
  2571 ;;      Params:         0       0       0       0       0
  2572 ;;      Locals:         0       0       0       0       0
  2573 ;;      Temps:          0       0       0       0       0
  2574 ;;      Totals:         0       0       0       0       0
  2575 ;;Total ram usage:        0 bytes
  2576 ;; Hardware stack levels used:    1
  2577 ;; This function calls:
  2578 ;;		Nothing
  2579 ;; This function is called by:
  2580 ;;		_setup
  2581 ;;		_loop
  2582 ;;		_SerialReadText
  2583 ;; This function uses a non-reentrant model
  2584 ;;
  2585                           psect	text6,local,class=CODE,delta=2,merge=1,group=0
  2586                           	line	532
  2587                           global __ptext6
  2588                           __ptext6:	;psect for function _SerialRead
  2589  0F76                     psect	text6
  2590                           	file	"source.c"
  2591                           	line	532
  2592                           	global	__size_of_SerialRead
  2593                           	__size_of_SerialRead	equ	__end_of_SerialRead-_SerialRead
  2594  000B                     	
  2595                           _SerialRead:	
  2596  0F76                     ;incstack = 0
  2597                           	opt	stack 6
  2598                           ; Regs used in _SerialRead: [wreg]
  2599                           	line	534
  2600                           	
  2601                           l2575:	
  2602  0F76                     ;source.c: 534:     while(!RCIF);
  2603                           	goto	l351
  2604  0F76  2F77               	
  2605                           l352:	
  2606  0F77                     	
  2607                           l351:	
  2608  0F77                     	bcf	status, 5	;RP0=0, select bank0
  2609  0F77  1283               	bcf	status, 6	;RP1=0, select bank0
  2610  0F78  1303               	btfss	(101/8),(101)&7	;volatile
  2611  0F79  1E8C               	goto	u901
  2612  0F7A  2F7C               	goto	u900
  2613  0F7B  2F7D               u901:
  2614  0F7C                     	goto	l351
  2615  0F7C  2F77               u900:
  2616  0F7D                     	goto	l2577
  2617  0F7D  2F7E               	
  2618                           l353:	
  2619  0F7E                     	line	535
  2620                           	
  2621                           l2577:	
  2622  0F7E                     ;source.c: 535:     return RCREG;
  2623                           	movf	(26),w	;volatile
  2624  0F7E  081A               	goto	l354
  2625  0F7F  2F80               	
  2626                           l2579:	
  2627  0F80                     	line	536
  2628                           	
  2629                           l354:	
  2630  0F80                     	return
  2631  0F80  0008               	opt stack 0
  2632                           GLOBAL	__end_of_SerialRead
  2633                           	__end_of_SerialRead:
  2634  0F81                     	signat	_SerialRead,89
  2635                           	global	_SerialAvailable
  2636                           
  2637 ;; *************** function _SerialAvailable *****************
  2638 ;; Defined at:
  2639 ;;		line 527 in file "source.c"
  2640 ;; Parameters:    Size  Location     Type
  2641 ;;		None
  2642 ;; Auto vars:     Size  Location     Type
  2643 ;;		None
  2644 ;; Return value:  Size  Location     Type
  2645 ;;                  1    wreg      unsigned char 
  2646 ;; Registers used:
  2647 ;;		status,2
  2648 ;; Tracked objects:
  2649 ;;		On entry : 0/0
  2650 ;;		On exit  : 0/0
  2651 ;;		Unchanged: 0/0
  2652 ;; Data sizes:     COMMON   BANK0   BANK1   BANK3   BANK2
  2653 ;;      Params:         0       0       0       0       0
  2654 ;;      Locals:         1       0       0       0       0
  2655 ;;      Temps:          0       0       0       0       0
  2656 ;;      Totals:         1       0       0       0       0
  2657 ;;Total ram usage:        1 bytes
  2658 ;; Hardware stack levels used:    1
  2659 ;; This function calls:
  2660 ;;		Nothing
  2661 ;; This function is called by:
  2662 ;;		_loop
  2663 ;; This function uses a non-reentrant model
  2664 ;;
  2665                           psect	text7,local,class=CODE,delta=2,merge=1,group=0
  2666                           	line	527
  2667                           global __ptext7
  2668                           __ptext7:	;psect for function _SerialAvailable
  2669  0F96                     psect	text7
  2670                           	file	"source.c"
  2671                           	line	527
  2672                           	global	__size_of_SerialAvailable
  2673                           	__size_of_SerialAvailable	equ	__end_of_SerialAvailable-_SerialAvailable
  2674  0017                     	
  2675                           _SerialAvailable:	
  2676  0F96                     ;incstack = 0
  2677                           	opt	stack 6
  2678                           ; Regs used in _SerialAvailable: [status,2]
  2679                           	line	529
  2680                           	
  2681                           l2565:	
  2682  0F96                     ;source.c: 529:     return RCIF || (TXIF && TRMT);
  2683                           	clrf	(_SerialAvailable$461)
  2684  0F96  01F0               	incf	(_SerialAvailable$461),f
  2685  0F97  0AF0               	bcf	status, 5	;RP0=0, select bank0
  2686  0F98  1283               	bcf	status, 6	;RP1=0, select bank0
  2687  0F99  1303               	btfsc	(101/8),(101)&7	;volatile
  2688  0F9A  1A8C               	goto	u871
  2689  0F9B  2F9D               	goto	u870
  2690  0F9C  2F9E               u871:
  2691  0F9D                     	goto	l348
  2692  0F9D  2FAC               u870:
  2693  0F9E                     	
  2694                           l2567:	
  2695  0F9E                     	btfss	(100/8),(100)&7	;volatile
  2696  0F9E  1E0C               	goto	u881
  2697  0F9F  2FA1               	goto	u880
  2698  0FA0  2FA2               u881:
  2699  0FA1                     	goto	l2571
  2700  0FA1  2FA9               u880:
  2701  0FA2                     	
  2702                           l2569:	
  2703  0FA2                     	bsf	status, 5	;RP0=1, select bank1
  2704  0FA2  1683               	bcf	status, 6	;RP1=0, select bank1
  2705  0FA3  1303               	btfsc	(1217/8)^080h,(1217)&7	;volatile
  2706  0FA4  1898               	goto	u891
  2707  0FA5  2FA7               	goto	u890
  2708  0FA6  2FA8               u891:
  2709  0FA7                     	goto	l348
  2710  0FA7  2FAC               u890:
  2711  0FA8                     	goto	l2571
  2712  0FA8  2FA9               	
  2713                           l2085:	
  2714  0FA9                     	
  2715                           l2571:	
  2716  0FA9                     	clrf	(_SerialAvailable$461)
  2717  0FA9  01F0               	goto	l348
  2718  0FAA  2FAC               	
  2719                           l347:	
  2720  0FAB                     	goto	l348
  2721  0FAB  2FAC               	
  2722                           l2573:	
  2723  0FAC                     	line	530
  2724                           ;	Return value of _SerialAvailable is never used
  2725                           	
  2726                           l348:	
  2727  0FAC                     	return
  2728  0FAC  0008               	opt stack 0
  2729                           GLOBAL	__end_of_SerialAvailable
  2730                           	__end_of_SerialAvailable:
  2731  0FAD                     	signat	_SerialAvailable,89
  2732                           	global	_ProcessCommand
  2733                           
  2734 ;; *************** function _ProcessCommand *****************
  2735 ;; Defined at:
  2736 ;;		line 114 in file "LIFPIC.c"
  2737 ;; Parameters:    Size  Location     Type
  2738 ;;  instruction     1    wreg     unsigned char 
  2739 ;;  port            1   10[COMMON] unsigned char 
  2740 ;;  MSBData         1   11[COMMON] unsigned char 
  2741 ;;  LSBData         1   12[COMMON] unsigned char 
  2742 ;; Auto vars:     Size  Location     Type
  2743 ;;  instruction     1    2[BANK0 ] unsigned char 
  2744 ;;  data            2    3[BANK0 ] unsigned int 
  2745 ;; Return value:  Size  Location     Type
  2746 ;;                  2   10[COMMON] unsigned int 
  2747 ;; Registers used:
  2748 ;;		wreg, fsr0l, fsr0h, status,2, status,0, btemp+1, pclath, cstack
  2749 ;; Tracked objects:
  2750 ;;		On entry : 0/0
  2751 ;;		On exit  : 0/0
  2752 ;;		Unchanged: 0/0
  2753 ;; Data sizes:     COMMON   BANK0   BANK1   BANK3   BANK2
  2754 ;;      Params:         3       0       0       0       0
  2755 ;;      Locals:         0       3       0       0       0
  2756 ;;      Temps:          0       2       0       0       0
  2757 ;;      Totals:         3       5       0       0       0
  2758 ;;Total ram usage:        8 bytes
  2759 ;; Hardware stack levels used:    1
  2760 ;; Hardware stack levels required when called:    1
  2761 ;; This function calls:
  2762 ;;		_analogRead
  2763 ;;		_analogWrite
  2764 ;;		_digitalRead
  2765 ;;		_digitalWrite
  2766 ;;		_pinMode
  2767 ;; This function is called by:
  2768 ;;		_loop
  2769 ;; This function uses a non-reentrant model
  2770 ;;
  2771                           psect	text8,local,class=CODE,delta=2,merge=1,group=0
  2772                           	file	"LIFPIC.c"
  2773                           	line	114
  2774                           global __ptext8
  2775                           __ptext8:	;psect for function _ProcessCommand
  2776  027F                     psect	text8
  2777                           	file	"LIFPIC.c"
  2778                           	line	114
  2779                           	global	__size_of_ProcessCommand
  2780                           	__size_of_ProcessCommand	equ	__end_of_ProcessCommand-_ProcessCommand
  2781  00C6                     	
  2782                           _ProcessCommand:	
  2783  027F                     ;incstack = 0
  2784                           	opt	stack 5
  2785                           ; Regs used in _ProcessCommand: [wreg-fsr0h+status,2+status,0+btemp+1+pclath+cstack]
  2786                           ;ProcessCommand@instruction stored from wreg
  2787                           	bcf	status, 5	;RP0=0, select bank0
  2788  027F  1283               	bcf	status, 6	;RP1=0, select bank0
  2789  0280  1303               	movwf	(ProcessCommand@instruction)
  2790  0281  00AE               	line	116
  2791                           	
  2792                           l2581:	
  2793  0282                     ;LIFPIC.c: 114: uint16_t ProcessCommand(uint8_t instruction, uint8_t port, uint8_t MSBDa
                                 ta, uint8_t LSBData);LIFPIC.c: 115: {;LIFPIC.c: 116:  uint16_t data = 0;
  2794                           	clrf	(ProcessCommand@data)
  2795  0282  01AF               	clrf	(ProcessCommand@data+1)
  2796  0283  01B0               	line	117
  2797                           ;LIFPIC.c: 117:   switch(instruction)
  2798                           	goto	l2643
  2799  0284  2B29               	line	119
  2800                           ;LIFPIC.c: 118:   {;LIFPIC.c: 119:    case 0x05:
  2801                           	
  2802                           l476:	
  2803  0285                     	line	120
  2804                           	
  2805                           l2583:	
  2806  0285                     ;LIFPIC.c: 120:     if(port > 24)
  2807                           	movlw	low(019h)
  2808  0285  3019               	subwf	(ProcessCommand@port),w
  2809  0286  027A               	skipc
  2810  0287  1C03               	goto	u911
  2811  0288  2A8A               	goto	u910
  2812  0289  2A8B               u911:
  2813  028A                     	goto	l2587
  2814  028A  2A90               u910:
  2815  028B                     	line	122
  2816                           	
  2817                           l2585:	
  2818  028B                     ;LIFPIC.c: 121:     {;LIFPIC.c: 122:      port = 24;
  2819                           	movlw	low(018h)
  2820  028B  3018               	movwf	(??_ProcessCommand+0)+0
  2821  028C  00AC               	movf	(??_ProcessCommand+0)+0,w
  2822  028D  082C               	movwf	(ProcessCommand@port)
  2823  028E  00FA               	goto	l2587
  2824  028F  2A90               	line	123
  2825                           ;LIFPIC.c: 123:     }
  2826                           	
  2827                           l477:	
  2828  0290                     	line	124
  2829                           	
  2830                           l2587:	
  2831  0290                     ;LIFPIC.c: 124:     pinMode(port,LSBData);
  2832                           	movf	(ProcessCommand@LSBData),w
  2833  0290  087C               	movwf	(??_ProcessCommand+0)+0
  2834  0291  00AC               	movf	(??_ProcessCommand+0)+0,w
  2835  0292  082C               	movwf	(pinMode@mode)
  2836  0293  00F0               	movf	(ProcessCommand@port),w
  2837  0294  087A               	fcall	_pinMode
  2838  0295  120A  118A  255E  120A  118A  	line	125
  2839                           	
  2840                           l2589:	
  2841  029A                     ;LIFPIC.c: 125:     return 1;
  2842                           	movlw	01h
  2843  029A  3001               	movwf	(?_ProcessCommand)
  2844  029B  00FA               	movlw	0
  2845  029C  3000               	movwf	((?_ProcessCommand))+1
  2846  029D  00FB               	goto	l478
  2847  029E  2B44               	
  2848                           l2591:	
  2849  029F                     	goto	l478
  2850  029F  2B44               	line	126
  2851                           	
  2852                           l2593:	
  2853  02A0                     ;LIFPIC.c: 126:    break;
  2854                           	goto	l478
  2855  02A0  2B44               	line	127
  2856                           ;LIFPIC.c: 127:    case 0x06:
  2857                           	
  2858                           l480:	
  2859  02A1                     	line	128
  2860                           	
  2861                           l2595:	
  2862  02A1                     ;LIFPIC.c: 128:     if(port > 24)
  2863                           	movlw	low(019h)
  2864  02A1  3019               	subwf	(ProcessCommand@port),w
  2865  02A2  027A               	skipc
  2866  02A3  1C03               	goto	u921
  2867  02A4  2AA6               	goto	u920
  2868  02A5  2AA7               u921:
  2869  02A6                     	goto	l2599
  2870  02A6  2AAE               u920:
  2871  02A7                     	line	130
  2872                           	
  2873                           l2597:	
  2874  02A7                     ;LIFPIC.c: 129:     {;LIFPIC.c: 130:      port = 24;
  2875                           	movlw	low(018h)
  2876  02A7  3018               	bcf	status, 5	;RP0=0, select bank0
  2877  02A8  1283               	bcf	status, 6	;RP1=0, select bank0
  2878  02A9  1303               	movwf	(??_ProcessCommand+0)+0
  2879  02AA  00AC               	movf	(??_ProcessCommand+0)+0,w
  2880  02AB  082C               	movwf	(ProcessCommand@port)
  2881  02AC  00FA               	goto	l2599
  2882  02AD  2AAE               	line	131
  2883                           ;LIFPIC.c: 131:     }
  2884                           	
  2885                           l481:	
  2886  02AE                     	line	132
  2887                           	
  2888                           l2599:	
  2889  02AE                     ;LIFPIC.c: 132:     digitalWrite(port,LSBData);
  2890                           	movf	(ProcessCommand@LSBData),w
  2891  02AE  087C               	bcf	status, 5	;RP0=0, select bank0
  2892  02AF  1283               	bcf	status, 6	;RP1=0, select bank0
  2893  02B0  1303               	movwf	(??_ProcessCommand+0)+0
  2894  02B1  00AC               	movf	(??_ProcessCommand+0)+0,w
  2895  02B2  082C               	movwf	(digitalWrite@value)
  2896  02B3  00F0               	movf	(ProcessCommand@port),w
  2897  02B4  087A               	fcall	_digitalWrite
  2898  02B5  120A  118A  2427  120A  118A  	line	133
  2899                           	
  2900                           l2601:	
  2901  02BA                     ;LIFPIC.c: 133:     return 1;
  2902                           	movlw	01h
  2903  02BA  3001               	movwf	(?_ProcessCommand)
  2904  02BB  00FA               	movlw	0
  2905  02BC  3000               	movwf	((?_ProcessCommand))+1
  2906  02BD  00FB               	goto	l478
  2907  02BE  2B44               	
  2908                           l2603:	
  2909  02BF                     	goto	l478
  2910  02BF  2B44               	line	134
  2911                           	
  2912                           l2605:	
  2913  02C0                     ;LIFPIC.c: 134:    break;
  2914                           	goto	l478
  2915  02C0  2B44               	line	135
  2916                           ;LIFPIC.c: 135:    case 0x07:
  2917                           	
  2918                           l482:	
  2919  02C1                     	line	136
  2920                           	
  2921                           l2607:	
  2922  02C1                     ;LIFPIC.c: 136:     if(port > 24)
  2923                           	movlw	low(019h)
  2924  02C1  3019               	subwf	(ProcessCommand@port),w
  2925  02C2  027A               	skipc
  2926  02C3  1C03               	goto	u931
  2927  02C4  2AC6               	goto	u930
  2928  02C5  2AC7               u931:
  2929  02C6                     	goto	l2611
  2930  02C6  2ACE               u930:
  2931  02C7                     	line	138
  2932                           	
  2933                           l2609:	
  2934  02C7                     ;LIFPIC.c: 137:     {;LIFPIC.c: 138:      port = 24;
  2935                           	movlw	low(018h)
  2936  02C7  3018               	bcf	status, 5	;RP0=0, select bank0
  2937  02C8  1283               	bcf	status, 6	;RP1=0, select bank0
  2938  02C9  1303               	movwf	(??_ProcessCommand+0)+0
  2939  02CA  00AC               	movf	(??_ProcessCommand+0)+0,w
  2940  02CB  082C               	movwf	(ProcessCommand@port)
  2941  02CC  00FA               	goto	l2611
  2942  02CD  2ACE               	line	139
  2943                           ;LIFPIC.c: 139:     }
  2944                           	
  2945                           l483:	
  2946  02CE                     	line	140
  2947                           	
  2948                           l2611:	
  2949  02CE                     ;LIFPIC.c: 140:     return digitalRead(port);
  2950                           	movf	(ProcessCommand@port),w
  2951  02CE  087A               	fcall	_digitalRead
  2952  02CF  120A  118A  269D  120A  118A  	bcf	status, 5	;RP0=0, select bank0
  2953  02D4  1283               	bcf	status, 6	;RP1=0, select bank0
  2954  02D5  1303               	movwf	(??_ProcessCommand+0)+0
  2955  02D6  00AC               	clrf	(??_ProcessCommand+0)+0+1
  2956  02D7  01AD               	movf	0+(??_ProcessCommand+0)+0,w
  2957  02D8  082C               	movwf	(?_ProcessCommand)
  2958  02D9  00FA               	movf	1+(??_ProcessCommand+0)+0,w
  2959  02DA  082D               	movwf	(?_ProcessCommand+1)
  2960  02DB  00FB               	goto	l478
  2961  02DC  2B44               	
  2962                           l2613:	
  2963  02DD                     	goto	l478
  2964  02DD  2B44               	line	141
  2965                           	
  2966                           l2615:	
  2967  02DE                     ;LIFPIC.c: 141:    break;
  2968                           	goto	l478
  2969  02DE  2B44               	line	142
  2970                           ;LIFPIC.c: 142:    case 0x08:
  2971                           	
  2972                           l484:	
  2973  02DF                     	line	143
  2974                           	
  2975                           l2617:	
  2976  02DF                     ;LIFPIC.c: 143:     return analogRead(port);
  2977                           	movf	(ProcessCommand@port),w
  2978  02DF  087A               	fcall	_analogRead
  2979  02E0  120A  118A  20AE  120A  118A  	movf	(1+(?_analogRead)),w
  2980  02E5  0871               	movwf	(?_ProcessCommand+1)
  2981  02E6  00FB               	movf	(0+(?_analogRead)),w
  2982  02E7  0870               	movwf	(?_ProcessCommand)
  2983  02E8  00FA               	goto	l478
  2984  02E9  2B44               	
  2985                           l2619:	
  2986  02EA                     	goto	l478
  2987  02EA  2B44               	line	144
  2988                           	
  2989                           l2621:	
  2990  02EB                     ;LIFPIC.c: 144:    break;
  2991                           	goto	l478
  2992  02EB  2B44               	line	145
  2993                           ;LIFPIC.c: 145:    case 0x09:
  2994                           	
  2995                           l485:	
  2996  02EC                     	line	146
  2997                           	
  2998                           l2623:	
  2999  02EC                     ;LIFPIC.c: 146:     if(port > 6)
  3000                           	movlw	low(07h)
  3001  02EC  3007               	subwf	(ProcessCommand@port),w
  3002  02ED  027A               	skipc
  3003  02EE  1C03               	goto	u941
  3004  02EF  2AF1               	goto	u940
  3005  02F0  2AF2               u941:
  3006  02F1                     	goto	l2627
  3007  02F1  2AF9               u940:
  3008  02F2                     	line	148
  3009                           	
  3010                           l2625:	
  3011  02F2                     ;LIFPIC.c: 147:     {;LIFPIC.c: 148:      port = 6;
  3012                           	movlw	low(06h)
  3013  02F2  3006               	bcf	status, 5	;RP0=0, select bank0
  3014  02F3  1283               	bcf	status, 6	;RP1=0, select bank0
  3015  02F4  1303               	movwf	(??_ProcessCommand+0)+0
  3016  02F5  00AC               	movf	(??_ProcessCommand+0)+0,w
  3017  02F6  082C               	movwf	(ProcessCommand@port)
  3018  02F7  00FA               	line	149
  3019                           ;LIFPIC.c: 149:     }
  3020                           	goto	l2631
  3021  02F8  2B07               	line	150
  3022                           ;LIFPIC.c: 150:     else if(port < 5)
  3023                           	
  3024                           l486:	
  3025  02F9                     	
  3026                           l2627:	
  3027  02F9                     	movlw	low(05h)
  3028  02F9  3005               	subwf	(ProcessCommand@port),w
  3029  02FA  027A               	skipnc
  3030  02FB  1803               	goto	u951
  3031  02FC  2AFE               	goto	u950
  3032  02FD  2AFF               u951:
  3033  02FE                     	goto	l2631
  3034  02FE  2B07               u950:
  3035  02FF                     	line	152
  3036                           	
  3037                           l2629:	
  3038  02FF                     ;LIFPIC.c: 151:     {;LIFPIC.c: 152:      port = 5;
  3039                           	movlw	low(05h)
  3040  02FF  3005               	bcf	status, 5	;RP0=0, select bank0
  3041  0300  1283               	bcf	status, 6	;RP1=0, select bank0
  3042  0301  1303               	movwf	(??_ProcessCommand+0)+0
  3043  0302  00AC               	movf	(??_ProcessCommand+0)+0,w
  3044  0303  082C               	movwf	(ProcessCommand@port)
  3045  0304  00FA               	goto	l2631
  3046  0305  2B07               	line	153
  3047                           ;LIFPIC.c: 153:     }
  3048                           	
  3049                           l488:	
  3050  0306                     	goto	l2631
  3051  0306  2B07               	
  3052                           l487:	
  3053  0307                     	line	154
  3054                           	
  3055                           l2631:	
  3056  0307                     ;LIFPIC.c: 154:     data = (MSBData << 8) + LSBData;
  3057                           	movf	(ProcessCommand@MSBData),w
  3058  0307  087B               	bcf	status, 5	;RP0=0, select bank0
  3059  0308  1283               	bcf	status, 6	;RP1=0, select bank0
  3060  0309  1303               	movwf	(??_ProcessCommand+0)+0
  3061  030A  00AC               	clrf	(??_ProcessCommand+0)+0+1
  3062  030B  01AD               	movf	(??_ProcessCommand+0)+0,w
  3063  030C  082C               	movwf	(??_ProcessCommand+0)+1
  3064  030D  00AD               	clrf	(??_ProcessCommand+0)+0
  3065  030E  01AC               	movf	(ProcessCommand@LSBData),w
  3066  030F  087C               	addwf	0+(??_ProcessCommand+0)+0,w
  3067  0310  072C               	movwf	(ProcessCommand@data)
  3068  0311  00AF               	movlw	0
  3069  0312  3000               	skipnc
  3070  0313  1803               	movlw	1
  3071  0314  3001               	addwf	1+(??_ProcessCommand+0)+0,w
  3072  0315  072D               	movwf	1+(ProcessCommand@data)
  3073  0316  00B0               	line	155
  3074                           	
  3075                           l2633:	
  3076  0317                     ;LIFPIC.c: 155:     analogWrite(port,data);
  3077                           	movf	(ProcessCommand@data+1),w
  3078  0317  0830               	movwf	(analogWrite@value+1)
  3079  0318  00F1               	movf	(ProcessCommand@data),w
  3080  0319  082F               	movwf	(analogWrite@value)
  3081  031A  00F0               	movf	(ProcessCommand@port),w
  3082  031B  087A               	fcall	_analogWrite
  3083  031C  120A  118A  2039  120A  118A  	line	156
  3084                           	
  3085                           l2635:	
  3086  0321                     ;LIFPIC.c: 156:     return 1;
  3087                           	movlw	01h
  3088  0321  3001               	movwf	(?_ProcessCommand)
  3089  0322  00FA               	movlw	0
  3090  0323  3000               	movwf	((?_ProcessCommand))+1
  3091  0324  00FB               	goto	l478
  3092  0325  2B44               	
  3093                           l2637:	
  3094  0326                     	goto	l478
  3095  0326  2B44               	line	157
  3096                           	
  3097                           l2639:	
  3098  0327                     ;LIFPIC.c: 157:    break;
  3099                           	goto	l478
  3100  0327  2B44               	line	158
  3101                           	
  3102                           l2641:	
  3103  0328                     ;LIFPIC.c: 158:   }
  3104                           	goto	l478
  3105  0328  2B44               	
  3106                           l475:	
  3107  0329                     	
  3108                           l2643:	
  3109  0329                     	bcf	status, 5	;RP0=0, select bank0
  3110  0329  1283               	bcf	status, 6	;RP1=0, select bank0
  3111  032A  1303               	movf	(ProcessCommand@instruction),w
  3112  032B  082E               	movwf	(??_ProcessCommand+0)+0
  3113  032C  00AC               	clrf	(??_ProcessCommand+0)+0+1
  3114  032D  01AD               	; Switch on 2 bytes has been partitioned into a top level switch of size 1, and 1 sub-s
                                 witches
  3115                           ; Switch size 1, requested type "space"
  3116                           ; Number of cases is 1, Range of values is 0 to 0
  3117                           ; switch strategies available:
  3118                           ; Name         Instructions Cycles
  3119                           ; simple_byte            4     3 (average)
  3120                           ; direct_byte           11     8 (fixed)
  3121                           ; jumptable            260     6 (fixed)
  3122                           ;	Chosen strategy is simple_byte
  3123                           
  3124                           	movf 1+(??_ProcessCommand+0)+0,w
  3125  032E  082D               	opt asmopt_push
  3126                           	opt asmopt_off
  3127                           	xorlw	0^0	; case 0
  3128  032F  3A00               	skipnz
  3129  0330  1903               	goto	l2923
  3130  0331  2B33               	goto	l478
  3131  0332  2B44               	opt asmopt_pop
  3132                           	
  3133                           l2923:	
  3134  0333                     ; Switch size 1, requested type "space"
  3135                           ; Number of cases is 5, Range of values is 5 to 9
  3136                           ; switch strategies available:
  3137                           ; Name         Instructions Cycles
  3138                           ; simple_byte           16     9 (average)
  3139                           ; direct_byte           26    11 (fixed)
  3140                           ; jumptable            263     9 (fixed)
  3141                           ;	Chosen strategy is simple_byte
  3142                           
  3143                           	movf 0+(??_ProcessCommand+0)+0,w
  3144  0333  082C               	opt asmopt_push
  3145                           	opt asmopt_off
  3146                           	xorlw	5^0	; case 5
  3147  0334  3A05               	skipnz
  3148  0335  1903               	goto	l2583
  3149  0336  2A85               	xorlw	6^5	; case 6
  3150  0337  3A03               	skipnz
  3151  0338  1903               	goto	l2595
  3152  0339  2AA1               	xorlw	7^6	; case 7
  3153  033A  3A01               	skipnz
  3154  033B  1903               	goto	l2607
  3155  033C  2AC1               	xorlw	8^7	; case 8
  3156  033D  3A0F               	skipnz
  3157  033E  1903               	goto	l2617
  3158  033F  2ADF               	xorlw	9^8	; case 9
  3159  0340  3A01               	skipnz
  3160  0341  1903               	goto	l2623
  3161  0342  2AEC               	goto	l478
  3162  0343  2B44               	opt asmopt_pop
  3163                           
  3164                           	
  3165                           l479:	
  3166  0344                     	line	159
  3167                           	
  3168                           l478:	
  3169  0344                     	return
  3170  0344  0008               	opt stack 0
  3171                           GLOBAL	__end_of_ProcessCommand
  3172                           	__end_of_ProcessCommand:
  3173  0345                     	signat	_ProcessCommand,16506
  3174                           	global	_pinMode
  3175                           
  3176 ;; *************** function _pinMode *****************
  3177 ;; Defined at:
  3178 ;;		line 63 in file "source.c"
  3179 ;; Parameters:    Size  Location     Type
  3180 ;;  pin             1    wreg     unsigned char 
  3181 ;;  mode            1    0[COMMON] unsigned char 
  3182 ;; Auto vars:     Size  Location     Type
  3183 ;;  pin             1    3[COMMON] unsigned char 
  3184 ;; Return value:  Size  Location     Type
  3185 ;;                  1    wreg      void 
  3186 ;; Registers used:
  3187 ;;		wreg, fsr0l, fsr0h, status,2, status,0
  3188 ;; Tracked objects:
  3189 ;;		On entry : 0/0
  3190 ;;		On exit  : 0/0
  3191 ;;		Unchanged: 0/0
  3192 ;; Data sizes:     COMMON   BANK0   BANK1   BANK3   BANK2
  3193 ;;      Params:         1       0       0       0       0
  3194 ;;      Locals:         1       0       0       0       0
  3195 ;;      Temps:          2       0       0       0       0
  3196 ;;      Totals:         4       0       0       0       0
  3197 ;;Total ram usage:        4 bytes
  3198 ;; Hardware stack levels used:    1
  3199 ;; This function calls:
  3200 ;;		Nothing
  3201 ;; This function is called by:
  3202 ;;		_setup
  3203 ;;		_ProcessCommand
  3204 ;; This function uses a non-reentrant model
  3205 ;;
  3206                           psect	text9,local,class=CODE,delta=2,merge=1,group=0
  3207                           	file	"source.c"
  3208                           	line	63
  3209                           global __ptext9
  3210                           __ptext9:	;psect for function _pinMode
  3211  055E                     psect	text9
  3212                           	file	"source.c"
  3213                           	line	63
  3214                           	global	__size_of_pinMode
  3215                           	__size_of_pinMode	equ	__end_of_pinMode-_pinMode
  3216  013F                     	
  3217                           _pinMode:	
  3218  055E                     ;incstack = 0
  3219                           	opt	stack 6
  3220                           ; Regs used in _pinMode: [wreg-fsr0h+status,2+status,0]
  3221                           ;pinMode@pin stored from wreg
  3222                           	movwf	(pinMode@pin)
  3223  055E  00F3               	line	65
  3224                           	
  3225                           l2087:	
  3226  055F                     ;source.c: 63: void pinMode(char pin, char mode);source.c: 64: {;source.c: 65:     switc
                                 h(pin)
  3227                           	goto	l2145
  3228  055F  2E41               	line	67
  3229                           ;source.c: 66:     {;source.c: 67:         case 0:
  3230                           	
  3231                           l155:	
  3232  0560                     	line	68
  3233                           	
  3234                           l2089:	
  3235  0560                     ;source.c: 68:             TRISCbits.TRISC7 = mode;
  3236                           	rrf	(pinMode@mode),w
  3237  0560  0C70               	bsf	status, 5	;RP0=1, select bank1
  3238  0561  1683               	bcf	status, 6	;RP1=0, select bank1
  3239  0562  1303               	skipc
  3240  0563  1C03               	bcf	(135)^080h,7	;volatile
  3241  0564  1387               	skipnc
  3242  0565  1803               	bsf	(135)^080h,7	;volatile
  3243  0566  1787               	line	69
  3244                           ;source.c: 69:             break;
  3245                           	goto	l183
  3246  0567  2E9C               	line	70
  3247                           ;source.c: 70:         case 1:
  3248                           	
  3249                           l157:	
  3250  0568                     	line	71
  3251                           	
  3252                           l2091:	
  3253  0568                     ;source.c: 71:             TRISCbits.TRISC6 = mode;
  3254                           	rrf	(pinMode@mode),w
  3255  0568  0C70               	bsf	status, 5	;RP0=1, select bank1
  3256  0569  1683               	bcf	status, 6	;RP1=0, select bank1
  3257  056A  1303               	skipc
  3258  056B  1C03               	bcf	(135)^080h,6	;volatile
  3259  056C  1307               	skipnc
  3260  056D  1803               	bsf	(135)^080h,6	;volatile
  3261  056E  1707               	line	72
  3262                           ;source.c: 72:             break;
  3263                           	goto	l183
  3264  056F  2E9C               	line	73
  3265                           ;source.c: 73:         case 2:
  3266                           	
  3267                           l158:	
  3268  0570                     	line	74
  3269                           	
  3270                           l2093:	
  3271  0570                     ;source.c: 74:             TRISDbits.TRISD2 = mode;
  3272                           	rrf	(pinMode@mode),w
  3273  0570  0C70               	bsf	status, 5	;RP0=1, select bank1
  3274  0571  1683               	bcf	status, 6	;RP1=0, select bank1
  3275  0572  1303               	skipc
  3276  0573  1C03               	bcf	(136)^080h,2	;volatile
  3277  0574  1108               	skipnc
  3278  0575  1803               	bsf	(136)^080h,2	;volatile
  3279  0576  1508               	line	75
  3280                           ;source.c: 75:             break;
  3281                           	goto	l183
  3282  0577  2E9C               	line	76
  3283                           ;source.c: 76:         case 3:
  3284                           	
  3285                           l159:	
  3286  0578                     	line	77
  3287                           	
  3288                           l2095:	
  3289  0578                     ;source.c: 77:             TRISDbits.TRISD3 = mode;
  3290                           	rrf	(pinMode@mode),w
  3291  0578  0C70               	bsf	status, 5	;RP0=1, select bank1
  3292  0579  1683               	bcf	status, 6	;RP1=0, select bank1
  3293  057A  1303               	skipc
  3294  057B  1C03               	bcf	(136)^080h,3	;volatile
  3295  057C  1188               	skipnc
  3296  057D  1803               	bsf	(136)^080h,3	;volatile
  3297  057E  1588               	line	78
  3298                           ;source.c: 78:             break;
  3299                           	goto	l183
  3300  057F  2E9C               	line	79
  3301                           ;source.c: 79:         case 4:
  3302                           	
  3303                           l160:	
  3304  0580                     	line	80
  3305                           	
  3306                           l2097:	
  3307  0580                     ;source.c: 80:             TRISCbits.TRISC4 = mode;
  3308                           	rrf	(pinMode@mode),w
  3309  0580  0C70               	bsf	status, 5	;RP0=1, select bank1
  3310  0581  1683               	bcf	status, 6	;RP1=0, select bank1
  3311  0582  1303               	skipc
  3312  0583  1C03               	bcf	(135)^080h,4	;volatile
  3313  0584  1207               	skipnc
  3314  0585  1803               	bsf	(135)^080h,4	;volatile
  3315  0586  1607               	line	81
  3316                           ;source.c: 81:             break;
  3317                           	goto	l183
  3318  0587  2E9C               	line	82
  3319                           ;source.c: 82:         case 5:
  3320                           	
  3321                           l161:	
  3322  0588                     	line	83
  3323                           	
  3324                           l2099:	
  3325  0588                     ;source.c: 83:             TRISCbits.TRISC5 = mode;
  3326                           	rrf	(pinMode@mode),w
  3327  0588  0C70               	bsf	status, 5	;RP0=1, select bank1
  3328  0589  1683               	bcf	status, 6	;RP1=0, select bank1
  3329  058A  1303               	skipc
  3330  058B  1C03               	bcf	(135)^080h,5	;volatile
  3331  058C  1287               	skipnc
  3332  058D  1803               	bsf	(135)^080h,5	;volatile
  3333  058E  1687               	line	84
  3334                           ;source.c: 84:             break;
  3335                           	goto	l183
  3336  058F  2E9C               	line	85
  3337                           ;source.c: 85:         case 6:
  3338                           	
  3339                           l162:	
  3340  0590                     	line	86
  3341                           	
  3342                           l2101:	
  3343  0590                     ;source.c: 86:             TRISDbits.TRISD4 = mode;
  3344                           	rrf	(pinMode@mode),w
  3345  0590  0C70               	bsf	status, 5	;RP0=1, select bank1
  3346  0591  1683               	bcf	status, 6	;RP1=0, select bank1
  3347  0592  1303               	skipc
  3348  0593  1C03               	bcf	(136)^080h,4	;volatile
  3349  0594  1208               	skipnc
  3350  0595  1803               	bsf	(136)^080h,4	;volatile
  3351  0596  1608               	line	87
  3352                           ;source.c: 87:             break;
  3353                           	goto	l183
  3354  0597  2E9C               	line	88
  3355                           ;source.c: 88:         case 7:
  3356                           	
  3357                           l163:	
  3358  0598                     	line	89
  3359                           	
  3360                           l2103:	
  3361  0598                     ;source.c: 89:             TRISDbits.TRISD5 = mode;
  3362                           	rrf	(pinMode@mode),w
  3363  0598  0C70               	bsf	status, 5	;RP0=1, select bank1
  3364  0599  1683               	bcf	status, 6	;RP1=0, select bank1
  3365  059A  1303               	skipc
  3366  059B  1C03               	bcf	(136)^080h,5	;volatile
  3367  059C  1288               	skipnc
  3368  059D  1803               	bsf	(136)^080h,5	;volatile
  3369  059E  1688               	line	90
  3370                           ;source.c: 90:             break;
  3371                           	goto	l183
  3372  059F  2E9C               	line	91
  3373                           ;source.c: 91:         case 8:
  3374                           	
  3375                           l164:	
  3376  05A0                     	line	92
  3377                           	
  3378                           l2105:	
  3379  05A0                     ;source.c: 92:             TRISDbits.TRISD6 = mode;
  3380                           	rrf	(pinMode@mode),w
  3381  05A0  0C70               	bsf	status, 5	;RP0=1, select bank1
  3382  05A1  1683               	bcf	status, 6	;RP1=0, select bank1
  3383  05A2  1303               	skipc
  3384  05A3  1C03               	bcf	(136)^080h,6	;volatile
  3385  05A4  1308               	skipnc
  3386  05A5  1803               	bsf	(136)^080h,6	;volatile
  3387  05A6  1708               	line	93
  3388                           ;source.c: 93:             break;
  3389                           	goto	l183
  3390  05A7  2E9C               	line	94
  3391                           ;source.c: 94:         case 9:
  3392                           	
  3393                           l165:	
  3394  05A8                     	line	95
  3395                           	
  3396                           l2107:	
  3397  05A8                     ;source.c: 95:             TRISDbits.TRISD7 = mode;
  3398                           	rrf	(pinMode@mode),w
  3399  05A8  0C70               	bsf	status, 5	;RP0=1, select bank1
  3400  05A9  1683               	bcf	status, 6	;RP1=0, select bank1
  3401  05AA  1303               	skipc
  3402  05AB  1C03               	bcf	(136)^080h,7	;volatile
  3403  05AC  1388               	skipnc
  3404  05AD  1803               	bsf	(136)^080h,7	;volatile
  3405  05AE  1788               	line	96
  3406                           ;source.c: 96:             break;
  3407                           	goto	l183
  3408  05AF  2E9C               	line	97
  3409                           ;source.c: 97:         case 10:
  3410                           	
  3411                           l166:	
  3412  05B0                     	line	98
  3413                           	
  3414                           l2109:	
  3415  05B0                     ;source.c: 98:             TRISBbits.TRISB0 = mode;
  3416                           	rrf	(pinMode@mode),w
  3417  05B0  0C70               	bsf	status, 5	;RP0=1, select bank1
  3418  05B1  1683               	bcf	status, 6	;RP1=0, select bank1
  3419  05B2  1303               	skipc
  3420  05B3  1C03               	bcf	(134)^080h,0	;volatile
  3421  05B4  1006               	skipnc
  3422  05B5  1803               	bsf	(134)^080h,0	;volatile
  3423  05B6  1406               	line	99
  3424                           ;source.c: 99:             break;
  3425                           	goto	l183
  3426  05B7  2E9C               	line	100
  3427                           ;source.c: 100:         case 11:
  3428                           	
  3429                           l167:	
  3430  05B8                     	line	101
  3431                           	
  3432                           l2111:	
  3433  05B8                     ;source.c: 101:             TRISBbits.TRISB1 = mode;
  3434                           	rrf	(pinMode@mode),w
  3435  05B8  0C70               	bsf	status, 5	;RP0=1, select bank1
  3436  05B9  1683               	bcf	status, 6	;RP1=0, select bank1
  3437  05BA  1303               	skipc
  3438  05BB  1C03               	bcf	(134)^080h,1	;volatile
  3439  05BC  1086               	skipnc
  3440  05BD  1803               	bsf	(134)^080h,1	;volatile
  3441  05BE  1486               	line	102
  3442                           ;source.c: 102:             break;
  3443                           	goto	l183
  3444  05BF  2E9C               	line	103
  3445                           ;source.c: 103:         case 12:
  3446                           	
  3447                           l168:	
  3448  05C0                     	line	104
  3449                           	
  3450                           l2113:	
  3451  05C0                     ;source.c: 104:             TRISBbits.TRISB2 = mode;
  3452                           	rrf	(pinMode@mode),w
  3453  05C0  0C70               	bsf	status, 5	;RP0=1, select bank1
  3454  05C1  1683               	bcf	status, 6	;RP1=0, select bank1
  3455  05C2  1303               	skipc
  3456  05C3  1C03               	bcf	(134)^080h,2	;volatile
  3457  05C4  1106               	skipnc
  3458  05C5  1803               	bsf	(134)^080h,2	;volatile
  3459  05C6  1506               	line	105
  3460                           ;source.c: 105:             break;
  3461                           	goto	l183
  3462  05C7  2E9C               	line	106
  3463                           ;source.c: 106:         case 13:
  3464                           	
  3465                           l169:	
  3466  05C8                     	line	107
  3467                           	
  3468                           l2115:	
  3469  05C8                     ;source.c: 107:             TRISBbits.TRISB4 = mode;
  3470                           	rrf	(pinMode@mode),w
  3471  05C8  0C70               	bsf	status, 5	;RP0=1, select bank1
  3472  05C9  1683               	bcf	status, 6	;RP1=0, select bank1
  3473  05CA  1303               	skipc
  3474  05CB  1C03               	bcf	(134)^080h,4	;volatile
  3475  05CC  1206               	skipnc
  3476  05CD  1803               	bsf	(134)^080h,4	;volatile
  3477  05CE  1606               	line	108
  3478                           ;source.c: 108:             break;
  3479                           	goto	l183
  3480  05CF  2E9C               	line	109
  3481                           ;source.c: 109:         case 14:
  3482                           	
  3483                           l170:	
  3484  05D0                     	line	110
  3485                           	
  3486                           l2117:	
  3487  05D0                     ;source.c: 110:             TRISBbits.TRISB3 = mode;
  3488                           	rrf	(pinMode@mode),w
  3489  05D0  0C70               	bsf	status, 5	;RP0=1, select bank1
  3490  05D1  1683               	bcf	status, 6	;RP1=0, select bank1
  3491  05D2  1303               	skipc
  3492  05D3  1C03               	bcf	(134)^080h,3	;volatile
  3493  05D4  1186               	skipnc
  3494  05D5  1803               	bsf	(134)^080h,3	;volatile
  3495  05D6  1586               	line	111
  3496                           ;source.c: 111:             break;
  3497                           	goto	l183
  3498  05D7  2E9C               	line	112
  3499                           ;source.c: 112:         case 15:
  3500                           	
  3501                           l171:	
  3502  05D8                     	line	113
  3503                           	
  3504                           l2119:	
  3505  05D8                     ;source.c: 113:             TRISBbits.TRISB5 = mode;
  3506                           	rrf	(pinMode@mode),w
  3507  05D8  0C70               	bsf	status, 5	;RP0=1, select bank1
  3508  05D9  1683               	bcf	status, 6	;RP1=0, select bank1
  3509  05DA  1303               	skipc
  3510  05DB  1C03               	bcf	(134)^080h,5	;volatile
  3511  05DC  1286               	skipnc
  3512  05DD  1803               	bsf	(134)^080h,5	;volatile
  3513  05DE  1686               	line	114
  3514                           ;source.c: 114:             break;
  3515                           	goto	l183
  3516  05DF  2E9C               	line	115
  3517                           ;source.c: 115:         case 16:
  3518                           	
  3519                           l172:	
  3520  05E0                     	line	116
  3521                           	
  3522                           l2121:	
  3523  05E0                     ;source.c: 116:             TRISBbits.TRISB6 = mode;
  3524                           	rrf	(pinMode@mode),w
  3525  05E0  0C70               	bsf	status, 5	;RP0=1, select bank1
  3526  05E1  1683               	bcf	status, 6	;RP1=0, select bank1
  3527  05E2  1303               	skipc
  3528  05E3  1C03               	bcf	(134)^080h,6	;volatile
  3529  05E4  1306               	skipnc
  3530  05E5  1803               	bsf	(134)^080h,6	;volatile
  3531  05E6  1706               	line	117
  3532                           ;source.c: 117:             break;
  3533                           	goto	l183
  3534  05E7  2E9C               	line	118
  3535                           ;source.c: 118:         case 17:
  3536                           	
  3537                           l173:	
  3538  05E8                     	line	119
  3539                           	
  3540                           l2123:	
  3541  05E8                     ;source.c: 119:             TRISCbits.TRISC3 = mode;
  3542                           	rrf	(pinMode@mode),w
  3543  05E8  0C70               	bsf	status, 5	;RP0=1, select bank1
  3544  05E9  1683               	bcf	status, 6	;RP1=0, select bank1
  3545  05EA  1303               	skipc
  3546  05EB  1C03               	bcf	(135)^080h,3	;volatile
  3547  05EC  1187               	skipnc
  3548  05ED  1803               	bsf	(135)^080h,3	;volatile
  3549  05EE  1587               	line	120
  3550                           ;source.c: 120:             break;
  3551                           	goto	l183
  3552  05EF  2E9C               	line	121
  3553                           ;source.c: 121:         case 18:
  3554                           	
  3555                           l174:	
  3556  05F0                     	line	122
  3557                           	
  3558                           l2125:	
  3559  05F0                     ;source.c: 122:             TRISBbits.TRISB7 = mode;
  3560                           	rrf	(pinMode@mode),w
  3561  05F0  0C70               	bsf	status, 5	;RP0=1, select bank1
  3562  05F1  1683               	bcf	status, 6	;RP1=0, select bank1
  3563  05F2  1303               	skipc
  3564  05F3  1C03               	bcf	(134)^080h,7	;volatile
  3565  05F4  1386               	skipnc
  3566  05F5  1803               	bsf	(134)^080h,7	;volatile
  3567  05F6  1786               	line	123
  3568                           ;source.c: 123:             break;
  3569                           	goto	l183
  3570  05F7  2E9C               	line	124
  3571                           ;source.c: 124:         case 19:
  3572                           	
  3573                           l175:	
  3574  05F8                     	line	125
  3575                           	
  3576                           l2127:	
  3577  05F8                     ;source.c: 125:             TRISAbits.TRISA4 = mode;
  3578                           	rrf	(pinMode@mode),w
  3579  05F8  0C70               	bsf	status, 5	;RP0=1, select bank1
  3580  05F9  1683               	bcf	status, 6	;RP1=0, select bank1
  3581  05FA  1303               	skipc
  3582  05FB  1C03               	bcf	(133)^080h,4	;volatile
  3583  05FC  1205               	skipnc
  3584  05FD  1803               	bsf	(133)^080h,4	;volatile
  3585  05FE  1605               	line	126
  3586                           ;source.c: 126:             break;
  3587                           	goto	l183
  3588  05FF  2E9C               	line	127
  3589                           ;source.c: 127:         case 20:
  3590                           	
  3591                           l176:	
  3592  0600                     	line	128
  3593                           ;source.c: 128:             ADCON1bits.PCFG3 = 0;
  3594                           	bsf	status, 5	;RP0=1, select bank1
  3595  0600  1683               	bcf	status, 6	;RP1=0, select bank1
  3596  0601  1303               	bcf	(159)^080h,3	;volatile
  3597  0602  119F               	line	129
  3598                           ;source.c: 129:             ADCON1bits.PCFG2 = 1;
  3599                           	bsf	(159)^080h,2	;volatile
  3600  0603  151F               	line	130
  3601                           ;source.c: 130:             ADCON1bits.PCFG1 = 0;
  3602                           	bcf	(159)^080h,1	;volatile
  3603  0604  109F               	line	131
  3604                           ;source.c: 131:             ADCON1bits.PCFG0 = 0;
  3605                           	bcf	(159)^080h,0	;volatile
  3606  0605  101F               	line	132
  3607                           	
  3608                           l2129:	
  3609  0606                     ;source.c: 132:             TRISAbits.TRISA5 = mode;
  3610                           	rrf	(pinMode@mode),w
  3611  0606  0C70               	skipc
  3612  0607  1C03               	bcf	(133)^080h,5	;volatile
  3613  0608  1285               	skipnc
  3614  0609  1803               	bsf	(133)^080h,5	;volatile
  3615  060A  1685               	line	135
  3616                           ;source.c: 135:             break;
  3617                           	goto	l183
  3618  060B  2E9C               	line	136
  3619                           ;source.c: 136:         case 21:
  3620                           	
  3621                           l177:	
  3622  060C                     	line	137
  3623                           	
  3624                           l2131:	
  3625  060C                     ;source.c: 137:             TRISCbits.TRISC0 = mode;
  3626                           	rrf	(pinMode@mode),w
  3627  060C  0C70               	bsf	status, 5	;RP0=1, select bank1
  3628  060D  1683               	bcf	status, 6	;RP1=0, select bank1
  3629  060E  1303               	skipc
  3630  060F  1C03               	bcf	(135)^080h,0	;volatile
  3631  0610  1007               	skipnc
  3632  0611  1803               	bsf	(135)^080h,0	;volatile
  3633  0612  1407               	line	138
  3634                           ;source.c: 138:             break;
  3635                           	goto	l183
  3636  0613  2E9C               	line	139
  3637                           ;source.c: 139:         case 22:
  3638                           	
  3639                           l178:	
  3640  0614                     	line	140
  3641                           	
  3642                           l2133:	
  3643  0614                     ;source.c: 140:             TRISCbits.TRISC1 = mode;
  3644                           	rrf	(pinMode@mode),w
  3645  0614  0C70               	bsf	status, 5	;RP0=1, select bank1
  3646  0615  1683               	bcf	status, 6	;RP1=0, select bank1
  3647  0616  1303               	skipc
  3648  0617  1C03               	bcf	(135)^080h,1	;volatile
  3649  0618  1087               	skipnc
  3650  0619  1803               	bsf	(135)^080h,1	;volatile
  3651  061A  1487               	line	141
  3652                           ;source.c: 141:             break;
  3653                           	goto	l183
  3654  061B  2E9C               	line	142
  3655                           ;source.c: 142:         case 23:
  3656                           	
  3657                           l179:	
  3658  061C                     	line	143
  3659                           	
  3660                           l2135:	
  3661  061C                     ;source.c: 143:             TRISCbits.TRISC2 = mode;
  3662                           	rrf	(pinMode@mode),w
  3663  061C  0C70               	bsf	status, 5	;RP0=1, select bank1
  3664  061D  1683               	bcf	status, 6	;RP1=0, select bank1
  3665  061E  1303               	skipc
  3666  061F  1C03               	bcf	(135)^080h,2	;volatile
  3667  0620  1107               	skipnc
  3668  0621  1803               	bsf	(135)^080h,2	;volatile
  3669  0622  1507               	line	144
  3670                           ;source.c: 144:             break;
  3671                           	goto	l183
  3672  0623  2E9C               	line	145
  3673                           ;source.c: 145:         case 24:
  3674                           	
  3675                           l180:	
  3676  0624                     	line	146
  3677                           	
  3678                           l2137:	
  3679  0624                     ;source.c: 146:             TRISDbits.TRISD1 = mode;
  3680                           	rrf	(pinMode@mode),w
  3681  0624  0C70               	bsf	status, 5	;RP0=1, select bank1
  3682  0625  1683               	bcf	status, 6	;RP1=0, select bank1
  3683  0626  1303               	skipc
  3684  0627  1C03               	bcf	(136)^080h,1	;volatile
  3685  0628  1088               	skipnc
  3686  0629  1803               	bsf	(136)^080h,1	;volatile
  3687  062A  1488               	line	147
  3688                           ;source.c: 147:             break;
  3689                           	goto	l183
  3690  062B  2E9C               	line	148
  3691                           ;source.c: 148:         case 25:
  3692                           	
  3693                           l181:	
  3694  062C                     	line	149
  3695                           	
  3696                           l2139:	
  3697  062C                     ;source.c: 149:             TRISDbits.TRISD0 = mode;
  3698                           	rrf	(pinMode@mode),w
  3699  062C  0C70               	bsf	status, 5	;RP0=1, select bank1
  3700  062D  1683               	bcf	status, 6	;RP1=0, select bank1
  3701  062E  1303               	skipc
  3702  062F  1C03               	bcf	(136)^080h,0	;volatile
  3703  0630  1008               	skipnc
  3704  0631  1803               	bsf	(136)^080h,0	;volatile
  3705  0632  1408               	line	150
  3706                           ;source.c: 150:             break;
  3707                           	goto	l183
  3708  0633  2E9C               	line	151
  3709                           ;source.c: 151:         case 26:
  3710                           	
  3711                           l182:	
  3712  0634                     	line	152
  3713                           ;source.c: 152:             ADCON1bits.PCFG3 = 0;
  3714                           	bsf	status, 5	;RP0=1, select bank1
  3715  0634  1683               	bcf	status, 6	;RP1=0, select bank1
  3716  0635  1303               	bcf	(159)^080h,3	;volatile
  3717  0636  119F               	line	153
  3718                           ;source.c: 153:             ADCON1bits.PCFG2 = 1;
  3719                           	bsf	(159)^080h,2	;volatile
  3720  0637  151F               	line	154
  3721                           ;source.c: 154:             ADCON1bits.PCFG1 = 0;
  3722                           	bcf	(159)^080h,1	;volatile
  3723  0638  109F               	line	155
  3724                           ;source.c: 155:             ADCON1bits.PCFG0 = 0;
  3725                           	bcf	(159)^080h,0	;volatile
  3726  0639  101F               	line	156
  3727                           	
  3728                           l2141:	
  3729  063A                     ;source.c: 156:             TRISAbits.TRISA2 = mode;
  3730                           	rrf	(pinMode@mode),w
  3731  063A  0C70               	skipc
  3732  063B  1C03               	bcf	(133)^080h,2	;volatile
  3733  063C  1105               	skipnc
  3734  063D  1803               	bsf	(133)^080h,2	;volatile
  3735  063E  1505               	line	159
  3736                           ;source.c: 159:             break;
  3737                           	goto	l183
  3738  063F  2E9C               	line	160
  3739                           	
  3740                           l2143:	
  3741  0640                     ;source.c: 160:     }
  3742                           	goto	l183
  3743  0640  2E9C               	
  3744                           l154:	
  3745  0641                     	
  3746                           l2145:	
  3747  0641                     	movf	(pinMode@pin),w
  3748  0641  0873               	movwf	(??_pinMode+0)+0
  3749  0642  00F1               	clrf	(??_pinMode+0)+0+1
  3750  0643  01F2               	; Switch on 2 bytes has been partitioned into a top level switch of size 1, and 1 sub-s
                                 witches
  3751                           ; Switch size 1, requested type "space"
  3752                           ; Number of cases is 1, Range of values is 0 to 0
  3753                           ; switch strategies available:
  3754                           ; Name         Instructions Cycles
  3755                           ; simple_byte            4     3 (average)
  3756                           ; direct_byte           11     8 (fixed)
  3757                           ; jumptable            260     6 (fixed)
  3758                           ;	Chosen strategy is simple_byte
  3759                           
  3760                           	movf 1+(??_pinMode+0)+0,w
  3761  0644  0872               	opt asmopt_push
  3762                           	opt asmopt_off
  3763                           	xorlw	0^0	; case 0
  3764  0645  3A00               	skipnz
  3765  0646  1903               	goto	l2925
  3766  0647  2E49               	goto	l183
  3767  0648  2E9C               	opt asmopt_pop
  3768                           	
  3769                           l2925:	
  3770  0649                     ; Switch size 1, requested type "space"
  3771                           ; Number of cases is 27, Range of values is 0 to 26
  3772                           ; switch strategies available:
  3773                           ; Name         Instructions Cycles
  3774                           ; simple_byte           82    42 (average)
  3775                           ; direct_byte           89     8 (fixed)
  3776                           ; jumptable            260     6 (fixed)
  3777                           ;	Chosen strategy is simple_byte
  3778                           
  3779                           	movf 0+(??_pinMode+0)+0,w
  3780  0649  0871               	opt asmopt_push
  3781                           	opt asmopt_off
  3782                           	xorlw	0^0	; case 0
  3783  064A  3A00               	skipnz
  3784  064B  1903               	goto	l2089
  3785  064C  2D60               	xorlw	1^0	; case 1
  3786  064D  3A01               	skipnz
  3787  064E  1903               	goto	l2091
  3788  064F  2D68               	xorlw	2^1	; case 2
  3789  0650  3A03               	skipnz
  3790  0651  1903               	goto	l2093
  3791  0652  2D70               	xorlw	3^2	; case 3
  3792  0653  3A01               	skipnz
  3793  0654  1903               	goto	l2095
  3794  0655  2D78               	xorlw	4^3	; case 4
  3795  0656  3A07               	skipnz
  3796  0657  1903               	goto	l2097
  3797  0658  2D80               	xorlw	5^4	; case 5
  3798  0659  3A01               	skipnz
  3799  065A  1903               	goto	l2099
  3800  065B  2D88               	xorlw	6^5	; case 6
  3801  065C  3A03               	skipnz
  3802  065D  1903               	goto	l2101
  3803  065E  2D90               	xorlw	7^6	; case 7
  3804  065F  3A01               	skipnz
  3805  0660  1903               	goto	l2103
  3806  0661  2D98               	xorlw	8^7	; case 8
  3807  0662  3A0F               	skipnz
  3808  0663  1903               	goto	l2105
  3809  0664  2DA0               	xorlw	9^8	; case 9
  3810  0665  3A01               	skipnz
  3811  0666  1903               	goto	l2107
  3812  0667  2DA8               	xorlw	10^9	; case 10
  3813  0668  3A03               	skipnz
  3814  0669  1903               	goto	l2109
  3815  066A  2DB0               	xorlw	11^10	; case 11
  3816  066B  3A01               	skipnz
  3817  066C  1903               	goto	l2111
  3818  066D  2DB8               	xorlw	12^11	; case 12
  3819  066E  3A07               	skipnz
  3820  066F  1903               	goto	l2113
  3821  0670  2DC0               	xorlw	13^12	; case 13
  3822  0671  3A01               	skipnz
  3823  0672  1903               	goto	l2115
  3824  0673  2DC8               	xorlw	14^13	; case 14
  3825  0674  3A03               	skipnz
  3826  0675  1903               	goto	l2117
  3827  0676  2DD0               	xorlw	15^14	; case 15
  3828  0677  3A01               	skipnz
  3829  0678  1903               	goto	l2119
  3830  0679  2DD8               	xorlw	16^15	; case 16
  3831  067A  3A1F               	skipnz
  3832  067B  1903               	goto	l2121
  3833  067C  2DE0               	xorlw	17^16	; case 17
  3834  067D  3A01               	skipnz
  3835  067E  1903               	goto	l2123
  3836  067F  2DE8               	xorlw	18^17	; case 18
  3837  0680  3A03               	skipnz
  3838  0681  1903               	goto	l2125
  3839  0682  2DF0               	xorlw	19^18	; case 19
  3840  0683  3A01               	skipnz
  3841  0684  1903               	goto	l2127
  3842  0685  2DF8               	xorlw	20^19	; case 20
  3843  0686  3A07               	skipnz
  3844  0687  1903               	goto	l176
  3845  0688  2E00               	xorlw	21^20	; case 21
  3846  0689  3A01               	skipnz
  3847  068A  1903               	goto	l2131
  3848  068B  2E0C               	xorlw	22^21	; case 22
  3849  068C  3A03               	skipnz
  3850  068D  1903               	goto	l2133
  3851  068E  2E14               	xorlw	23^22	; case 23
  3852  068F  3A01               	skipnz
  3853  0690  1903               	goto	l2135
  3854  0691  2E1C               	xorlw	24^23	; case 24
  3855  0692  3A0F               	skipnz
  3856  0693  1903               	goto	l2137
  3857  0694  2E24               	xorlw	25^24	; case 25
  3858  0695  3A01               	skipnz
  3859  0696  1903               	goto	l2139
  3860  0697  2E2C               	xorlw	26^25	; case 26
  3861  0698  3A03               	skipnz
  3862  0699  1903               	goto	l182
  3863  069A  2E34               	goto	l183
  3864  069B  2E9C               	opt asmopt_pop
  3865                           
  3866                           	
  3867                           l156:	
  3868  069C                     	line	161
  3869                           	
  3870                           l183:	
  3871  069C                     	return
  3872  069C  0008               	opt stack 0
  3873                           GLOBAL	__end_of_pinMode
  3874                           	__end_of_pinMode:
  3875  069D                     	signat	_pinMode,8313
  3876                           	global	_digitalWrite
  3877                           
  3878 ;; *************** function _digitalWrite *****************
  3879 ;; Defined at:
  3880 ;;		line 162 in file "source.c"
  3881 ;; Parameters:    Size  Location     Type
  3882 ;;  pin             1    wreg     unsigned char 
  3883 ;;  value           1    0[COMMON] unsigned char 
  3884 ;; Auto vars:     Size  Location     Type
  3885 ;;  pin             1    3[COMMON] unsigned char 
  3886 ;; Return value:  Size  Location     Type
  3887 ;;                  1    wreg      void 
  3888 ;; Registers used:
  3889 ;;		wreg, fsr0l, fsr0h, status,2, status,0
  3890 ;; Tracked objects:
  3891 ;;		On entry : 0/0
  3892 ;;		On exit  : 0/0
  3893 ;;		Unchanged: 0/0
  3894 ;; Data sizes:     COMMON   BANK0   BANK1   BANK3   BANK2
  3895 ;;      Params:         1       0       0       0       0
  3896 ;;      Locals:         1       0       0       0       0
  3897 ;;      Temps:          2       0       0       0       0
  3898 ;;      Totals:         4       0       0       0       0
  3899 ;;Total ram usage:        4 bytes
  3900 ;; Hardware stack levels used:    1
  3901 ;; This function calls:
  3902 ;;		Nothing
  3903 ;; This function is called by:
  3904 ;;		_setup
  3905 ;;		_ProcessCommand
  3906 ;; This function uses a non-reentrant model
  3907 ;;
  3908                           psect	text10,local,class=CODE,delta=2,merge=1,group=0
  3909                           	line	162
  3910                           global __ptext10
  3911                           __ptext10:	;psect for function _digitalWrite
  3912  0427                     psect	text10
  3913                           	file	"source.c"
  3914                           	line	162
  3915                           	global	__size_of_digitalWrite
  3916                           	__size_of_digitalWrite	equ	__end_of_digitalWrite-_digitalWrite
  3917  0137                     	
  3918                           _digitalWrite:	
  3919  0427                     ;incstack = 0
  3920                           	opt	stack 6
  3921                           ; Regs used in _digitalWrite: [wreg-fsr0h+status,2+status,0]
  3922                           ;digitalWrite@pin stored from wreg
  3923                           	movwf	(digitalWrite@pin)
  3924  0427  00F3               	line	164
  3925                           	
  3926                           l2151:	
  3927  0428                     ;source.c: 162: void digitalWrite(char pin, char value);source.c: 163: {;source.c: 164: 
                                     switch(pin)
  3928                           	goto	l2209
  3929  0428  2D02               	line	166
  3930                           ;source.c: 165:     {;source.c: 166:         case 0:
  3931                           	
  3932                           l187:	
  3933  0429                     	line	167
  3934                           	
  3935                           l2153:	
  3936  0429                     ;source.c: 167:             PORTCbits.RC7 = value;
  3937                           	rrf	(digitalWrite@value),w
  3938  0429  0C70               	bcf	status, 5	;RP0=0, select bank0
  3939  042A  1283               	bcf	status, 6	;RP1=0, select bank0
  3940  042B  1303               	skipc
  3941  042C  1C03               	bcf	(7),7	;volatile
  3942  042D  1387               	skipnc
  3943  042E  1803               	bsf	(7),7	;volatile
  3944  042F  1787               	line	168
  3945                           ;source.c: 168:             break;
  3946                           	goto	l215
  3947  0430  2D5D               	line	169
  3948                           ;source.c: 169:         case 1:
  3949                           	
  3950                           l189:	
  3951  0431                     	line	170
  3952                           	
  3953                           l2155:	
  3954  0431                     ;source.c: 170:             PORTCbits.RC6 = value;
  3955                           	rrf	(digitalWrite@value),w
  3956  0431  0C70               	bcf	status, 5	;RP0=0, select bank0
  3957  0432  1283               	bcf	status, 6	;RP1=0, select bank0
  3958  0433  1303               	skipc
  3959  0434  1C03               	bcf	(7),6	;volatile
  3960  0435  1307               	skipnc
  3961  0436  1803               	bsf	(7),6	;volatile
  3962  0437  1707               	line	171
  3963                           ;source.c: 171:             break;
  3964                           	goto	l215
  3965  0438  2D5D               	line	172
  3966                           ;source.c: 172:         case 2:
  3967                           	
  3968                           l190:	
  3969  0439                     	line	173
  3970                           	
  3971                           l2157:	
  3972  0439                     ;source.c: 173:             PORTDbits.RD2 = value;
  3973                           	rrf	(digitalWrite@value),w
  3974  0439  0C70               	bcf	status, 5	;RP0=0, select bank0
  3975  043A  1283               	bcf	status, 6	;RP1=0, select bank0
  3976  043B  1303               	skipc
  3977  043C  1C03               	bcf	(8),2	;volatile
  3978  043D  1108               	skipnc
  3979  043E  1803               	bsf	(8),2	;volatile
  3980  043F  1508               	line	174
  3981                           ;source.c: 174:             break;
  3982                           	goto	l215
  3983  0440  2D5D               	line	175
  3984                           ;source.c: 175:         case 3:
  3985                           	
  3986                           l191:	
  3987  0441                     	line	176
  3988                           	
  3989                           l2159:	
  3990  0441                     ;source.c: 176:             PORTDbits.RD3 = value;
  3991                           	rrf	(digitalWrite@value),w
  3992  0441  0C70               	bcf	status, 5	;RP0=0, select bank0
  3993  0442  1283               	bcf	status, 6	;RP1=0, select bank0
  3994  0443  1303               	skipc
  3995  0444  1C03               	bcf	(8),3	;volatile
  3996  0445  1188               	skipnc
  3997  0446  1803               	bsf	(8),3	;volatile
  3998  0447  1588               	line	177
  3999                           ;source.c: 177:             break;
  4000                           	goto	l215
  4001  0448  2D5D               	line	178
  4002                           ;source.c: 178:         case 4:
  4003                           	
  4004                           l192:	
  4005  0449                     	line	179
  4006                           	
  4007                           l2161:	
  4008  0449                     ;source.c: 179:             PORTCbits.RC4 = value;
  4009                           	rrf	(digitalWrite@value),w
  4010  0449  0C70               	bcf	status, 5	;RP0=0, select bank0
  4011  044A  1283               	bcf	status, 6	;RP1=0, select bank0
  4012  044B  1303               	skipc
  4013  044C  1C03               	bcf	(7),4	;volatile
  4014  044D  1207               	skipnc
  4015  044E  1803               	bsf	(7),4	;volatile
  4016  044F  1607               	line	180
  4017                           ;source.c: 180:             break;
  4018                           	goto	l215
  4019  0450  2D5D               	line	181
  4020                           ;source.c: 181:         case 5:
  4021                           	
  4022                           l193:	
  4023  0451                     	line	182
  4024                           	
  4025                           l2163:	
  4026  0451                     ;source.c: 182:             PORTCbits.RC5 = value;
  4027                           	rrf	(digitalWrite@value),w
  4028  0451  0C70               	bcf	status, 5	;RP0=0, select bank0
  4029  0452  1283               	bcf	status, 6	;RP1=0, select bank0
  4030  0453  1303               	skipc
  4031  0454  1C03               	bcf	(7),5	;volatile
  4032  0455  1287               	skipnc
  4033  0456  1803               	bsf	(7),5	;volatile
  4034  0457  1687               	line	183
  4035                           ;source.c: 183:             break;
  4036                           	goto	l215
  4037  0458  2D5D               	line	184
  4038                           ;source.c: 184:         case 6:
  4039                           	
  4040                           l194:	
  4041  0459                     	line	185
  4042                           	
  4043                           l2165:	
  4044  0459                     ;source.c: 185:             PORTDbits.RD4 = value;
  4045                           	rrf	(digitalWrite@value),w
  4046  0459  0C70               	bcf	status, 5	;RP0=0, select bank0
  4047  045A  1283               	bcf	status, 6	;RP1=0, select bank0
  4048  045B  1303               	skipc
  4049  045C  1C03               	bcf	(8),4	;volatile
  4050  045D  1208               	skipnc
  4051  045E  1803               	bsf	(8),4	;volatile
  4052  045F  1608               	line	186
  4053                           ;source.c: 186:             break;
  4054                           	goto	l215
  4055  0460  2D5D               	line	187
  4056                           ;source.c: 187:         case 7:
  4057                           	
  4058                           l195:	
  4059  0461                     	line	188
  4060                           	
  4061                           l2167:	
  4062  0461                     ;source.c: 188:             PORTDbits.RD5 = value;
  4063                           	rrf	(digitalWrite@value),w
  4064  0461  0C70               	bcf	status, 5	;RP0=0, select bank0
  4065  0462  1283               	bcf	status, 6	;RP1=0, select bank0
  4066  0463  1303               	skipc
  4067  0464  1C03               	bcf	(8),5	;volatile
  4068  0465  1288               	skipnc
  4069  0466  1803               	bsf	(8),5	;volatile
  4070  0467  1688               	line	189
  4071                           ;source.c: 189:             break;
  4072                           	goto	l215
  4073  0468  2D5D               	line	190
  4074                           ;source.c: 190:         case 8:
  4075                           	
  4076                           l196:	
  4077  0469                     	line	191
  4078                           	
  4079                           l2169:	
  4080  0469                     ;source.c: 191:             PORTDbits.RD6 = value;
  4081                           	rrf	(digitalWrite@value),w
  4082  0469  0C70               	bcf	status, 5	;RP0=0, select bank0
  4083  046A  1283               	bcf	status, 6	;RP1=0, select bank0
  4084  046B  1303               	skipc
  4085  046C  1C03               	bcf	(8),6	;volatile
  4086  046D  1308               	skipnc
  4087  046E  1803               	bsf	(8),6	;volatile
  4088  046F  1708               	line	192
  4089                           ;source.c: 192:             break;
  4090                           	goto	l215
  4091  0470  2D5D               	line	193
  4092                           ;source.c: 193:         case 9:
  4093                           	
  4094                           l197:	
  4095  0471                     	line	194
  4096                           	
  4097                           l2171:	
  4098  0471                     ;source.c: 194:             PORTDbits.RD7 = value;
  4099                           	rrf	(digitalWrite@value),w
  4100  0471  0C70               	bcf	status, 5	;RP0=0, select bank0
  4101  0472  1283               	bcf	status, 6	;RP1=0, select bank0
  4102  0473  1303               	skipc
  4103  0474  1C03               	bcf	(8),7	;volatile
  4104  0475  1388               	skipnc
  4105  0476  1803               	bsf	(8),7	;volatile
  4106  0477  1788               	line	195
  4107                           ;source.c: 195:             break;
  4108                           	goto	l215
  4109  0478  2D5D               	line	196
  4110                           ;source.c: 196:         case 10:
  4111                           	
  4112                           l198:	
  4113  0479                     	line	197
  4114                           	
  4115                           l2173:	
  4116  0479                     ;source.c: 197:             PORTBbits.RB0 = value;
  4117                           	rrf	(digitalWrite@value),w
  4118  0479  0C70               	bcf	status, 5	;RP0=0, select bank0
  4119  047A  1283               	bcf	status, 6	;RP1=0, select bank0
  4120  047B  1303               	skipc
  4121  047C  1C03               	bcf	(6),0	;volatile
  4122  047D  1006               	skipnc
  4123  047E  1803               	bsf	(6),0	;volatile
  4124  047F  1406               	line	198
  4125                           ;source.c: 198:             break;
  4126                           	goto	l215
  4127  0480  2D5D               	line	199
  4128                           ;source.c: 199:         case 11:
  4129                           	
  4130                           l199:	
  4131  0481                     	line	200
  4132                           	
  4133                           l2175:	
  4134  0481                     ;source.c: 200:             PORTBbits.RB1 = value;
  4135                           	rrf	(digitalWrite@value),w
  4136  0481  0C70               	bcf	status, 5	;RP0=0, select bank0
  4137  0482  1283               	bcf	status, 6	;RP1=0, select bank0
  4138  0483  1303               	skipc
  4139  0484  1C03               	bcf	(6),1	;volatile
  4140  0485  1086               	skipnc
  4141  0486  1803               	bsf	(6),1	;volatile
  4142  0487  1486               	line	201
  4143                           ;source.c: 201:             break;
  4144                           	goto	l215
  4145  0488  2D5D               	line	202
  4146                           ;source.c: 202:         case 12:
  4147                           	
  4148                           l200:	
  4149  0489                     	line	203
  4150                           	
  4151                           l2177:	
  4152  0489                     ;source.c: 203:             PORTBbits.RB2 = value;
  4153                           	rrf	(digitalWrite@value),w
  4154  0489  0C70               	bcf	status, 5	;RP0=0, select bank0
  4155  048A  1283               	bcf	status, 6	;RP1=0, select bank0
  4156  048B  1303               	skipc
  4157  048C  1C03               	bcf	(6),2	;volatile
  4158  048D  1106               	skipnc
  4159  048E  1803               	bsf	(6),2	;volatile
  4160  048F  1506               	line	204
  4161                           ;source.c: 204:             break;
  4162                           	goto	l215
  4163  0490  2D5D               	line	205
  4164                           ;source.c: 205:         case 13:
  4165                           	
  4166                           l201:	
  4167  0491                     	line	206
  4168                           	
  4169                           l2179:	
  4170  0491                     ;source.c: 206:             PORTBbits.RB4 = value;
  4171                           	rrf	(digitalWrite@value),w
  4172  0491  0C70               	bcf	status, 5	;RP0=0, select bank0
  4173  0492  1283               	bcf	status, 6	;RP1=0, select bank0
  4174  0493  1303               	skipc
  4175  0494  1C03               	bcf	(6),4	;volatile
  4176  0495  1206               	skipnc
  4177  0496  1803               	bsf	(6),4	;volatile
  4178  0497  1606               	line	207
  4179                           ;source.c: 207:             break;
  4180                           	goto	l215
  4181  0498  2D5D               	line	208
  4182                           ;source.c: 208:         case 14:
  4183                           	
  4184                           l202:	
  4185  0499                     	line	209
  4186                           	
  4187                           l2181:	
  4188  0499                     ;source.c: 209:             PORTBbits.RB3 = value;
  4189                           	rrf	(digitalWrite@value),w
  4190  0499  0C70               	bcf	status, 5	;RP0=0, select bank0
  4191  049A  1283               	bcf	status, 6	;RP1=0, select bank0
  4192  049B  1303               	skipc
  4193  049C  1C03               	bcf	(6),3	;volatile
  4194  049D  1186               	skipnc
  4195  049E  1803               	bsf	(6),3	;volatile
  4196  049F  1586               	line	210
  4197                           ;source.c: 210:             break;
  4198                           	goto	l215
  4199  04A0  2D5D               	line	211
  4200                           ;source.c: 211:         case 15:
  4201                           	
  4202                           l203:	
  4203  04A1                     	line	212
  4204                           	
  4205                           l2183:	
  4206  04A1                     ;source.c: 212:             PORTBbits.RB5 = value;
  4207                           	rrf	(digitalWrite@value),w
  4208  04A1  0C70               	bcf	status, 5	;RP0=0, select bank0
  4209  04A2  1283               	bcf	status, 6	;RP1=0, select bank0
  4210  04A3  1303               	skipc
  4211  04A4  1C03               	bcf	(6),5	;volatile
  4212  04A5  1286               	skipnc
  4213  04A6  1803               	bsf	(6),5	;volatile
  4214  04A7  1686               	line	213
  4215                           ;source.c: 213:             break;
  4216                           	goto	l215
  4217  04A8  2D5D               	line	214
  4218                           ;source.c: 214:         case 16:
  4219                           	
  4220                           l204:	
  4221  04A9                     	line	215
  4222                           	
  4223                           l2185:	
  4224  04A9                     ;source.c: 215:             PORTBbits.RB6 = value;
  4225                           	rrf	(digitalWrite@value),w
  4226  04A9  0C70               	bcf	status, 5	;RP0=0, select bank0
  4227  04AA  1283               	bcf	status, 6	;RP1=0, select bank0
  4228  04AB  1303               	skipc
  4229  04AC  1C03               	bcf	(6),6	;volatile
  4230  04AD  1306               	skipnc
  4231  04AE  1803               	bsf	(6),6	;volatile
  4232  04AF  1706               	line	216
  4233                           ;source.c: 216:             break;
  4234                           	goto	l215
  4235  04B0  2D5D               	line	217
  4236                           ;source.c: 217:         case 17:
  4237                           	
  4238                           l205:	
  4239  04B1                     	line	218
  4240                           	
  4241                           l2187:	
  4242  04B1                     ;source.c: 218:             PORTCbits.RC3 = value;
  4243                           	rrf	(digitalWrite@value),w
  4244  04B1  0C70               	bcf	status, 5	;RP0=0, select bank0
  4245  04B2  1283               	bcf	status, 6	;RP1=0, select bank0
  4246  04B3  1303               	skipc
  4247  04B4  1C03               	bcf	(7),3	;volatile
  4248  04B5  1187               	skipnc
  4249  04B6  1803               	bsf	(7),3	;volatile
  4250  04B7  1587               	line	219
  4251                           ;source.c: 219:             break;
  4252                           	goto	l215
  4253  04B8  2D5D               	line	220
  4254                           ;source.c: 220:         case 18:
  4255                           	
  4256                           l206:	
  4257  04B9                     	line	221
  4258                           	
  4259                           l2189:	
  4260  04B9                     ;source.c: 221:             PORTBbits.RB7 = value;
  4261                           	rrf	(digitalWrite@value),w
  4262  04B9  0C70               	bcf	status, 5	;RP0=0, select bank0
  4263  04BA  1283               	bcf	status, 6	;RP1=0, select bank0
  4264  04BB  1303               	skipc
  4265  04BC  1C03               	bcf	(6),7	;volatile
  4266  04BD  1386               	skipnc
  4267  04BE  1803               	bsf	(6),7	;volatile
  4268  04BF  1786               	line	222
  4269                           ;source.c: 222:             break;
  4270                           	goto	l215
  4271  04C0  2D5D               	line	223
  4272                           ;source.c: 223:         case 19:
  4273                           	
  4274                           l207:	
  4275  04C1                     	line	224
  4276                           	
  4277                           l2191:	
  4278  04C1                     ;source.c: 224:             PORTAbits.RA4 = value;
  4279                           	rrf	(digitalWrite@value),w
  4280  04C1  0C70               	bcf	status, 5	;RP0=0, select bank0
  4281  04C2  1283               	bcf	status, 6	;RP1=0, select bank0
  4282  04C3  1303               	skipc
  4283  04C4  1C03               	bcf	(5),4	;volatile
  4284  04C5  1205               	skipnc
  4285  04C6  1803               	bsf	(5),4	;volatile
  4286  04C7  1605               	line	225
  4287                           ;source.c: 225:             break;
  4288                           	goto	l215
  4289  04C8  2D5D               	line	226
  4290                           ;source.c: 226:         case 20:
  4291                           	
  4292                           l208:	
  4293  04C9                     	line	227
  4294                           	
  4295                           l2193:	
  4296  04C9                     ;source.c: 227:             PORTAbits.RA5 = value;
  4297                           	rrf	(digitalWrite@value),w
  4298  04C9  0C70               	bcf	status, 5	;RP0=0, select bank0
  4299  04CA  1283               	bcf	status, 6	;RP1=0, select bank0
  4300  04CB  1303               	skipc
  4301  04CC  1C03               	bcf	(5),5	;volatile
  4302  04CD  1285               	skipnc
  4303  04CE  1803               	bsf	(5),5	;volatile
  4304  04CF  1685               	line	228
  4305                           ;source.c: 228:             break;
  4306                           	goto	l215
  4307  04D0  2D5D               	line	229
  4308                           ;source.c: 229:         case 21:
  4309                           	
  4310                           l209:	
  4311  04D1                     	line	230
  4312                           	
  4313                           l2195:	
  4314  04D1                     ;source.c: 230:             PORTCbits.RC0 = value;
  4315                           	rrf	(digitalWrite@value),w
  4316  04D1  0C70               	bcf	status, 5	;RP0=0, select bank0
  4317  04D2  1283               	bcf	status, 6	;RP1=0, select bank0
  4318  04D3  1303               	skipc
  4319  04D4  1C03               	bcf	(7),0	;volatile
  4320  04D5  1007               	skipnc
  4321  04D6  1803               	bsf	(7),0	;volatile
  4322  04D7  1407               	line	231
  4323                           ;source.c: 231:             break;
  4324                           	goto	l215
  4325  04D8  2D5D               	line	232
  4326                           ;source.c: 232:         case 22:
  4327                           	
  4328                           l210:	
  4329  04D9                     	line	233
  4330                           	
  4331                           l2197:	
  4332  04D9                     ;source.c: 233:             PORTCbits.RC1 = value;
  4333                           	rrf	(digitalWrite@value),w
  4334  04D9  0C70               	bcf	status, 5	;RP0=0, select bank0
  4335  04DA  1283               	bcf	status, 6	;RP1=0, select bank0
  4336  04DB  1303               	skipc
  4337  04DC  1C03               	bcf	(7),1	;volatile
  4338  04DD  1087               	skipnc
  4339  04DE  1803               	bsf	(7),1	;volatile
  4340  04DF  1487               	line	234
  4341                           ;source.c: 234:             break;
  4342                           	goto	l215
  4343  04E0  2D5D               	line	235
  4344                           ;source.c: 235:         case 23:
  4345                           	
  4346                           l211:	
  4347  04E1                     	line	236
  4348                           	
  4349                           l2199:	
  4350  04E1                     ;source.c: 236:             PORTCbits.RC2 = value;
  4351                           	rrf	(digitalWrite@value),w
  4352  04E1  0C70               	bcf	status, 5	;RP0=0, select bank0
  4353  04E2  1283               	bcf	status, 6	;RP1=0, select bank0
  4354  04E3  1303               	skipc
  4355  04E4  1C03               	bcf	(7),2	;volatile
  4356  04E5  1107               	skipnc
  4357  04E6  1803               	bsf	(7),2	;volatile
  4358  04E7  1507               	line	237
  4359                           ;source.c: 237:             break;
  4360                           	goto	l215
  4361  04E8  2D5D               	line	238
  4362                           ;source.c: 238:         case 24:
  4363                           	
  4364                           l212:	
  4365  04E9                     	line	239
  4366                           	
  4367                           l2201:	
  4368  04E9                     ;source.c: 239:             PORTDbits.RD1 = value;
  4369                           	rrf	(digitalWrite@value),w
  4370  04E9  0C70               	bcf	status, 5	;RP0=0, select bank0
  4371  04EA  1283               	bcf	status, 6	;RP1=0, select bank0
  4372  04EB  1303               	skipc
  4373  04EC  1C03               	bcf	(8),1	;volatile
  4374  04ED  1088               	skipnc
  4375  04EE  1803               	bsf	(8),1	;volatile
  4376  04EF  1488               	line	240
  4377                           ;source.c: 240:             break;
  4378                           	goto	l215
  4379  04F0  2D5D               	line	241
  4380                           ;source.c: 241:         case 25:
  4381                           	
  4382                           l213:	
  4383  04F1                     	line	242
  4384                           	
  4385                           l2203:	
  4386  04F1                     ;source.c: 242:             PORTDbits.RD0 = value;
  4387                           	rrf	(digitalWrite@value),w
  4388  04F1  0C70               	bcf	status, 5	;RP0=0, select bank0
  4389  04F2  1283               	bcf	status, 6	;RP1=0, select bank0
  4390  04F3  1303               	skipc
  4391  04F4  1C03               	bcf	(8),0	;volatile
  4392  04F5  1008               	skipnc
  4393  04F6  1803               	bsf	(8),0	;volatile
  4394  04F7  1408               	line	243
  4395                           ;source.c: 243:             break;
  4396                           	goto	l215
  4397  04F8  2D5D               	line	244
  4398                           ;source.c: 244:         case 26:
  4399                           	
  4400                           l214:	
  4401  04F9                     	line	245
  4402                           	
  4403                           l2205:	
  4404  04F9                     ;source.c: 245:             PORTAbits.RA2 = value;
  4405                           	rrf	(digitalWrite@value),w
  4406  04F9  0C70               	bcf	status, 5	;RP0=0, select bank0
  4407  04FA  1283               	bcf	status, 6	;RP1=0, select bank0
  4408  04FB  1303               	skipc
  4409  04FC  1C03               	bcf	(5),2	;volatile
  4410  04FD  1105               	skipnc
  4411  04FE  1803               	bsf	(5),2	;volatile
  4412  04FF  1505               	line	246
  4413                           ;source.c: 246:             break;
  4414                           	goto	l215
  4415  0500  2D5D               	line	247
  4416                           	
  4417                           l2207:	
  4418  0501                     ;source.c: 247:     }
  4419                           	goto	l215
  4420  0501  2D5D               	
  4421                           l186:	
  4422  0502                     	
  4423                           l2209:	
  4424  0502                     	movf	(digitalWrite@pin),w
  4425  0502  0873               	movwf	(??_digitalWrite+0)+0
  4426  0503  00F1               	clrf	(??_digitalWrite+0)+0+1
  4427  0504  01F2               	; Switch on 2 bytes has been partitioned into a top level switch of size 1, and 1 sub-s
                                 witches
  4428                           ; Switch size 1, requested type "space"
  4429                           ; Number of cases is 1, Range of values is 0 to 0
  4430                           ; switch strategies available:
  4431                           ; Name         Instructions Cycles
  4432                           ; simple_byte            4     3 (average)
  4433                           ; direct_byte           11     8 (fixed)
  4434                           ; jumptable            260     6 (fixed)
  4435                           ;	Chosen strategy is simple_byte
  4436                           
  4437                           	movf 1+(??_digitalWrite+0)+0,w
  4438  0505  0872               	opt asmopt_push
  4439                           	opt asmopt_off
  4440                           	xorlw	0^0	; case 0
  4441  0506  3A00               	skipnz
  4442  0507  1903               	goto	l2927
  4443  0508  2D0A               	goto	l215
  4444  0509  2D5D               	opt asmopt_pop
  4445                           	
  4446                           l2927:	
  4447  050A                     ; Switch size 1, requested type "space"
  4448                           ; Number of cases is 27, Range of values is 0 to 26
  4449                           ; switch strategies available:
  4450                           ; Name         Instructions Cycles
  4451                           ; simple_byte           82    42 (average)
  4452                           ; direct_byte           89     8 (fixed)
  4453                           ; jumptable            260     6 (fixed)
  4454                           ;	Chosen strategy is simple_byte
  4455                           
  4456                           	movf 0+(??_digitalWrite+0)+0,w
  4457  050A  0871               	opt asmopt_push
  4458                           	opt asmopt_off
  4459                           	xorlw	0^0	; case 0
  4460  050B  3A00               	skipnz
  4461  050C  1903               	goto	l2153
  4462  050D  2C29               	xorlw	1^0	; case 1
  4463  050E  3A01               	skipnz
  4464  050F  1903               	goto	l2155
  4465  0510  2C31               	xorlw	2^1	; case 2
  4466  0511  3A03               	skipnz
  4467  0512  1903               	goto	l2157
  4468  0513  2C39               	xorlw	3^2	; case 3
  4469  0514  3A01               	skipnz
  4470  0515  1903               	goto	l2159
  4471  0516  2C41               	xorlw	4^3	; case 4
  4472  0517  3A07               	skipnz
  4473  0518  1903               	goto	l2161
  4474  0519  2C49               	xorlw	5^4	; case 5
  4475  051A  3A01               	skipnz
  4476  051B  1903               	goto	l2163
  4477  051C  2C51               	xorlw	6^5	; case 6
  4478  051D  3A03               	skipnz
  4479  051E  1903               	goto	l2165
  4480  051F  2C59               	xorlw	7^6	; case 7
  4481  0520  3A01               	skipnz
  4482  0521  1903               	goto	l2167
  4483  0522  2C61               	xorlw	8^7	; case 8
  4484  0523  3A0F               	skipnz
  4485  0524  1903               	goto	l2169
  4486  0525  2C69               	xorlw	9^8	; case 9
  4487  0526  3A01               	skipnz
  4488  0527  1903               	goto	l2171
  4489  0528  2C71               	xorlw	10^9	; case 10
  4490  0529  3A03               	skipnz
  4491  052A  1903               	goto	l2173
  4492  052B  2C79               	xorlw	11^10	; case 11
  4493  052C  3A01               	skipnz
  4494  052D  1903               	goto	l2175
  4495  052E  2C81               	xorlw	12^11	; case 12
  4496  052F  3A07               	skipnz
  4497  0530  1903               	goto	l2177
  4498  0531  2C89               	xorlw	13^12	; case 13
  4499  0532  3A01               	skipnz
  4500  0533  1903               	goto	l2179
  4501  0534  2C91               	xorlw	14^13	; case 14
  4502  0535  3A03               	skipnz
  4503  0536  1903               	goto	l2181
  4504  0537  2C99               	xorlw	15^14	; case 15
  4505  0538  3A01               	skipnz
  4506  0539  1903               	goto	l2183
  4507  053A  2CA1               	xorlw	16^15	; case 16
  4508  053B  3A1F               	skipnz
  4509  053C  1903               	goto	l2185
  4510  053D  2CA9               	xorlw	17^16	; case 17
  4511  053E  3A01               	skipnz
  4512  053F  1903               	goto	l2187
  4513  0540  2CB1               	xorlw	18^17	; case 18
  4514  0541  3A03               	skipnz
  4515  0542  1903               	goto	l2189
  4516  0543  2CB9               	xorlw	19^18	; case 19
  4517  0544  3A01               	skipnz
  4518  0545  1903               	goto	l2191
  4519  0546  2CC1               	xorlw	20^19	; case 20
  4520  0547  3A07               	skipnz
  4521  0548  1903               	goto	l2193
  4522  0549  2CC9               	xorlw	21^20	; case 21
  4523  054A  3A01               	skipnz
  4524  054B  1903               	goto	l2195
  4525  054C  2CD1               	xorlw	22^21	; case 22
  4526  054D  3A03               	skipnz
  4527  054E  1903               	goto	l2197
  4528  054F  2CD9               	xorlw	23^22	; case 23
  4529  0550  3A01               	skipnz
  4530  0551  1903               	goto	l2199
  4531  0552  2CE1               	xorlw	24^23	; case 24
  4532  0553  3A0F               	skipnz
  4533  0554  1903               	goto	l2201
  4534  0555  2CE9               	xorlw	25^24	; case 25
  4535  0556  3A01               	skipnz
  4536  0557  1903               	goto	l2203
  4537  0558  2CF1               	xorlw	26^25	; case 26
  4538  0559  3A03               	skipnz
  4539  055A  1903               	goto	l2205
  4540  055B  2CF9               	goto	l215
  4541  055C  2D5D               	opt asmopt_pop
  4542                           
  4543                           	
  4544                           l188:	
  4545  055D                     	line	248
  4546                           	
  4547                           l215:	
  4548  055D                     	return
  4549  055D  0008               	opt stack 0
  4550                           GLOBAL	__end_of_digitalWrite
  4551                           	__end_of_digitalWrite:
  4552  055E                     	signat	_digitalWrite,8313
  4553                           	global	_digitalRead
  4554                           
  4555 ;; *************** function _digitalRead *****************
  4556 ;; Defined at:
  4557 ;;		line 249 in file "source.c"
  4558 ;; Parameters:    Size  Location     Type
  4559 ;;  pin             1    wreg     unsigned char 
  4560 ;; Auto vars:     Size  Location     Type
  4561 ;;  pin             1    2[COMMON] unsigned char 
  4562 ;; Return value:  Size  Location     Type
  4563 ;;                  1    wreg      unsigned char 
  4564 ;; Registers used:
  4565 ;;		wreg, fsr0l, fsr0h, status,2, status,0
  4566 ;; Tracked objects:
  4567 ;;		On entry : 0/0
  4568 ;;		On exit  : 0/0
  4569 ;;		Unchanged: 0/0
  4570 ;; Data sizes:     COMMON   BANK0   BANK1   BANK3   BANK2
  4571 ;;      Params:         0       0       0       0       0
  4572 ;;      Locals:         1       0       0       0       0
  4573 ;;      Temps:          2       0       0       0       0
  4574 ;;      Totals:         3       0       0       0       0
  4575 ;;Total ram usage:        3 bytes
  4576 ;; Hardware stack levels used:    1
  4577 ;; This function calls:
  4578 ;;		Nothing
  4579 ;; This function is called by:
  4580 ;;		_ProcessCommand
  4581 ;; This function uses a non-reentrant model
  4582 ;;
  4583                           psect	text11,local,class=CODE,delta=2,merge=1,group=0
  4584                           	line	249
  4585                           global __ptext11
  4586                           __ptext11:	;psect for function _digitalRead
  4587  069D                     psect	text11
  4588                           	file	"source.c"
  4589                           	line	249
  4590                           	global	__size_of_digitalRead
  4591                           	__size_of_digitalRead	equ	__end_of_digitalRead-_digitalRead
  4592  0141                     	
  4593                           _digitalRead:	
  4594  069D                     ;incstack = 0
  4595                           	opt	stack 5
  4596                           ; Regs used in _digitalRead: [wreg-fsr0h+status,2+status,0]
  4597                           ;digitalRead@pin stored from wreg
  4598                           	movwf	(digitalRead@pin)
  4599  069D  00F2               	line	251
  4600                           	
  4601                           l2215:	
  4602  069E                     ;source.c: 249: char digitalRead(char pin);source.c: 250: {;source.c: 251:     switch(pi
                                 n)
  4603                           	goto	l2381
  4604  069E  2F82               	line	253
  4605                           ;source.c: 252:     {;source.c: 253:         case 0:
  4606                           	
  4607                           l219:	
  4608  069F                     	line	254
  4609                           	
  4610                           l2217:	
  4611  069F                     ;source.c: 254:              return PORTCbits.RC7;
  4612                           	bcf	status, 5	;RP0=0, select bank0
  4613  069F  1283               	bcf	status, 6	;RP1=0, select bank0
  4614  06A0  1303               	rlf	(7),w	;volatile
  4615  06A1  0D07               	rlf	(7),w	;volatile
  4616  06A2  0D07               	andlw	1
  4617  06A3  3901               	goto	l220
  4618  06A4  2FDD               	
  4619                           l2219:	
  4620  06A5                     	goto	l220
  4621  06A5  2FDD               	line	255
  4622                           	
  4623                           l2221:	
  4624  06A6                     ;source.c: 255:             break;
  4625                           	goto	l220
  4626  06A6  2FDD               	line	256
  4627                           ;source.c: 256:         case 1:
  4628                           	
  4629                           l222:	
  4630  06A7                     	line	257
  4631                           	
  4632                           l2223:	
  4633  06A7                     ;source.c: 257:             return PORTCbits.RC6;
  4634                           	bcf	status, 5	;RP0=0, select bank0
  4635  06A7  1283               	bcf	status, 6	;RP1=0, select bank0
  4636  06A8  1303               	swapf	(7),w	;volatile
  4637  06A9  0E07               	movwf	(??_digitalRead+0)+0
  4638  06AA  00F0               	rrf	(??_digitalRead+0)+0,f
  4639  06AB  0CF0               	rrf	(??_digitalRead+0)+0,w
  4640  06AC  0C70               	andlw	(1<<1)-1
  4641  06AD  3901               	goto	l220
  4642  06AE  2FDD               	
  4643                           l2225:	
  4644  06AF                     	goto	l220
  4645  06AF  2FDD               	line	258
  4646                           	
  4647                           l2227:	
  4648  06B0                     ;source.c: 258:             break;
  4649                           	goto	l220
  4650  06B0  2FDD               	line	259
  4651                           ;source.c: 259:         case 2:
  4652                           	
  4653                           l223:	
  4654  06B1                     	line	260
  4655                           	
  4656                           l2229:	
  4657  06B1                     ;source.c: 260:             return PORTDbits.RD2;
  4658                           	bcf	status, 5	;RP0=0, select bank0
  4659  06B1  1283               	bcf	status, 6	;RP1=0, select bank0
  4660  06B2  1303               	rrf	(8),w	;volatile
  4661  06B3  0C08               	movwf	(??_digitalRead+0)+0
  4662  06B4  00F0               	rrf	(??_digitalRead+0)+0,w
  4663  06B5  0C70               	andlw	(1<<1)-1
  4664  06B6  3901               	goto	l220
  4665  06B7  2FDD               	
  4666                           l2231:	
  4667  06B8                     	goto	l220
  4668  06B8  2FDD               	line	261
  4669                           	
  4670                           l2233:	
  4671  06B9                     ;source.c: 261:             break;
  4672                           	goto	l220
  4673  06B9  2FDD               	line	262
  4674                           ;source.c: 262:         case 3:
  4675                           	
  4676                           l224:	
  4677  06BA                     	line	263
  4678                           	
  4679                           l2235:	
  4680  06BA                     ;source.c: 263:             return PORTDbits.RD3;
  4681                           	bcf	status, 5	;RP0=0, select bank0
  4682  06BA  1283               	bcf	status, 6	;RP1=0, select bank0
  4683  06BB  1303               	rrf	(8),w	;volatile
  4684  06BC  0C08               	movwf	(??_digitalRead+0)+0
  4685  06BD  00F0               	rrf	(??_digitalRead+0)+0,f
  4686  06BE  0CF0               	rrf	(??_digitalRead+0)+0,w
  4687  06BF  0C70               	andlw	(1<<1)-1
  4688  06C0  3901               	goto	l220
  4689  06C1  2FDD               	
  4690                           l2237:	
  4691  06C2                     	goto	l220
  4692  06C2  2FDD               	line	264
  4693                           	
  4694                           l2239:	
  4695  06C3                     ;source.c: 264:             break;
  4696                           	goto	l220
  4697  06C3  2FDD               	line	265
  4698                           ;source.c: 265:         case 4:
  4699                           	
  4700                           l225:	
  4701  06C4                     	line	266
  4702                           	
  4703                           l2241:	
  4704  06C4                     ;source.c: 266:             return PORTCbits.RC4;
  4705                           	bcf	status, 5	;RP0=0, select bank0
  4706  06C4  1283               	bcf	status, 6	;RP1=0, select bank0
  4707  06C5  1303               	swapf	(7),w	;volatile
  4708  06C6  0E07               	andlw	(1<<1)-1
  4709  06C7  3901               	goto	l220
  4710  06C8  2FDD               	
  4711                           l2243:	
  4712  06C9                     	goto	l220
  4713  06C9  2FDD               	line	267
  4714                           	
  4715                           l2245:	
  4716  06CA                     ;source.c: 267:             break;
  4717                           	goto	l220
  4718  06CA  2FDD               	line	268
  4719                           ;source.c: 268:         case 5:
  4720                           	
  4721                           l226:	
  4722  06CB                     	line	269
  4723                           	
  4724                           l2247:	
  4725  06CB                     ;source.c: 269:             return PORTCbits.RC5;
  4726                           	bcf	status, 5	;RP0=0, select bank0
  4727  06CB  1283               	bcf	status, 6	;RP1=0, select bank0
  4728  06CC  1303               	swapf	(7),w	;volatile
  4729  06CD  0E07               	movwf	(??_digitalRead+0)+0
  4730  06CE  00F0               	rrf	(??_digitalRead+0)+0,w
  4731  06CF  0C70               	andlw	(1<<1)-1
  4732  06D0  3901               	goto	l220
  4733  06D1  2FDD               	
  4734                           l2249:	
  4735  06D2                     	goto	l220
  4736  06D2  2FDD               	line	270
  4737                           	
  4738                           l2251:	
  4739  06D3                     ;source.c: 270:             break;
  4740                           	goto	l220
  4741  06D3  2FDD               	line	271
  4742                           ;source.c: 271:         case 6:
  4743                           	
  4744                           l227:	
  4745  06D4                     	line	272
  4746                           	
  4747                           l2253:	
  4748  06D4                     ;source.c: 272:             return PORTDbits.RD4;
  4749                           	bcf	status, 5	;RP0=0, select bank0
  4750  06D4  1283               	bcf	status, 6	;RP1=0, select bank0
  4751  06D5  1303               	swapf	(8),w	;volatile
  4752  06D6  0E08               	andlw	(1<<1)-1
  4753  06D7  3901               	goto	l220
  4754  06D8  2FDD               	
  4755                           l2255:	
  4756  06D9                     	goto	l220
  4757  06D9  2FDD               	line	273
  4758                           	
  4759                           l2257:	
  4760  06DA                     ;source.c: 273:             break;
  4761                           	goto	l220
  4762  06DA  2FDD               	line	274
  4763                           ;source.c: 274:         case 7:
  4764                           	
  4765                           l228:	
  4766  06DB                     	line	275
  4767                           	
  4768                           l2259:	
  4769  06DB                     ;source.c: 275:             return PORTDbits.RD5;
  4770                           	bcf	status, 5	;RP0=0, select bank0
  4771  06DB  1283               	bcf	status, 6	;RP1=0, select bank0
  4772  06DC  1303               	swapf	(8),w	;volatile
  4773  06DD  0E08               	movwf	(??_digitalRead+0)+0
  4774  06DE  00F0               	rrf	(??_digitalRead+0)+0,w
  4775  06DF  0C70               	andlw	(1<<1)-1
  4776  06E0  3901               	goto	l220
  4777  06E1  2FDD               	
  4778                           l2261:	
  4779  06E2                     	goto	l220
  4780  06E2  2FDD               	line	276
  4781                           	
  4782                           l2263:	
  4783  06E3                     ;source.c: 276:             break;
  4784                           	goto	l220
  4785  06E3  2FDD               	line	277
  4786                           ;source.c: 277:         case 8:
  4787                           	
  4788                           l229:	
  4789  06E4                     	line	278
  4790                           	
  4791                           l2265:	
  4792  06E4                     ;source.c: 278:             return PORTDbits.RD6;
  4793                           	bcf	status, 5	;RP0=0, select bank0
  4794  06E4  1283               	bcf	status, 6	;RP1=0, select bank0
  4795  06E5  1303               	swapf	(8),w	;volatile
  4796  06E6  0E08               	movwf	(??_digitalRead+0)+0
  4797  06E7  00F0               	rrf	(??_digitalRead+0)+0,f
  4798  06E8  0CF0               	rrf	(??_digitalRead+0)+0,w
  4799  06E9  0C70               	andlw	(1<<1)-1
  4800  06EA  3901               	goto	l220
  4801  06EB  2FDD               	
  4802                           l2267:	
  4803  06EC                     	goto	l220
  4804  06EC  2FDD               	line	279
  4805                           	
  4806                           l2269:	
  4807  06ED                     ;source.c: 279:             break;
  4808                           	goto	l220
  4809  06ED  2FDD               	line	280
  4810                           ;source.c: 280:         case 9:
  4811                           	
  4812                           l230:	
  4813  06EE                     	line	281
  4814                           	
  4815                           l2271:	
  4816  06EE                     ;source.c: 281:             return PORTDbits.RD7;
  4817                           	bcf	status, 5	;RP0=0, select bank0
  4818  06EE  1283               	bcf	status, 6	;RP1=0, select bank0
  4819  06EF  1303               	rlf	(8),w	;volatile
  4820  06F0  0D08               	rlf	(8),w	;volatile
  4821  06F1  0D08               	andlw	1
  4822  06F2  3901               	goto	l220
  4823  06F3  2FDD               	
  4824                           l2273:	
  4825  06F4                     	goto	l220
  4826  06F4  2FDD               	line	282
  4827                           	
  4828                           l2275:	
  4829  06F5                     ;source.c: 282:             break;
  4830                           	goto	l220
  4831  06F5  2FDD               	line	283
  4832                           ;source.c: 283:         case 10:
  4833                           	
  4834                           l231:	
  4835  06F6                     	line	284
  4836                           	
  4837                           l2277:	
  4838  06F6                     ;source.c: 284:             return PORTBbits.RB0;
  4839                           	bcf	status, 5	;RP0=0, select bank0
  4840  06F6  1283               	bcf	status, 6	;RP1=0, select bank0
  4841  06F7  1303               	movf	(6),w	;volatile
  4842  06F8  0806               	andlw	(1<<1)-1
  4843  06F9  3901               	goto	l220
  4844  06FA  2FDD               	
  4845                           l2279:	
  4846  06FB                     	goto	l220
  4847  06FB  2FDD               	line	285
  4848                           	
  4849                           l2281:	
  4850  06FC                     ;source.c: 285:             break;
  4851                           	goto	l220
  4852  06FC  2FDD               	line	286
  4853                           ;source.c: 286:         case 11:
  4854                           	
  4855                           l232:	
  4856  06FD                     	line	287
  4857                           	
  4858                           l2283:	
  4859  06FD                     ;source.c: 287:             return PORTBbits.RB1;
  4860                           	bcf	status, 5	;RP0=0, select bank0
  4861  06FD  1283               	bcf	status, 6	;RP1=0, select bank0
  4862  06FE  1303               	rrf	(6),w	;volatile
  4863  06FF  0C06               	andlw	(1<<1)-1
  4864  0700  3901               	goto	l220
  4865  0701  2FDD               	
  4866                           l2285:	
  4867  0702                     	goto	l220
  4868  0702  2FDD               	line	288
  4869                           	
  4870                           l2287:	
  4871  0703                     ;source.c: 288:             break;
  4872                           	goto	l220
  4873  0703  2FDD               	line	289
  4874                           ;source.c: 289:         case 12:
  4875                           	
  4876                           l233:	
  4877  0704                     	line	290
  4878                           	
  4879                           l2289:	
  4880  0704                     ;source.c: 290:             return PORTBbits.RB2;
  4881                           	bcf	status, 5	;RP0=0, select bank0
  4882  0704  1283               	bcf	status, 6	;RP1=0, select bank0
  4883  0705  1303               	rrf	(6),w	;volatile
  4884  0706  0C06               	movwf	(??_digitalRead+0)+0
  4885  0707  00F0               	rrf	(??_digitalRead+0)+0,w
  4886  0708  0C70               	andlw	(1<<1)-1
  4887  0709  3901               	goto	l220
  4888  070A  2FDD               	
  4889                           l2291:	
  4890  070B                     	goto	l220
  4891  070B  2FDD               	line	291
  4892                           	
  4893                           l2293:	
  4894  070C                     ;source.c: 291:             break;
  4895                           	goto	l220
  4896  070C  2FDD               	line	292
  4897                           ;source.c: 292:         case 13:
  4898                           	
  4899                           l234:	
  4900  070D                     	line	293
  4901                           	
  4902                           l2295:	
  4903  070D                     ;source.c: 293:             return PORTBbits.RB4;
  4904                           	bcf	status, 5	;RP0=0, select bank0
  4905  070D  1283               	bcf	status, 6	;RP1=0, select bank0
  4906  070E  1303               	swapf	(6),w	;volatile
  4907  070F  0E06               	andlw	(1<<1)-1
  4908  0710  3901               	goto	l220
  4909  0711  2FDD               	
  4910                           l2297:	
  4911  0712                     	goto	l220
  4912  0712  2FDD               	line	294
  4913                           	
  4914                           l2299:	
  4915  0713                     ;source.c: 294:             break;
  4916                           	goto	l220
  4917  0713  2FDD               	line	295
  4918                           ;source.c: 295:         case 14:
  4919                           	
  4920                           l235:	
  4921  0714                     	line	296
  4922                           	
  4923                           l2301:	
  4924  0714                     ;source.c: 296:             return PORTBbits.RB3;
  4925                           	bcf	status, 5	;RP0=0, select bank0
  4926  0714  1283               	bcf	status, 6	;RP1=0, select bank0
  4927  0715  1303               	rrf	(6),w	;volatile
  4928  0716  0C06               	movwf	(??_digitalRead+0)+0
  4929  0717  00F0               	rrf	(??_digitalRead+0)+0,f
  4930  0718  0CF0               	rrf	(??_digitalRead+0)+0,w
  4931  0719  0C70               	andlw	(1<<1)-1
  4932  071A  3901               	goto	l220
  4933  071B  2FDD               	
  4934                           l2303:	
  4935  071C                     	goto	l220
  4936  071C  2FDD               	line	297
  4937                           	
  4938                           l2305:	
  4939  071D                     ;source.c: 297:             break;
  4940                           	goto	l220
  4941  071D  2FDD               	line	298
  4942                           ;source.c: 298:         case 15:
  4943                           	
  4944                           l236:	
  4945  071E                     	line	299
  4946                           	
  4947                           l2307:	
  4948  071E                     ;source.c: 299:             return PORTBbits.RB5;
  4949                           	bcf	status, 5	;RP0=0, select bank0
  4950  071E  1283               	bcf	status, 6	;RP1=0, select bank0
  4951  071F  1303               	swapf	(6),w	;volatile
  4952  0720  0E06               	movwf	(??_digitalRead+0)+0
  4953  0721  00F0               	rrf	(??_digitalRead+0)+0,w
  4954  0722  0C70               	andlw	(1<<1)-1
  4955  0723  3901               	goto	l220
  4956  0724  2FDD               	
  4957                           l2309:	
  4958  0725                     	goto	l220
  4959  0725  2FDD               	line	300
  4960                           	
  4961                           l2311:	
  4962  0726                     ;source.c: 300:             break;
  4963                           	goto	l220
  4964  0726  2FDD               	line	301
  4965                           ;source.c: 301:         case 16:
  4966                           	
  4967                           l237:	
  4968  0727                     	line	302
  4969                           	
  4970                           l2313:	
  4971  0727                     ;source.c: 302:             return PORTBbits.RB6;
  4972                           	bcf	status, 5	;RP0=0, select bank0
  4973  0727  1283               	bcf	status, 6	;RP1=0, select bank0
  4974  0728  1303               	swapf	(6),w	;volatile
  4975  0729  0E06               	movwf	(??_digitalRead+0)+0
  4976  072A  00F0               	rrf	(??_digitalRead+0)+0,f
  4977  072B  0CF0               	rrf	(??_digitalRead+0)+0,w
  4978  072C  0C70               	andlw	(1<<1)-1
  4979  072D  3901               	goto	l220
  4980  072E  2FDD               	
  4981                           l2315:	
  4982  072F                     	goto	l220
  4983  072F  2FDD               	line	303
  4984                           	
  4985                           l2317:	
  4986  0730                     ;source.c: 303:             break;
  4987                           	goto	l220
  4988  0730  2FDD               	line	304
  4989                           ;source.c: 304:         case 17:
  4990                           	
  4991                           l238:	
  4992  0731                     	line	305
  4993                           	
  4994                           l2319:	
  4995  0731                     ;source.c: 305:             return PORTCbits.RC3;
  4996                           	bcf	status, 5	;RP0=0, select bank0
  4997  0731  1283               	bcf	status, 6	;RP1=0, select bank0
  4998  0732  1303               	rrf	(7),w	;volatile
  4999  0733  0C07               	movwf	(??_digitalRead+0)+0
  5000  0734  00F0               	rrf	(??_digitalRead+0)+0,f
  5001  0735  0CF0               	rrf	(??_digitalRead+0)+0,w
  5002  0736  0C70               	andlw	(1<<1)-1
  5003  0737  3901               	goto	l220
  5004  0738  2FDD               	
  5005                           l2321:	
  5006  0739                     	goto	l220
  5007  0739  2FDD               	line	306
  5008                           	
  5009                           l2323:	
  5010  073A                     ;source.c: 306:             break;
  5011                           	goto	l220
  5012  073A  2FDD               	line	307
  5013                           ;source.c: 307:         case 18:
  5014                           	
  5015                           l239:	
  5016  073B                     	line	308
  5017                           	
  5018                           l2325:	
  5019  073B                     ;source.c: 308:             return PORTBbits.RB7;
  5020                           	bcf	status, 5	;RP0=0, select bank0
  5021  073B  1283               	bcf	status, 6	;RP1=0, select bank0
  5022  073C  1303               	rlf	(6),w	;volatile
  5023  073D  0D06               	rlf	(6),w	;volatile
  5024  073E  0D06               	andlw	1
  5025  073F  3901               	goto	l220
  5026  0740  2FDD               	
  5027                           l2327:	
  5028  0741                     	goto	l220
  5029  0741  2FDD               	line	309
  5030                           	
  5031                           l2329:	
  5032  0742                     ;source.c: 309:             break;
  5033                           	goto	l220
  5034  0742  2FDD               	line	310
  5035                           ;source.c: 310:         case 19:
  5036                           	
  5037                           l240:	
  5038  0743                     	line	311
  5039                           	
  5040                           l2331:	
  5041  0743                     ;source.c: 311:             return PORTAbits.RA4;
  5042                           	bcf	status, 5	;RP0=0, select bank0
  5043  0743  1283               	bcf	status, 6	;RP1=0, select bank0
  5044  0744  1303               	swapf	(5),w	;volatile
  5045  0745  0E05               	andlw	(1<<1)-1
  5046  0746  3901               	goto	l220
  5047  0747  2FDD               	
  5048                           l2333:	
  5049  0748                     	goto	l220
  5050  0748  2FDD               	line	312
  5051                           	
  5052                           l2335:	
  5053  0749                     ;source.c: 312:             break;
  5054                           	goto	l220
  5055  0749  2FDD               	line	313
  5056                           ;source.c: 313:         case 20:
  5057                           	
  5058                           l241:	
  5059  074A                     	line	314
  5060                           	
  5061                           l2337:	
  5062  074A                     ;source.c: 314:             return PORTAbits.RA5;
  5063                           	bcf	status, 5	;RP0=0, select bank0
  5064  074A  1283               	bcf	status, 6	;RP1=0, select bank0
  5065  074B  1303               	swapf	(5),w	;volatile
  5066  074C  0E05               	movwf	(??_digitalRead+0)+0
  5067  074D  00F0               	rrf	(??_digitalRead+0)+0,w
  5068  074E  0C70               	andlw	(1<<1)-1
  5069  074F  3901               	goto	l220
  5070  0750  2FDD               	
  5071                           l2339:	
  5072  0751                     	goto	l220
  5073  0751  2FDD               	line	315
  5074                           	
  5075                           l2341:	
  5076  0752                     ;source.c: 315:             break;
  5077                           	goto	l220
  5078  0752  2FDD               	line	316
  5079                           ;source.c: 316:         case 21:
  5080                           	
  5081                           l242:	
  5082  0753                     	line	317
  5083                           	
  5084                           l2343:	
  5085  0753                     ;source.c: 317:             return PORTCbits.RC0;
  5086                           	bcf	status, 5	;RP0=0, select bank0
  5087  0753  1283               	bcf	status, 6	;RP1=0, select bank0
  5088  0754  1303               	movf	(7),w	;volatile
  5089  0755  0807               	andlw	(1<<1)-1
  5090  0756  3901               	goto	l220
  5091  0757  2FDD               	
  5092                           l2345:	
  5093  0758                     	goto	l220
  5094  0758  2FDD               	line	318
  5095                           	
  5096                           l2347:	
  5097  0759                     ;source.c: 318:             break;
  5098                           	goto	l220
  5099  0759  2FDD               	line	319
  5100                           ;source.c: 319:         case 22:
  5101                           	
  5102                           l243:	
  5103  075A                     	line	320
  5104                           	
  5105                           l2349:	
  5106  075A                     ;source.c: 320:             return PORTCbits.RC1;
  5107                           	bcf	status, 5	;RP0=0, select bank0
  5108  075A  1283               	bcf	status, 6	;RP1=0, select bank0
  5109  075B  1303               	rrf	(7),w	;volatile
  5110  075C  0C07               	andlw	(1<<1)-1
  5111  075D  3901               	goto	l220
  5112  075E  2FDD               	
  5113                           l2351:	
  5114  075F                     	goto	l220
  5115  075F  2FDD               	line	321
  5116                           	
  5117                           l2353:	
  5118  0760                     ;source.c: 321:             break;
  5119                           	goto	l220
  5120  0760  2FDD               	line	322
  5121                           ;source.c: 322:         case 23:
  5122                           	
  5123                           l244:	
  5124  0761                     	line	323
  5125                           	
  5126                           l2355:	
  5127  0761                     ;source.c: 323:             return PORTCbits.RC2;
  5128                           	bcf	status, 5	;RP0=0, select bank0
  5129  0761  1283               	bcf	status, 6	;RP1=0, select bank0
  5130  0762  1303               	rrf	(7),w	;volatile
  5131  0763  0C07               	movwf	(??_digitalRead+0)+0
  5132  0764  00F0               	rrf	(??_digitalRead+0)+0,w
  5133  0765  0C70               	andlw	(1<<1)-1
  5134  0766  3901               	goto	l220
  5135  0767  2FDD               	
  5136                           l2357:	
  5137  0768                     	goto	l220
  5138  0768  2FDD               	line	324
  5139                           	
  5140                           l2359:	
  5141  0769                     ;source.c: 324:             break;
  5142                           	goto	l220
  5143  0769  2FDD               	line	325
  5144                           ;source.c: 325:         case 24:
  5145                           	
  5146                           l245:	
  5147  076A                     	line	326
  5148                           	
  5149                           l2361:	
  5150  076A                     ;source.c: 326:             return PORTDbits.RD1;
  5151                           	bcf	status, 5	;RP0=0, select bank0
  5152  076A  1283               	bcf	status, 6	;RP1=0, select bank0
  5153  076B  1303               	rrf	(8),w	;volatile
  5154  076C  0C08               	andlw	(1<<1)-1
  5155  076D  3901               	goto	l220
  5156  076E  2FDD               	
  5157                           l2363:	
  5158  076F                     	goto	l220
  5159  076F  2FDD               	line	327
  5160                           	
  5161                           l2365:	
  5162  0770                     ;source.c: 327:             break;
  5163                           	goto	l220
  5164  0770  2FDD               	line	328
  5165                           ;source.c: 328:         case 25:
  5166                           	
  5167                           l246:	
  5168  0771                     	line	329
  5169                           	
  5170                           l2367:	
  5171  0771                     ;source.c: 329:             return PORTDbits.RD0;
  5172                           	bcf	status, 5	;RP0=0, select bank0
  5173  0771  1283               	bcf	status, 6	;RP1=0, select bank0
  5174  0772  1303               	movf	(8),w	;volatile
  5175  0773  0808               	andlw	(1<<1)-1
  5176  0774  3901               	goto	l220
  5177  0775  2FDD               	
  5178                           l2369:	
  5179  0776                     	goto	l220
  5180  0776  2FDD               	line	330
  5181                           	
  5182                           l2371:	
  5183  0777                     ;source.c: 330:             break;
  5184                           	goto	l220
  5185  0777  2FDD               	line	331
  5186                           ;source.c: 331:         case 26:
  5187                           	
  5188                           l247:	
  5189  0778                     	line	332
  5190                           	
  5191                           l2373:	
  5192  0778                     ;source.c: 332:             return PORTAbits.RA2;
  5193                           	bcf	status, 5	;RP0=0, select bank0
  5194  0778  1283               	bcf	status, 6	;RP1=0, select bank0
  5195  0779  1303               	rrf	(5),w	;volatile
  5196  077A  0C05               	movwf	(??_digitalRead+0)+0
  5197  077B  00F0               	rrf	(??_digitalRead+0)+0,w
  5198  077C  0C70               	andlw	(1<<1)-1
  5199  077D  3901               	goto	l220
  5200  077E  2FDD               	
  5201                           l2375:	
  5202  077F                     	goto	l220
  5203  077F  2FDD               	line	333
  5204                           	
  5205                           l2377:	
  5206  0780                     ;source.c: 333:             break;
  5207                           	goto	l220
  5208  0780  2FDD               	line	334
  5209                           	
  5210                           l2379:	
  5211  0781                     ;source.c: 334:     }
  5212                           	goto	l220
  5213  0781  2FDD               	
  5214                           l218:	
  5215  0782                     	
  5216                           l2381:	
  5217  0782                     	movf	(digitalRead@pin),w
  5218  0782  0872               	movwf	(??_digitalRead+0)+0
  5219  0783  00F0               	clrf	(??_digitalRead+0)+0+1
  5220  0784  01F1               	; Switch on 2 bytes has been partitioned into a top level switch of size 1, and 1 sub-s
                                 witches
  5221                           ; Switch size 1, requested type "space"
  5222                           ; Number of cases is 1, Range of values is 0 to 0
  5223                           ; switch strategies available:
  5224                           ; Name         Instructions Cycles
  5225                           ; simple_byte            4     3 (average)
  5226                           ; direct_byte           11     8 (fixed)
  5227                           ; jumptable            260     6 (fixed)
  5228                           ;	Chosen strategy is simple_byte
  5229                           
  5230                           	movf 1+(??_digitalRead+0)+0,w
  5231  0785  0871               	opt asmopt_push
  5232                           	opt asmopt_off
  5233                           	xorlw	0^0	; case 0
  5234  0786  3A00               	skipnz
  5235  0787  1903               	goto	l2929
  5236  0788  2F8A               	goto	l220
  5237  0789  2FDD               	opt asmopt_pop
  5238                           	
  5239                           l2929:	
  5240  078A                     ; Switch size 1, requested type "space"
  5241                           ; Number of cases is 27, Range of values is 0 to 26
  5242                           ; switch strategies available:
  5243                           ; Name         Instructions Cycles
  5244                           ; simple_byte           82    42 (average)
  5245                           ; direct_byte           89     8 (fixed)
  5246                           ; jumptable            260     6 (fixed)
  5247                           ;	Chosen strategy is simple_byte
  5248                           
  5249                           	movf 0+(??_digitalRead+0)+0,w
  5250  078A  0870               	opt asmopt_push
  5251                           	opt asmopt_off
  5252                           	xorlw	0^0	; case 0
  5253  078B  3A00               	skipnz
  5254  078C  1903               	goto	l2217
  5255  078D  2E9F               	xorlw	1^0	; case 1
  5256  078E  3A01               	skipnz
  5257  078F  1903               	goto	l2223
  5258  0790  2EA7               	xorlw	2^1	; case 2
  5259  0791  3A03               	skipnz
  5260  0792  1903               	goto	l2229
  5261  0793  2EB1               	xorlw	3^2	; case 3
  5262  0794  3A01               	skipnz
  5263  0795  1903               	goto	l2235
  5264  0796  2EBA               	xorlw	4^3	; case 4
  5265  0797  3A07               	skipnz
  5266  0798  1903               	goto	l2241
  5267  0799  2EC4               	xorlw	5^4	; case 5
  5268  079A  3A01               	skipnz
  5269  079B  1903               	goto	l2247
  5270  079C  2ECB               	xorlw	6^5	; case 6
  5271  079D  3A03               	skipnz
  5272  079E  1903               	goto	l2253
  5273  079F  2ED4               	xorlw	7^6	; case 7
  5274  07A0  3A01               	skipnz
  5275  07A1  1903               	goto	l2259
  5276  07A2  2EDB               	xorlw	8^7	; case 8
  5277  07A3  3A0F               	skipnz
  5278  07A4  1903               	goto	l2265
  5279  07A5  2EE4               	xorlw	9^8	; case 9
  5280  07A6  3A01               	skipnz
  5281  07A7  1903               	goto	l2271
  5282  07A8  2EEE               	xorlw	10^9	; case 10
  5283  07A9  3A03               	skipnz
  5284  07AA  1903               	goto	l2277
  5285  07AB  2EF6               	xorlw	11^10	; case 11
  5286  07AC  3A01               	skipnz
  5287  07AD  1903               	goto	l2283
  5288  07AE  2EFD               	xorlw	12^11	; case 12
  5289  07AF  3A07               	skipnz
  5290  07B0  1903               	goto	l2289
  5291  07B1  2F04               	xorlw	13^12	; case 13
  5292  07B2  3A01               	skipnz
  5293  07B3  1903               	goto	l2295
  5294  07B4  2F0D               	xorlw	14^13	; case 14
  5295  07B5  3A03               	skipnz
  5296  07B6  1903               	goto	l2301
  5297  07B7  2F14               	xorlw	15^14	; case 15
  5298  07B8  3A01               	skipnz
  5299  07B9  1903               	goto	l2307
  5300  07BA  2F1E               	xorlw	16^15	; case 16
  5301  07BB  3A1F               	skipnz
  5302  07BC  1903               	goto	l2313
  5303  07BD  2F27               	xorlw	17^16	; case 17
  5304  07BE  3A01               	skipnz
  5305  07BF  1903               	goto	l2319
  5306  07C0  2F31               	xorlw	18^17	; case 18
  5307  07C1  3A03               	skipnz
  5308  07C2  1903               	goto	l2325
  5309  07C3  2F3B               	xorlw	19^18	; case 19
  5310  07C4  3A01               	skipnz
  5311  07C5  1903               	goto	l2331
  5312  07C6  2F43               	xorlw	20^19	; case 20
  5313  07C7  3A07               	skipnz
  5314  07C8  1903               	goto	l2337
  5315  07C9  2F4A               	xorlw	21^20	; case 21
  5316  07CA  3A01               	skipnz
  5317  07CB  1903               	goto	l2343
  5318  07CC  2F53               	xorlw	22^21	; case 22
  5319  07CD  3A03               	skipnz
  5320  07CE  1903               	goto	l2349
  5321  07CF  2F5A               	xorlw	23^22	; case 23
  5322  07D0  3A01               	skipnz
  5323  07D1  1903               	goto	l2355
  5324  07D2  2F61               	xorlw	24^23	; case 24
  5325  07D3  3A0F               	skipnz
  5326  07D4  1903               	goto	l2361
  5327  07D5  2F6A               	xorlw	25^24	; case 25
  5328  07D6  3A01               	skipnz
  5329  07D7  1903               	goto	l2367
  5330  07D8  2F71               	xorlw	26^25	; case 26
  5331  07D9  3A03               	skipnz
  5332  07DA  1903               	goto	l2373
  5333  07DB  2F78               	goto	l220
  5334  07DC  2FDD               	opt asmopt_pop
  5335                           
  5336                           	
  5337                           l221:	
  5338  07DD                     	line	335
  5339                           	
  5340                           l220:	
  5341  07DD                     	return
  5342  07DD  0008               	opt stack 0
  5343                           GLOBAL	__end_of_digitalRead
  5344                           	__end_of_digitalRead:
  5345  07DE                     	signat	_digitalRead,4217
  5346                           	global	_analogWrite
  5347                           
  5348 ;; *************** function _analogWrite *****************
  5349 ;; Defined at:
  5350 ;;		line 397 in file "source.c"
  5351 ;; Parameters:    Size  Location     Type
  5352 ;;  pin             1    wreg     unsigned char 
  5353 ;;  value           2    0[COMMON] unsigned int 
  5354 ;; Auto vars:     Size  Location     Type
  5355 ;;  pin             1    5[COMMON] unsigned char 
  5356 ;;  MSB             1    4[COMMON] unsigned char 
  5357 ;; Return value:  Size  Location     Type
  5358 ;;                  1    wreg      void 
  5359 ;; Registers used:
  5360 ;;		wreg, fsr0l, fsr0h, status,2, status,0
  5361 ;; Tracked objects:
  5362 ;;		On entry : 0/0
  5363 ;;		On exit  : 0/0
  5364 ;;		Unchanged: 0/0
  5365 ;; Data sizes:     COMMON   BANK0   BANK1   BANK3   BANK2
  5366 ;;      Params:         2       0       0       0       0
  5367 ;;      Locals:         6       0       0       0       0
  5368 ;;      Temps:          2       0       0       0       0
  5369 ;;      Totals:        10       0       0       0       0
  5370 ;;Total ram usage:       10 bytes
  5371 ;; Hardware stack levels used:    1
  5372 ;; This function calls:
  5373 ;;		Nothing
  5374 ;; This function is called by:
  5375 ;;		_ProcessCommand
  5376 ;; This function uses a non-reentrant model
  5377 ;;
  5378                           psect	text12,local,class=CODE,delta=2,merge=1,group=0
  5379                           	line	397
  5380                           global __ptext12
  5381                           __ptext12:	;psect for function _analogWrite
  5382  0039                     psect	text12
  5383                           	file	"source.c"
  5384                           	line	397
  5385                           	global	__size_of_analogWrite
  5386                           	__size_of_analogWrite	equ	__end_of_analogWrite-_analogWrite
  5387  0075                     	
  5388                           _analogWrite:	
  5389  0039                     ;incstack = 0
  5390                           	opt	stack 5
  5391                           ; Regs used in _analogWrite: [wreg-fsr0h+status,2+status,0]
  5392                           ;analogWrite@pin stored from wreg
  5393                           	movwf	(analogWrite@pin)
  5394  0039  00F5               	line	399
  5395                           	
  5396                           l2427:	
  5397  003A                     ;source.c: 397: void analogWrite(char pin, unsigned int value);source.c: 398: {;source.c
                                 : 399:     char MSB = 0;
  5398                           	clrf	(analogWrite@MSB)
  5399  003A  01F4               	line	400
  5400                           ;source.c: 400:     switch(pin)
  5401                           	goto	l2463
  5402  003B  289D               	line	402
  5403                           ;source.c: 401:     {;source.c: 402:         case 22:
  5404                           	
  5405                           l276:	
  5406  003C                     	line	403
  5407                           ;source.c: 403:             TRISCbits.TRISC1 = 0;
  5408                           	bsf	status, 5	;RP0=1, select bank1
  5409  003C  1683               	bcf	status, 6	;RP1=0, select bank1
  5410  003D  1303               	bcf	(135)^080h,1	;volatile
  5411  003E  1087               	line	404
  5412                           	
  5413                           l2429:	
  5414  003F                     ;source.c: 404:             CCPR2L = value >> 2;
  5415                           	movf	(analogWrite@value+1),w
  5416  003F  0871               	movwf	(??_analogWrite+0)+0+1
  5417  0040  00F3               	movf	(analogWrite@value),w
  5418  0041  0870               	movwf	(??_analogWrite+0)+0
  5419  0042  00F2               	clrc
  5420  0043  1003               	rrf	(??_analogWrite+0)+1,f
  5421  0044  0CF3               	rrf	(??_analogWrite+0)+0,f
  5422  0045  0CF2               	clrc
  5423  0046  1003               	rrf	(??_analogWrite+0)+1,f
  5424  0047  0CF3               	rrf	(??_analogWrite+0)+0,f
  5425  0048  0CF2               	movf	0+(??_analogWrite+0)+0,w
  5426  0049  0872               	bcf	status, 5	;RP0=0, select bank0
  5427  004A  1283               	bcf	status, 6	;RP1=0, select bank0
  5428  004B  1303               	movwf	(27)	;volatile
  5429  004C  009B               	line	405
  5430                           	
  5431                           l2431:	
  5432  004D                     ;source.c: 405:             CCP2X = value && 2;
  5433                           	clrf	(_analogWrite$428)
  5434  004D  01F6               	
  5435                           l2433:	
  5436  004E                     	movf	((analogWrite@value)),w
  5437  004E  0870               iorwf	((analogWrite@value+1)),w
  5438  004F  0471               	btfsc	status,2
  5439  0050  1903               	goto	u691
  5440  0051  2853               	goto	u690
  5441  0052  2854               u691:
  5442  0053                     	goto	l2437
  5443  0053  2857               u690:
  5444  0054                     	
  5445                           l2435:	
  5446  0054                     	clrf	(_analogWrite$428)
  5447  0054  01F6               	incf	(_analogWrite$428),f
  5448  0055  0AF6               	goto	l2437
  5449  0056  2857               	
  5450                           l278:	
  5451  0057                     	
  5452                           l2437:	
  5453  0057                     	rrf	(_analogWrite$428),w
  5454  0057  0C76               	skipc
  5455  0058  1C03               	bcf	(237/8),(237)&7	;volatile
  5456  0059  129D               	skipnc
  5457  005A  1803               	bsf	(237/8),(237)&7	;volatile
  5458  005B  169D               	line	406
  5459                           	
  5460                           l2439:	
  5461  005C                     ;source.c: 406:             CCP2Y = value && 1;
  5462                           	clrf	(_analogWrite$429)
  5463  005C  01F7               	movf	((analogWrite@value)),w
  5464  005D  0870               iorwf	((analogWrite@value+1)),w
  5465  005E  0471               	btfsc	status,2
  5466  005F  1903               	goto	u701
  5467  0060  2862               	goto	u700
  5468  0061  2863               u701:
  5469  0062                     	goto	l2443
  5470  0062  2866               u700:
  5471  0063                     	
  5472                           l2441:	
  5473  0063                     	clrf	(_analogWrite$429)
  5474  0063  01F7               	incf	(_analogWrite$429),f
  5475  0064  0AF7               	goto	l2443
  5476  0065  2866               	
  5477                           l280:	
  5478  0066                     	
  5479                           l2443:	
  5480  0066                     	rrf	(_analogWrite$429),w
  5481  0066  0C77               	skipc
  5482  0067  1C03               	bcf	(236/8),(236)&7	;volatile
  5483  0068  121D               	skipnc
  5484  0069  1803               	bsf	(236/8),(236)&7	;volatile
  5485  006A  161D               	line	407
  5486                           ;source.c: 407:             break;
  5487                           	goto	l287
  5488  006B  28AD               	line	408
  5489                           ;source.c: 408:         case 23:
  5490                           	
  5491                           l282:	
  5492  006C                     	line	409
  5493                           ;source.c: 409:             TRISCbits.TRISC2 = 0;
  5494                           	bsf	status, 5	;RP0=1, select bank1
  5495  006C  1683               	bcf	status, 6	;RP1=0, select bank1
  5496  006D  1303               	bcf	(135)^080h,2	;volatile
  5497  006E  1107               	line	410
  5498                           	
  5499                           l2445:	
  5500  006F                     ;source.c: 410:             CCPR1L = value >> 2;
  5501                           	movf	(analogWrite@value+1),w
  5502  006F  0871               	movwf	(??_analogWrite+0)+0+1
  5503  0070  00F3               	movf	(analogWrite@value),w
  5504  0071  0870               	movwf	(??_analogWrite+0)+0
  5505  0072  00F2               	clrc
  5506  0073  1003               	rrf	(??_analogWrite+0)+1,f
  5507  0074  0CF3               	rrf	(??_analogWrite+0)+0,f
  5508  0075  0CF2               	clrc
  5509  0076  1003               	rrf	(??_analogWrite+0)+1,f
  5510  0077  0CF3               	rrf	(??_analogWrite+0)+0,f
  5511  0078  0CF2               	movf	0+(??_analogWrite+0)+0,w
  5512  0079  0872               	bcf	status, 5	;RP0=0, select bank0
  5513  007A  1283               	bcf	status, 6	;RP1=0, select bank0
  5514  007B  1303               	movwf	(21)	;volatile
  5515  007C  0095               	line	411
  5516                           	
  5517                           l2447:	
  5518  007D                     ;source.c: 411:             CCP1X = value && 2;
  5519                           	clrf	(_analogWrite$430)
  5520  007D  01F8               	
  5521                           l2449:	
  5522  007E                     	movf	((analogWrite@value)),w
  5523  007E  0870               iorwf	((analogWrite@value+1)),w
  5524  007F  0471               	btfsc	status,2
  5525  0080  1903               	goto	u711
  5526  0081  2883               	goto	u710
  5527  0082  2884               u711:
  5528  0083                     	goto	l2453
  5529  0083  2887               u710:
  5530  0084                     	
  5531                           l2451:	
  5532  0084                     	clrf	(_analogWrite$430)
  5533  0084  01F8               	incf	(_analogWrite$430),f
  5534  0085  0AF8               	goto	l2453
  5535  0086  2887               	
  5536                           l284:	
  5537  0087                     	
  5538                           l2453:	
  5539  0087                     	rrf	(_analogWrite$430),w
  5540  0087  0C78               	skipc
  5541  0088  1C03               	bcf	(189/8),(189)&7	;volatile
  5542  0089  1297               	skipnc
  5543  008A  1803               	bsf	(189/8),(189)&7	;volatile
  5544  008B  1697               	line	412
  5545                           	
  5546                           l2455:	
  5547  008C                     ;source.c: 412:             CCP1Y = value && 1;
  5548                           	clrf	(_analogWrite$431)
  5549  008C  01F9               	movf	((analogWrite@value)),w
  5550  008D  0870               iorwf	((analogWrite@value+1)),w
  5551  008E  0471               	btfsc	status,2
  5552  008F  1903               	goto	u721
  5553  0090  2892               	goto	u720
  5554  0091  2893               u721:
  5555  0092                     	goto	l2459
  5556  0092  2896               u720:
  5557  0093                     	
  5558                           l2457:	
  5559  0093                     	clrf	(_analogWrite$431)
  5560  0093  01F9               	incf	(_analogWrite$431),f
  5561  0094  0AF9               	goto	l2459
  5562  0095  2896               	
  5563                           l286:	
  5564  0096                     	
  5565                           l2459:	
  5566  0096                     	rrf	(_analogWrite$431),w
  5567  0096  0C79               	skipc
  5568  0097  1C03               	bcf	(188/8),(188)&7	;volatile
  5569  0098  1217               	skipnc
  5570  0099  1803               	bsf	(188/8),(188)&7	;volatile
  5571  009A  1617               	line	413
  5572                           ;source.c: 413:             break;
  5573                           	goto	l287
  5574  009B  28AD               	line	414
  5575                           	
  5576                           l2461:	
  5577  009C                     ;source.c: 414:     }
  5578                           	goto	l287
  5579  009C  28AD               	
  5580                           l275:	
  5581  009D                     	
  5582                           l2463:	
  5583  009D                     	movf	(analogWrite@pin),w
  5584  009D  0875               	movwf	(??_analogWrite+0)+0
  5585  009E  00F2               	clrf	(??_analogWrite+0)+0+1
  5586  009F  01F3               	; Switch on 2 bytes has been partitioned into a top level switch of size 1, and 1 sub-s
                                 witches
  5587                           ; Switch size 1, requested type "space"
  5588                           ; Number of cases is 1, Range of values is 0 to 0
  5589                           ; switch strategies available:
  5590                           ; Name         Instructions Cycles
  5591                           ; simple_byte            4     3 (average)
  5592                           ; direct_byte           11     8 (fixed)
  5593                           ; jumptable            260     6 (fixed)
  5594                           ;	Chosen strategy is simple_byte
  5595                           
  5596                           	movf 1+(??_analogWrite+0)+0,w
  5597  00A0  0873               	opt asmopt_push
  5598                           	opt asmopt_off
  5599                           	xorlw	0^0	; case 0
  5600  00A1  3A00               	skipnz
  5601  00A2  1903               	goto	l2931
  5602  00A3  28A5               	goto	l287
  5603  00A4  28AD               	opt asmopt_pop
  5604                           	
  5605                           l2931:	
  5606  00A5                     ; Switch size 1, requested type "space"
  5607                           ; Number of cases is 2, Range of values is 22 to 23
  5608                           ; switch strategies available:
  5609                           ; Name         Instructions Cycles
  5610                           ; simple_byte            7     4 (average)
  5611                           ; direct_byte           17    11 (fixed)
  5612                           ; jumptable            263     9 (fixed)
  5613                           ;	Chosen strategy is simple_byte
  5614                           
  5615                           	movf 0+(??_analogWrite+0)+0,w
  5616  00A5  0872               	opt asmopt_push
  5617                           	opt asmopt_off
  5618                           	xorlw	22^0	; case 22
  5619  00A6  3A16               	skipnz
  5620  00A7  1903               	goto	l276
  5621  00A8  283C               	xorlw	23^22	; case 23
  5622  00A9  3A01               	skipnz
  5623  00AA  1903               	goto	l282
  5624  00AB  286C               	goto	l287
  5625  00AC  28AD               	opt asmopt_pop
  5626                           
  5627                           	
  5628                           l281:	
  5629  00AD                     	line	415
  5630                           	
  5631                           l287:	
  5632  00AD                     	return
  5633  00AD  0008               	opt stack 0
  5634                           GLOBAL	__end_of_analogWrite
  5635                           	__end_of_analogWrite:
  5636  00AE                     	signat	_analogWrite,8313
  5637                           	global	_analogRead
  5638                           
  5639 ;; *************** function _analogRead *****************
  5640 ;; Defined at:
  5641 ;;		line 336 in file "source.c"
  5642 ;; Parameters:    Size  Location     Type
  5643 ;;  channel         1    wreg     unsigned char 
  5644 ;; Auto vars:     Size  Location     Type
  5645 ;;  channel         1    4[COMMON] unsigned char 
  5646 ;; Return value:  Size  Location     Type
  5647 ;;                  2    0[COMMON] unsigned int 
  5648 ;; Registers used:
  5649 ;;		wreg, fsr0l, fsr0h, status,2, status,0
  5650 ;; Tracked objects:
  5651 ;;		On entry : 0/0
  5652 ;;		On exit  : 0/0
  5653 ;;		Unchanged: 0/0
  5654 ;; Data sizes:     COMMON   BANK0   BANK1   BANK3   BANK2
  5655 ;;      Params:         2       0       0       0       0
  5656 ;;      Locals:         1       0       0       0       0
  5657 ;;      Temps:          2       0       0       0       0
  5658 ;;      Totals:         5       0       0       0       0
  5659 ;;Total ram usage:        5 bytes
  5660 ;; Hardware stack levels used:    1
  5661 ;; This function calls:
  5662 ;;		Nothing
  5663 ;; This function is called by:
  5664 ;;		_ProcessCommand
  5665 ;; This function uses a non-reentrant model
  5666 ;;
  5667                           psect	text13,local,class=CODE,delta=2,merge=1,group=0
  5668                           	line	336
  5669                           global __ptext13
  5670                           __ptext13:	;psect for function _analogRead
  5671  00AE                     psect	text13
  5672                           	file	"source.c"
  5673                           	line	336
  5674                           	global	__size_of_analogRead
  5675                           	__size_of_analogRead	equ	__end_of_analogRead-_analogRead
  5676  0086                     	
  5677                           _analogRead:	
  5678  00AE                     ;incstack = 0
  5679                           	opt	stack 5
  5680                           ; Regs used in _analogRead: [wreg-fsr0h+status,2+status,0]
  5681                           ;analogRead@channel stored from wreg
  5682                           	movwf	(analogRead@channel)
  5683  00AE  00F4               	line	338
  5684                           	
  5685                           l2387:	
  5686  00AF                     ;source.c: 336: unsigned int analogRead(char channel);source.c: 337: {;source.c: 338:   
                                   switch(channel)
  5687                           	goto	l2421
  5688  00AF  291A               	line	340
  5689                           ;source.c: 339:     {;source.c: 340:         case 0:
  5690                           	
  5691                           l251:	
  5692  00B0                     	line	341
  5693                           ;source.c: 341:             ADCON0bits.CHS2 = 0;
  5694                           	bcf	status, 5	;RP0=0, select bank0
  5695  00B0  1283               	bcf	status, 6	;RP1=0, select bank0
  5696  00B1  1303               	bcf	(31),5	;volatile
  5697  00B2  129F               	line	342
  5698                           ;source.c: 342:             ADCON0bits.CHS1 = 0;
  5699                           	bcf	(31),4	;volatile
  5700  00B3  121F               	line	343
  5701                           ;source.c: 343:             ADCON0bits.CHS0 = 0;
  5702                           	bcf	(31),3	;volatile
  5703  00B4  119F               	line	344
  5704                           ;source.c: 344:             ADCON0bits.GO_DONE = 1;
  5705                           	bsf	(31),2	;volatile
  5706  00B5  151F               	line	345
  5707                           ;source.c: 345:             while(ADCON0bits.GO_DONE != 0)
  5708                           	goto	l252
  5709  00B6  28B7               	
  5710                           l253:	
  5711  00B7                     	line	348
  5712                           ;source.c: 346:             {;source.c: 348:             }
  5713                           	
  5714                           l252:	
  5715  00B7                     	line	345
  5716                           ;source.c: 345:             while(ADCON0bits.GO_DONE != 0)
  5717                           	btfsc	(31),2	;volatile
  5718  00B7  191F               	goto	u641
  5719  00B8  28BA               	goto	u640
  5720  00B9  28BB               u641:
  5721  00BA                     	goto	l252
  5722  00BA  28B7               u640:
  5723  00BB                     	goto	l2389
  5724  00BB  28BC               	
  5725                           l254:	
  5726  00BC                     	line	349
  5727                           	
  5728                           l2389:	
  5729  00BC                     ;source.c: 349:             return (ADRESH << 8)+ ADRESL;
  5730                           	movf	(30),w	;volatile
  5731  00BC  081E               	movwf	(?_analogRead+1)
  5732  00BD  00F1               	bsf	status, 5	;RP0=1, select bank1
  5733  00BE  1683               	bcf	status, 6	;RP1=0, select bank1
  5734  00BF  1303               	movf	(158)^080h,w	;volatile
  5735  00C0  081E               	movwf	(?_analogRead)
  5736  00C1  00F0               	goto	l255
  5737  00C2  2933               	
  5738                           l2391:	
  5739  00C3                     	goto	l255
  5740  00C3  2933               	line	350
  5741                           	
  5742                           l2393:	
  5743  00C4                     ;source.c: 350:             break;
  5744                           	goto	l255
  5745  00C4  2933               	line	351
  5746                           ;source.c: 351:         case 1:
  5747                           	
  5748                           l257:	
  5749  00C5                     	line	352
  5750                           ;source.c: 352:             ADCON0bits.CHS2 = 0;
  5751                           	bcf	status, 5	;RP0=0, select bank0
  5752  00C5  1283               	bcf	status, 6	;RP1=0, select bank0
  5753  00C6  1303               	bcf	(31),5	;volatile
  5754  00C7  129F               	line	353
  5755                           ;source.c: 353:             ADCON0bits.CHS1 = 0;
  5756                           	bcf	(31),4	;volatile
  5757  00C8  121F               	line	354
  5758                           ;source.c: 354:             ADCON0bits.CHS0 = 1;
  5759                           	bsf	(31),3	;volatile
  5760  00C9  159F               	line	355
  5761                           ;source.c: 355:             ADCON0bits.GO_DONE = 1;
  5762                           	bsf	(31),2	;volatile
  5763  00CA  151F               	line	356
  5764                           ;source.c: 356:             while(ADCON0bits.GO_DONE != 0)
  5765                           	goto	l258
  5766  00CB  28CC               	
  5767                           l259:	
  5768  00CC                     	line	359
  5769                           ;source.c: 357:             {;source.c: 359:             }
  5770                           	
  5771                           l258:	
  5772  00CC                     	line	356
  5773                           ;source.c: 356:             while(ADCON0bits.GO_DONE != 0)
  5774                           	btfsc	(31),2	;volatile
  5775  00CC  191F               	goto	u651
  5776  00CD  28CF               	goto	u650
  5777  00CE  28D0               u651:
  5778  00CF                     	goto	l258
  5779  00CF  28CC               u650:
  5780  00D0                     	goto	l2395
  5781  00D0  28D1               	
  5782                           l260:	
  5783  00D1                     	line	360
  5784                           	
  5785                           l2395:	
  5786  00D1                     ;source.c: 360:             return (ADRESH << 8)+ ADRESL;
  5787                           	movf	(30),w	;volatile
  5788  00D1  081E               	movwf	(?_analogRead+1)
  5789  00D2  00F1               	bsf	status, 5	;RP0=1, select bank1
  5790  00D3  1683               	bcf	status, 6	;RP1=0, select bank1
  5791  00D4  1303               	movf	(158)^080h,w	;volatile
  5792  00D5  081E               	movwf	(?_analogRead)
  5793  00D6  00F0               	goto	l255
  5794  00D7  2933               	
  5795                           l2397:	
  5796  00D8                     	goto	l255
  5797  00D8  2933               	line	361
  5798                           	
  5799                           l2399:	
  5800  00D9                     ;source.c: 361:             break;
  5801                           	goto	l255
  5802  00D9  2933               	line	362
  5803                           ;source.c: 362:         case 2:
  5804                           	
  5805                           l261:	
  5806  00DA                     	line	363
  5807                           ;source.c: 363:             ADCON0bits.CHS2 = 0;
  5808                           	bcf	status, 5	;RP0=0, select bank0
  5809  00DA  1283               	bcf	status, 6	;RP1=0, select bank0
  5810  00DB  1303               	bcf	(31),5	;volatile
  5811  00DC  129F               	line	364
  5812                           ;source.c: 364:             ADCON0bits.CHS1 = 1;
  5813                           	bsf	(31),4	;volatile
  5814  00DD  161F               	line	365
  5815                           ;source.c: 365:             ADCON0bits.CHS0 = 0;
  5816                           	bcf	(31),3	;volatile
  5817  00DE  119F               	line	366
  5818                           ;source.c: 366:             ADCON0bits.GO_DONE = 1;
  5819                           	bsf	(31),2	;volatile
  5820  00DF  151F               	line	367
  5821                           ;source.c: 367:             while(ADCON0bits.GO_DONE != 0)
  5822                           	goto	l262
  5823  00E0  28E1               	
  5824                           l263:	
  5825  00E1                     	line	370
  5826                           ;source.c: 368:             {;source.c: 370:             }
  5827                           	
  5828                           l262:	
  5829  00E1                     	line	367
  5830                           ;source.c: 367:             while(ADCON0bits.GO_DONE != 0)
  5831                           	btfsc	(31),2	;volatile
  5832  00E1  191F               	goto	u661
  5833  00E2  28E4               	goto	u660
  5834  00E3  28E5               u661:
  5835  00E4                     	goto	l262
  5836  00E4  28E1               u660:
  5837  00E5                     	goto	l2401
  5838  00E5  28E6               	
  5839                           l264:	
  5840  00E6                     	line	371
  5841                           	
  5842                           l2401:	
  5843  00E6                     ;source.c: 371:             return (ADRESH << 8)+ ADRESL;
  5844                           	movf	(30),w	;volatile
  5845  00E6  081E               	movwf	(?_analogRead+1)
  5846  00E7  00F1               	bsf	status, 5	;RP0=1, select bank1
  5847  00E8  1683               	bcf	status, 6	;RP1=0, select bank1
  5848  00E9  1303               	movf	(158)^080h,w	;volatile
  5849  00EA  081E               	movwf	(?_analogRead)
  5850  00EB  00F0               	goto	l255
  5851  00EC  2933               	
  5852                           l2403:	
  5853  00ED                     	goto	l255
  5854  00ED  2933               	line	372
  5855                           	
  5856                           l2405:	
  5857  00EE                     ;source.c: 372:             break;
  5858                           	goto	l255
  5859  00EE  2933               	line	373
  5860                           ;source.c: 373:         case 3:
  5861                           	
  5862                           l265:	
  5863  00EF                     	line	374
  5864                           ;source.c: 374:             ADCON0bits.CHS2 = 0;
  5865                           	bcf	status, 5	;RP0=0, select bank0
  5866  00EF  1283               	bcf	status, 6	;RP1=0, select bank0
  5867  00F0  1303               	bcf	(31),5	;volatile
  5868  00F1  129F               	line	375
  5869                           ;source.c: 375:             ADCON0bits.CHS1 = 1;
  5870                           	bsf	(31),4	;volatile
  5871  00F2  161F               	line	376
  5872                           ;source.c: 376:             ADCON0bits.CHS0 = 1;
  5873                           	bsf	(31),3	;volatile
  5874  00F3  159F               	line	377
  5875                           ;source.c: 377:             ADCON0bits.GO_DONE = 1;
  5876                           	bsf	(31),2	;volatile
  5877  00F4  151F               	line	378
  5878                           ;source.c: 378:             while(ADCON0bits.GO_DONE != 0)
  5879                           	goto	l266
  5880  00F5  28F6               	
  5881                           l267:	
  5882  00F6                     	line	381
  5883                           ;source.c: 379:             {;source.c: 381:             }
  5884                           	
  5885                           l266:	
  5886  00F6                     	line	378
  5887                           ;source.c: 378:             while(ADCON0bits.GO_DONE != 0)
  5888                           	btfsc	(31),2	;volatile
  5889  00F6  191F               	goto	u671
  5890  00F7  28F9               	goto	u670
  5891  00F8  28FA               u671:
  5892  00F9                     	goto	l266
  5893  00F9  28F6               u670:
  5894  00FA                     	goto	l2407
  5895  00FA  28FB               	
  5896                           l268:	
  5897  00FB                     	line	382
  5898                           	
  5899                           l2407:	
  5900  00FB                     ;source.c: 382:             return (ADRESH << 8)+ ADRESL;
  5901                           	movf	(30),w	;volatile
  5902  00FB  081E               	movwf	(?_analogRead+1)
  5903  00FC  00F1               	bsf	status, 5	;RP0=1, select bank1
  5904  00FD  1683               	bcf	status, 6	;RP1=0, select bank1
  5905  00FE  1303               	movf	(158)^080h,w	;volatile
  5906  00FF  081E               	movwf	(?_analogRead)
  5907  0100  00F0               	goto	l255
  5908  0101  2933               	
  5909                           l2409:	
  5910  0102                     	goto	l255
  5911  0102  2933               	line	383
  5912                           	
  5913                           l2411:	
  5914  0103                     ;source.c: 383:             break;
  5915                           	goto	l255
  5916  0103  2933               	line	384
  5917                           ;source.c: 384:         case 4:
  5918                           	
  5919                           l269:	
  5920  0104                     	line	385
  5921                           ;source.c: 385:             ADCON0bits.CHS2 = 1;
  5922                           	bcf	status, 5	;RP0=0, select bank0
  5923  0104  1283               	bcf	status, 6	;RP1=0, select bank0
  5924  0105  1303               	bsf	(31),5	;volatile
  5925  0106  169F               	line	386
  5926                           ;source.c: 386:             ADCON0bits.CHS1 = 0;
  5927                           	bcf	(31),4	;volatile
  5928  0107  121F               	line	387
  5929                           ;source.c: 387:             ADCON0bits.CHS0 = 0;
  5930                           	bcf	(31),3	;volatile
  5931  0108  119F               	line	388
  5932                           ;source.c: 388:             ADCON0bits.GO_DONE = 1;
  5933                           	bsf	(31),2	;volatile
  5934  0109  151F               	line	389
  5935                           ;source.c: 389:             while(ADCON0bits.GO_DONE != 0)
  5936                           	goto	l270
  5937  010A  290B               	
  5938                           l271:	
  5939  010B                     	line	392
  5940                           ;source.c: 390:             {;source.c: 392:             }
  5941                           	
  5942                           l270:	
  5943  010B                     	line	389
  5944                           ;source.c: 389:             while(ADCON0bits.GO_DONE != 0)
  5945                           	btfsc	(31),2	;volatile
  5946  010B  191F               	goto	u681
  5947  010C  290E               	goto	u680
  5948  010D  290F               u681:
  5949  010E                     	goto	l270
  5950  010E  290B               u680:
  5951  010F                     	goto	l2413
  5952  010F  2910               	
  5953                           l272:	
  5954  0110                     	line	393
  5955                           	
  5956                           l2413:	
  5957  0110                     ;source.c: 393:             return (ADRESH << 8)+ ADRESL;
  5958                           	movf	(30),w	;volatile
  5959  0110  081E               	movwf	(?_analogRead+1)
  5960  0111  00F1               	bsf	status, 5	;RP0=1, select bank1
  5961  0112  1683               	bcf	status, 6	;RP1=0, select bank1
  5962  0113  1303               	movf	(158)^080h,w	;volatile
  5963  0114  081E               	movwf	(?_analogRead)
  5964  0115  00F0               	goto	l255
  5965  0116  2933               	
  5966                           l2415:	
  5967  0117                     	goto	l255
  5968  0117  2933               	line	394
  5969                           	
  5970                           l2417:	
  5971  0118                     ;source.c: 394:             break;
  5972                           	goto	l255
  5973  0118  2933               	line	395
  5974                           	
  5975                           l2419:	
  5976  0119                     ;source.c: 395:     }
  5977                           	goto	l255
  5978  0119  2933               	
  5979                           l250:	
  5980  011A                     	
  5981                           l2421:	
  5982  011A                     	movf	(analogRead@channel),w
  5983  011A  0874               	movwf	(??_analogRead+0)+0
  5984  011B  00F2               	clrf	(??_analogRead+0)+0+1
  5985  011C  01F3               	; Switch on 2 bytes has been partitioned into a top level switch of size 1, and 1 sub-s
                                 witches
  5986                           ; Switch size 1, requested type "space"
  5987                           ; Number of cases is 1, Range of values is 0 to 0
  5988                           ; switch strategies available:
  5989                           ; Name         Instructions Cycles
  5990                           ; simple_byte            4     3 (average)
  5991                           ; direct_byte           11     8 (fixed)
  5992                           ; jumptable            260     6 (fixed)
  5993                           ;	Chosen strategy is simple_byte
  5994                           
  5995                           	movf 1+(??_analogRead+0)+0,w
  5996  011D  0873               	opt asmopt_push
  5997                           	opt asmopt_off
  5998                           	xorlw	0^0	; case 0
  5999  011E  3A00               	skipnz
  6000  011F  1903               	goto	l2933
  6001  0120  2922               	goto	l255
  6002  0121  2933               	opt asmopt_pop
  6003                           	
  6004                           l2933:	
  6005  0122                     ; Switch size 1, requested type "space"
  6006                           ; Number of cases is 5, Range of values is 0 to 4
  6007                           ; switch strategies available:
  6008                           ; Name         Instructions Cycles
  6009                           ; simple_byte           16     9 (average)
  6010                           ; direct_byte           23     8 (fixed)
  6011                           ; jumptable            260     6 (fixed)
  6012                           ;	Chosen strategy is simple_byte
  6013                           
  6014                           	movf 0+(??_analogRead+0)+0,w
  6015  0122  0872               	opt asmopt_push
  6016                           	opt asmopt_off
  6017                           	xorlw	0^0	; case 0
  6018  0123  3A00               	skipnz
  6019  0124  1903               	goto	l251
  6020  0125  28B0               	xorlw	1^0	; case 1
  6021  0126  3A01               	skipnz
  6022  0127  1903               	goto	l257
  6023  0128  28C5               	xorlw	2^1	; case 2
  6024  0129  3A03               	skipnz
  6025  012A  1903               	goto	l261
  6026  012B  28DA               	xorlw	3^2	; case 3
  6027  012C  3A01               	skipnz
  6028  012D  1903               	goto	l265
  6029  012E  28EF               	xorlw	4^3	; case 4
  6030  012F  3A07               	skipnz
  6031  0130  1903               	goto	l269
  6032  0131  2904               	goto	l255
  6033  0132  2933               	opt asmopt_pop
  6034                           
  6035                           	
  6036                           l256:	
  6037  0133                     	line	396
  6038                           	
  6039                           l255:	
  6040  0133                     	return
  6041  0133  0008               	opt stack 0
  6042                           GLOBAL	__end_of_analogRead
  6043                           	__end_of_analogRead:
  6044  0134                     	signat	_analogRead,4218
  6045                           	global	_Initialization
  6046                           
  6047 ;; *************** function _Initialization *****************
  6048 ;; Defined at:
  6049 ;;		line 18 in file "source.c"
  6050 ;; Parameters:    Size  Location     Type
  6051 ;;		None
  6052 ;; Auto vars:     Size  Location     Type
  6053 ;;		None
  6054 ;; Return value:  Size  Location     Type
  6055 ;;                  1    wreg      void 
  6056 ;; Registers used:
  6057 ;;		wreg, status,2, status,0, pclath, cstack
  6058 ;; Tracked objects:
  6059 ;;		On entry : 0/0
  6060 ;;		On exit  : 0/0
  6061 ;;		Unchanged: 0/0
  6062 ;; Data sizes:     COMMON   BANK0   BANK1   BANK3   BANK2
  6063 ;;      Params:         0       0       0       0       0
  6064 ;;      Locals:         0       0       0       0       0
  6065 ;;      Temps:          0       0       0       0       0
  6066 ;;      Totals:         0       0       0       0       0
  6067 ;;Total ram usage:        0 bytes
  6068 ;; Hardware stack levels used:    1
  6069 ;; Hardware stack levels required when called:    1
  6070 ;; This function calls:
  6071 ;;		_CCP1Configuration
  6072 ;;		_CCP2Configuration
  6073 ;; This function is called by:
  6074 ;;		_main
  6075 ;; This function uses a non-reentrant model
  6076 ;;
  6077                           psect	text14,local,class=CODE,delta=2,merge=1,group=0
  6078                           	line	18
  6079                           global __ptext14
  6080                           __ptext14:	;psect for function _Initialization
  6081  0013                     psect	text14
  6082                           	file	"source.c"
  6083                           	line	18
  6084                           	global	__size_of_Initialization
  6085                           	__size_of_Initialization	equ	__end_of_Initialization-_Initialization
  6086  0026                     	
  6087                           _Initialization:	
  6088  0013                     ;incstack = 0
  6089                           	opt	stack 6
  6090                           ; Regs used in _Initialization: [wreg+status,2+status,0+pclath+cstack]
  6091                           	line	21
  6092                           	
  6093                           l1647:	
  6094  0013                     ;source.c: 21:     ADCON0 = 0x81;
  6095                           	movlw	low(081h)
  6096  0013  3081               	bcf	status, 5	;RP0=0, select bank0
  6097  0014  1283               	bcf	status, 6	;RP1=0, select bank0
  6098  0015  1303               	movwf	(31)	;volatile
  6099  0016  009F               	line	22
  6100                           ;source.c: 22:     ADCON1 = 0xC2;
  6101                           	movlw	low(0C2h)
  6102  0017  30C2               	bsf	status, 5	;RP0=1, select bank1
  6103  0018  1683               	bcf	status, 6	;RP1=0, select bank1
  6104  0019  1303               	movwf	(159)^080h	;volatile
  6105  001A  009F               	line	24
  6106                           # 24 "source.c"
  6107                           CLRF PORTA ;# 
  6108  001B  0185               	line	25
  6109                           # 25 "source.c"
  6110                           MOVLW 0x3F ;# 
  6111  001C  303F               	line	26
  6112                           # 26 "source.c"
  6113                           MOVWF TRISA ;# 
  6114  001D  0085               	line	28
  6115                           # 28 "source.c"
  6116                           CLRF PORTB ;# 
  6117  001E  0186               	line	29
  6118                           # 29 "source.c"
  6119                           MOVLW 0x00 ;# 
  6120  001F  3000               	line	30
  6121                           # 30 "source.c"
  6122                           MOVWF TRISB ;# 
  6123  0020  0086               	line	32
  6124                           # 32 "source.c"
  6125                           CLRF PORTC ;# 
  6126  0021  0187               	line	33
  6127                           # 33 "source.c"
  6128                           MOVLW 0x00 ;# 
  6129  0022  3000               	line	34
  6130                           # 34 "source.c"
  6131                           MOVWF TRISC ;# 
  6132  0023  0087               psect	text14
  6133                           	line	35
  6134                           	
  6135                           l1649:	
  6136  0024                     ;source.c: 35:     CCP1Configuration();
  6137                           	fcall	_CCP1Configuration
  6138  0024  120A  158A  276B  120A  118A  	line	36
  6139                           	
  6140                           l1651:	
  6141  0029                     ;source.c: 36:     CCP2Configuration();
  6142                           	fcall	_CCP2Configuration
  6143  0029  120A  158A  2766  120A  118A  	line	38
  6144                           # 38 "source.c"
  6145                           CLRF PORTD ;# 
  6146  002E  0188               	line	39
  6147                           # 39 "source.c"
  6148                           MOVLW 0x00 ;# 
  6149  002F  3000               	line	40
  6150                           # 40 "source.c"
  6151                           MOVF TRISD ;# 
  6152  0030  0888               psect	text14
  6153                           	line	41
  6154                           	
  6155                           l1653:	
  6156  0031                     ;source.c: 41:     PORTE = 0x00;
  6157                           	bcf	status, 5	;RP0=0, select bank0
  6158  0031  1283               	bcf	status, 6	;RP1=0, select bank0
  6159  0032  1303               	clrf	(9)	;volatile
  6160  0033  0189               	line	42
  6161                           	
  6162                           l1655:	
  6163  0034                     ;source.c: 42:     TRISE = 0x07;
  6164                           	movlw	low(07h)
  6165  0034  3007               	bsf	status, 5	;RP0=1, select bank1
  6166  0035  1683               	bcf	status, 6	;RP1=0, select bank1
  6167  0036  1303               	movwf	(137)^080h	;volatile
  6168  0037  0089               	line	43
  6169                           	
  6170                           l139:	
  6171  0038                     	return
  6172  0038  0008               	opt stack 0
  6173                           GLOBAL	__end_of_Initialization
  6174                           	__end_of_Initialization:
  6175  0039                     	signat	_Initialization,89
  6176                           	global	_CCP2Configuration
  6177                           
  6178 ;; *************** function _CCP2Configuration *****************
  6179 ;; Defined at:
  6180 ;;		line 55 in file "source.c"
  6181 ;; Parameters:    Size  Location     Type
  6182 ;;		None
  6183 ;; Auto vars:     Size  Location     Type
  6184 ;;		None
  6185 ;; Return value:  Size  Location     Type
  6186 ;;                  1    wreg      void 
  6187 ;; Registers used:
  6188 ;;		wreg
  6189 ;; Tracked objects:
  6190 ;;		On entry : 0/0
  6191 ;;		On exit  : 0/0
  6192 ;;		Unchanged: 0/0
  6193 ;; Data sizes:     COMMON   BANK0   BANK1   BANK3   BANK2
  6194 ;;      Params:         0       0       0       0       0
  6195 ;;      Locals:         0       0       0       0       0
  6196 ;;      Temps:          0       0       0       0       0
  6197 ;;      Totals:         0       0       0       0       0
  6198 ;;Total ram usage:        0 bytes
  6199 ;; Hardware stack levels used:    1
  6200 ;; This function calls:
  6201 ;;		Nothing
  6202 ;; This function is called by:
  6203 ;;		_Initialization
  6204 ;; This function uses a non-reentrant model
  6205 ;;
  6206                           psect	text15,local,class=CODE,delta=2,merge=1,group=0
  6207                           	line	55
  6208                           global __ptext15
  6209                           __ptext15:	;psect for function _CCP2Configuration
  6210  0F66                     psect	text15
  6211                           	file	"source.c"
  6212                           	line	55
  6213                           	global	__size_of_CCP2Configuration
  6214                           	__size_of_CCP2Configuration	equ	__end_of_CCP2Configuration-_CCP2Configuration
  6215  0005                     	
  6216                           _CCP2Configuration:	
  6217  0F66                     ;incstack = 0
  6218                           	opt	stack 6
  6219                           ; Regs used in _CCP2Configuration: [wreg]
  6220                           	line	57
  6221                           	
  6222                           l1505:	
  6223  0F66                     ;source.c: 57:     CCP2CON = 0x4F;
  6224                           	movlw	low(04Fh)
  6225  0F66  304F               	bcf	status, 5	;RP0=0, select bank0
  6226  0F67  1283               	bcf	status, 6	;RP1=0, select bank0
  6227  0F68  1303               	movwf	(29)	;volatile
  6228  0F69  009D               	line	58
  6229                           	
  6230                           l148:	
  6231  0F6A                     	return
  6232  0F6A  0008               	opt stack 0
  6233                           GLOBAL	__end_of_CCP2Configuration
  6234                           	__end_of_CCP2Configuration:
  6235  0F6B                     	signat	_CCP2Configuration,89
  6236                           	global	_CCP1Configuration
  6237                           
  6238 ;; *************** function _CCP1Configuration *****************
  6239 ;; Defined at:
  6240 ;;		line 44 in file "source.c"
  6241 ;; Parameters:    Size  Location     Type
  6242 ;;		None
  6243 ;; Auto vars:     Size  Location     Type
  6244 ;;		None
  6245 ;; Return value:  Size  Location     Type
  6246 ;;                  1    wreg      void 
  6247 ;; Registers used:
  6248 ;;		wreg
  6249 ;; Tracked objects:
  6250 ;;		On entry : 0/0
  6251 ;;		On exit  : 0/0
  6252 ;;		Unchanged: 0/0
  6253 ;; Data sizes:     COMMON   BANK0   BANK1   BANK3   BANK2
  6254 ;;      Params:         0       0       0       0       0
  6255 ;;      Locals:         0       0       0       0       0
  6256 ;;      Temps:          0       0       0       0       0
  6257 ;;      Totals:         0       0       0       0       0
  6258 ;;Total ram usage:        0 bytes
  6259 ;; Hardware stack levels used:    1
  6260 ;; This function calls:
  6261 ;;		Nothing
  6262 ;; This function is called by:
  6263 ;;		_Initialization
  6264 ;; This function uses a non-reentrant model
  6265 ;;
  6266                           psect	text16,local,class=CODE,delta=2,merge=1,group=0
  6267                           	line	44
  6268                           global __ptext16
  6269                           __ptext16:	;psect for function _CCP1Configuration
  6270  0F6B                     psect	text16
  6271                           	file	"source.c"
  6272                           	line	44
  6273                           	global	__size_of_CCP1Configuration
  6274                           	__size_of_CCP1Configuration	equ	__end_of_CCP1Configuration-_CCP1Configuration
  6275  000B                     	
  6276                           _CCP1Configuration:	
  6277  0F6B                     ;incstack = 0
  6278                           	opt	stack 6
  6279                           ; Regs used in _CCP1Configuration: [wreg]
  6280                           	line	46
  6281                           	
  6282                           l1503:	
  6283  0F6B                     ;source.c: 46:     PR2 = 0xFF;
  6284                           	movlw	low(0FFh)
  6285  0F6B  30FF               	bsf	status, 5	;RP0=1, select bank1
  6286  0F6C  1683               	bcf	status, 6	;RP1=0, select bank1
  6287  0F6D  1303               	movwf	(146)^080h	;volatile
  6288  0F6E  0092               	line	47
  6289                           ;source.c: 47:     T2CON = 0x05;
  6290                           	movlw	low(05h)
  6291  0F6F  3005               	bcf	status, 5	;RP0=0, select bank0
  6292  0F70  1283               	bcf	status, 6	;RP1=0, select bank0
  6293  0F71  1303               	movwf	(18)	;volatile
  6294  0F72  0092               	line	48
  6295                           ;source.c: 48:     CCP1CON = 0x4F;
  6296                           	movlw	low(04Fh)
  6297  0F73  304F               	movwf	(23)	;volatile
  6298  0F74  0097               	line	49
  6299                           	
  6300                           l142:	
  6301  0F75                     	return
  6302  0F75  0008               	opt stack 0
  6303                           GLOBAL	__end_of_CCP1Configuration
  6304                           	__end_of_CCP1Configuration:
  6305  0F76                     	signat	_CCP1Configuration,89
  6306                           global	___latbits
  6307                           ___latbits	equ	2
  6308  0002                     	global	btemp
  6309                           	btemp set 07Eh
  6310  007E                     
  6311                           	DABS	1,126,2	;btemp
  6312                           	global	wtemp0
  6313                           	wtemp0 set btemp+0
  6314  007E                     	end


Data Sizes:
    Strings     0
    Constant    0
    Data        3
    BSS         12
    Persistent  0
    Stack       0

Auto Spaces:
    Space          Size  Autos    Used
    COMMON           14     14      14
    BANK0            80     12      27
    BANK1            80      0       0
    BANK3            96      0       0
    BANK2            96      0       0

Pointer List with Targets:

    None.

Critical Paths under _main in COMMON

    _main->_setup
    _setup->_SerialBegin
    _SerialBegin->___aldiv
    _loop->_ProcessCommand
    _ProcessCommand->_analogWrite

Critical Paths under _main in BANK0

    _main->_loop
    _setup->_SerialBegin
    _SerialBegin->___aldiv
    _loop->_ProcessCommand

Critical Paths under _main in BANK1

    None.

Critical Paths under _main in BANK3

    None.

Critical Paths under _main in BANK2

    None.

Call Graph Tables:

 ---------------------------------------------------------------------------------
 (Depth) Function   	        Calls       Base Space   Used Autos Params    Refs
 ---------------------------------------------------------------------------------
 (0) _main                                                 0     0      0    5140
                     _Initialization
                               _loop
                              _setup
 ---------------------------------------------------------------------------------
 (1) _setup                                                1     1      0    2426
                                             13 COMMON     1     1      0
                        _SerialBegin
                         _SerialRead
                        _SerialWrite
                       _digitalWrite
                            _pinMode
 ---------------------------------------------------------------------------------
 (2) _SerialBegin                                         10     6      4     792
                                              9 COMMON     4     4      0
                                              6 BANK0      6     2      4
                            ___aldiv
 ---------------------------------------------------------------------------------
 (3) ___aldiv                                             15     7      8     604
                                              0 COMMON     9     1      8
                                              0 BANK0      6     6      0
 ---------------------------------------------------------------------------------
 (1) _loop                                                 7     7      0    2714
                                              5 BANK0      7     7      0
                     _ProcessCommand
                    _SerialAvailable
                         _SerialRead
                        _SerialWrite
 ---------------------------------------------------------------------------------
 (2) _SerialWrite                                          1     1      0      22
                                              0 COMMON     1     1      0
 ---------------------------------------------------------------------------------
 (2) _SerialRead                                           0     0      0       0
 ---------------------------------------------------------------------------------
 (2) _SerialAvailable                                      1     1      0       8
                                              0 COMMON     1     1      0
 ---------------------------------------------------------------------------------
 (2) _ProcessCommand                                       8     5      3    2570
                                             10 COMMON     3     0      3
                                              0 BANK0      5     5      0
                         _analogRead
                        _analogWrite
                        _digitalRead
                       _digitalWrite
                            _pinMode
 ---------------------------------------------------------------------------------
 (2) _pinMode                                              4     3      1     768
                                              0 COMMON     4     3      1
 ---------------------------------------------------------------------------------
 (2) _digitalWrite                                         4     3      1     844
                                              0 COMMON     4     3      1
 ---------------------------------------------------------------------------------
 (3) _digitalRead                                          3     3      0      22
                                              0 COMMON     3     3      0
 ---------------------------------------------------------------------------------
 (3) _analogWrite                                         10     8      2     327
                                              0 COMMON    10     8      2
 ---------------------------------------------------------------------------------
 (3) _analogRead                                           5     3      2      22
                                              0 COMMON     5     3      2
 ---------------------------------------------------------------------------------
 (1) _Initialization                                       0     0      0       0
                  _CCP1Configuration
                  _CCP2Configuration
 ---------------------------------------------------------------------------------
 (2) _CCP2Configuration                                    0     0      0       0
 ---------------------------------------------------------------------------------
 (2) _CCP1Configuration                                    0     0      0       0
 ---------------------------------------------------------------------------------
 Estimated maximum stack depth 3
 ---------------------------------------------------------------------------------

 Call Graph Graphs:

 _main (ROOT)
   _Initialization
     _CCP1Configuration
     _CCP2Configuration
   _loop
     _ProcessCommand
       _analogRead
       _analogWrite
       _digitalRead
       _digitalWrite
       _pinMode
     _SerialAvailable
     _SerialRead
     _SerialWrite
   _setup
     _SerialBegin
       ___aldiv
     _SerialRead
     _SerialWrite
     _digitalWrite
     _pinMode

 Address spaces:
Name               Size   Autos  Total    Cost      Usage
BANK3               60      0       0       9        0.0%
BITBANK3            60      0       0       8        0.0%
SFR3                 0      0       0       4        0.0%
BITSFR3              0      0       0       4        0.0%
BANK2               60      0       0      11        0.0%
BITBANK2            60      0       0      10        0.0%
SFR2                 0      0       0       5        0.0%
BITSFR2              0      0       0       5        0.0%
BANK1               50      0       0       7        0.0%
BITBANK1            50      0       0       6        0.0%
SFR1                 0      0       0       2        0.0%
BITSFR1              0      0       0       2        0.0%
BANK0               50      C      1B       5       33.8%
BITBANK0            50      0       0       4        0.0%
SFR0                 0      0       0       1        0.0%
BITSFR0              0      0       0       1        0.0%
COMMON               E      E       E       1      100.0%
BITCOMMON            E      0       0       0        0.0%
CODE                 0      0       0       0        0.0%
DATA                 0      0      29      12        0.0%
ABS                  0      0      29       3        0.0%
NULL                 0      0       0       0        0.0%
STACK                0      0       0       2        0.0%
EEDATA             100      0       0       0        0.0%


Microchip Technology PIC Macro Assembler V2.00 build -1524193055 
Symbol Table                                                                                   Mon Nov 11 18:15:11 2019

               __CFG_CP$OFF 0000                 __CFG_LVP$ON 0000                         l200 0489  
                       l201 0491                         l210 04D9                         l202 0499  
                       l211 04E1                         l203 04A1                         l220 07DD  
                       l212 04E9                         l204 04A9                         l221 07DD  
                       l213 04F1                         l205 04B1                         l301 01C0  
                       l133 0F8C                         l142 0F75                         l230 06EE  
                       l222 06A7                         l214 04F9                         l206 04B9  
                       l302 01D8                         l134 0F92                         l231 06F6  
                       l223 06B1                         l207 04C1                         l215 055D  
                       l303 01D8                         l135 0F93                         l240 0743  
                       l232 06FD                         l224 06BA                         l208 04C9  
                       l160 0580                         l136 0F93                         l241 074A  
                       l233 0704                         l225 06C4                         l209 04D1  
                       l161 0588                         l250 011A                         l218 0782  
                       l242 0753                         l234 070D                         l226 06CB  
                       l154 0641                         l170 05D0                         l162 0590  
                       l322 0009                         l139 0038                         l251 00B0  
                       l243 075A                         l235 0714                         l227 06D4  
                       l219 069F                         l171 05D8                         l163 0598  
                       l155 0560                         l323 0009                         l148 0F6A  
                       l260 00D1                         l252 00B7                         l244 0761  
                       l236 071E                         l228 06DB                         l156 069C  
                       l180 0624                         l172 05E0                         l164 05A0  
                       l324 0010                         l261 00DA                         l253 00B7  
                       l245 076A                         l237 0727                         l229 06E4  
                       l181 062C                         l173 05E8                         l165 05A8  
                       l157 0568                         l325 0012                         l270 010B  
                       l262 00E1                         l254 00BC                         l246 0771  
                       l238 0731                         l190 0439                         l182 0634  
                       l174 05F0                         l166 05B0                         l158 0570  
                       l271 010B                         l263 00E1                         l255 0133  
                       l247 0778                         l239 073B                         l191 0441  
                       l175 05F8                         l167 05B8                         l159 0578  
                       l183 069C                         l351 0F77                         l256 0133  
                       l272 0110                         l264 00E6                         l280 0066  
                       l192 0449                         l176 0600                         l168 05C0  
                       l352 0F77                         l265 00EF                         l257 00C5  
                       l281 00AD                         l193 0451                         l177 060C  
                       l169 05C8                         l353 0F7E                         l266 00F6  
                       l258 00CC                         l282 006C                         l186 0502  
                       l194 0459                         l178 0614                         l354 0F80  
                       l267 00F6                         l259 00CC                         l275 009D  
                       l195 0461                         l187 0429                         l179 061C  
                       l347 0FAB                         l451 0426                         l443 0FEA  
                       l268 00FB                         l284 0087                         l276 003C  
                       l188 055D                         l196 0469                         l348 0FAC  
                       l452 0410                         l460 0397                         l444 0FC4  
                       l269 0104                         l197 0471                         l189 0431  
                       l461 03AA                         l453 034B                         l445 0FE7  
                       l286 0096                         l278 0057                         l198 0479  
                       l454 0425                         l470 0403                         l462 03AC  
                       l446 0FE9                         l287 00AD                         l199 0481  
                       l471 040A                         l463 03B3                         l455 0370  
                       l447 0FF2                         l480 02A1                         l464 03BA  
                       l456 03AD                         l472 0426                         l640 0201  
                       l448 0FFF                         l481 02AE                         l465 0404  
                       l457 0371                         l641 0264                         l482 02C1  
                       l466 03BB                         l458 0389                         l642 0222  
                       l475 0329                         l483 02CE                         l467 03CC  
                       l459 0374                         l643 0214                         l484 02DF  
                       l476 0285                         l468 03EE                         l644 0227  
                       l485 02EC                         l477 0290                         l469 0401  
                       l645 0228                         l486 02F9                         l478 0344  
                       l646 0253                         l479 0344                         l487 0307  
                       l647 0263                         l639 01ED                         l488 0306  
                       l648 0275                         l649 027E                         _GIE 005F  
                       _PR2 0092                         _PEN 048A                __CFG_CPD$OFF 0000  
                       u700 0063                         u701 0062                         u710 0084  
                       u711 0083                         u640 00BB                         u720 0093  
                       u641 00BA                         u721 0092                         u650 00D0  
                       u810 0262                         u730 01E0                         u651 00CF  
                       u811 0261                         u731 01DF                         u660 00E5  
                       u900 0F7D                         u820 0269                         u740 01F1  
                       _SEN 0488                         u661 00E4                         u901 0F7C  
                       u821 0268                         u805 0254                         u741 01F0  
                       u670 00FA                         u910 028B                         u750 0211  
                       u830 0147                         u671 00F9                         u911 028A  
                       u751 0210                         u680 010F                         u920 02A7  
                       u840 0172                         u681 010E                         u921 02A6  
                       u841 0171                         u690 0054                         u930 02C7  
                       u770 0226                         u850 0185                         u691 0053  
                       u931 02C6                         u771 0225                         u835 0142  
                       u940 02F2                         u860 000F                         u941 02F1  
                       u861 000E                         u765 0216                         u950 02FF  
                       u870 0F9E                         u790 0243                         u951 02FE  
                       u871 0F9D                         u791 0242                         u855 0180  
                       u880 0FA2                         u960 0FE4                         u881 0FA1  
                       u785 022A                         u961 0FE3                         u890 0FA8  
                       u970 0FF1                         u891 0FA7                         u795 023F  
                       u971 0FF0                         u980 0396                         u981 0395  
                       u990 03A7                         u991 03A6                         u985 0392  
                       _Val 002A                         fsr0 0004                         indf 0000  
              __CFG_FOSC$HS 0000                  _DataEnviar 0026                        l2101 0590  
                      l2111 05B8                        l2103 0598                        l2201 04E9  
                      l2121 05E0                        l2113 05C0                        l2105 05A0  
                      PORTA 0005                        PORTB 0006                        l2203 04F1  
                      l2131 060C                        l2123 05E8                        l2115 05C8  
                      l2107 05A8                        PORTC 0007                        PORTD 0008  
                      l2301 0714                        l2221 06A6                        l2205 04F9  
                      l2141 063A                        l2133 0614                        l2125 05F0  
                      l2117 05D0                        l2109 05B0                        l1503 0F6B  
                      l2311 0726                        l2303 071C                        l2231 06B8  
                      l2223 06A7                        l2215 069E                        l2207 0501  
                      l2151 0428                        l2143 0640                        l2135 061C  
                      l2127 05F8                        l2119 05D8                        l1505 0F66  
                      l2401 00E6                        l2321 0739                        l2313 0727  
                      l2305 071D                        l2241 06C4                        l2233 06B9  
                      l2225 06AF                        l2217 069F                        l2161 0449  
                      l2153 0429                        l2209 0502                        l2137 0624  
                      l2129 0606                        l2145 0641                        l2411 0103  
                      l2403 00ED                        l2331 0743                        l2323 073A  
                      l2315 072F                        l2307 071E                        l2251 06D3  
                      l2243 06C9                        l2235 06BA                        l2227 06B0  
                      l2219 06A5                        l2171 0471                        l2163 0451  
                      l2155 0431                        l2139 062C                        l2091 0568  
                      l2413 0110                        l2405 00EE                        l2421 011A  
                      l2341 0752                        l2333 0748                        l2325 073B  
                      l2317 0730                        l2309 0725                        l2261 06E2  
                      l2253 06D4                        l2245 06CA                        l2237 06C2  
                      l2229 06B1                        l2181 0499                        l2173 0479  
                      l2165 0459                        l2157 0439                        l2093 0570  
                      l2085 0FA9                        l2501 0264                        l2415 0117  
                      l2407 00FB                        l2431 004D                        l2351 075F  
                      l2343 0753                        l2335 0749                        l2327 0741  
                      l2319 0731                        l2271 06EE                        l2263 06E3  
                      l2255 06D9                        l2247 06CB                        l2239 06C3  
                      l2191 04C1                        l2183 04A1                        l2175 0481  
                      l2167 0461                        l2159 0441                        l2095 0578  
                      l2087 055F                        l2503 0269                        l2511 0137  
                      l2417 0118                        l2409 0102                        l2441 0063  
                      l2433 004E                        l2361 076A                        l2353 0760  
                      l2345 0758                        l2337 074A                        l2329 0742  
                      l2281 06FC                        l2273 06F4                        l2265 06E4  
                      l2257 06DA                        l2249 06D2                        l2193 04C9  
                      l2185 04A9                        l2177 0489                        l2169 0469  
                      l2097 0580                        l2089 0560                        l2601 02BA  
                      l2505 0275                        l2521 01AB                        l2513 0169  
                      l1651 0029                        l2419 0119                        l2451 0084  
                      l2443 0066                        l2435 0054                        l2427 003A  
                      l2371 0777                        l2363 076F                        l2355 0761  
                      l2347 0759                        l2339 0751                        l2291 070B  
                      l2283 06FD                        l2275 06F5                        l2267 06EC  
                      l2259 06DB                        l2195 04D1                        l2187 04B1  
                      l2179 0491                        l2099 0588                        l2611 02CE  
                      l2603 02BF                        l2507 027E                        l2531 01B6  
                      l2523 01AC                        l2515 0172                        l1653 0031  
                      l2461 009C                        l2453 0087                        l2445 006F  
                      l2437 0057                        l2429 003F                        l2373 0778  
                      l2365 0770                        l2357 0768                        l2349 075A  
                      l2293 070C                        l2285 0702                        l2277 06F6  
                      l2269 06ED                        l2381 0782                        l2197 04D9  
                      l2189 04B9                        l2621 02EB                        l2613 02DD  
                      l2605 02C0                        l2701 03AD                        l2533 01B9  
                      l2525 01AF                        l2517 0175                        l2541 01C0  
                      l2509 0134                        l1655 0034                        l1647 0013  
                      l2391 00C3                        l2455 008C                        l2447 007D  
                      l2439 005C                        l2463 009D                        l2375 077F  
                      l2367 0771                        l2359 0769                        l2295 070D  
                      l2287 0703                        l2279 06FB                        l2199 04E1  
                      l2631 0307                        l2623 02EC                        l2615 02DE  
                      l2607 02C1                        l2711 03CB                        l2703 03B3  
                      l2471 01DC                        l2551 01CC                        l2543 01C4  
                      l2535 01BC                        l2527 01B2                        l2519 01A7  
                      l1649 0024                        l2393 00C4                        l2457 0093  
                      l2449 007E                        l2377 0780                        l2369 0776  
                      l2297 0712                        l2289 0704                        l2641 0328  
                      l2633 0317                        l2625 02F2                        l2617 02DF  
                      l2609 02C7                        l2561 0008                        l2721 03F8  
                      l2713 03CC                        l2705 03B5                        l2481 0209  
                      l2473 01E0                        l2553 01CF                        l2545 01C5  
                      l2537 01BE                        l2529 01B3                        l2395 00D1  
                      l2387 00AF                        l2459 0096                        l2379 0781  
                      l2299 0713                        l2635 0321                        l2627 02F9  
                      l2619 02EA                        l2643 0329                        l2571 0FA9  
                      l2563 0010                        l2731 040C                        l2723 03FE  
                      l2715 03D8                        l2707 03BB                        l2491 0231  
                      l2483 0211                        l2475 01F1                        l2555 01D2  
                      l2547 01C8                        l2539 01BF                        l2651 0FBC  
                      l2397 00D8                        l2389 00BC                        l2637 0326  
                      l2629 02FF                        l2581 0282                        l2573 0FAC  
                      l2565 0F96                        l2733 040F                        l2725 0401  
                      l2717 03E0                        l2709 03BD                        l2493 0243  
                      l2485 0214                        l2477 01FC                        l2469 01D9  
                      l2557 01D5                        l2549 01CB                        l2661 0FE4  
                      l2653 0FC4                        l2741 0F81                        l2399 00D9  
                      l2639 0327                        l2591 029F                        l2583 0285  
                      l2567 0F9E                        l2575 0F76                        l2719 03EE  
                      l2727 0404                        l2735 0410                        l2495 0251  
                      l2487 0222                        l2479 0201                        l2559 01D7  
                      l2671 0FFB                        l2663 0FE7                        l2655 0FCC  
                      l2743 0F86                        l2593 02A0                        l2585 028B  
                      l2569 0FA2                        l2577 0F7E                        l2921 041A  
                      l2729 040A                        l2681 036A                        l2673 0345  
                      l2497 0253                        l2489 0228                        l2657 0FD6  
                      l2665 0FEA                        l2649 0FAD                        l2745 0F8C  
                      l2931 00A5                        l2923 0333                        l2595 02A1  
                      l2587 0290                        l2579 0F80                        l2691 0389  
                      l2683 036E                        l2675 034B                        l2499 025C  
                      l2667 0FF2                        l2659 0FDC                        l2933 0122  
                      l2925 0649                        l2597 02A7                        l2589 029A  
                      l2693 0397                        l2685 0371                        l2677 0365  
                      l2669 0FF4                        l2927 050A                        l2599 02AE  
                      l2695 03A1                        l2687 0374                        l2679 0366  
                      l2929 078A                        l2697 03A7                        l2689 0382  
                      l2699 03AA                        TRISA 0085                        TRISB 0086  
                      TRISC 0087                        TRISD 0088                        _BRGH 04C2  
                      u1000 03B2                        _CREN 00C4                        u1001 03B1  
                      u1010 03CA                        _FERR 00C2                        u1011 03C9  
                      u1020 03ED                        u1021 03EC                        u1030 03FE  
                      u1031 03FD                        u1015 03C6                        u1040 0409  
                      u1041 0408                        u1025 03E9                        _PEIE 005E  
                      _RCEN 048B                        _RCIF 0065                        _OERR 00C1  
                      _SPEN 00C7                        _RSEN 0489                        _TRMT 04C1  
                      _TXEN 04C5                        _TXIF 0064                        _SYNC 04C4  
                      _Dato 0024                __CFG_WRT$OFF 0000                        _dada 0028  
                      _main 0F81                        _loop 0345                        btemp 007E  
                      start 0000           _CCP2Configuration 0F66   ProcessCommand@instruction 002E  
        ?_CCP2Configuration 0070             __end_of___aldiv 027F                       ?_main 0070  
                     _ACKEN 048C                       _ACKDT 048D                       _CCP1X 00BD  
                     _CCP1Y 00BC                       _CCP2X 00ED                       _CCP2Y 00EC  
                     ?_loop 0070               __CFG_WDTE$OFF 0000                       _T2CON 0012  
                     _RCREG 001A                       _SPBRG 0099                       _PORTE 0009  
                     _SSPIE 0463                       _TRISE 0089                       _SSPIF 0063  
                     _TXREG 0019                       _Valor 0029         ??_CCP2Configuration 0070  
           __end_of_pinMode 069D                       _setup 0FAD              __CFG_BOREN$OFF 0000  
                     loop@i 0034                       loop@j 0036                       status 0003  
                     wtemp0 007E        __size_of_analogWrite 0075  __size_of_CCP1Configuration 000B  
      __end_of_digitalWrite 055E             __initialization 07DE   __end_of_CCP2Configuration 0F6B  
              __end_of_main 0F96                __end_of_loop 0427     __size_of_Initialization 0026  
                    ??_main 007E                      ??_loop 0031        __size_of_digitalRead 0141  
                    _ADCON0 001F                      _ADCON1 009F                      _ADRESH 001E  
                    _ADRESL 009E                      _CCPR1L 0015                      _CCPR2L 001B  
                    ?_setup 0070               ??_SerialBegin 0079             _SerialAvailable 0F96  
                    _SSPADD 0093         SerialBegin@BaudRate 0032                      _TRISC3 043B  
                    _TRISC4 043C                      _TRISC6 043E                      _TRISC7 043F  
                    _SSPCON 0014                      _SSPBUF 0013               ??_SerialWrite 0070  
                _SerialRead 0F76              __CFG_PWRTE$OFF 0000                      _Estado 002B  
                 ??___aldiv 0078           analogRead@channel 0074                   ??_pinMode 0071  
        ProcessCommand@data 002F          ProcessCommand@port 007A     __end_of__initialization 07FC  
               pinMode@mode 0070         __end_of_SerialBegin 01D9  __size_of_CCP2Configuration 0005  
            __pcstackCOMMON 0070                __pidataBANK0 0004         __end_of_SerialWrite 0013  
             __end_of_setup 1000                 _Informacion 0020     __size_of_ProcessCommand 00C6  
   __end_of_SerialAvailable 0FAD                     ??_setup 007D                  __pbssBANK0 0020  
     __size_of_digitalWrite 0137        SerialWrite@dataWrite 0070                  _analogRead 00AE  
               ?_SerialRead 0070                  __pmaintext 0F81              _Initialization 0013  
                   _CCP1CON 0017                     _CCP2CON 001D               _DatoDeEntrada 0039  
          _DatoEstadoEnviar 0038                _digitalWrite 0427                _BufferLenght 003A  
                   _SSPCON2 0091                     _SSPSTAT 0094                 _SerialBegin 0134  
               _SerialWrite 0007      __end_of_Initialization 0039                     ___aldiv 01D9  
                   __ptext1 0FAD                     __ptext2 0134                     __ptext3 01D9  
                   __ptext4 0345                     __ptext5 0007                     __ptext6 0F76  
                   __ptext7 0F96                     __ptext8 027F                     __ptext9 055E  
           _analogWrite$430 0078             _analogWrite$431 0079             _analogWrite$428 0076  
           _analogWrite$429 0077                     _pinMode 055E            ___aldiv@dividend 0074  
       __size_of_SerialRead 000B            ?_SerialAvailable 0070        end_of_initialization 07FC  
             ??_analogWrite 0072              digitalRead@pin 0072                 ?_analogRead 0070  
           ?_Initialization 0070            ___aldiv@quotient 002E               ??_digitalRead 0070  
                 _PORTAbits 0005                   _PORTBbits 0006                   _PORTCbits 0007  
                 _PORTDbits 0008                   _PORTEbits 0009              _ProcessCommand 027F  
                 _TRISAbits 0085                   _TRISBbits 0086                   _TRISCbits 0087  
                 _TRISDbits 0088         __end_of_analogWrite 00AE      __end_of_ProcessCommand 0345  
       __size_of_analogRead 0086         start_initialization 07DE         __end_of_digitalRead 07DE  
              ??_SerialRead 0070                 __pdataBANK0 0038             ?_ProcessCommand 007A  
                 ___latbits 0002               __pcstackBANK0 002C                  pinMode@pin 0073  
        __end_of_SerialRead 0F81                ?_SerialBegin 0032                 _analogWrite 0039  
              ?_SerialWrite 0070                    ?___aldiv 0070                SerialBegin@x 0036  
               _digitalRead 069D                    ?_pinMode 0070              __size_of_setup 0053  
           ___aldiv@divisor 0070            ??_Initialization 0070             ___aldiv@counter 002C  
              ??_analogRead 0072                  _ADCON0bits 001F                  _ADCON1bits 009F  
        __end_of_analogRead 0134       ProcessCommand@LSBData 007C       ProcessCommand@MSBData 007B  
  __size_of_SerialAvailable 0017            __size_of___aldiv 00A6            __size_of_pinMode 013F  
                  __ptext10 0427                    __ptext11 069D                    __ptext12 0039  
                  __ptext13 00AE                    __ptext14 0013                    __ptext15 0F66  
                  __ptext16 0F6B               __size_of_main 0015               __size_of_loop 00E2  
      __size_of_SerialBegin 00A5            ??_ProcessCommand 002C        __size_of_SerialWrite 000C  
          analogWrite@value 0070               ?_digitalWrite 0070           digitalWrite@value 0070  
              ?_analogWrite 0070         _SerialAvailable$461 0070           ??_SerialAvailable 0070  
         _CCP1Configuration 0F6B                ?_digitalRead 0070          ?_CCP1Configuration 0070  
            ??_digitalWrite 0071         ??_CCP1Configuration 0070                ___aldiv@sign 002D  
            analogWrite@MSB 0074              analogWrite@pin 0075             digitalWrite@pin 0073  
 __end_of_CCP1Configuration 0F76  
