

Microchip Technology PIC LITE Macro Assembler V2.00 build -1524193055 
                                                                                               Thu Jan 30 10:24:54 2020

Microchip Technology Omniscient Code Generator v2.00 (Free mode) build 20180527130849
     1  0000                     
      + 0000                     
     2                           ; Version 2.00
     3                           ; Generated 27/05/2018 GMT
     4                           
     5                           ; 
     6                           ; Copyright © 2018, Microchip Technology Inc. and its subsidiaries ("Microchip")
     7                           ; All rights reserved.
     8                           ; 
     9                           ; This software is developed by Microchip Technology Inc. and its subsidiaries ("Microch
                                 ip").
    10                           ; 
    11                           ; Redistribution and use in source and binary forms, with or without modification, are
    12                           ; permitted provided that the following conditions are met:
    13                           ; 
    14                           ;     1. Redistributions of source code must retain the above copyright notice, this lis
                                 t of
    15                           ;        conditions and the following disclaimer.
    16                           ; 
    17                           ;     2. Redistributions in binary form must reproduce the above copyright notice, this 
                                 list
    18                           ;        of conditions and the following disclaimer in the documentation and/or other
    19                           ;        materials provided with the distribution.
    20                           ; 
    21                           ;     3. Microchip's name may not be used to endorse or promote products derived from th
                                 is
    22                           ;        software without specific prior written permission.
    23                           ; 
    24                           ; THIS SOFTWARE IS PROVIDED BY MICROCHIP "AS IS" AND ANY EXPRESS OR IMPLIED WARRANTIES,

    25                           ; INCLUDING, BUT NOT LIMITED TO, THE IMPLIED WARRANTIES OF MERCHANTABILITY AND FITNESS F
                                 OR
    26                           ; PURPOSE ARE DISCLAIMED.  IN NO EVENT SHALL MICROCHIP BE LIABLE FOR ANY DIRECT, INDIREC
                                 T,
    27                           ; INCIDENTAL, SPECIAL, EXEMPLARY, OR CONSEQUENTIAL DAMAGES (INCLUDING BUT NOT LIMITED TO
                                 
    28                           ; PROCUREMENT OF SUBSTITUTE GOODS OR SERVICES; LOSS OF USE, DATA OR PROFITS; OR BUSINESS
                                 
    29                           ; INTERRUPTION) HOWSOEVER CAUSED AND ON ANY THEORY OF LIABILITY, WHETHER IN CONTRACT, ST
                                 RICT
    30                           ; LIABILITY, OR TORT (INCLUDING NEGLIGENCE OR OTHERWISE) ARISING IN ANY WAY OUT OF THE U
                                 SE OF
    31                           ; THIS SOFTWARE, EVEN IF ADVISED OF THE POSSIBILITY OF SUCH DAMAGE.
    32                           ; 
    33                           
    34                           
    35                           ; 
    36                           ; Code-generator required, PIC16F877A Definitions
    37                           ; 
    38  0004                     fsr0 equ 04h
    39  0004                     indf equ 00h
    40  0000                     indf0 equ 00h
    41  0000                     pc equ 02h
    42  0002                     pcl equ 02h
    43  0002                     pclath equ 0Ah
    44  000A                     status equ 03h
    45  0003                     
     2                           opt pagewidth 120
     3  0000                     byte0	macro	val
     4                           	(getbyte(val,0))
     5                           endm
     6  0000                     byte1	macro	val
     7                           	(getbyte(val,1))
     8                           endm
     9  0000                     byte2	macro	val
    10                           	(getbyte(val,2))
    11                           endm
    12  0000                     byte3	macro	val
    13                           	(getbyte(val,3))
    14                           endm
    15  0000                     byte4	macro	val
    16                           	(getbyte(val,4))
    17                           endm
    18  0000                     byte5	macro	val
    19                           	(getbyte(val,5))
    20                           endm
    21  0000                     byte6	macro	val
    22                           	(getbyte(val,6))
    23                           endm
    24  0000                     byte7	macro	val
    25                           	(getbyte(val,7))
    26                           endm
    27  0000                     getword	macro	val,pos
    28                           	(((val) >> (8 * pos)) and 0xffff)
    29                           endm
    30  0000                     word0	macro	val
    31                           	(getword(val,0))
    32                           endm
    33  0000                     word1	macro	val
    34                           	(getword(val,2))
    35                           endm
    36  0000                     word2	macro	val
    37                           	(getword(val,4))
    38                           endm
    39  0000                     word3	macro	val
    40                           	(getword(val,6))
    41                           endm
    42  0000                     gettword	macro	val,pos
    43                           	(((val) >> (8 * pos)) and 0xffffff)
    44                           endm
    45  0000                     tword0	macro	val
    46                           	(gettword(val,0))
    47                           endm
    48  0000                     tword1	macro	val
    49                           	(gettword(val,3))
    50                           endm
    51  0000                     tword2	macro	val
    52                           	(gettword(val,6))
    53                           endm
    54  0000                     getdword	macro	val,pos
    55                           	(((val) >> (8 * pos)) and 0xffffffff)
    56                           endm
    57  0000                     dword0	macro	val
    58                           	(getdword(val,0))
    59                           endm
    60  0000                     dword1	macro	val
    61                           	(getdword(val,4))
    62                           endm
    63  0000                     clrc	macro
    64                           	bcf	3,0
    65                           	endm
    66  0000                     clrz	macro
    67                           	bcf	3,2
    68                           	endm
    69  0000                     setc	macro
    70                           	bsf	3,0
    71                           	endm
    72  0000                     setz	macro
    73                           	bsf	3,2
    74                           	endm
    75  0000                     skipc	macro
    76                           	btfss	3,0
    77                           	endm
    78  0000                     skipz	macro
    79                           	btfss	3,2
    80                           	endm
    81  0000                     skipnc	macro
    82                           	btfsc	3,0
    83                           	endm
    84  0000                     skipnz	macro
    85                           	btfsc	3,2
    86                           	endm
    87  0000                     # 54 "C:\Program Files (x86)\Microchip\xc8\v2.00\pic\include\pic16f877a.h"
    88                           INDF equ 00h ;# 
    89  0000                     # 61 "C:\Program Files (x86)\Microchip\xc8\v2.00\pic\include\pic16f877a.h"
    90                           TMR0 equ 01h ;# 
    91  0001                     # 68 "C:\Program Files (x86)\Microchip\xc8\v2.00\pic\include\pic16f877a.h"
    92                           PCL equ 02h ;# 
    93  0002                     # 75 "C:\Program Files (x86)\Microchip\xc8\v2.00\pic\include\pic16f877a.h"
    94                           STATUS equ 03h ;# 
    95  0003                     # 161 "C:\Program Files (x86)\Microchip\xc8\v2.00\pic\include\pic16f877a.h"
    96                           FSR equ 04h ;# 
    97  0004                     # 168 "C:\Program Files (x86)\Microchip\xc8\v2.00\pic\include\pic16f877a.h"
    98                           PORTA equ 05h ;# 
    99  0005                     # 218 "C:\Program Files (x86)\Microchip\xc8\v2.00\pic\include\pic16f877a.h"
   100                           PORTB equ 06h ;# 
   101  0006                     # 280 "C:\Program Files (x86)\Microchip\xc8\v2.00\pic\include\pic16f877a.h"
   102                           PORTC equ 07h ;# 
   103  0007                     # 342 "C:\Program Files (x86)\Microchip\xc8\v2.00\pic\include\pic16f877a.h"
   104                           PORTD equ 08h ;# 
   105  0008                     # 404 "C:\Program Files (x86)\Microchip\xc8\v2.00\pic\include\pic16f877a.h"
   106                           PORTE equ 09h ;# 
   107  0009                     # 436 "C:\Program Files (x86)\Microchip\xc8\v2.00\pic\include\pic16f877a.h"
   108                           PCLATH equ 0Ah ;# 
   109  000A                     # 456 "C:\Program Files (x86)\Microchip\xc8\v2.00\pic\include\pic16f877a.h"
   110                           INTCON equ 0Bh ;# 
   111  000B                     # 534 "C:\Program Files (x86)\Microchip\xc8\v2.00\pic\include\pic16f877a.h"
   112                           PIR1 equ 0Ch ;# 
   113  000C                     # 596 "C:\Program Files (x86)\Microchip\xc8\v2.00\pic\include\pic16f877a.h"
   114                           PIR2 equ 0Dh ;# 
   115  000D                     # 636 "C:\Program Files (x86)\Microchip\xc8\v2.00\pic\include\pic16f877a.h"
   116                           TMR1 equ 0Eh ;# 
   117  000E                     # 643 "C:\Program Files (x86)\Microchip\xc8\v2.00\pic\include\pic16f877a.h"
   118                           TMR1L equ 0Eh ;# 
   119  000E                     # 650 "C:\Program Files (x86)\Microchip\xc8\v2.00\pic\include\pic16f877a.h"
   120                           TMR1H equ 0Fh ;# 
   121  000F                     # 657 "C:\Program Files (x86)\Microchip\xc8\v2.00\pic\include\pic16f877a.h"
   122                           T1CON equ 010h ;# 
   123  0010                     # 732 "C:\Program Files (x86)\Microchip\xc8\v2.00\pic\include\pic16f877a.h"
   124                           TMR2 equ 011h ;# 
   125  0011                     # 739 "C:\Program Files (x86)\Microchip\xc8\v2.00\pic\include\pic16f877a.h"
   126                           T2CON equ 012h ;# 
   127  0012                     # 810 "C:\Program Files (x86)\Microchip\xc8\v2.00\pic\include\pic16f877a.h"
   128                           SSPBUF equ 013h ;# 
   129  0013                     # 817 "C:\Program Files (x86)\Microchip\xc8\v2.00\pic\include\pic16f877a.h"
   130                           SSPCON equ 014h ;# 
   131  0014                     # 887 "C:\Program Files (x86)\Microchip\xc8\v2.00\pic\include\pic16f877a.h"
   132                           CCPR1 equ 015h ;# 
   133  0015                     # 894 "C:\Program Files (x86)\Microchip\xc8\v2.00\pic\include\pic16f877a.h"
   134                           CCPR1L equ 015h ;# 
   135  0015                     # 901 "C:\Program Files (x86)\Microchip\xc8\v2.00\pic\include\pic16f877a.h"
   136                           CCPR1H equ 016h ;# 
   137  0016                     # 908 "C:\Program Files (x86)\Microchip\xc8\v2.00\pic\include\pic16f877a.h"
   138                           CCP1CON equ 017h ;# 
   139  0017                     # 966 "C:\Program Files (x86)\Microchip\xc8\v2.00\pic\include\pic16f877a.h"
   140                           RCSTA equ 018h ;# 
   141  0018                     # 1061 "C:\Program Files (x86)\Microchip\xc8\v2.00\pic\include\pic16f877a.h"
   142                           TXREG equ 019h ;# 
   143  0019                     # 1068 "C:\Program Files (x86)\Microchip\xc8\v2.00\pic\include\pic16f877a.h"
   144                           RCREG equ 01Ah ;# 
   145  001A                     # 1075 "C:\Program Files (x86)\Microchip\xc8\v2.00\pic\include\pic16f877a.h"
   146                           CCPR2 equ 01Bh ;# 
   147  001B                     # 1082 "C:\Program Files (x86)\Microchip\xc8\v2.00\pic\include\pic16f877a.h"
   148                           CCPR2L equ 01Bh ;# 
   149  001B                     # 1089 "C:\Program Files (x86)\Microchip\xc8\v2.00\pic\include\pic16f877a.h"
   150                           CCPR2H equ 01Ch ;# 
   151  001C                     # 1096 "C:\Program Files (x86)\Microchip\xc8\v2.00\pic\include\pic16f877a.h"
   152                           CCP2CON equ 01Dh ;# 
   153  001D                     # 1154 "C:\Program Files (x86)\Microchip\xc8\v2.00\pic\include\pic16f877a.h"
   154                           ADRESH equ 01Eh ;# 
   155  001E                     # 1161 "C:\Program Files (x86)\Microchip\xc8\v2.00\pic\include\pic16f877a.h"
   156                           ADCON0 equ 01Fh ;# 
   157  001F                     # 1257 "C:\Program Files (x86)\Microchip\xc8\v2.00\pic\include\pic16f877a.h"
   158                           OPTION_REG equ 081h ;# 
   159  0081                     # 1327 "C:\Program Files (x86)\Microchip\xc8\v2.00\pic\include\pic16f877a.h"
   160                           TRISA equ 085h ;# 
   161  0085                     # 1377 "C:\Program Files (x86)\Microchip\xc8\v2.00\pic\include\pic16f877a.h"
   162                           TRISB equ 086h ;# 
   163  0086                     # 1439 "C:\Program Files (x86)\Microchip\xc8\v2.00\pic\include\pic16f877a.h"
   164                           TRISC equ 087h ;# 
   165  0087                     # 1501 "C:\Program Files (x86)\Microchip\xc8\v2.00\pic\include\pic16f877a.h"
   166                           TRISD equ 088h ;# 
   167  0088                     # 1563 "C:\Program Files (x86)\Microchip\xc8\v2.00\pic\include\pic16f877a.h"
   168                           TRISE equ 089h ;# 
   169  0089                     # 1620 "C:\Program Files (x86)\Microchip\xc8\v2.00\pic\include\pic16f877a.h"
   170                           PIE1 equ 08Ch ;# 
   171  008C                     # 1682 "C:\Program Files (x86)\Microchip\xc8\v2.00\pic\include\pic16f877a.h"
   172                           PIE2 equ 08Dh ;# 
   173  008D                     # 1722 "C:\Program Files (x86)\Microchip\xc8\v2.00\pic\include\pic16f877a.h"
   174                           PCON equ 08Eh ;# 
   175  008E                     # 1756 "C:\Program Files (x86)\Microchip\xc8\v2.00\pic\include\pic16f877a.h"
   176                           SSPCON2 equ 091h ;# 
   177  0091                     # 1818 "C:\Program Files (x86)\Microchip\xc8\v2.00\pic\include\pic16f877a.h"
   178                           PR2 equ 092h ;# 
   179  0092                     # 1825 "C:\Program Files (x86)\Microchip\xc8\v2.00\pic\include\pic16f877a.h"
   180                           SSPADD equ 093h ;# 
   181  0093                     # 1832 "C:\Program Files (x86)\Microchip\xc8\v2.00\pic\include\pic16f877a.h"
   182                           SSPSTAT equ 094h ;# 
   183  0094                     # 2001 "C:\Program Files (x86)\Microchip\xc8\v2.00\pic\include\pic16f877a.h"
   184                           TXSTA equ 098h ;# 
   185  0098                     # 2082 "C:\Program Files (x86)\Microchip\xc8\v2.00\pic\include\pic16f877a.h"
   186                           SPBRG equ 099h ;# 
   187  0099                     # 2089 "C:\Program Files (x86)\Microchip\xc8\v2.00\pic\include\pic16f877a.h"
   188                           CMCON equ 09Ch ;# 
   189  009C                     # 2159 "C:\Program Files (x86)\Microchip\xc8\v2.00\pic\include\pic16f877a.h"
   190                           CVRCON equ 09Dh ;# 
   191  009D                     # 2224 "C:\Program Files (x86)\Microchip\xc8\v2.00\pic\include\pic16f877a.h"
   192                           ADRESL equ 09Eh ;# 
   193  009E                     # 2231 "C:\Program Files (x86)\Microchip\xc8\v2.00\pic\include\pic16f877a.h"
   194                           ADCON1 equ 09Fh ;# 
   195  009F                     # 2290 "C:\Program Files (x86)\Microchip\xc8\v2.00\pic\include\pic16f877a.h"
   196                           EEDATA equ 010Ch ;# 
   197  010C                     # 2297 "C:\Program Files (x86)\Microchip\xc8\v2.00\pic\include\pic16f877a.h"
   198                           EEADR equ 010Dh ;# 
   199  010D                     # 2304 "C:\Program Files (x86)\Microchip\xc8\v2.00\pic\include\pic16f877a.h"
   200                           EEDATH equ 010Eh ;# 
   201  010E                     # 2311 "C:\Program Files (x86)\Microchip\xc8\v2.00\pic\include\pic16f877a.h"
   202                           EEADRH equ 010Fh ;# 
   203  010F                     # 2318 "C:\Program Files (x86)\Microchip\xc8\v2.00\pic\include\pic16f877a.h"
   204                           EECON1 equ 018Ch ;# 
   205  018C                     # 2363 "C:\Program Files (x86)\Microchip\xc8\v2.00\pic\include\pic16f877a.h"
   206                           EECON2 equ 018Dh ;# 
   207  018D                     # 54 "C:\Program Files (x86)\Microchip\xc8\v2.00\pic\include\pic16f877a.h"
   208                           INDF equ 00h ;# 
   209  0000                     # 61 "C:\Program Files (x86)\Microchip\xc8\v2.00\pic\include\pic16f877a.h"
   210                           TMR0 equ 01h ;# 
   211  0001                     # 68 "C:\Program Files (x86)\Microchip\xc8\v2.00\pic\include\pic16f877a.h"
   212                           PCL equ 02h ;# 
   213  0002                     # 75 "C:\Program Files (x86)\Microchip\xc8\v2.00\pic\include\pic16f877a.h"
   214                           STATUS equ 03h ;# 
   215  0003                     # 161 "C:\Program Files (x86)\Microchip\xc8\v2.00\pic\include\pic16f877a.h"
   216                           FSR equ 04h ;# 
   217  0004                     # 168 "C:\Program Files (x86)\Microchip\xc8\v2.00\pic\include\pic16f877a.h"
   218                           PORTA equ 05h ;# 
   219  0005                     # 218 "C:\Program Files (x86)\Microchip\xc8\v2.00\pic\include\pic16f877a.h"
   220                           PORTB equ 06h ;# 
   221  0006                     # 280 "C:\Program Files (x86)\Microchip\xc8\v2.00\pic\include\pic16f877a.h"
   222                           PORTC equ 07h ;# 
   223  0007                     # 342 "C:\Program Files (x86)\Microchip\xc8\v2.00\pic\include\pic16f877a.h"
   224                           PORTD equ 08h ;# 
   225  0008                     # 404 "C:\Program Files (x86)\Microchip\xc8\v2.00\pic\include\pic16f877a.h"
   226                           PORTE equ 09h ;# 
   227  0009                     # 436 "C:\Program Files (x86)\Microchip\xc8\v2.00\pic\include\pic16f877a.h"
   228                           PCLATH equ 0Ah ;# 
   229  000A                     # 456 "C:\Program Files (x86)\Microchip\xc8\v2.00\pic\include\pic16f877a.h"
   230                           INTCON equ 0Bh ;# 
   231  000B                     # 534 "C:\Program Files (x86)\Microchip\xc8\v2.00\pic\include\pic16f877a.h"
   232                           PIR1 equ 0Ch ;# 
   233  000C                     # 596 "C:\Program Files (x86)\Microchip\xc8\v2.00\pic\include\pic16f877a.h"
   234                           PIR2 equ 0Dh ;# 
   235  000D                     # 636 "C:\Program Files (x86)\Microchip\xc8\v2.00\pic\include\pic16f877a.h"
   236                           TMR1 equ 0Eh ;# 
   237  000E                     # 643 "C:\Program Files (x86)\Microchip\xc8\v2.00\pic\include\pic16f877a.h"
   238                           TMR1L equ 0Eh ;# 
   239  000E                     # 650 "C:\Program Files (x86)\Microchip\xc8\v2.00\pic\include\pic16f877a.h"
   240                           TMR1H equ 0Fh ;# 
   241  000F                     # 657 "C:\Program Files (x86)\Microchip\xc8\v2.00\pic\include\pic16f877a.h"
   242                           T1CON equ 010h ;# 
   243  0010                     # 732 "C:\Program Files (x86)\Microchip\xc8\v2.00\pic\include\pic16f877a.h"
   244                           TMR2 equ 011h ;# 
   245  0011                     # 739 "C:\Program Files (x86)\Microchip\xc8\v2.00\pic\include\pic16f877a.h"
   246                           T2CON equ 012h ;# 
   247  0012                     # 810 "C:\Program Files (x86)\Microchip\xc8\v2.00\pic\include\pic16f877a.h"
   248                           SSPBUF equ 013h ;# 
   249  0013                     # 817 "C:\Program Files (x86)\Microchip\xc8\v2.00\pic\include\pic16f877a.h"
   250                           SSPCON equ 014h ;# 
   251  0014                     # 887 "C:\Program Files (x86)\Microchip\xc8\v2.00\pic\include\pic16f877a.h"
   252                           CCPR1 equ 015h ;# 
   253  0015                     # 894 "C:\Program Files (x86)\Microchip\xc8\v2.00\pic\include\pic16f877a.h"
   254                           CCPR1L equ 015h ;# 
   255  0015                     # 901 "C:\Program Files (x86)\Microchip\xc8\v2.00\pic\include\pic16f877a.h"
   256                           CCPR1H equ 016h ;# 
   257  0016                     # 908 "C:\Program Files (x86)\Microchip\xc8\v2.00\pic\include\pic16f877a.h"
   258                           CCP1CON equ 017h ;# 
   259  0017                     # 966 "C:\Program Files (x86)\Microchip\xc8\v2.00\pic\include\pic16f877a.h"
   260                           RCSTA equ 018h ;# 
   261  0018                     # 1061 "C:\Program Files (x86)\Microchip\xc8\v2.00\pic\include\pic16f877a.h"
   262                           TXREG equ 019h ;# 
   263  0019                     # 1068 "C:\Program Files (x86)\Microchip\xc8\v2.00\pic\include\pic16f877a.h"
   264                           RCREG equ 01Ah ;# 
   265  001A                     # 1075 "C:\Program Files (x86)\Microchip\xc8\v2.00\pic\include\pic16f877a.h"
   266                           CCPR2 equ 01Bh ;# 
   267  001B                     # 1082 "C:\Program Files (x86)\Microchip\xc8\v2.00\pic\include\pic16f877a.h"
   268                           CCPR2L equ 01Bh ;# 
   269  001B                     # 1089 "C:\Program Files (x86)\Microchip\xc8\v2.00\pic\include\pic16f877a.h"
   270                           CCPR2H equ 01Ch ;# 
   271  001C                     # 1096 "C:\Program Files (x86)\Microchip\xc8\v2.00\pic\include\pic16f877a.h"
   272                           CCP2CON equ 01Dh ;# 
   273  001D                     # 1154 "C:\Program Files (x86)\Microchip\xc8\v2.00\pic\include\pic16f877a.h"
   274                           ADRESH equ 01Eh ;# 
   275  001E                     # 1161 "C:\Program Files (x86)\Microchip\xc8\v2.00\pic\include\pic16f877a.h"
   276                           ADCON0 equ 01Fh ;# 
   277  001F                     # 1257 "C:\Program Files (x86)\Microchip\xc8\v2.00\pic\include\pic16f877a.h"
   278                           OPTION_REG equ 081h ;# 
   279  0081                     # 1327 "C:\Program Files (x86)\Microchip\xc8\v2.00\pic\include\pic16f877a.h"
   280                           TRISA equ 085h ;# 
   281  0085                     # 1377 "C:\Program Files (x86)\Microchip\xc8\v2.00\pic\include\pic16f877a.h"
   282                           TRISB equ 086h ;# 
   283  0086                     # 1439 "C:\Program Files (x86)\Microchip\xc8\v2.00\pic\include\pic16f877a.h"
   284                           TRISC equ 087h ;# 
   285  0087                     # 1501 "C:\Program Files (x86)\Microchip\xc8\v2.00\pic\include\pic16f877a.h"
   286                           TRISD equ 088h ;# 
   287  0088                     # 1563 "C:\Program Files (x86)\Microchip\xc8\v2.00\pic\include\pic16f877a.h"
   288                           TRISE equ 089h ;# 
   289  0089                     # 1620 "C:\Program Files (x86)\Microchip\xc8\v2.00\pic\include\pic16f877a.h"
   290                           PIE1 equ 08Ch ;# 
   291  008C                     # 1682 "C:\Program Files (x86)\Microchip\xc8\v2.00\pic\include\pic16f877a.h"
   292                           PIE2 equ 08Dh ;# 
   293  008D                     # 1722 "C:\Program Files (x86)\Microchip\xc8\v2.00\pic\include\pic16f877a.h"
   294                           PCON equ 08Eh ;# 
   295  008E                     # 1756 "C:\Program Files (x86)\Microchip\xc8\v2.00\pic\include\pic16f877a.h"
   296                           SSPCON2 equ 091h ;# 
   297  0091                     # 1818 "C:\Program Files (x86)\Microchip\xc8\v2.00\pic\include\pic16f877a.h"
   298                           PR2 equ 092h ;# 
   299  0092                     # 1825 "C:\Program Files (x86)\Microchip\xc8\v2.00\pic\include\pic16f877a.h"
   300                           SSPADD equ 093h ;# 
   301  0093                     # 1832 "C:\Program Files (x86)\Microchip\xc8\v2.00\pic\include\pic16f877a.h"
   302                           SSPSTAT equ 094h ;# 
   303  0094                     # 2001 "C:\Program Files (x86)\Microchip\xc8\v2.00\pic\include\pic16f877a.h"
   304                           TXSTA equ 098h ;# 
   305  0098                     # 2082 "C:\Program Files (x86)\Microchip\xc8\v2.00\pic\include\pic16f877a.h"
   306                           SPBRG equ 099h ;# 
   307  0099                     # 2089 "C:\Program Files (x86)\Microchip\xc8\v2.00\pic\include\pic16f877a.h"
   308                           CMCON equ 09Ch ;# 
   309  009C                     # 2159 "C:\Program Files (x86)\Microchip\xc8\v2.00\pic\include\pic16f877a.h"
   310                           CVRCON equ 09Dh ;# 
   311  009D                     # 2224 "C:\Program Files (x86)\Microchip\xc8\v2.00\pic\include\pic16f877a.h"
   312                           ADRESL equ 09Eh ;# 
   313  009E                     # 2231 "C:\Program Files (x86)\Microchip\xc8\v2.00\pic\include\pic16f877a.h"
   314                           ADCON1 equ 09Fh ;# 
   315  009F                     # 2290 "C:\Program Files (x86)\Microchip\xc8\v2.00\pic\include\pic16f877a.h"
   316                           EEDATA equ 010Ch ;# 
   317  010C                     # 2297 "C:\Program Files (x86)\Microchip\xc8\v2.00\pic\include\pic16f877a.h"
   318                           EEADR equ 010Dh ;# 
   319  010D                     # 2304 "C:\Program Files (x86)\Microchip\xc8\v2.00\pic\include\pic16f877a.h"
   320                           EEDATH equ 010Eh ;# 
   321  010E                     # 2311 "C:\Program Files (x86)\Microchip\xc8\v2.00\pic\include\pic16f877a.h"
   322                           EEADRH equ 010Fh ;# 
   323  010F                     # 2318 "C:\Program Files (x86)\Microchip\xc8\v2.00\pic\include\pic16f877a.h"
   324                           EECON1 equ 018Ch ;# 
   325  018C                     # 2363 "C:\Program Files (x86)\Microchip\xc8\v2.00\pic\include\pic16f877a.h"
   326                           EECON2 equ 018Dh ;# 
   327  018D                     # 54 "C:\Program Files (x86)\Microchip\xc8\v2.00\pic\include\pic16f877a.h"
   328                           INDF equ 00h ;# 
   329  0000                     # 61 "C:\Program Files (x86)\Microchip\xc8\v2.00\pic\include\pic16f877a.h"
   330                           TMR0 equ 01h ;# 
   331  0001                     # 68 "C:\Program Files (x86)\Microchip\xc8\v2.00\pic\include\pic16f877a.h"
   332                           PCL equ 02h ;# 
   333  0002                     # 75 "C:\Program Files (x86)\Microchip\xc8\v2.00\pic\include\pic16f877a.h"
   334                           STATUS equ 03h ;# 
   335  0003                     # 161 "C:\Program Files (x86)\Microchip\xc8\v2.00\pic\include\pic16f877a.h"
   336                           FSR equ 04h ;# 
   337  0004                     # 168 "C:\Program Files (x86)\Microchip\xc8\v2.00\pic\include\pic16f877a.h"
   338                           PORTA equ 05h ;# 
   339  0005                     # 218 "C:\Program Files (x86)\Microchip\xc8\v2.00\pic\include\pic16f877a.h"
   340                           PORTB equ 06h ;# 
   341  0006                     # 280 "C:\Program Files (x86)\Microchip\xc8\v2.00\pic\include\pic16f877a.h"
   342                           PORTC equ 07h ;# 
   343  0007                     # 342 "C:\Program Files (x86)\Microchip\xc8\v2.00\pic\include\pic16f877a.h"
   344                           PORTD equ 08h ;# 
   345  0008                     # 404 "C:\Program Files (x86)\Microchip\xc8\v2.00\pic\include\pic16f877a.h"
   346                           PORTE equ 09h ;# 
   347  0009                     # 436 "C:\Program Files (x86)\Microchip\xc8\v2.00\pic\include\pic16f877a.h"
   348                           PCLATH equ 0Ah ;# 
   349  000A                     # 456 "C:\Program Files (x86)\Microchip\xc8\v2.00\pic\include\pic16f877a.h"
   350                           INTCON equ 0Bh ;# 
   351  000B                     # 534 "C:\Program Files (x86)\Microchip\xc8\v2.00\pic\include\pic16f877a.h"
   352                           PIR1 equ 0Ch ;# 
   353  000C                     # 596 "C:\Program Files (x86)\Microchip\xc8\v2.00\pic\include\pic16f877a.h"
   354                           PIR2 equ 0Dh ;# 
   355  000D                     # 636 "C:\Program Files (x86)\Microchip\xc8\v2.00\pic\include\pic16f877a.h"
   356                           TMR1 equ 0Eh ;# 
   357  000E                     # 643 "C:\Program Files (x86)\Microchip\xc8\v2.00\pic\include\pic16f877a.h"
   358                           TMR1L equ 0Eh ;# 
   359  000E                     # 650 "C:\Program Files (x86)\Microchip\xc8\v2.00\pic\include\pic16f877a.h"
   360                           TMR1H equ 0Fh ;# 
   361  000F                     # 657 "C:\Program Files (x86)\Microchip\xc8\v2.00\pic\include\pic16f877a.h"
   362                           T1CON equ 010h ;# 
   363  0010                     # 732 "C:\Program Files (x86)\Microchip\xc8\v2.00\pic\include\pic16f877a.h"
   364                           TMR2 equ 011h ;# 
   365  0011                     # 739 "C:\Program Files (x86)\Microchip\xc8\v2.00\pic\include\pic16f877a.h"
   366                           T2CON equ 012h ;# 
   367  0012                     # 810 "C:\Program Files (x86)\Microchip\xc8\v2.00\pic\include\pic16f877a.h"
   368                           SSPBUF equ 013h ;# 
   369  0013                     # 817 "C:\Program Files (x86)\Microchip\xc8\v2.00\pic\include\pic16f877a.h"
   370                           SSPCON equ 014h ;# 
   371  0014                     # 887 "C:\Program Files (x86)\Microchip\xc8\v2.00\pic\include\pic16f877a.h"
   372                           CCPR1 equ 015h ;# 
   373  0015                     # 894 "C:\Program Files (x86)\Microchip\xc8\v2.00\pic\include\pic16f877a.h"
   374                           CCPR1L equ 015h ;# 
   375  0015                     # 901 "C:\Program Files (x86)\Microchip\xc8\v2.00\pic\include\pic16f877a.h"
   376                           CCPR1H equ 016h ;# 
   377  0016                     # 908 "C:\Program Files (x86)\Microchip\xc8\v2.00\pic\include\pic16f877a.h"
   378                           CCP1CON equ 017h ;# 
   379  0017                     # 966 "C:\Program Files (x86)\Microchip\xc8\v2.00\pic\include\pic16f877a.h"
   380                           RCSTA equ 018h ;# 
   381  0018                     # 1061 "C:\Program Files (x86)\Microchip\xc8\v2.00\pic\include\pic16f877a.h"
   382                           TXREG equ 019h ;# 
   383  0019                     # 1068 "C:\Program Files (x86)\Microchip\xc8\v2.00\pic\include\pic16f877a.h"
   384                           RCREG equ 01Ah ;# 
   385  001A                     # 1075 "C:\Program Files (x86)\Microchip\xc8\v2.00\pic\include\pic16f877a.h"
   386                           CCPR2 equ 01Bh ;# 
   387  001B                     # 1082 "C:\Program Files (x86)\Microchip\xc8\v2.00\pic\include\pic16f877a.h"
   388                           CCPR2L equ 01Bh ;# 
   389  001B                     # 1089 "C:\Program Files (x86)\Microchip\xc8\v2.00\pic\include\pic16f877a.h"
   390                           CCPR2H equ 01Ch ;# 
   391  001C                     # 1096 "C:\Program Files (x86)\Microchip\xc8\v2.00\pic\include\pic16f877a.h"
   392                           CCP2CON equ 01Dh ;# 
   393  001D                     # 1154 "C:\Program Files (x86)\Microchip\xc8\v2.00\pic\include\pic16f877a.h"
   394                           ADRESH equ 01Eh ;# 
   395  001E                     # 1161 "C:\Program Files (x86)\Microchip\xc8\v2.00\pic\include\pic16f877a.h"
   396                           ADCON0 equ 01Fh ;# 
   397  001F                     # 1257 "C:\Program Files (x86)\Microchip\xc8\v2.00\pic\include\pic16f877a.h"
   398                           OPTION_REG equ 081h ;# 
   399  0081                     # 1327 "C:\Program Files (x86)\Microchip\xc8\v2.00\pic\include\pic16f877a.h"
   400                           TRISA equ 085h ;# 
   401  0085                     # 1377 "C:\Program Files (x86)\Microchip\xc8\v2.00\pic\include\pic16f877a.h"
   402                           TRISB equ 086h ;# 
   403  0086                     # 1439 "C:\Program Files (x86)\Microchip\xc8\v2.00\pic\include\pic16f877a.h"
   404                           TRISC equ 087h ;# 
   405  0087                     # 1501 "C:\Program Files (x86)\Microchip\xc8\v2.00\pic\include\pic16f877a.h"
   406                           TRISD equ 088h ;# 
   407  0088                     # 1563 "C:\Program Files (x86)\Microchip\xc8\v2.00\pic\include\pic16f877a.h"
   408                           TRISE equ 089h ;# 
   409  0089                     # 1620 "C:\Program Files (x86)\Microchip\xc8\v2.00\pic\include\pic16f877a.h"
   410                           PIE1 equ 08Ch ;# 
   411  008C                     # 1682 "C:\Program Files (x86)\Microchip\xc8\v2.00\pic\include\pic16f877a.h"
   412                           PIE2 equ 08Dh ;# 
   413  008D                     # 1722 "C:\Program Files (x86)\Microchip\xc8\v2.00\pic\include\pic16f877a.h"
   414                           PCON equ 08Eh ;# 
   415  008E                     # 1756 "C:\Program Files (x86)\Microchip\xc8\v2.00\pic\include\pic16f877a.h"
   416                           SSPCON2 equ 091h ;# 
   417  0091                     # 1818 "C:\Program Files (x86)\Microchip\xc8\v2.00\pic\include\pic16f877a.h"
   418                           PR2 equ 092h ;# 
   419  0092                     # 1825 "C:\Program Files (x86)\Microchip\xc8\v2.00\pic\include\pic16f877a.h"
   420                           SSPADD equ 093h ;# 
   421  0093                     # 1832 "C:\Program Files (x86)\Microchip\xc8\v2.00\pic\include\pic16f877a.h"
   422                           SSPSTAT equ 094h ;# 
   423  0094                     # 2001 "C:\Program Files (x86)\Microchip\xc8\v2.00\pic\include\pic16f877a.h"
   424                           TXSTA equ 098h ;# 
   425  0098                     # 2082 "C:\Program Files (x86)\Microchip\xc8\v2.00\pic\include\pic16f877a.h"
   426                           SPBRG equ 099h ;# 
   427  0099                     # 2089 "C:\Program Files (x86)\Microchip\xc8\v2.00\pic\include\pic16f877a.h"
   428                           CMCON equ 09Ch ;# 
   429  009C                     # 2159 "C:\Program Files (x86)\Microchip\xc8\v2.00\pic\include\pic16f877a.h"
   430                           CVRCON equ 09Dh ;# 
   431  009D                     # 2224 "C:\Program Files (x86)\Microchip\xc8\v2.00\pic\include\pic16f877a.h"
   432                           ADRESL equ 09Eh ;# 
   433  009E                     # 2231 "C:\Program Files (x86)\Microchip\xc8\v2.00\pic\include\pic16f877a.h"
   434                           ADCON1 equ 09Fh ;# 
   435  009F                     # 2290 "C:\Program Files (x86)\Microchip\xc8\v2.00\pic\include\pic16f877a.h"
   436                           EEDATA equ 010Ch ;# 
   437  010C                     # 2297 "C:\Program Files (x86)\Microchip\xc8\v2.00\pic\include\pic16f877a.h"
   438                           EEADR equ 010Dh ;# 
   439  010D                     # 2304 "C:\Program Files (x86)\Microchip\xc8\v2.00\pic\include\pic16f877a.h"
   440                           EEDATH equ 010Eh ;# 
   441  010E                     # 2311 "C:\Program Files (x86)\Microchip\xc8\v2.00\pic\include\pic16f877a.h"
   442                           EEADRH equ 010Fh ;# 
   443  010F                     # 2318 "C:\Program Files (x86)\Microchip\xc8\v2.00\pic\include\pic16f877a.h"
   444                           EECON1 equ 018Ch ;# 
   445  018C                     # 2363 "C:\Program Files (x86)\Microchip\xc8\v2.00\pic\include\pic16f877a.h"
   446                           EECON2 equ 018Dh ;# 
   447  018D                     # 54 "C:\Program Files (x86)\Microchip\xc8\v2.00\pic\include\pic16f877a.h"
   448                           INDF equ 00h ;# 
   449  0000                     # 61 "C:\Program Files (x86)\Microchip\xc8\v2.00\pic\include\pic16f877a.h"
   450                           TMR0 equ 01h ;# 
   451  0001                     # 68 "C:\Program Files (x86)\Microchip\xc8\v2.00\pic\include\pic16f877a.h"
   452                           PCL equ 02h ;# 
   453  0002                     # 75 "C:\Program Files (x86)\Microchip\xc8\v2.00\pic\include\pic16f877a.h"
   454                           STATUS equ 03h ;# 
   455  0003                     # 161 "C:\Program Files (x86)\Microchip\xc8\v2.00\pic\include\pic16f877a.h"
   456                           FSR equ 04h ;# 
   457  0004                     # 168 "C:\Program Files (x86)\Microchip\xc8\v2.00\pic\include\pic16f877a.h"
   458                           PORTA equ 05h ;# 
   459  0005                     # 218 "C:\Program Files (x86)\Microchip\xc8\v2.00\pic\include\pic16f877a.h"
   460                           PORTB equ 06h ;# 
   461  0006                     # 280 "C:\Program Files (x86)\Microchip\xc8\v2.00\pic\include\pic16f877a.h"
   462                           PORTC equ 07h ;# 
   463  0007                     # 342 "C:\Program Files (x86)\Microchip\xc8\v2.00\pic\include\pic16f877a.h"
   464                           PORTD equ 08h ;# 
   465  0008                     # 404 "C:\Program Files (x86)\Microchip\xc8\v2.00\pic\include\pic16f877a.h"
   466                           PORTE equ 09h ;# 
   467  0009                     # 436 "C:\Program Files (x86)\Microchip\xc8\v2.00\pic\include\pic16f877a.h"
   468                           PCLATH equ 0Ah ;# 
   469  000A                     # 456 "C:\Program Files (x86)\Microchip\xc8\v2.00\pic\include\pic16f877a.h"
   470                           INTCON equ 0Bh ;# 
   471  000B                     # 534 "C:\Program Files (x86)\Microchip\xc8\v2.00\pic\include\pic16f877a.h"
   472                           PIR1 equ 0Ch ;# 
   473  000C                     # 596 "C:\Program Files (x86)\Microchip\xc8\v2.00\pic\include\pic16f877a.h"
   474                           PIR2 equ 0Dh ;# 
   475  000D                     # 636 "C:\Program Files (x86)\Microchip\xc8\v2.00\pic\include\pic16f877a.h"
   476                           TMR1 equ 0Eh ;# 
   477  000E                     # 643 "C:\Program Files (x86)\Microchip\xc8\v2.00\pic\include\pic16f877a.h"
   478                           TMR1L equ 0Eh ;# 
   479  000E                     # 650 "C:\Program Files (x86)\Microchip\xc8\v2.00\pic\include\pic16f877a.h"
   480                           TMR1H equ 0Fh ;# 
   481  000F                     # 657 "C:\Program Files (x86)\Microchip\xc8\v2.00\pic\include\pic16f877a.h"
   482                           T1CON equ 010h ;# 
   483  0010                     # 732 "C:\Program Files (x86)\Microchip\xc8\v2.00\pic\include\pic16f877a.h"
   484                           TMR2 equ 011h ;# 
   485  0011                     # 739 "C:\Program Files (x86)\Microchip\xc8\v2.00\pic\include\pic16f877a.h"
   486                           T2CON equ 012h ;# 
   487  0012                     # 810 "C:\Program Files (x86)\Microchip\xc8\v2.00\pic\include\pic16f877a.h"
   488                           SSPBUF equ 013h ;# 
   489  0013                     # 817 "C:\Program Files (x86)\Microchip\xc8\v2.00\pic\include\pic16f877a.h"
   490                           SSPCON equ 014h ;# 
   491  0014                     # 887 "C:\Program Files (x86)\Microchip\xc8\v2.00\pic\include\pic16f877a.h"
   492                           CCPR1 equ 015h ;# 
   493  0015                     # 894 "C:\Program Files (x86)\Microchip\xc8\v2.00\pic\include\pic16f877a.h"
   494                           CCPR1L equ 015h ;# 
   495  0015                     # 901 "C:\Program Files (x86)\Microchip\xc8\v2.00\pic\include\pic16f877a.h"
   496                           CCPR1H equ 016h ;# 
   497  0016                     # 908 "C:\Program Files (x86)\Microchip\xc8\v2.00\pic\include\pic16f877a.h"
   498                           CCP1CON equ 017h ;# 
   499  0017                     # 966 "C:\Program Files (x86)\Microchip\xc8\v2.00\pic\include\pic16f877a.h"
   500                           RCSTA equ 018h ;# 
   501  0018                     # 1061 "C:\Program Files (x86)\Microchip\xc8\v2.00\pic\include\pic16f877a.h"
   502                           TXREG equ 019h ;# 
   503  0019                     # 1068 "C:\Program Files (x86)\Microchip\xc8\v2.00\pic\include\pic16f877a.h"
   504                           RCREG equ 01Ah ;# 
   505  001A                     # 1075 "C:\Program Files (x86)\Microchip\xc8\v2.00\pic\include\pic16f877a.h"
   506                           CCPR2 equ 01Bh ;# 
   507  001B                     # 1082 "C:\Program Files (x86)\Microchip\xc8\v2.00\pic\include\pic16f877a.h"
   508                           CCPR2L equ 01Bh ;# 
   509  001B                     # 1089 "C:\Program Files (x86)\Microchip\xc8\v2.00\pic\include\pic16f877a.h"
   510                           CCPR2H equ 01Ch ;# 
   511  001C                     # 1096 "C:\Program Files (x86)\Microchip\xc8\v2.00\pic\include\pic16f877a.h"
   512                           CCP2CON equ 01Dh ;# 
   513  001D                     # 1154 "C:\Program Files (x86)\Microchip\xc8\v2.00\pic\include\pic16f877a.h"
   514                           ADRESH equ 01Eh ;# 
   515  001E                     # 1161 "C:\Program Files (x86)\Microchip\xc8\v2.00\pic\include\pic16f877a.h"
   516                           ADCON0 equ 01Fh ;# 
   517  001F                     # 1257 "C:\Program Files (x86)\Microchip\xc8\v2.00\pic\include\pic16f877a.h"
   518                           OPTION_REG equ 081h ;# 
   519  0081                     # 1327 "C:\Program Files (x86)\Microchip\xc8\v2.00\pic\include\pic16f877a.h"
   520                           TRISA equ 085h ;# 
   521  0085                     # 1377 "C:\Program Files (x86)\Microchip\xc8\v2.00\pic\include\pic16f877a.h"
   522                           TRISB equ 086h ;# 
   523  0086                     # 1439 "C:\Program Files (x86)\Microchip\xc8\v2.00\pic\include\pic16f877a.h"
   524                           TRISC equ 087h ;# 
   525  0087                     # 1501 "C:\Program Files (x86)\Microchip\xc8\v2.00\pic\include\pic16f877a.h"
   526                           TRISD equ 088h ;# 
   527  0088                     # 1563 "C:\Program Files (x86)\Microchip\xc8\v2.00\pic\include\pic16f877a.h"
   528                           TRISE equ 089h ;# 
   529  0089                     # 1620 "C:\Program Files (x86)\Microchip\xc8\v2.00\pic\include\pic16f877a.h"
   530                           PIE1 equ 08Ch ;# 
   531  008C                     # 1682 "C:\Program Files (x86)\Microchip\xc8\v2.00\pic\include\pic16f877a.h"
   532                           PIE2 equ 08Dh ;# 
   533  008D                     # 1722 "C:\Program Files (x86)\Microchip\xc8\v2.00\pic\include\pic16f877a.h"
   534                           PCON equ 08Eh ;# 
   535  008E                     # 1756 "C:\Program Files (x86)\Microchip\xc8\v2.00\pic\include\pic16f877a.h"
   536                           SSPCON2 equ 091h ;# 
   537  0091                     # 1818 "C:\Program Files (x86)\Microchip\xc8\v2.00\pic\include\pic16f877a.h"
   538                           PR2 equ 092h ;# 
   539  0092                     # 1825 "C:\Program Files (x86)\Microchip\xc8\v2.00\pic\include\pic16f877a.h"
   540                           SSPADD equ 093h ;# 
   541  0093                     # 1832 "C:\Program Files (x86)\Microchip\xc8\v2.00\pic\include\pic16f877a.h"
   542                           SSPSTAT equ 094h ;# 
   543  0094                     # 2001 "C:\Program Files (x86)\Microchip\xc8\v2.00\pic\include\pic16f877a.h"
   544                           TXSTA equ 098h ;# 
   545  0098                     # 2082 "C:\Program Files (x86)\Microchip\xc8\v2.00\pic\include\pic16f877a.h"
   546                           SPBRG equ 099h ;# 
   547  0099                     # 2089 "C:\Program Files (x86)\Microchip\xc8\v2.00\pic\include\pic16f877a.h"
   548                           CMCON equ 09Ch ;# 
   549  009C                     # 2159 "C:\Program Files (x86)\Microchip\xc8\v2.00\pic\include\pic16f877a.h"
   550                           CVRCON equ 09Dh ;# 
   551  009D                     # 2224 "C:\Program Files (x86)\Microchip\xc8\v2.00\pic\include\pic16f877a.h"
   552                           ADRESL equ 09Eh ;# 
   553  009E                     # 2231 "C:\Program Files (x86)\Microchip\xc8\v2.00\pic\include\pic16f877a.h"
   554                           ADCON1 equ 09Fh ;# 
   555  009F                     # 2290 "C:\Program Files (x86)\Microchip\xc8\v2.00\pic\include\pic16f877a.h"
   556                           EEDATA equ 010Ch ;# 
   557  010C                     # 2297 "C:\Program Files (x86)\Microchip\xc8\v2.00\pic\include\pic16f877a.h"
   558                           EEADR equ 010Dh ;# 
   559  010D                     # 2304 "C:\Program Files (x86)\Microchip\xc8\v2.00\pic\include\pic16f877a.h"
   560                           EEDATH equ 010Eh ;# 
   561  010E                     # 2311 "C:\Program Files (x86)\Microchip\xc8\v2.00\pic\include\pic16f877a.h"
   562                           EEADRH equ 010Fh ;# 
   563  010F                     # 2318 "C:\Program Files (x86)\Microchip\xc8\v2.00\pic\include\pic16f877a.h"
   564                           EECON1 equ 018Ch ;# 
   565  018C                     # 2363 "C:\Program Files (x86)\Microchip\xc8\v2.00\pic\include\pic16f877a.h"
   566                           EECON2 equ 018Dh ;# 
   567  018D                     # 54 "C:\Program Files (x86)\Microchip\xc8\v2.00\pic\include\pic16f877a.h"
   568                           INDF equ 00h ;# 
   569  0000                     # 61 "C:\Program Files (x86)\Microchip\xc8\v2.00\pic\include\pic16f877a.h"
   570                           TMR0 equ 01h ;# 
   571  0001                     # 68 "C:\Program Files (x86)\Microchip\xc8\v2.00\pic\include\pic16f877a.h"
   572                           PCL equ 02h ;# 
   573  0002                     # 75 "C:\Program Files (x86)\Microchip\xc8\v2.00\pic\include\pic16f877a.h"
   574                           STATUS equ 03h ;# 
   575  0003                     # 161 "C:\Program Files (x86)\Microchip\xc8\v2.00\pic\include\pic16f877a.h"
   576                           FSR equ 04h ;# 
   577  0004                     # 168 "C:\Program Files (x86)\Microchip\xc8\v2.00\pic\include\pic16f877a.h"
   578                           PORTA equ 05h ;# 
   579  0005                     # 218 "C:\Program Files (x86)\Microchip\xc8\v2.00\pic\include\pic16f877a.h"
   580                           PORTB equ 06h ;# 
   581  0006                     # 280 "C:\Program Files (x86)\Microchip\xc8\v2.00\pic\include\pic16f877a.h"
   582                           PORTC equ 07h ;# 
   583  0007                     # 342 "C:\Program Files (x86)\Microchip\xc8\v2.00\pic\include\pic16f877a.h"
   584                           PORTD equ 08h ;# 
   585  0008                     # 404 "C:\Program Files (x86)\Microchip\xc8\v2.00\pic\include\pic16f877a.h"
   586                           PORTE equ 09h ;# 
   587  0009                     # 436 "C:\Program Files (x86)\Microchip\xc8\v2.00\pic\include\pic16f877a.h"
   588                           PCLATH equ 0Ah ;# 
   589  000A                     # 456 "C:\Program Files (x86)\Microchip\xc8\v2.00\pic\include\pic16f877a.h"
   590                           INTCON equ 0Bh ;# 
   591  000B                     # 534 "C:\Program Files (x86)\Microchip\xc8\v2.00\pic\include\pic16f877a.h"
   592                           PIR1 equ 0Ch ;# 
   593  000C                     # 596 "C:\Program Files (x86)\Microchip\xc8\v2.00\pic\include\pic16f877a.h"
   594                           PIR2 equ 0Dh ;# 
   595  000D                     # 636 "C:\Program Files (x86)\Microchip\xc8\v2.00\pic\include\pic16f877a.h"
   596                           TMR1 equ 0Eh ;# 
   597  000E                     # 643 "C:\Program Files (x86)\Microchip\xc8\v2.00\pic\include\pic16f877a.h"
   598                           TMR1L equ 0Eh ;# 
   599  000E                     # 650 "C:\Program Files (x86)\Microchip\xc8\v2.00\pic\include\pic16f877a.h"
   600                           TMR1H equ 0Fh ;# 
   601  000F                     # 657 "C:\Program Files (x86)\Microchip\xc8\v2.00\pic\include\pic16f877a.h"
   602                           T1CON equ 010h ;# 
   603  0010                     # 732 "C:\Program Files (x86)\Microchip\xc8\v2.00\pic\include\pic16f877a.h"
   604                           TMR2 equ 011h ;# 
   605  0011                     # 739 "C:\Program Files (x86)\Microchip\xc8\v2.00\pic\include\pic16f877a.h"
   606                           T2CON equ 012h ;# 
   607  0012                     # 810 "C:\Program Files (x86)\Microchip\xc8\v2.00\pic\include\pic16f877a.h"
   608                           SSPBUF equ 013h ;# 
   609  0013                     # 817 "C:\Program Files (x86)\Microchip\xc8\v2.00\pic\include\pic16f877a.h"
   610                           SSPCON equ 014h ;# 
   611  0014                     # 887 "C:\Program Files (x86)\Microchip\xc8\v2.00\pic\include\pic16f877a.h"
   612                           CCPR1 equ 015h ;# 
   613  0015                     # 894 "C:\Program Files (x86)\Microchip\xc8\v2.00\pic\include\pic16f877a.h"
   614                           CCPR1L equ 015h ;# 
   615  0015                     # 901 "C:\Program Files (x86)\Microchip\xc8\v2.00\pic\include\pic16f877a.h"
   616                           CCPR1H equ 016h ;# 
   617  0016                     # 908 "C:\Program Files (x86)\Microchip\xc8\v2.00\pic\include\pic16f877a.h"
   618                           CCP1CON equ 017h ;# 
   619  0017                     # 966 "C:\Program Files (x86)\Microchip\xc8\v2.00\pic\include\pic16f877a.h"
   620                           RCSTA equ 018h ;# 
   621  0018                     # 1061 "C:\Program Files (x86)\Microchip\xc8\v2.00\pic\include\pic16f877a.h"
   622                           TXREG equ 019h ;# 
   623  0019                     # 1068 "C:\Program Files (x86)\Microchip\xc8\v2.00\pic\include\pic16f877a.h"
   624                           RCREG equ 01Ah ;# 
   625  001A                     # 1075 "C:\Program Files (x86)\Microchip\xc8\v2.00\pic\include\pic16f877a.h"
   626                           CCPR2 equ 01Bh ;# 
   627  001B                     # 1082 "C:\Program Files (x86)\Microchip\xc8\v2.00\pic\include\pic16f877a.h"
   628                           CCPR2L equ 01Bh ;# 
   629  001B                     # 1089 "C:\Program Files (x86)\Microchip\xc8\v2.00\pic\include\pic16f877a.h"
   630                           CCPR2H equ 01Ch ;# 
   631  001C                     # 1096 "C:\Program Files (x86)\Microchip\xc8\v2.00\pic\include\pic16f877a.h"
   632                           CCP2CON equ 01Dh ;# 
   633  001D                     # 1154 "C:\Program Files (x86)\Microchip\xc8\v2.00\pic\include\pic16f877a.h"
   634                           ADRESH equ 01Eh ;# 
   635  001E                     # 1161 "C:\Program Files (x86)\Microchip\xc8\v2.00\pic\include\pic16f877a.h"
   636                           ADCON0 equ 01Fh ;# 
   637  001F                     # 1257 "C:\Program Files (x86)\Microchip\xc8\v2.00\pic\include\pic16f877a.h"
   638                           OPTION_REG equ 081h ;# 
   639  0081                     # 1327 "C:\Program Files (x86)\Microchip\xc8\v2.00\pic\include\pic16f877a.h"
   640                           TRISA equ 085h ;# 
   641  0085                     # 1377 "C:\Program Files (x86)\Microchip\xc8\v2.00\pic\include\pic16f877a.h"
   642                           TRISB equ 086h ;# 
   643  0086                     # 1439 "C:\Program Files (x86)\Microchip\xc8\v2.00\pic\include\pic16f877a.h"
   644                           TRISC equ 087h ;# 
   645  0087                     # 1501 "C:\Program Files (x86)\Microchip\xc8\v2.00\pic\include\pic16f877a.h"
   646                           TRISD equ 088h ;# 
   647  0088                     # 1563 "C:\Program Files (x86)\Microchip\xc8\v2.00\pic\include\pic16f877a.h"
   648                           TRISE equ 089h ;# 
   649  0089                     # 1620 "C:\Program Files (x86)\Microchip\xc8\v2.00\pic\include\pic16f877a.h"
   650                           PIE1 equ 08Ch ;# 
   651  008C                     # 1682 "C:\Program Files (x86)\Microchip\xc8\v2.00\pic\include\pic16f877a.h"
   652                           PIE2 equ 08Dh ;# 
   653  008D                     # 1722 "C:\Program Files (x86)\Microchip\xc8\v2.00\pic\include\pic16f877a.h"
   654                           PCON equ 08Eh ;# 
   655  008E                     # 1756 "C:\Program Files (x86)\Microchip\xc8\v2.00\pic\include\pic16f877a.h"
   656                           SSPCON2 equ 091h ;# 
   657  0091                     # 1818 "C:\Program Files (x86)\Microchip\xc8\v2.00\pic\include\pic16f877a.h"
   658                           PR2 equ 092h ;# 
   659  0092                     # 1825 "C:\Program Files (x86)\Microchip\xc8\v2.00\pic\include\pic16f877a.h"
   660                           SSPADD equ 093h ;# 
   661  0093                     # 1832 "C:\Program Files (x86)\Microchip\xc8\v2.00\pic\include\pic16f877a.h"
   662                           SSPSTAT equ 094h ;# 
   663  0094                     # 2001 "C:\Program Files (x86)\Microchip\xc8\v2.00\pic\include\pic16f877a.h"
   664                           TXSTA equ 098h ;# 
   665  0098                     # 2082 "C:\Program Files (x86)\Microchip\xc8\v2.00\pic\include\pic16f877a.h"
   666                           SPBRG equ 099h ;# 
   667  0099                     # 2089 "C:\Program Files (x86)\Microchip\xc8\v2.00\pic\include\pic16f877a.h"
   668                           CMCON equ 09Ch ;# 
   669  009C                     # 2159 "C:\Program Files (x86)\Microchip\xc8\v2.00\pic\include\pic16f877a.h"
   670                           CVRCON equ 09Dh ;# 
   671  009D                     # 2224 "C:\Program Files (x86)\Microchip\xc8\v2.00\pic\include\pic16f877a.h"
   672                           ADRESL equ 09Eh ;# 
   673  009E                     # 2231 "C:\Program Files (x86)\Microchip\xc8\v2.00\pic\include\pic16f877a.h"
   674                           ADCON1 equ 09Fh ;# 
   675  009F                     # 2290 "C:\Program Files (x86)\Microchip\xc8\v2.00\pic\include\pic16f877a.h"
   676                           EEDATA equ 010Ch ;# 
   677  010C                     # 2297 "C:\Program Files (x86)\Microchip\xc8\v2.00\pic\include\pic16f877a.h"
   678                           EEADR equ 010Dh ;# 
   679  010D                     # 2304 "C:\Program Files (x86)\Microchip\xc8\v2.00\pic\include\pic16f877a.h"
   680                           EEDATH equ 010Eh ;# 
   681  010E                     # 2311 "C:\Program Files (x86)\Microchip\xc8\v2.00\pic\include\pic16f877a.h"
   682                           EEADRH equ 010Fh ;# 
   683  010F                     # 2318 "C:\Program Files (x86)\Microchip\xc8\v2.00\pic\include\pic16f877a.h"
   684                           EECON1 equ 018Ch ;# 
   685  018C                     # 2363 "C:\Program Files (x86)\Microchip\xc8\v2.00\pic\include\pic16f877a.h"
   686                           EECON2 equ 018Dh ;# 
   687  018D                     # 54 "C:\Program Files (x86)\Microchip\xc8\v2.00\pic\include\pic16f877a.h"
   688                           INDF equ 00h ;# 
   689  0000                     # 61 "C:\Program Files (x86)\Microchip\xc8\v2.00\pic\include\pic16f877a.h"
   690                           TMR0 equ 01h ;# 
   691  0001                     # 68 "C:\Program Files (x86)\Microchip\xc8\v2.00\pic\include\pic16f877a.h"
   692                           PCL equ 02h ;# 
   693  0002                     # 75 "C:\Program Files (x86)\Microchip\xc8\v2.00\pic\include\pic16f877a.h"
   694                           STATUS equ 03h ;# 
   695  0003                     # 161 "C:\Program Files (x86)\Microchip\xc8\v2.00\pic\include\pic16f877a.h"
   696                           FSR equ 04h ;# 
   697  0004                     # 168 "C:\Program Files (x86)\Microchip\xc8\v2.00\pic\include\pic16f877a.h"
   698                           PORTA equ 05h ;# 
   699  0005                     # 218 "C:\Program Files (x86)\Microchip\xc8\v2.00\pic\include\pic16f877a.h"
   700                           PORTB equ 06h ;# 
   701  0006                     # 280 "C:\Program Files (x86)\Microchip\xc8\v2.00\pic\include\pic16f877a.h"
   702                           PORTC equ 07h ;# 
   703  0007                     # 342 "C:\Program Files (x86)\Microchip\xc8\v2.00\pic\include\pic16f877a.h"
   704                           PORTD equ 08h ;# 
   705  0008                     # 404 "C:\Program Files (x86)\Microchip\xc8\v2.00\pic\include\pic16f877a.h"
   706                           PORTE equ 09h ;# 
   707  0009                     # 436 "C:\Program Files (x86)\Microchip\xc8\v2.00\pic\include\pic16f877a.h"
   708                           PCLATH equ 0Ah ;# 
   709  000A                     # 456 "C:\Program Files (x86)\Microchip\xc8\v2.00\pic\include\pic16f877a.h"
   710                           INTCON equ 0Bh ;# 
   711  000B                     # 534 "C:\Program Files (x86)\Microchip\xc8\v2.00\pic\include\pic16f877a.h"
   712                           PIR1 equ 0Ch ;# 
   713  000C                     # 596 "C:\Program Files (x86)\Microchip\xc8\v2.00\pic\include\pic16f877a.h"
   714                           PIR2 equ 0Dh ;# 
   715  000D                     # 636 "C:\Program Files (x86)\Microchip\xc8\v2.00\pic\include\pic16f877a.h"
   716                           TMR1 equ 0Eh ;# 
   717  000E                     # 643 "C:\Program Files (x86)\Microchip\xc8\v2.00\pic\include\pic16f877a.h"
   718                           TMR1L equ 0Eh ;# 
   719  000E                     # 650 "C:\Program Files (x86)\Microchip\xc8\v2.00\pic\include\pic16f877a.h"
   720                           TMR1H equ 0Fh ;# 
   721  000F                     # 657 "C:\Program Files (x86)\Microchip\xc8\v2.00\pic\include\pic16f877a.h"
   722                           T1CON equ 010h ;# 
   723  0010                     # 732 "C:\Program Files (x86)\Microchip\xc8\v2.00\pic\include\pic16f877a.h"
   724                           TMR2 equ 011h ;# 
   725  0011                     # 739 "C:\Program Files (x86)\Microchip\xc8\v2.00\pic\include\pic16f877a.h"
   726                           T2CON equ 012h ;# 
   727  0012                     # 810 "C:\Program Files (x86)\Microchip\xc8\v2.00\pic\include\pic16f877a.h"
   728                           SSPBUF equ 013h ;# 
   729  0013                     # 817 "C:\Program Files (x86)\Microchip\xc8\v2.00\pic\include\pic16f877a.h"
   730                           SSPCON equ 014h ;# 
   731  0014                     # 887 "C:\Program Files (x86)\Microchip\xc8\v2.00\pic\include\pic16f877a.h"
   732                           CCPR1 equ 015h ;# 
   733  0015                     # 894 "C:\Program Files (x86)\Microchip\xc8\v2.00\pic\include\pic16f877a.h"
   734                           CCPR1L equ 015h ;# 
   735  0015                     # 901 "C:\Program Files (x86)\Microchip\xc8\v2.00\pic\include\pic16f877a.h"
   736                           CCPR1H equ 016h ;# 
   737  0016                     # 908 "C:\Program Files (x86)\Microchip\xc8\v2.00\pic\include\pic16f877a.h"
   738                           CCP1CON equ 017h ;# 
   739  0017                     # 966 "C:\Program Files (x86)\Microchip\xc8\v2.00\pic\include\pic16f877a.h"
   740                           RCSTA equ 018h ;# 
   741  0018                     # 1061 "C:\Program Files (x86)\Microchip\xc8\v2.00\pic\include\pic16f877a.h"
   742                           TXREG equ 019h ;# 
   743  0019                     # 1068 "C:\Program Files (x86)\Microchip\xc8\v2.00\pic\include\pic16f877a.h"
   744                           RCREG equ 01Ah ;# 
   745  001A                     # 1075 "C:\Program Files (x86)\Microchip\xc8\v2.00\pic\include\pic16f877a.h"
   746                           CCPR2 equ 01Bh ;# 
   747  001B                     # 1082 "C:\Program Files (x86)\Microchip\xc8\v2.00\pic\include\pic16f877a.h"
   748                           CCPR2L equ 01Bh ;# 
   749  001B                     # 1089 "C:\Program Files (x86)\Microchip\xc8\v2.00\pic\include\pic16f877a.h"
   750                           CCPR2H equ 01Ch ;# 
   751  001C                     # 1096 "C:\Program Files (x86)\Microchip\xc8\v2.00\pic\include\pic16f877a.h"
   752                           CCP2CON equ 01Dh ;# 
   753  001D                     # 1154 "C:\Program Files (x86)\Microchip\xc8\v2.00\pic\include\pic16f877a.h"
   754                           ADRESH equ 01Eh ;# 
   755  001E                     # 1161 "C:\Program Files (x86)\Microchip\xc8\v2.00\pic\include\pic16f877a.h"
   756                           ADCON0 equ 01Fh ;# 
   757  001F                     # 1257 "C:\Program Files (x86)\Microchip\xc8\v2.00\pic\include\pic16f877a.h"
   758                           OPTION_REG equ 081h ;# 
   759  0081                     # 1327 "C:\Program Files (x86)\Microchip\xc8\v2.00\pic\include\pic16f877a.h"
   760                           TRISA equ 085h ;# 
   761  0085                     # 1377 "C:\Program Files (x86)\Microchip\xc8\v2.00\pic\include\pic16f877a.h"
   762                           TRISB equ 086h ;# 
   763  0086                     # 1439 "C:\Program Files (x86)\Microchip\xc8\v2.00\pic\include\pic16f877a.h"
   764                           TRISC equ 087h ;# 
   765  0087                     # 1501 "C:\Program Files (x86)\Microchip\xc8\v2.00\pic\include\pic16f877a.h"
   766                           TRISD equ 088h ;# 
   767  0088                     # 1563 "C:\Program Files (x86)\Microchip\xc8\v2.00\pic\include\pic16f877a.h"
   768                           TRISE equ 089h ;# 
   769  0089                     # 1620 "C:\Program Files (x86)\Microchip\xc8\v2.00\pic\include\pic16f877a.h"
   770                           PIE1 equ 08Ch ;# 
   771  008C                     # 1682 "C:\Program Files (x86)\Microchip\xc8\v2.00\pic\include\pic16f877a.h"
   772                           PIE2 equ 08Dh ;# 
   773  008D                     # 1722 "C:\Program Files (x86)\Microchip\xc8\v2.00\pic\include\pic16f877a.h"
   774                           PCON equ 08Eh ;# 
   775  008E                     # 1756 "C:\Program Files (x86)\Microchip\xc8\v2.00\pic\include\pic16f877a.h"
   776                           SSPCON2 equ 091h ;# 
   777  0091                     # 1818 "C:\Program Files (x86)\Microchip\xc8\v2.00\pic\include\pic16f877a.h"
   778                           PR2 equ 092h ;# 
   779  0092                     # 1825 "C:\Program Files (x86)\Microchip\xc8\v2.00\pic\include\pic16f877a.h"
   780                           SSPADD equ 093h ;# 
   781  0093                     # 1832 "C:\Program Files (x86)\Microchip\xc8\v2.00\pic\include\pic16f877a.h"
   782                           SSPSTAT equ 094h ;# 
   783  0094                     # 2001 "C:\Program Files (x86)\Microchip\xc8\v2.00\pic\include\pic16f877a.h"
   784                           TXSTA equ 098h ;# 
   785  0098                     # 2082 "C:\Program Files (x86)\Microchip\xc8\v2.00\pic\include\pic16f877a.h"
   786                           SPBRG equ 099h ;# 
   787  0099                     # 2089 "C:\Program Files (x86)\Microchip\xc8\v2.00\pic\include\pic16f877a.h"
   788                           CMCON equ 09Ch ;# 
   789  009C                     # 2159 "C:\Program Files (x86)\Microchip\xc8\v2.00\pic\include\pic16f877a.h"
   790                           CVRCON equ 09Dh ;# 
   791  009D                     # 2224 "C:\Program Files (x86)\Microchip\xc8\v2.00\pic\include\pic16f877a.h"
   792                           ADRESL equ 09Eh ;# 
   793  009E                     # 2231 "C:\Program Files (x86)\Microchip\xc8\v2.00\pic\include\pic16f877a.h"
   794                           ADCON1 equ 09Fh ;# 
   795  009F                     # 2290 "C:\Program Files (x86)\Microchip\xc8\v2.00\pic\include\pic16f877a.h"
   796                           EEDATA equ 010Ch ;# 
   797  010C                     # 2297 "C:\Program Files (x86)\Microchip\xc8\v2.00\pic\include\pic16f877a.h"
   798                           EEADR equ 010Dh ;# 
   799  010D                     # 2304 "C:\Program Files (x86)\Microchip\xc8\v2.00\pic\include\pic16f877a.h"
   800                           EEDATH equ 010Eh ;# 
   801  010E                     # 2311 "C:\Program Files (x86)\Microchip\xc8\v2.00\pic\include\pic16f877a.h"
   802                           EEADRH equ 010Fh ;# 
   803  010F                     # 2318 "C:\Program Files (x86)\Microchip\xc8\v2.00\pic\include\pic16f877a.h"
   804                           EECON1 equ 018Ch ;# 
   805  018C                     # 2363 "C:\Program Files (x86)\Microchip\xc8\v2.00\pic\include\pic16f877a.h"
   806                           EECON2 equ 018Dh ;# 
   807  018D                     	FNCALL	_main,_Initialization
   808                           	FNCALL	_main,_loop
   809                           	FNCALL	_main,_setup
   810                           	FNCALL	_setup,_SerialBegin
   811                           	FNCALL	_setup,_pinMode
   812                           	FNCALL	_SerialBegin,___aldiv
   813                           	FNCALL	_loop,_SerialAvailable
   814                           	FNCALL	_loop,_delay
   815                           	FNCALL	_loop,_digitalWrite
   816                           	FNCALL	_Initialization,_CCP1Configuration
   817                           	FNCALL	_Initialization,_CCP2Configuration
   818                           	FNROOT	_main
   819                           	global	_characters
   820                           	global	_delaying
   821                           psect	idataBANK0,class=CODE,space=0,delta=2,noexec
   822                           global __pidataBANK0
   823                           __pidataBANK0:
   824  0352                     	file	"Keypad4x4.c"
   825                           	line	4
   826                           
   827                           ;initializer for _characters
   828                           	retlw	030h
   829  0352  3430               	retlw	030h
   830  0353  3430               	retlw	030h
   831  0354  3430               	retlw	030h
   832  0355  3430               	retlw	030h
   833  0356  3430               	retlw	030h
   834  0357  3430               	retlw	030h
   835  0358  3430               	retlw	030h
   836  0359  3430               	retlw	030h
   837  035A  3430               	retlw	030h
   838  035B  3430               	retlw	030h
   839  035C  3430               	retlw	030h
   840  035D  3430               	retlw	030h
   841  035E  3430               	retlw	030h
   842  035F  3430               	retlw	030h
   843  0360  3430               	retlw	030h
   844  0361  3430               	line	13
   845                           
   846                           ;initializer for _delaying
   847                           	retlw	064h
   848  0362  3464               	retlw	0
   849  0363  3400               
   850                           	global	_ServoValue
   851                           	global	_ColPins
   852                           	global	_RowPins
   853                           	global	_d7Pin
   854                           	global	_d6Pin
   855                           	global	_d5Pin
   856                           	global	_d4Pin
   857                           	global	_RWPin
   858                           	global	_ENPin
   859                           	global	_RSPin
   860                           	global	_SSPBUF
   861                           _SSPBUF	set	0x13
   862  0013                     	global	_SSPCON
   863                           _SSPCON	set	0x14
   864  0014                     	global	_RCREG
   865                           _RCREG	set	0x1A
   866  001A                     	global	_TXREG
   867                           _TXREG	set	0x19
   868  0019                     	global	_PORTEbits
   869                           _PORTEbits	set	0x9
   870  0009                     	global	_CCPR1L
   871                           _CCPR1L	set	0x15
   872  0015                     	global	_CCPR2L
   873                           _CCPR2L	set	0x1B
   874  001B                     	global	_ADRESH
   875                           _ADRESH	set	0x1E
   876  001E                     	global	_ADCON0bits
   877                           _ADCON0bits	set	0x1F
   878  001F                     	global	_PORTAbits
   879                           _PORTAbits	set	0x5
   880  0005                     	global	_PORTDbits
   881                           _PORTDbits	set	0x8
   882  0008                     	global	_PORTBbits
   883                           _PORTBbits	set	0x6
   884  0006                     	global	_PORTCbits
   885                           _PORTCbits	set	0x7
   886  0007                     	global	_CCP2CON
   887                           _CCP2CON	set	0x1D
   888  001D                     	global	_CCP1CON
   889                           _CCP1CON	set	0x17
   890  0017                     	global	_T2CON
   891                           _T2CON	set	0x12
   892  0012                     	global	_PORTE
   893                           _PORTE	set	0x9
   894  0009                     	global	_ADCON0
   895                           _ADCON0	set	0x1F
   896  001F                     	global	_SSPIF
   897                           _SSPIF	set	0x63
   898  0063                     	global	_PEIE
   899                           _PEIE	set	0x5E
   900  005E                     	global	_GIE
   901                           _GIE	set	0x5F
   902  005F                     	global	_RCIF
   903                           _RCIF	set	0x65
   904  0065                     	global	_TXIF
   905                           _TXIF	set	0x64
   906  0064                     	global	_OERR
   907                           _OERR	set	0xC1
   908  00C1                     	global	_FERR
   909                           _FERR	set	0xC2
   910  00C2                     	global	_CREN
   911                           _CREN	set	0xC4
   912  00C4                     	global	_SPEN
   913                           _SPEN	set	0xC7
   914  00C7                     	global	_CCP1Y
   915                           _CCP1Y	set	0xBC
   916  00BC                     	global	_CCP1X
   917                           _CCP1X	set	0xBD
   918  00BD                     	global	_CCP2Y
   919                           _CCP2Y	set	0xEC
   920  00EC                     	global	_CCP2X
   921                           _CCP2X	set	0xED
   922  00ED                     	global	_SSPSTAT
   923                           _SSPSTAT	set	0x94
   924  0094                     	global	_SSPADD
   925                           _SSPADD	set	0x93
   926  0093                     	global	_SSPCON2
   927                           _SSPCON2	set	0x91
   928  0091                     	global	_SPBRG
   929                           _SPBRG	set	0x99
   930  0099                     	global	_ADRESL
   931                           _ADRESL	set	0x9E
   932  009E                     	global	_TRISAbits
   933                           _TRISAbits	set	0x85
   934  0085                     	global	_TRISDbits
   935                           _TRISDbits	set	0x88
   936  0088                     	global	_TRISBbits
   937                           _TRISBbits	set	0x86
   938  0086                     	global	_TRISCbits
   939                           _TRISCbits	set	0x87
   940  0087                     	global	_PR2
   941                           _PR2	set	0x92
   942  0092                     	global	_TRISE
   943                           _TRISE	set	0x89
   944  0089                     	global	_ADCON1
   945                           _ADCON1	set	0x9F
   946  009F                     	global	_ACKEN
   947                           _ACKEN	set	0x48C
   948  048C                     	global	_ACKDT
   949                           _ACKDT	set	0x48D
   950  048D                     	global	_RCEN
   951                           _RCEN	set	0x48B
   952  048B                     	global	_PEN
   953                           _PEN	set	0x48A
   954  048A                     	global	_RSEN
   955                           _RSEN	set	0x489
   956  0489                     	global	_SEN
   957                           _SEN	set	0x488
   958  0488                     	global	_SSPIE
   959                           _SSPIE	set	0x463
   960  0463                     	global	_TRISC4
   961                           _TRISC4	set	0x43C
   962  043C                     	global	_TRISC3
   963                           _TRISC3	set	0x43B
   964  043B                     	global	_TRMT
   965                           _TRMT	set	0x4C1
   966  04C1                     	global	_TXEN
   967                           _TXEN	set	0x4C5
   968  04C5                     	global	_TRISC6
   969                           _TRISC6	set	0x43E
   970  043E                     	global	_TRISC7
   971                           _TRISC7	set	0x43F
   972  043F                     	global	_SYNC
   973                           _SYNC	set	0x4C4
   974  04C4                     	global	_BRGH
   975                           _BRGH	set	0x4C2
   976  04C2                     ; #config settings
   977                           global __CFG_FOSC$HS
   978                           __CFG_FOSC$HS equ 0x0
   979  0000                     global __CFG_WDTE$OFF
   980                           __CFG_WDTE$OFF equ 0x0
   981  0000                     global __CFG_PWRTE$OFF
   982                           __CFG_PWRTE$OFF equ 0x0
   983  0000                     global __CFG_BOREN$OFF
   984                           __CFG_BOREN$OFF equ 0x0
   985  0000                     global __CFG_LVP$ON
   986                           __CFG_LVP$ON equ 0x0
   987  0000                     global __CFG_CPD$OFF
   988                           __CFG_CPD$OFF equ 0x0
   989  0000                     global __CFG_WRT$OFF
   990                           __CFG_WRT$OFF equ 0x0
   991  0000                     global __CFG_CP$OFF
   992                           __CFG_CP$OFF equ 0x0
   993  0000                     	file	"C:\Users\c4810\AppData\Local\Temp\sbi8."
   994                           	line	#
   995                           psect cinit,class=CODE,delta=2
   996                           global start_initialization
   997                           start_initialization:
   998  07E5                     
   999                           global __initialization
  1000                           __initialization:
  1001  07E5                     psect	bssCOMMON,class=COMMON,space=1,noexec
  1002                           global __pbssCOMMON
  1003                           __pbssCOMMON:
  1004  007D                     _ServoValue:
  1005  007D                            ds      1
  1006  007D                     
  1007                           psect	bssBANK0,class=BANK0,space=1,noexec
  1008                           global __pbssBANK0
  1009                           __pbssBANK0:
  1010  0020                     _ColPins:
  1011  0020                            ds      8
  1012  0020                     
  1013                           _RowPins:
  1014  0028                            ds      8
  1015  0028                     
  1016                           _d7Pin:
  1017  0030                            ds      2
  1018  0030                     
  1019                           _d6Pin:
  1020  0032                            ds      2
  1021  0032                     
  1022                           _d5Pin:
  1023  0034                            ds      2
  1024  0034                     
  1025                           _d4Pin:
  1026  0036                            ds      2
  1027  0036                     
  1028                           _RWPin:
  1029  0038                            ds      2
  1030  0038                     
  1031                           _ENPin:
  1032  003A                            ds      2
  1033  003A                     
  1034                           _RSPin:
  1035  003C                            ds      2
  1036  003C                     
  1037                           psect	dataBANK0,class=BANK0,space=1,noexec
  1038                           global __pdataBANK0
  1039                           __pdataBANK0:
  1040  003E                     	file	"Keypad4x4.c"
  1041                           	line	4
  1042                           _characters:
  1043  003E                            ds      16
  1044  003E                     
  1045                           psect	dataBANK0
  1046                           	file	"Keypad4x4.c"
  1047                           	line	13
  1048                           _delaying:
  1049  004E                            ds      2
  1050  004E                     
  1051                           	file	"C:\Users\c4810\AppData\Local\Temp\sbi8."
  1052                           	line	#
  1053                           global btemp
  1054                           psect inittext,class=CODE,delta=2
  1055                           global init_fetch0,btemp
  1056                           ;	Called with low address in FSR and high address in W
  1057                           init_fetch0:
  1058  0364                     	movf btemp,w
  1059  0364  087E               	movwf pclath
  1060  0365  008A               	movf btemp+1,w
  1061  0366  087F               	movwf pc
  1062  0367  0082               global init_ram0
  1063                           ;Called with:
  1064                           ;	high address of idata address in btemp 
  1065                           ;	low address of idata address in btemp+1 
  1066                           ;	low address of data in FSR
  1067                           ;	high address + 1 of data in btemp-1
  1068                           init_ram0:
  1069  0368                     	fcall init_fetch0
  1070  0368  120A  118A  2364  120A  118A  	movwf indf,f
  1071  036D  0080               	incf fsr,f
  1072  036E  0A84               	movf fsr,w
  1073  036F  0804               	xorwf btemp-1,w
  1074  0370  067D               	btfsc status,2
  1075  0371  1903               	retlw 0
  1076  0372  3400               	incf btemp+1,f
  1077  0373  0AFF               	btfsc status,2
  1078  0374  1903               	incf btemp,f
  1079  0375  0AFE               	goto init_ram0
  1080  0376  2B68               ; Initialize objects allocated to BANK0
  1081                           psect cinit,class=CODE,delta=2,merge=1
  1082                           global init_ram0, __pidataBANK0
  1083                           	bcf	status, 7	;select IRP bank0
  1084  07E5  1383               	movlw low(__pdataBANK0+18)
  1085  07E6  3050               	movwf btemp-1,f
  1086  07E7  00FD               	movlw high(__pidataBANK0)
  1087  07E8  3003               	movwf btemp,f
  1088  07E9  00FE               	movlw low(__pidataBANK0)
  1089  07EA  3052               	movwf btemp+1,f
  1090  07EB  00FF               	movlw low(__pdataBANK0)
  1091  07EC  303E               	movwf fsr,f
  1092  07ED  0084               	fcall init_ram0
  1093  07EE  120A  118A  2368  120A  118A  	line	#
  1094                           psect clrtext,class=CODE,delta=2
  1095                           global clear_ram0
  1096                           ;	Called with FSR containing the base address, and
  1097                           ;	W with the last address+1
  1098                           clear_ram0:
  1099  033F                     	clrwdt			;clear the watchdog before getting into this loop
  1100  033F  0064               clrloop0:
  1101  0340                     	clrf	indf		;clear RAM location pointed to by FSR
  1102  0340  0180               	incf	fsr,f		;increment pointer
  1103  0341  0A84               	xorwf	fsr,w		;XOR with final address
  1104  0342  0604               	btfsc	status,2	;have we reached the end yet?
  1105  0343  1903               	retlw	0		;all done for this memory range, return
  1106  0344  3400               	xorwf	fsr,w		;XOR again to restore value
  1107  0345  0604               	goto	clrloop0		;do the next byte
  1108  0346  2B40               
  1109                           ; Clear objects allocated to BANK0
  1110                           psect cinit,class=CODE,delta=2,merge=1
  1111                           	movlw	low(__pbssBANK0)
  1112  07F3  3020               	movwf	fsr
  1113  07F4  0084               	movlw	low((__pbssBANK0)+01Eh)
  1114  07F5  303E               	fcall	clear_ram0
  1115  07F6  120A  118A  233F  120A  118A  ; Clear objects allocated to COMMON
  1116                           psect cinit,class=CODE,delta=2,merge=1
  1117                           	clrf	((__pbssCOMMON)+0)&07Fh
  1118  07FB  01FD               psect cinit,class=CODE,delta=2,merge=1
  1119                           global end_of_initialization,__end_of__initialization
  1120                           
  1121                           ;End of C runtime variable initialization code
  1122                           
  1123                           end_of_initialization:
  1124  07FC                     __end_of__initialization:
  1125  07FC                     clrf status
  1126  07FC  0183               ljmp _main	;jump to C main() function
  1127  07FD  120A  118A  2B77   psect	cstackCOMMON,class=COMMON,space=1,noexec
  1128                           global __pcstackCOMMON
  1129                           __pcstackCOMMON:
  1130  0070                     ?_Initialization:	; 1 bytes @ 0x0
  1131  0070                     ??_Initialization:	; 1 bytes @ 0x0
  1132  0070                     ?_setup:	; 1 bytes @ 0x0
  1133  0070                     ?_loop:	; 1 bytes @ 0x0
  1134  0070                     ?_CCP1Configuration:	; 1 bytes @ 0x0
  1135  0070                     ??_CCP1Configuration:	; 1 bytes @ 0x0
  1136  0070                     ?_CCP2Configuration:	; 1 bytes @ 0x0
  1137  0070                     ??_CCP2Configuration:	; 1 bytes @ 0x0
  1138  0070                     ?_pinMode:	; 1 bytes @ 0x0
  1139  0070                     ?_digitalWrite:	; 1 bytes @ 0x0
  1140  0070                     ?_SerialAvailable:	; 1 bytes @ 0x0
  1141  0070                     ??_SerialAvailable:	; 1 bytes @ 0x0
  1142  0070                     ?_delay:	; 1 bytes @ 0x0
  1143  0070                     ?_main:	; 2 bytes @ 0x0
  1144  0070                     	global	?___aldiv
  1145                           ?___aldiv:	; 4 bytes @ 0x0
  1146  0070                     	global	pinMode@mode
  1147                           pinMode@mode:	; 1 bytes @ 0x0
  1148  0070                     	global	digitalWrite@value
  1149                           digitalWrite@value:	; 1 bytes @ 0x0
  1150  0070                     	global	_SerialAvailable$429
  1151                           _SerialAvailable$429:	; 1 bytes @ 0x0
  1152  0070                     	global	delay@milis
  1153                           delay@milis:	; 2 bytes @ 0x0
  1154  0070                     	global	___aldiv@divisor
  1155                           ___aldiv@divisor:	; 4 bytes @ 0x0
  1156  0070                     	ds	1
  1157  0070                     ??_pinMode:	; 1 bytes @ 0x1
  1158  0071                     ??_digitalWrite:	; 1 bytes @ 0x1
  1159  0071                     	ds	1
  1160  0071                     ??_delay:	; 1 bytes @ 0x2
  1161  0072                     	ds	1
  1162  0072                     	global	pinMode@pin
  1163                           pinMode@pin:	; 1 bytes @ 0x3
  1164  0073                     	global	digitalWrite@pin
  1165                           digitalWrite@pin:	; 1 bytes @ 0x3
  1166  0073                     	global	delay@j
  1167                           delay@j:	; 2 bytes @ 0x3
  1168  0073                     	ds	1
  1169  0073                     	global	___aldiv@dividend
  1170                           ___aldiv@dividend:	; 4 bytes @ 0x4
  1171  0074                     	ds	1
  1172  0074                     	global	delay@i
  1173                           delay@i:	; 2 bytes @ 0x5
  1174  0075                     	ds	2
  1175  0075                     ??_loop:	; 1 bytes @ 0x7
  1176  0077                     	ds	1
  1177  0077                     ??___aldiv:	; 1 bytes @ 0x8
  1178  0078                     	ds	1
  1179  0078                     ??_SerialBegin:	; 1 bytes @ 0x9
  1180  0079                     	ds	4
  1181  0079                     ??_setup:	; 1 bytes @ 0xD
  1182  007D                     ??_main:	; 1 bytes @ 0xD
  1183  007D                     psect	cstackBANK0,class=BANK0,space=1,noexec
  1184                           global __pcstackBANK0
  1185                           __pcstackBANK0:
  1186  0050                     	global	___aldiv@counter
  1187                           ___aldiv@counter:	; 1 bytes @ 0x0
  1188  0050                     	ds	1
  1189  0050                     	global	___aldiv@sign
  1190                           ___aldiv@sign:	; 1 bytes @ 0x1
  1191  0051                     	ds	1
  1192  0051                     	global	___aldiv@quotient
  1193                           ___aldiv@quotient:	; 4 bytes @ 0x2
  1194  0052                     	ds	4
  1195  0052                     ?_SerialBegin:	; 1 bytes @ 0x6
  1196  0056                     	global	SerialBegin@BaudRate
  1197                           SerialBegin@BaudRate:	; 4 bytes @ 0x6
  1198  0056                     	ds	4
  1199  0056                     	global	SerialBegin@x
  1200                           SerialBegin@x:	; 2 bytes @ 0xA
  1201  005A                     	ds	2
  1202  005A                     ;!
  1203                           ;!Data Sizes:
  1204                           ;!    Strings     0
  1205                           ;!    Constant    0
  1206                           ;!    Data        18
  1207                           ;!    BSS         31
  1208                           ;!    Persistent  0
  1209                           ;!    Stack       0
  1210                           ;!
  1211                           ;!Auto Spaces:
  1212                           ;!    Space          Size  Autos    Used
  1213                           ;!    COMMON           14     13      14
  1214                           ;!    BANK0            80     12      60
  1215                           ;!    BANK1            80      0       0
  1216                           ;!    BANK3            96      0       0
  1217                           ;!    BANK2            96      0       0
  1218                           
  1219                           ;!
  1220                           ;!Pointer List with Targets:
  1221                           ;!
  1222                           ;!    None.
  1223                           
  1224                           
  1225                           ;!
  1226                           ;!Critical Paths under _main in COMMON
  1227                           ;!
  1228                           ;!    _setup->_SerialBegin
  1229                           ;!    _SerialBegin->___aldiv
  1230                           ;!    _loop->_delay
  1231                           ;!
  1232                           ;!Critical Paths under _main in BANK0
  1233                           ;!
  1234                           ;!    _setup->_SerialBegin
  1235                           ;!    _SerialBegin->___aldiv
  1236                           ;!
  1237                           ;!Critical Paths under _main in BANK1
  1238                           ;!
  1239                           ;!    None.
  1240                           ;!
  1241                           ;!Critical Paths under _main in BANK3
  1242                           ;!
  1243                           ;!    None.
  1244                           ;!
  1245                           ;!Critical Paths under _main in BANK2
  1246                           ;!
  1247                           ;!    None.
  1248                           
  1249 ;;
  1250 ;;Main: autosize = 0, tempsize = 0, incstack = 0, save=0
  1251 ;;
  1252                           
  1253                           ;!
  1254                           ;!Call Graph Tables:
  1255                           ;!
  1256                           ;! ---------------------------------------------------------------------------------
  1257                           ;! (Depth) Function   	        Calls       Base Space   Used Autos Params    Refs
  1258                           ;! ---------------------------------------------------------------------------------
  1259                           ;! (0) _main                                                 0     0      0   13252
  1260                           ;!                     _Initialization
  1261                           ;!                               _loop
  1262                           ;!                              _setup
  1263                           ;! ---------------------------------------------------------------------------------
  1264                           ;! (1) _setup                                                0     0      0    2200
  1265                           ;!                        _SerialBegin
  1266                           ;!                            _pinMode
  1267                           ;! ---------------------------------------------------------------------------------
  1268                           ;! (2) _pinMode                                              4     3      1    1408
  1269                           ;!                                              0 COMMON     4     3      1
  1270                           ;! ---------------------------------------------------------------------------------
  1271                           ;! (2) _SerialBegin                                         10     6      4     792
  1272                           ;!                                              9 COMMON     4     4      0
  1273                           ;!                                              6 BANK0      6     2      4
  1274                           ;!                            ___aldiv
  1275                           ;! ---------------------------------------------------------------------------------
  1276                           ;! (3) ___aldiv                                             15     7      8     604
  1277                           ;!                                              0 COMMON     9     1      8
  1278                           ;!                                              0 BANK0      6     6      0
  1279                           ;! ---------------------------------------------------------------------------------
  1280                           ;! (1) _loop                                                 0     0      0   11052
  1281                           ;!                    _SerialAvailable
  1282                           ;!                              _delay
  1283                           ;!                       _digitalWrite
  1284                           ;! ---------------------------------------------------------------------------------
  1285                           ;! (2) _digitalWrite                                         4     3      1    8780
  1286                           ;!                                              0 COMMON     4     3      1
  1287                           ;! ---------------------------------------------------------------------------------
  1288                           ;! (2) _delay                                                7     5      2    2264
  1289                           ;!                                              0 COMMON     7     5      2
  1290                           ;! ---------------------------------------------------------------------------------
  1291                           ;! (2) _SerialAvailable                                      1     1      0       8
  1292                           ;!                                              0 COMMON     1     1      0
  1293                           ;! ---------------------------------------------------------------------------------
  1294                           ;! (1) _Initialization                                       0     0      0       0
  1295                           ;!                  _CCP1Configuration
  1296                           ;!                  _CCP2Configuration
  1297                           ;! ---------------------------------------------------------------------------------
  1298                           ;! (2) _CCP2Configuration                                    0     0      0       0
  1299                           ;! ---------------------------------------------------------------------------------
  1300                           ;! (2) _CCP1Configuration                                    0     0      0       0
  1301                           ;! ---------------------------------------------------------------------------------
  1302                           ;! Estimated maximum stack depth 3
  1303                           ;! ---------------------------------------------------------------------------------
  1304                           ;!
  1305                           ;! Call Graph Graphs:
  1306                           ;!
  1307                           ;! _main (ROOT)
  1308                           ;!   _Initialization
  1309                           ;!     _CCP1Configuration
  1310                           ;!     _CCP2Configuration
  1311                           ;!   _loop
  1312                           ;!     _SerialAvailable
  1313                           ;!     _delay
  1314                           ;!     _digitalWrite
  1315                           ;!   _setup
  1316                           ;!     _SerialBegin
  1317                           ;!       ___aldiv
  1318                           ;!     _pinMode
  1319                           ;!
  1320                           
  1321                           ;! Address spaces:
  1322                           
  1323                           ;!Name               Size   Autos  Total    Cost      Usage
  1324                           ;!BANK3               60      0       0       9        0.0%
  1325                           ;!BITBANK3            60      0       0       8        0.0%
  1326                           ;!SFR3                 0      0       0       4        0.0%
  1327                           ;!BITSFR3              0      0       0       4        0.0%
  1328                           ;!BANK2               60      0       0      11        0.0%
  1329                           ;!BITBANK2            60      0       0      10        0.0%
  1330                           ;!SFR2                 0      0       0       5        0.0%
  1331                           ;!BITSFR2              0      0       0       5        0.0%
  1332                           ;!BANK1               50      0       0       7        0.0%
  1333                           ;!BITBANK1            50      0       0       6        0.0%
  1334                           ;!SFR1                 0      0       0       2        0.0%
  1335                           ;!BITSFR1              0      0       0       2        0.0%
  1336                           ;!BANK0               50      C      3C       5       75.0%
  1337                           ;!BITBANK0            50      0       0       4        0.0%
  1338                           ;!SFR0                 0      0       0       1        0.0%
  1339                           ;!BITSFR0              0      0       0       1        0.0%
  1340                           ;!COMMON               E      D       E       1      100.0%
  1341                           ;!BITCOMMON            E      0       0       0        0.0%
  1342                           ;!CODE                 0      0       0       0        0.0%
  1343                           ;!DATA                 0      0      4A      12        0.0%
  1344                           ;!ABS                  0      0      4A       3        0.0%
  1345                           ;!NULL                 0      0       0       0        0.0%
  1346                           ;!STACK                0      0       0       2        0.0%
  1347                           ;!EEDATA             100      0       0       0        0.0%
  1348                           
  1349                           	global	_main
  1350                           
  1351 ;; *************** function _main *****************
  1352 ;; Defined at:
  1353 ;;		line 7 in file "source.c"
  1354 ;; Parameters:    Size  Location     Type
  1355 ;;		None
  1356 ;; Auto vars:     Size  Location     Type
  1357 ;;		None
  1358 ;; Return value:  Size  Location     Type
  1359 ;;                  2  130[None  ] int 
  1360 ;; Registers used:
  1361 ;;		wreg, fsr0l, fsr0h, status,2, status,0, btemp+1, pclath, cstack
  1362 ;; Tracked objects:
  1363 ;;		On entry : B00/0
  1364 ;;		On exit  : 0/0
  1365 ;;		Unchanged: 0/0
  1366 ;; Data sizes:     COMMON   BANK0   BANK1   BANK3   BANK2
  1367 ;;      Params:         0       0       0       0       0
  1368 ;;      Locals:         0       0       0       0       0
  1369 ;;      Temps:          0       0       0       0       0
  1370 ;;      Totals:         0       0       0       0       0
  1371 ;;Total ram usage:        0 bytes
  1372 ;; Hardware stack levels required when called:    3
  1373 ;; This function calls:
  1374 ;;		_Initialization
  1375 ;;		_loop
  1376 ;;		_setup
  1377 ;; This function is called by:
  1378 ;;		Startup code after reset
  1379 ;; This function uses a non-reentrant model
  1380 ;;
  1381                           psect	maintext,global,class=CODE,delta=2,split=1,group=0
  1382                           	file	"source.c"
  1383                           	line	7
  1384                           global __pmaintext
  1385                           __pmaintext:	;psect for function _main
  1386  0377                     psect	maintext
  1387                           	file	"source.c"
  1388                           	line	7
  1389                           	global	__size_of_main
  1390                           	__size_of_main	equ	__end_of_main-_main
  1391  0015                     	
  1392                           _main:	
  1393  0377                     ;incstack = 0
  1394                           	opt	stack 5
  1395                           ; Regs used in _main: [wreg-fsr0h+status,2+status,0+btemp+1+pclath+cstack]
  1396                           	line	9
  1397                           	
  1398                           l2758:	
  1399  0377                     ;source.c: 9:     Initialization();
  1400                           	fcall	_Initialization
  1401  0377  120A  118A  23BA  120A  118A  	line	10
  1402                           	
  1403                           l2760:	
  1404  037C                     ;source.c: 10:     setup();
  1405                           	fcall	_setup
  1406  037C  120A  118A  23A3  120A  118A  	goto	l2762
  1407  0381  2B82               	line	11
  1408                           ;source.c: 11:     while(1)
  1409                           	
  1410                           l131:	
  1411  0382                     	line	13
  1412                           	
  1413                           l2762:	
  1414  0382                     ;source.c: 12:     {;source.c: 13:         loop();
  1415                           	fcall	_loop
  1416  0382  120A  118A  23E0  120A  118A  	goto	l2762
  1417  0387  2B82               	line	14
  1418                           ;source.c: 14:     }
  1419                           	
  1420                           l132:	
  1421  0388                     	goto	l2762
  1422  0388  2B82               	
  1423                           l133:	
  1424  0389                     	line	16
  1425                           ;source.c: 15:     return 0;;	Return value of _main is never used
  1426                           	
  1427                           l134:	
  1428  0389                     	global	start
  1429                           	ljmp	start
  1430  0389  120A  118A  2800   	opt stack 0
  1431                           GLOBAL	__end_of_main
  1432                           	__end_of_main:
  1433  038C                     	signat	_main,90
  1434                           	global	_setup
  1435                           
  1436 ;; *************** function _setup *****************
  1437 ;; Defined at:
  1438 ;;		line 3 in file "application.c"
  1439 ;; Parameters:    Size  Location     Type
  1440 ;;		None
  1441 ;; Auto vars:     Size  Location     Type
  1442 ;;		None
  1443 ;; Return value:  Size  Location     Type
  1444 ;;                  1    wreg      void 
  1445 ;; Registers used:
  1446 ;;		wreg, fsr0l, fsr0h, status,2, status,0, pclath, cstack
  1447 ;; Tracked objects:
  1448 ;;		On entry : 0/0
  1449 ;;		On exit  : 0/0
  1450 ;;		Unchanged: 0/0
  1451 ;; Data sizes:     COMMON   BANK0   BANK1   BANK3   BANK2
  1452 ;;      Params:         0       0       0       0       0
  1453 ;;      Locals:         0       0       0       0       0
  1454 ;;      Temps:          0       0       0       0       0
  1455 ;;      Totals:         0       0       0       0       0
  1456 ;;Total ram usage:        0 bytes
  1457 ;; Hardware stack levels used:    1
  1458 ;; Hardware stack levels required when called:    2
  1459 ;; This function calls:
  1460 ;;		_SerialBegin
  1461 ;;		_pinMode
  1462 ;; This function is called by:
  1463 ;;		_main
  1464 ;; This function uses a non-reentrant model
  1465 ;;
  1466                           psect	text1,local,class=CODE,delta=2,merge=1,group=0
  1467                           	file	"application.c"
  1468                           	line	3
  1469                           global __ptext1
  1470                           __ptext1:	;psect for function _setup
  1471  03A3                     psect	text1
  1472                           	file	"application.c"
  1473                           	line	3
  1474                           	global	__size_of_setup
  1475                           	__size_of_setup	equ	__end_of_setup-_setup
  1476  0017                     	
  1477                           _setup:	
  1478  03A3                     ;incstack = 0
  1479                           	opt	stack 5
  1480                           ; Regs used in _setup: [wreg-fsr0h+status,2+status,0+pclath+cstack]
  1481                           	line	5
  1482                           	
  1483                           l2580:	
  1484  03A3                     ;application.c: 5:     SerialBegin(9600);
  1485                           	movlw	0
  1486  03A3  3000               	bcf	status, 5	;RP0=0, select bank0
  1487  03A4  1283               	bcf	status, 6	;RP1=0, select bank0
  1488  03A5  1303               	movwf	(SerialBegin@BaudRate+3)
  1489  03A6  00D9               	movlw	0
  1490  03A7  3000               	movwf	(SerialBegin@BaudRate+2)
  1491  03A8  00D8               	movlw	025h
  1492  03A9  3025               	movwf	(SerialBegin@BaudRate+1)
  1493  03AA  00D7               	movlw	080h
  1494  03AB  3080               	movwf	(SerialBegin@BaudRate)
  1495  03AC  00D6               
  1496                           	fcall	_SerialBegin
  1497  03AD  120A  118A  2456  120A  118A  	line	6
  1498                           	
  1499                           l2582:	
  1500  03B2                     ;application.c: 6:     pinMode(13,0);
  1501                           	clrf	(pinMode@mode)
  1502  03B2  01F0               	movlw	low(0Dh)
  1503  03B3  300D               	fcall	_pinMode
  1504  03B4  120A  118A  25A1  120A  118A  	line	7
  1505                           	
  1506                           l397:	
  1507  03B9                     	return
  1508  03B9  0008               	opt stack 0
  1509                           GLOBAL	__end_of_setup
  1510                           	__end_of_setup:
  1511  03BA                     	signat	_setup,89
  1512                           	global	_pinMode
  1513                           
  1514 ;; *************** function _pinMode *****************
  1515 ;; Defined at:
  1516 ;;		line 63 in file "source.c"
  1517 ;; Parameters:    Size  Location     Type
  1518 ;;  pin             1    wreg     unsigned char 
  1519 ;;  mode            1    0[COMMON] unsigned char 
  1520 ;; Auto vars:     Size  Location     Type
  1521 ;;  pin             1    3[COMMON] unsigned char 
  1522 ;; Return value:  Size  Location     Type
  1523 ;;                  1    wreg      void 
  1524 ;; Registers used:
  1525 ;;		wreg, fsr0l, fsr0h, status,2, status,0
  1526 ;; Tracked objects:
  1527 ;;		On entry : 0/0
  1528 ;;		On exit  : 0/0
  1529 ;;		Unchanged: 0/0
  1530 ;; Data sizes:     COMMON   BANK0   BANK1   BANK3   BANK2
  1531 ;;      Params:         1       0       0       0       0
  1532 ;;      Locals:         1       0       0       0       0
  1533 ;;      Temps:          2       0       0       0       0
  1534 ;;      Totals:         4       0       0       0       0
  1535 ;;Total ram usage:        4 bytes
  1536 ;; Hardware stack levels used:    1
  1537 ;; This function calls:
  1538 ;;		Nothing
  1539 ;; This function is called by:
  1540 ;;		_setup
  1541 ;;		_lcdBegin
  1542 ;;		_ServoAttach
  1543 ;;		_KeypadBegin
  1544 ;; This function uses a non-reentrant model
  1545 ;;
  1546                           psect	text2,local,class=CODE,delta=2,merge=1,group=0
  1547                           	file	"source.c"
  1548                           	line	63
  1549                           global __ptext2
  1550                           __ptext2:	;psect for function _pinMode
  1551  05A1                     psect	text2
  1552                           	file	"source.c"
  1553                           	line	63
  1554                           	global	__size_of_pinMode
  1555                           	__size_of_pinMode	equ	__end_of_pinMode-_pinMode
  1556  0121                     	
  1557                           _pinMode:	
  1558  05A1                     ;incstack = 0
  1559                           	opt	stack 6
  1560                           ; Regs used in _pinMode: [wreg-fsr0h+status,2+status,0]
  1561                           ;pinMode@pin stored from wreg
  1562                           	movwf	(pinMode@pin)
  1563  05A1  00F3               	line	65
  1564                           	
  1565                           l2376:	
  1566  05A2                     ;source.c: 63: void pinMode(char pin, char mode);source.c: 64: {;source.c: 65:     switc
                                 h(pin)
  1567                           	goto	l2430
  1568  05A2  2E6C               	line	67
  1569                           ;source.c: 66:     {;source.c: 67:         case 0:
  1570                           	
  1571                           l153:	
  1572  05A3                     	line	68
  1573                           	
  1574                           l2378:	
  1575  05A3                     ;source.c: 68:             TRISCbits.TRISC7 = mode;
  1576                           	rrf	(pinMode@mode),w
  1577  05A3  0C70               	bsf	status, 5	;RP0=1, select bank1
  1578  05A4  1683               	bcf	status, 6	;RP1=0, select bank1
  1579  05A5  1303               	skipc
  1580  05A6  1C03               	bcf	(135)^080h,7	;volatile
  1581  05A7  1387               	skipnc
  1582  05A8  1803               	bsf	(135)^080h,7	;volatile
  1583  05A9  1787               	line	69
  1584                           ;source.c: 69:             break;
  1585                           	goto	l179
  1586  05AA  2EC1               	line	70
  1587                           ;source.c: 70:         case 1:
  1588                           	
  1589                           l155:	
  1590  05AB                     	line	71
  1591                           	
  1592                           l2380:	
  1593  05AB                     ;source.c: 71:             TRISCbits.TRISC6 = mode;
  1594                           	rrf	(pinMode@mode),w
  1595  05AB  0C70               	bsf	status, 5	;RP0=1, select bank1
  1596  05AC  1683               	bcf	status, 6	;RP1=0, select bank1
  1597  05AD  1303               	skipc
  1598  05AE  1C03               	bcf	(135)^080h,6	;volatile
  1599  05AF  1307               	skipnc
  1600  05B0  1803               	bsf	(135)^080h,6	;volatile
  1601  05B1  1707               	line	72
  1602                           ;source.c: 72:             break;
  1603                           	goto	l179
  1604  05B2  2EC1               	line	73
  1605                           ;source.c: 73:         case 2:
  1606                           	
  1607                           l156:	
  1608  05B3                     	line	74
  1609                           	
  1610                           l2382:	
  1611  05B3                     ;source.c: 74:             TRISCbits.TRISC5 = mode;
  1612                           	rrf	(pinMode@mode),w
  1613  05B3  0C70               	bsf	status, 5	;RP0=1, select bank1
  1614  05B4  1683               	bcf	status, 6	;RP1=0, select bank1
  1615  05B5  1303               	skipc
  1616  05B6  1C03               	bcf	(135)^080h,5	;volatile
  1617  05B7  1287               	skipnc
  1618  05B8  1803               	bsf	(135)^080h,5	;volatile
  1619  05B9  1687               	line	75
  1620                           ;source.c: 75:             break;
  1621                           	goto	l179
  1622  05BA  2EC1               	line	76
  1623                           ;source.c: 76:         case 3:
  1624                           	
  1625                           l157:	
  1626  05BB                     	line	77
  1627                           	
  1628                           l2384:	
  1629  05BB                     ;source.c: 77:             TRISCbits.TRISC4 = mode;
  1630                           	rrf	(pinMode@mode),w
  1631  05BB  0C70               	bsf	status, 5	;RP0=1, select bank1
  1632  05BC  1683               	bcf	status, 6	;RP1=0, select bank1
  1633  05BD  1303               	skipc
  1634  05BE  1C03               	bcf	(135)^080h,4	;volatile
  1635  05BF  1207               	skipnc
  1636  05C0  1803               	bsf	(135)^080h,4	;volatile
  1637  05C1  1607               	line	78
  1638                           ;source.c: 78:             break;
  1639                           	goto	l179
  1640  05C2  2EC1               	line	79
  1641                           ;source.c: 79:         case 4:
  1642                           	
  1643                           l158:	
  1644  05C3                     	line	80
  1645                           	
  1646                           l2386:	
  1647  05C3                     ;source.c: 80:             TRISCbits.TRISC3 = mode;
  1648                           	rrf	(pinMode@mode),w
  1649  05C3  0C70               	bsf	status, 5	;RP0=1, select bank1
  1650  05C4  1683               	bcf	status, 6	;RP1=0, select bank1
  1651  05C5  1303               	skipc
  1652  05C6  1C03               	bcf	(135)^080h,3	;volatile
  1653  05C7  1187               	skipnc
  1654  05C8  1803               	bsf	(135)^080h,3	;volatile
  1655  05C9  1587               	line	81
  1656                           ;source.c: 81:             break;
  1657                           	goto	l179
  1658  05CA  2EC1               	line	82
  1659                           ;source.c: 82:         case 5:
  1660                           	
  1661                           l159:	
  1662  05CB                     	line	83
  1663                           	
  1664                           l2388:	
  1665  05CB                     ;source.c: 83:             TRISCbits.TRISC2 = mode;
  1666                           	rrf	(pinMode@mode),w
  1667  05CB  0C70               	bsf	status, 5	;RP0=1, select bank1
  1668  05CC  1683               	bcf	status, 6	;RP1=0, select bank1
  1669  05CD  1303               	skipc
  1670  05CE  1C03               	bcf	(135)^080h,2	;volatile
  1671  05CF  1107               	skipnc
  1672  05D0  1803               	bsf	(135)^080h,2	;volatile
  1673  05D1  1507               	line	85
  1674                           ;source.c: 85:             break;
  1675                           	goto	l179
  1676  05D2  2EC1               	line	86
  1677                           ;source.c: 86:         case 6:
  1678                           	
  1679                           l160:	
  1680  05D3                     	line	87
  1681                           	
  1682                           l2390:	
  1683  05D3                     ;source.c: 87:             TRISCbits.TRISC1 = mode;
  1684                           	rrf	(pinMode@mode),w
  1685  05D3  0C70               	bsf	status, 5	;RP0=1, select bank1
  1686  05D4  1683               	bcf	status, 6	;RP1=0, select bank1
  1687  05D5  1303               	skipc
  1688  05D6  1C03               	bcf	(135)^080h,1	;volatile
  1689  05D7  1087               	skipnc
  1690  05D8  1803               	bsf	(135)^080h,1	;volatile
  1691  05D9  1487               	line	89
  1692                           ;source.c: 89:             break;
  1693                           	goto	l179
  1694  05DA  2EC1               	line	90
  1695                           ;source.c: 90:         case 7:
  1696                           	
  1697                           l161:	
  1698  05DB                     	line	91
  1699                           	
  1700                           l2392:	
  1701  05DB                     ;source.c: 91:             TRISCbits.TRISC0 = mode;
  1702                           	rrf	(pinMode@mode),w
  1703  05DB  0C70               	bsf	status, 5	;RP0=1, select bank1
  1704  05DC  1683               	bcf	status, 6	;RP1=0, select bank1
  1705  05DD  1303               	skipc
  1706  05DE  1C03               	bcf	(135)^080h,0	;volatile
  1707  05DF  1007               	skipnc
  1708  05E0  1803               	bsf	(135)^080h,0	;volatile
  1709  05E1  1407               	line	92
  1710                           ;source.c: 92:             break;
  1711                           	goto	l179
  1712  05E2  2EC1               	line	93
  1713                           ;source.c: 93:         case 8:
  1714                           	
  1715                           l162:	
  1716  05E3                     	line	94
  1717                           	
  1718                           l2394:	
  1719  05E3                     ;source.c: 94:             TRISBbits.TRISB0 = mode;
  1720                           	rrf	(pinMode@mode),w
  1721  05E3  0C70               	bsf	status, 5	;RP0=1, select bank1
  1722  05E4  1683               	bcf	status, 6	;RP1=0, select bank1
  1723  05E5  1303               	skipc
  1724  05E6  1C03               	bcf	(134)^080h,0	;volatile
  1725  05E7  1006               	skipnc
  1726  05E8  1803               	bsf	(134)^080h,0	;volatile
  1727  05E9  1406               	line	95
  1728                           ;source.c: 95:             break;
  1729                           	goto	l179
  1730  05EA  2EC1               	line	96
  1731                           ;source.c: 96:         case 9:
  1732                           	
  1733                           l163:	
  1734  05EB                     	line	97
  1735                           	
  1736                           l2396:	
  1737  05EB                     ;source.c: 97:             TRISBbits.TRISB1 = mode;
  1738                           	rrf	(pinMode@mode),w
  1739  05EB  0C70               	bsf	status, 5	;RP0=1, select bank1
  1740  05EC  1683               	bcf	status, 6	;RP1=0, select bank1
  1741  05ED  1303               	skipc
  1742  05EE  1C03               	bcf	(134)^080h,1	;volatile
  1743  05EF  1086               	skipnc
  1744  05F0  1803               	bsf	(134)^080h,1	;volatile
  1745  05F1  1486               	line	98
  1746                           ;source.c: 98:             break;
  1747                           	goto	l179
  1748  05F2  2EC1               	line	99
  1749                           ;source.c: 99:         case 10:
  1750                           	
  1751                           l164:	
  1752  05F3                     	line	100
  1753                           	
  1754                           l2398:	
  1755  05F3                     ;source.c: 100:             TRISBbits.TRISB2 = mode;
  1756                           	rrf	(pinMode@mode),w
  1757  05F3  0C70               	bsf	status, 5	;RP0=1, select bank1
  1758  05F4  1683               	bcf	status, 6	;RP1=0, select bank1
  1759  05F5  1303               	skipc
  1760  05F6  1C03               	bcf	(134)^080h,2	;volatile
  1761  05F7  1106               	skipnc
  1762  05F8  1803               	bsf	(134)^080h,2	;volatile
  1763  05F9  1506               	line	101
  1764                           ;source.c: 101:             break;
  1765                           	goto	l179
  1766  05FA  2EC1               	line	102
  1767                           ;source.c: 102:         case 11:
  1768                           	
  1769                           l165:	
  1770  05FB                     	line	103
  1771                           	
  1772                           l2400:	
  1773  05FB                     ;source.c: 103:             TRISBbits.TRISB3 = mode;
  1774                           	rrf	(pinMode@mode),w
  1775  05FB  0C70               	bsf	status, 5	;RP0=1, select bank1
  1776  05FC  1683               	bcf	status, 6	;RP1=0, select bank1
  1777  05FD  1303               	skipc
  1778  05FE  1C03               	bcf	(134)^080h,3	;volatile
  1779  05FF  1186               	skipnc
  1780  0600  1803               	bsf	(134)^080h,3	;volatile
  1781  0601  1586               	line	104
  1782                           ;source.c: 104:             break;
  1783                           	goto	l179
  1784  0602  2EC1               	line	105
  1785                           ;source.c: 105:         case 12:
  1786                           	
  1787                           l166:	
  1788  0603                     	line	106
  1789                           	
  1790                           l2402:	
  1791  0603                     ;source.c: 106:             TRISBbits.TRISB4 = mode;
  1792                           	rrf	(pinMode@mode),w
  1793  0603  0C70               	bsf	status, 5	;RP0=1, select bank1
  1794  0604  1683               	bcf	status, 6	;RP1=0, select bank1
  1795  0605  1303               	skipc
  1796  0606  1C03               	bcf	(134)^080h,4	;volatile
  1797  0607  1206               	skipnc
  1798  0608  1803               	bsf	(134)^080h,4	;volatile
  1799  0609  1606               	line	107
  1800                           ;source.c: 107:             break;
  1801                           	goto	l179
  1802  060A  2EC1               	line	108
  1803                           ;source.c: 108:         case 13:
  1804                           	
  1805                           l167:	
  1806  060B                     	line	109
  1807                           	
  1808                           l2404:	
  1809  060B                     ;source.c: 109:             TRISBbits.TRISB5 = mode;
  1810                           	rrf	(pinMode@mode),w
  1811  060B  0C70               	bsf	status, 5	;RP0=1, select bank1
  1812  060C  1683               	bcf	status, 6	;RP1=0, select bank1
  1813  060D  1303               	skipc
  1814  060E  1C03               	bcf	(134)^080h,5	;volatile
  1815  060F  1286               	skipnc
  1816  0610  1803               	bsf	(134)^080h,5	;volatile
  1817  0611  1686               	line	110
  1818                           ;source.c: 110:             break;
  1819                           	goto	l179
  1820  0612  2EC1               	line	111
  1821                           ;source.c: 111:         case 14:
  1822                           	
  1823                           l168:	
  1824  0613                     	line	112
  1825                           	
  1826                           l2406:	
  1827  0613                     ;source.c: 112:             TRISBbits.TRISB6 = mode;
  1828                           	rrf	(pinMode@mode),w
  1829  0613  0C70               	bsf	status, 5	;RP0=1, select bank1
  1830  0614  1683               	bcf	status, 6	;RP1=0, select bank1
  1831  0615  1303               	skipc
  1832  0616  1C03               	bcf	(134)^080h,6	;volatile
  1833  0617  1306               	skipnc
  1834  0618  1803               	bsf	(134)^080h,6	;volatile
  1835  0619  1706               	line	113
  1836                           ;source.c: 113:             break;
  1837                           	goto	l179
  1838  061A  2EC1               	line	114
  1839                           ;source.c: 114:         case 15:
  1840                           	
  1841                           l169:	
  1842  061B                     	line	115
  1843                           	
  1844                           l2408:	
  1845  061B                     ;source.c: 115:             TRISBbits.TRISB7 = mode;
  1846                           	rrf	(pinMode@mode),w
  1847  061B  0C70               	bsf	status, 5	;RP0=1, select bank1
  1848  061C  1683               	bcf	status, 6	;RP1=0, select bank1
  1849  061D  1303               	skipc
  1850  061E  1C03               	bcf	(134)^080h,7	;volatile
  1851  061F  1386               	skipnc
  1852  0620  1803               	bsf	(134)^080h,7	;volatile
  1853  0621  1786               	line	116
  1854                           ;source.c: 116:             break;
  1855                           	goto	l179
  1856  0622  2EC1               	line	117
  1857                           ;source.c: 117:         case 16:
  1858                           	
  1859                           l170:	
  1860  0623                     	line	118
  1861                           	
  1862                           l2410:	
  1863  0623                     ;source.c: 118:             TRISDbits.TRISD0 = mode;
  1864                           	rrf	(pinMode@mode),w
  1865  0623  0C70               	bsf	status, 5	;RP0=1, select bank1
  1866  0624  1683               	bcf	status, 6	;RP1=0, select bank1
  1867  0625  1303               	skipc
  1868  0626  1C03               	bcf	(136)^080h,0	;volatile
  1869  0627  1008               	skipnc
  1870  0628  1803               	bsf	(136)^080h,0	;volatile
  1871  0629  1408               	line	119
  1872                           ;source.c: 119:             break;
  1873                           	goto	l179
  1874  062A  2EC1               	line	120
  1875                           ;source.c: 120:         case 17:
  1876                           	
  1877                           l171:	
  1878  062B                     	line	121
  1879                           	
  1880                           l2412:	
  1881  062B                     ;source.c: 121:             TRISDbits.TRISD1 = mode;
  1882                           	rrf	(pinMode@mode),w
  1883  062B  0C70               	bsf	status, 5	;RP0=1, select bank1
  1884  062C  1683               	bcf	status, 6	;RP1=0, select bank1
  1885  062D  1303               	skipc
  1886  062E  1C03               	bcf	(136)^080h,1	;volatile
  1887  062F  1088               	skipnc
  1888  0630  1803               	bsf	(136)^080h,1	;volatile
  1889  0631  1488               	line	122
  1890                           ;source.c: 122:             break;
  1891                           	goto	l179
  1892  0632  2EC1               	line	123
  1893                           ;source.c: 123:         case 18:
  1894                           	
  1895                           l172:	
  1896  0633                     	line	124
  1897                           	
  1898                           l2414:	
  1899  0633                     ;source.c: 124:             TRISDbits.TRISD2 = mode;
  1900                           	rrf	(pinMode@mode),w
  1901  0633  0C70               	bsf	status, 5	;RP0=1, select bank1
  1902  0634  1683               	bcf	status, 6	;RP1=0, select bank1
  1903  0635  1303               	skipc
  1904  0636  1C03               	bcf	(136)^080h,2	;volatile
  1905  0637  1108               	skipnc
  1906  0638  1803               	bsf	(136)^080h,2	;volatile
  1907  0639  1508               	line	125
  1908                           ;source.c: 125:             break;
  1909                           	goto	l179
  1910  063A  2EC1               	line	126
  1911                           ;source.c: 126:         case 19:
  1912                           	
  1913                           l173:	
  1914  063B                     	line	127
  1915                           	
  1916                           l2416:	
  1917  063B                     ;source.c: 127:             TRISDbits.TRISD3 = mode;
  1918                           	rrf	(pinMode@mode),w
  1919  063B  0C70               	bsf	status, 5	;RP0=1, select bank1
  1920  063C  1683               	bcf	status, 6	;RP1=0, select bank1
  1921  063D  1303               	skipc
  1922  063E  1C03               	bcf	(136)^080h,3	;volatile
  1923  063F  1188               	skipnc
  1924  0640  1803               	bsf	(136)^080h,3	;volatile
  1925  0641  1588               	line	128
  1926                           ;source.c: 128:             break;
  1927                           	goto	l179
  1928  0642  2EC1               	line	129
  1929                           ;source.c: 129:         case 20:
  1930                           	
  1931                           l174:	
  1932  0643                     	line	130
  1933                           	
  1934                           l2418:	
  1935  0643                     ;source.c: 130:    TRISDbits.TRISD4 = mode;
  1936                           	rrf	(pinMode@mode),w
  1937  0643  0C70               	bsf	status, 5	;RP0=1, select bank1
  1938  0644  1683               	bcf	status, 6	;RP1=0, select bank1
  1939  0645  1303               	skipc
  1940  0646  1C03               	bcf	(136)^080h,4	;volatile
  1941  0647  1208               	skipnc
  1942  0648  1803               	bsf	(136)^080h,4	;volatile
  1943  0649  1608               	line	140
  1944                           ;source.c: 140:    break;
  1945                           	goto	l179
  1946  064A  2EC1               	line	141
  1947                           ;source.c: 141:         case 21:
  1948                           	
  1949                           l175:	
  1950  064B                     	line	142
  1951                           	
  1952                           l2420:	
  1953  064B                     ;source.c: 142:             TRISDbits.TRISD5 = mode;
  1954                           	rrf	(pinMode@mode),w
  1955  064B  0C70               	bsf	status, 5	;RP0=1, select bank1
  1956  064C  1683               	bcf	status, 6	;RP1=0, select bank1
  1957  064D  1303               	skipc
  1958  064E  1C03               	bcf	(136)^080h,5	;volatile
  1959  064F  1288               	skipnc
  1960  0650  1803               	bsf	(136)^080h,5	;volatile
  1961  0651  1688               	line	143
  1962                           ;source.c: 143:             break;
  1963                           	goto	l179
  1964  0652  2EC1               	line	144
  1965                           ;source.c: 144:         case 22:
  1966                           	
  1967                           l176:	
  1968  0653                     	line	145
  1969                           	
  1970                           l2422:	
  1971  0653                     ;source.c: 145:             TRISDbits.TRISD6 = mode;
  1972                           	rrf	(pinMode@mode),w
  1973  0653  0C70               	bsf	status, 5	;RP0=1, select bank1
  1974  0654  1683               	bcf	status, 6	;RP1=0, select bank1
  1975  0655  1303               	skipc
  1976  0656  1C03               	bcf	(136)^080h,6	;volatile
  1977  0657  1308               	skipnc
  1978  0658  1803               	bsf	(136)^080h,6	;volatile
  1979  0659  1708               	line	146
  1980                           ;source.c: 146:             break;
  1981                           	goto	l179
  1982  065A  2EC1               	line	147
  1983                           ;source.c: 147:         case 23:
  1984                           	
  1985                           l177:	
  1986  065B                     	line	148
  1987                           	
  1988                           l2424:	
  1989  065B                     ;source.c: 148:             TRISDbits.TRISD7 = mode;
  1990                           	rrf	(pinMode@mode),w
  1991  065B  0C70               	bsf	status, 5	;RP0=1, select bank1
  1992  065C  1683               	bcf	status, 6	;RP1=0, select bank1
  1993  065D  1303               	skipc
  1994  065E  1C03               	bcf	(136)^080h,7	;volatile
  1995  065F  1388               	skipnc
  1996  0660  1803               	bsf	(136)^080h,7	;volatile
  1997  0661  1788               	line	149
  1998                           ;source.c: 149:             break;
  1999                           	goto	l179
  2000  0662  2EC1               	line	150
  2001                           ;source.c: 150:         case 24:
  2002                           	
  2003                           l178:	
  2004  0663                     	line	151
  2005                           	
  2006                           l2426:	
  2007  0663                     ;source.c: 151:             TRISAbits.TRISA4 = mode;
  2008                           	rrf	(pinMode@mode),w
  2009  0663  0C70               	bsf	status, 5	;RP0=1, select bank1
  2010  0664  1683               	bcf	status, 6	;RP1=0, select bank1
  2011  0665  1303               	skipc
  2012  0666  1C03               	bcf	(133)^080h,4	;volatile
  2013  0667  1205               	skipnc
  2014  0668  1803               	bsf	(133)^080h,4	;volatile
  2015  0669  1605               	line	152
  2016                           ;source.c: 152:             break;
  2017                           	goto	l179
  2018  066A  2EC1               	line	167
  2019                           	
  2020                           l2428:	
  2021  066B                     ;source.c: 167:     }
  2022                           	goto	l179
  2023  066B  2EC1               	
  2024                           l152:	
  2025  066C                     	
  2026                           l2430:	
  2027  066C                     	movf	(pinMode@pin),w
  2028  066C  0873               	movwf	(??_pinMode+0)+0
  2029  066D  00F1               	clrf	(??_pinMode+0)+0+1
  2030  066E  01F2               	; Switch on 2 bytes has been partitioned into a top level switch of size 1, and 1 sub-s
                                 witches
  2031                           ; Switch size 1, requested type "space"
  2032                           ; Number of cases is 1, Range of values is 0 to 0
  2033                           ; switch strategies available:
  2034                           ; Name         Instructions Cycles
  2035                           ; simple_byte            4     3 (average)
  2036                           ; direct_byte           11     8 (fixed)
  2037                           ; jumptable            260     6 (fixed)
  2038                           ;	Chosen strategy is simple_byte
  2039                           
  2040                           	movf 1+(??_pinMode+0)+0,w
  2041  066F  0872               	opt asmopt_push
  2042                           	opt asmopt_off
  2043                           	xorlw	0^0	; case 0
  2044  0670  3A00               	skipnz
  2045  0671  1903               	goto	l3210
  2046  0672  2E74               	goto	l179
  2047  0673  2EC1               	opt asmopt_pop
  2048                           	
  2049                           l3210:	
  2050  0674                     ; Switch size 1, requested type "space"
  2051                           ; Number of cases is 25, Range of values is 0 to 24
  2052                           ; switch strategies available:
  2053                           ; Name         Instructions Cycles
  2054                           ; simple_byte           76    39 (average)
  2055                           ; direct_byte           83     8 (fixed)
  2056                           ; jumptable            260     6 (fixed)
  2057                           ;	Chosen strategy is simple_byte
  2058                           
  2059                           	movf 0+(??_pinMode+0)+0,w
  2060  0674  0871               	opt asmopt_push
  2061                           	opt asmopt_off
  2062                           	xorlw	0^0	; case 0
  2063  0675  3A00               	skipnz
  2064  0676  1903               	goto	l2378
  2065  0677  2DA3               	xorlw	1^0	; case 1
  2066  0678  3A01               	skipnz
  2067  0679  1903               	goto	l2380
  2068  067A  2DAB               	xorlw	2^1	; case 2
  2069  067B  3A03               	skipnz
  2070  067C  1903               	goto	l2382
  2071  067D  2DB3               	xorlw	3^2	; case 3
  2072  067E  3A01               	skipnz
  2073  067F  1903               	goto	l2384
  2074  0680  2DBB               	xorlw	4^3	; case 4
  2075  0681  3A07               	skipnz
  2076  0682  1903               	goto	l2386
  2077  0683  2DC3               	xorlw	5^4	; case 5
  2078  0684  3A01               	skipnz
  2079  0685  1903               	goto	l2388
  2080  0686  2DCB               	xorlw	6^5	; case 6
  2081  0687  3A03               	skipnz
  2082  0688  1903               	goto	l2390
  2083  0689  2DD3               	xorlw	7^6	; case 7
  2084  068A  3A01               	skipnz
  2085  068B  1903               	goto	l2392
  2086  068C  2DDB               	xorlw	8^7	; case 8
  2087  068D  3A0F               	skipnz
  2088  068E  1903               	goto	l2394
  2089  068F  2DE3               	xorlw	9^8	; case 9
  2090  0690  3A01               	skipnz
  2091  0691  1903               	goto	l2396
  2092  0692  2DEB               	xorlw	10^9	; case 10
  2093  0693  3A03               	skipnz
  2094  0694  1903               	goto	l2398
  2095  0695  2DF3               	xorlw	11^10	; case 11
  2096  0696  3A01               	skipnz
  2097  0697  1903               	goto	l2400
  2098  0698  2DFB               	xorlw	12^11	; case 12
  2099  0699  3A07               	skipnz
  2100  069A  1903               	goto	l2402
  2101  069B  2E03               	xorlw	13^12	; case 13
  2102  069C  3A01               	skipnz
  2103  069D  1903               	goto	l2404
  2104  069E  2E0B               	xorlw	14^13	; case 14
  2105  069F  3A03               	skipnz
  2106  06A0  1903               	goto	l2406
  2107  06A1  2E13               	xorlw	15^14	; case 15
  2108  06A2  3A01               	skipnz
  2109  06A3  1903               	goto	l2408
  2110  06A4  2E1B               	xorlw	16^15	; case 16
  2111  06A5  3A1F               	skipnz
  2112  06A6  1903               	goto	l2410
  2113  06A7  2E23               	xorlw	17^16	; case 17
  2114  06A8  3A01               	skipnz
  2115  06A9  1903               	goto	l2412
  2116  06AA  2E2B               	xorlw	18^17	; case 18
  2117  06AB  3A03               	skipnz
  2118  06AC  1903               	goto	l2414
  2119  06AD  2E33               	xorlw	19^18	; case 19
  2120  06AE  3A01               	skipnz
  2121  06AF  1903               	goto	l2416
  2122  06B0  2E3B               	xorlw	20^19	; case 20
  2123  06B1  3A07               	skipnz
  2124  06B2  1903               	goto	l2418
  2125  06B3  2E43               	xorlw	21^20	; case 21
  2126  06B4  3A01               	skipnz
  2127  06B5  1903               	goto	l2420
  2128  06B6  2E4B               	xorlw	22^21	; case 22
  2129  06B7  3A03               	skipnz
  2130  06B8  1903               	goto	l2422
  2131  06B9  2E53               	xorlw	23^22	; case 23
  2132  06BA  3A01               	skipnz
  2133  06BB  1903               	goto	l2424
  2134  06BC  2E5B               	xorlw	24^23	; case 24
  2135  06BD  3A0F               	skipnz
  2136  06BE  1903               	goto	l2426
  2137  06BF  2E63               	goto	l179
  2138  06C0  2EC1               	opt asmopt_pop
  2139                           
  2140                           	
  2141                           l154:	
  2142  06C1                     	line	168
  2143                           	
  2144                           l179:	
  2145  06C1                     	return
  2146  06C1  0008               	opt stack 0
  2147                           GLOBAL	__end_of_pinMode
  2148                           	__end_of_pinMode:
  2149  06C2                     	signat	_pinMode,8313
  2150                           	global	_SerialBegin
  2151                           
  2152 ;; *************** function _SerialBegin *****************
  2153 ;; Defined at:
  2154 ;;		line 450 in file "source.c"
  2155 ;; Parameters:    Size  Location     Type
  2156 ;;  BaudRate        4    6[BANK0 ] const long 
  2157 ;; Auto vars:     Size  Location     Type
  2158 ;;  x               2   10[BANK0 ] unsigned int 
  2159 ;; Return value:  Size  Location     Type
  2160 ;;                  1    wreg      unsigned char 
  2161 ;; Registers used:
  2162 ;;		wreg, status,2, status,0, pclath, cstack
  2163 ;; Tracked objects:
  2164 ;;		On entry : 0/0
  2165 ;;		On exit  : 0/0
  2166 ;;		Unchanged: 0/0
  2167 ;; Data sizes:     COMMON   BANK0   BANK1   BANK3   BANK2
  2168 ;;      Params:         0       4       0       0       0
  2169 ;;      Locals:         0       2       0       0       0
  2170 ;;      Temps:          4       0       0       0       0
  2171 ;;      Totals:         4       6       0       0       0
  2172 ;;Total ram usage:       10 bytes
  2173 ;; Hardware stack levels used:    1
  2174 ;; Hardware stack levels required when called:    1
  2175 ;; This function calls:
  2176 ;;		___aldiv
  2177 ;; This function is called by:
  2178 ;;		_setup
  2179 ;; This function uses a non-reentrant model
  2180 ;;
  2181                           psect	text3,local,class=CODE,delta=2,merge=1,group=0
  2182                           	line	450
  2183                           global __ptext3
  2184                           __ptext3:	;psect for function _SerialBegin
  2185  0456                     psect	text3
  2186                           	file	"source.c"
  2187                           	line	450
  2188                           	global	__size_of_SerialBegin
  2189                           	__size_of_SerialBegin	equ	__end_of_SerialBegin-_SerialBegin
  2190  00A5                     	
  2191                           _SerialBegin:	
  2192  0456                     ;incstack = 0
  2193                           	opt	stack 5
  2194                           ; Regs used in _SerialBegin: [wreg+status,2+status,0+pclath+cstack]
  2195                           	line	456
  2196                           	
  2197                           l2500:	
  2198  0456                     ;source.c: 450: char SerialBegin(const long int BaudRate);source.c: 451: {;source.c: 455
                                 :  unsigned int x;;source.c: 456:  BRGH = 0;
  2199                           	bsf	status, 5	;RP0=1, select bank1
  2200  0456  1683               	bcf	status, 6	;RP1=0, select bank1
  2201  0457  1303               	bcf	(1218/8)^080h,(1218)&7	;volatile
  2202  0458  1118               	line	457
  2203                           	
  2204                           l2502:	
  2205  0459                     ;source.c: 457:  x = (20000000 / (64 * BaudRate)) - 1;
  2206                           	bcf	status, 5	;RP0=0, select bank0
  2207  0459  1283               	bcf	status, 6	;RP1=0, select bank0
  2208  045A  1303               	movf	(SerialBegin@BaudRate),w
  2209  045B  0856               	movwf	(??_SerialBegin+0)+0
  2210  045C  00F9               	movf	(SerialBegin@BaudRate+1),w
  2211  045D  0857               	movwf	((??_SerialBegin+0)+0+1)
  2212  045E  00FA               	movf	(SerialBegin@BaudRate+2),w
  2213  045F  0858               	movwf	((??_SerialBegin+0)+0+2)
  2214  0460  00FB               	movf	(SerialBegin@BaudRate+3),w
  2215  0461  0859               	movwf	((??_SerialBegin+0)+0+3)
  2216  0462  00FC               	movlw	06h
  2217  0463  3006               u1015:
  2218  0464                     	clrc
  2219  0464  1003               	rlf	(??_SerialBegin+0)+0,f
  2220  0465  0DF9               	rlf	(??_SerialBegin+0)+1,f
  2221  0466  0DFA               	rlf	(??_SerialBegin+0)+2,f
  2222  0467  0DFB               	rlf	(??_SerialBegin+0)+3,f
  2223  0468  0DFC               u1010:
  2224  0469                     	addlw	-1
  2225  0469  3EFF               	skipz
  2226  046A  1D03               	goto	u1015
  2227  046B  2C64               	movf	3+(??_SerialBegin+0)+0,w
  2228  046C  087C               	movwf	(___aldiv@divisor+3)
  2229  046D  00F3               	movf	2+(??_SerialBegin+0)+0,w
  2230  046E  087B               	movwf	(___aldiv@divisor+2)
  2231  046F  00F2               	movf	1+(??_SerialBegin+0)+0,w
  2232  0470  087A               	movwf	(___aldiv@divisor+1)
  2233  0471  00F1               	movf	0+(??_SerialBegin+0)+0,w
  2234  0472  0879               	movwf	(___aldiv@divisor)
  2235  0473  00F0               
  2236                           	movlw	01h
  2237  0474  3001               	movwf	(___aldiv@dividend+3)
  2238  0475  00F7               	movlw	031h
  2239  0476  3031               	movwf	(___aldiv@dividend+2)
  2240  0477  00F6               	movlw	02Dh
  2241  0478  302D               	movwf	(___aldiv@dividend+1)
  2242  0479  00F5               	movlw	0
  2243  047A  3000               	movwf	(___aldiv@dividend)
  2244  047B  00F4               
  2245                           	fcall	___aldiv
  2246  047C  120A  118A  24FB  120A  118A  	movf	(0+(?___aldiv)),w
  2247  0481  0870               	addlw	low(0FFFFh)
  2248  0482  3EFF               	bcf	status, 5	;RP0=0, select bank0
  2249  0483  1283               	bcf	status, 6	;RP1=0, select bank0
  2250  0484  1303               	movwf	(SerialBegin@x)
  2251  0485  00DA               	movf	(1+(?___aldiv)),w
  2252  0486  0871               	skipnc
  2253  0487  1803               	addlw	1
  2254  0488  3E01               	addlw	high(0FFFFh)
  2255  0489  3EFF               	movwf	1+(SerialBegin@x)
  2256  048A  00DB               	line	458
  2257                           	
  2258                           l2504:	
  2259  048B                     ;source.c: 458:  if(x > 255)
  2260                           	movlw	01h
  2261  048B  3001               	subwf	(SerialBegin@x+1),w
  2262  048C  025B               	movlw	0
  2263  048D  3000               	skipnz
  2264  048E  1903               	subwf	(SerialBegin@x),w
  2265  048F  025A               	skipc
  2266  0490  1C03               	goto	u1021
  2267  0491  2C93               	goto	u1020
  2268  0492  2C94               u1021:
  2269  0493                     	goto	l2532
  2270  0493  2CE2               u1020:
  2271  0494                     	line	460
  2272                           	
  2273                           l2506:	
  2274  0494                     ;source.c: 459:  {;source.c: 460:   BRGH = 1;
  2275                           	bsf	status, 5	;RP0=1, select bank1
  2276  0494  1683               	bcf	status, 6	;RP1=0, select bank1
  2277  0495  1303               	bsf	(1218/8)^080h,(1218)&7	;volatile
  2278  0496  1518               	line	461
  2279                           	
  2280                           l2508:	
  2281  0497                     ;source.c: 461:   x = (20000000 / (16 * BaudRate)) - 1;
  2282                           	bcf	status, 5	;RP0=0, select bank0
  2283  0497  1283               	bcf	status, 6	;RP1=0, select bank0
  2284  0498  1303               	movf	(SerialBegin@BaudRate),w
  2285  0499  0856               	movwf	(??_SerialBegin+0)+0
  2286  049A  00F9               	movf	(SerialBegin@BaudRate+1),w
  2287  049B  0857               	movwf	((??_SerialBegin+0)+0+1)
  2288  049C  00FA               	movf	(SerialBegin@BaudRate+2),w
  2289  049D  0858               	movwf	((??_SerialBegin+0)+0+2)
  2290  049E  00FB               	movf	(SerialBegin@BaudRate+3),w
  2291  049F  0859               	movwf	((??_SerialBegin+0)+0+3)
  2292  04A0  00FC               	movlw	04h
  2293  04A1  3004               u1035:
  2294  04A2                     	clrc
  2295  04A2  1003               	rlf	(??_SerialBegin+0)+0,f
  2296  04A3  0DF9               	rlf	(??_SerialBegin+0)+1,f
  2297  04A4  0DFA               	rlf	(??_SerialBegin+0)+2,f
  2298  04A5  0DFB               	rlf	(??_SerialBegin+0)+3,f
  2299  04A6  0DFC               u1030:
  2300  04A7                     	addlw	-1
  2301  04A7  3EFF               	skipz
  2302  04A8  1D03               	goto	u1035
  2303  04A9  2CA2               	movf	3+(??_SerialBegin+0)+0,w
  2304  04AA  087C               	movwf	(___aldiv@divisor+3)
  2305  04AB  00F3               	movf	2+(??_SerialBegin+0)+0,w
  2306  04AC  087B               	movwf	(___aldiv@divisor+2)
  2307  04AD  00F2               	movf	1+(??_SerialBegin+0)+0,w
  2308  04AE  087A               	movwf	(___aldiv@divisor+1)
  2309  04AF  00F1               	movf	0+(??_SerialBegin+0)+0,w
  2310  04B0  0879               	movwf	(___aldiv@divisor)
  2311  04B1  00F0               
  2312                           	movlw	01h
  2313  04B2  3001               	movwf	(___aldiv@dividend+3)
  2314  04B3  00F7               	movlw	031h
  2315  04B4  3031               	movwf	(___aldiv@dividend+2)
  2316  04B5  00F6               	movlw	02Dh
  2317  04B6  302D               	movwf	(___aldiv@dividend+1)
  2318  04B7  00F5               	movlw	0
  2319  04B8  3000               	movwf	(___aldiv@dividend)
  2320  04B9  00F4               
  2321                           	fcall	___aldiv
  2322  04BA  120A  118A  24FB  120A  118A  	movf	(0+(?___aldiv)),w
  2323  04BF  0870               	addlw	low(0FFFFh)
  2324  04C0  3EFF               	bcf	status, 5	;RP0=0, select bank0
  2325  04C1  1283               	bcf	status, 6	;RP1=0, select bank0
  2326  04C2  1303               	movwf	(SerialBegin@x)
  2327  04C3  00DA               	movf	(1+(?___aldiv)),w
  2328  04C4  0871               	skipnc
  2329  04C5  1803               	addlw	1
  2330  04C6  3E01               	addlw	high(0FFFFh)
  2331  04C7  3EFF               	movwf	1+(SerialBegin@x)
  2332  04C8  00DB               	line	462
  2333                           	
  2334                           l2510:	
  2335  04C9                     ;source.c: 462:   SPBRG = x;
  2336                           	movf	(SerialBegin@x),w
  2337  04C9  085A               	bsf	status, 5	;RP0=1, select bank1
  2338  04CA  1683               	bcf	status, 6	;RP1=0, select bank1
  2339  04CB  1303               	movwf	(153)^080h	;volatile
  2340  04CC  0099               	line	463
  2341                           	
  2342                           l2512:	
  2343  04CD                     ;source.c: 463:   SYNC = 0;
  2344                           	bcf	(1220/8)^080h,(1220)&7	;volatile
  2345  04CD  1218               	line	464
  2346                           	
  2347                           l2514:	
  2348  04CE                     ;source.c: 464:   SPEN = 1;
  2349                           	bcf	status, 5	;RP0=0, select bank0
  2350  04CE  1283               	bcf	status, 6	;RP1=0, select bank0
  2351  04CF  1303               	bsf	(199/8),(199)&7	;volatile
  2352  04D0  1798               	line	465
  2353                           	
  2354                           l2516:	
  2355  04D1                     ;source.c: 465:   TRISC7 = 1;
  2356                           	bsf	status, 5	;RP0=1, select bank1
  2357  04D1  1683               	bcf	status, 6	;RP1=0, select bank1
  2358  04D2  1303               	bsf	(1087/8)^080h,(1087)&7	;volatile
  2359  04D3  1787               	line	466
  2360                           	
  2361                           l2518:	
  2362  04D4                     ;source.c: 466:   TRISC6 = 1;
  2363                           	bsf	(1086/8)^080h,(1086)&7	;volatile
  2364  04D4  1707               	line	467
  2365                           	
  2366                           l2520:	
  2367  04D5                     ;source.c: 467:   CREN = 1;
  2368                           	bcf	status, 5	;RP0=0, select bank0
  2369  04D5  1283               	bcf	status, 6	;RP1=0, select bank0
  2370  04D6  1303               	bsf	(196/8),(196)&7	;volatile
  2371  04D7  1618               	line	468
  2372                           	
  2373                           l2522:	
  2374  04D8                     ;source.c: 468:   TXEN = 1;
  2375                           	bsf	status, 5	;RP0=1, select bank1
  2376  04D8  1683               	bcf	status, 6	;RP1=0, select bank1
  2377  04D9  1303               	bsf	(1221/8)^080h,(1221)&7	;volatile
  2378  04DA  1698               	line	469
  2379                           	
  2380                           l2524:	
  2381  04DB                     ;source.c: 469:         TXREG = 0x00;
  2382                           	bcf	status, 5	;RP0=0, select bank0
  2383  04DB  1283               	bcf	status, 6	;RP1=0, select bank0
  2384  04DC  1303               	clrf	(25)	;volatile
  2385  04DD  0199               	line	470
  2386                           	
  2387                           l2526:	
  2388  04DE                     ;source.c: 470:         RCREG = 0x00;
  2389                           	clrf	(26)	;volatile
  2390  04DE  019A               	goto	l286
  2391  04DF  2CFA               	line	471
  2392                           	
  2393                           l2528:	
  2394  04E0                     ;source.c: 471:   return 0;;	Return value of _SerialBegin is never used
  2395                           	goto	l286
  2396  04E0  2CFA               	line	472
  2397                           	
  2398                           l2530:	
  2399  04E1                     ;source.c: 472:  }
  2400                           	goto	l286
  2401  04E1  2CFA               	line	473
  2402                           ;source.c: 473:  else
  2403                           	
  2404                           l285:	
  2405  04E2                     	line	475
  2406                           	
  2407                           l2532:	
  2408  04E2                     ;source.c: 474:  {;source.c: 475:   SPBRG = x;
  2409                           	movf	(SerialBegin@x),w
  2410  04E2  085A               	bsf	status, 5	;RP0=1, select bank1
  2411  04E3  1683               	bcf	status, 6	;RP1=0, select bank1
  2412  04E4  1303               	movwf	(153)^080h	;volatile
  2413  04E5  0099               	line	476
  2414                           	
  2415                           l2534:	
  2416  04E6                     ;source.c: 476:   SYNC = 0;
  2417                           	bcf	(1220/8)^080h,(1220)&7	;volatile
  2418  04E6  1218               	line	477
  2419                           	
  2420                           l2536:	
  2421  04E7                     ;source.c: 477:   SPEN = 1;
  2422                           	bcf	status, 5	;RP0=0, select bank0
  2423  04E7  1283               	bcf	status, 6	;RP1=0, select bank0
  2424  04E8  1303               	bsf	(199/8),(199)&7	;volatile
  2425  04E9  1798               	line	478
  2426                           	
  2427                           l2538:	
  2428  04EA                     ;source.c: 478:   TRISC7 = 1;
  2429                           	bsf	status, 5	;RP0=1, select bank1
  2430  04EA  1683               	bcf	status, 6	;RP1=0, select bank1
  2431  04EB  1303               	bsf	(1087/8)^080h,(1087)&7	;volatile
  2432  04EC  1787               	line	479
  2433                           	
  2434                           l2540:	
  2435  04ED                     ;source.c: 479:   TRISC6 = 1;
  2436                           	bsf	(1086/8)^080h,(1086)&7	;volatile
  2437  04ED  1707               	line	480
  2438                           	
  2439                           l2542:	
  2440  04EE                     ;source.c: 480:   CREN = 1;
  2441                           	bcf	status, 5	;RP0=0, select bank0
  2442  04EE  1283               	bcf	status, 6	;RP1=0, select bank0
  2443  04EF  1303               	bsf	(196/8),(196)&7	;volatile
  2444  04F0  1618               	line	481
  2445                           	
  2446                           l2544:	
  2447  04F1                     ;source.c: 481:   TXEN = 1;
  2448                           	bsf	status, 5	;RP0=1, select bank1
  2449  04F1  1683               	bcf	status, 6	;RP1=0, select bank1
  2450  04F2  1303               	bsf	(1221/8)^080h,(1221)&7	;volatile
  2451  04F3  1698               	line	482
  2452                           	
  2453                           l2546:	
  2454  04F4                     ;source.c: 482:         TXREG = 0x00;
  2455                           	bcf	status, 5	;RP0=0, select bank0
  2456  04F4  1283               	bcf	status, 6	;RP1=0, select bank0
  2457  04F5  1303               	clrf	(25)	;volatile
  2458  04F6  0199               	line	483
  2459                           	
  2460                           l2548:	
  2461  04F7                     ;source.c: 483:         RCREG = 0x00;
  2462                           	clrf	(26)	;volatile
  2463  04F7  019A               	goto	l286
  2464  04F8  2CFA               	line	484
  2465                           	
  2466                           l2550:	
  2467  04F9                     ;source.c: 484:   return 1;;	Return value of _SerialBegin is never used
  2468                           	goto	l286
  2469  04F9  2CFA               	line	485
  2470                           ;source.c: 485:  }
  2471                           	
  2472                           l287:	
  2473  04FA                     	line	486
  2474                           	
  2475                           l286:	
  2476  04FA                     	return
  2477  04FA  0008               	opt stack 0
  2478                           GLOBAL	__end_of_SerialBegin
  2479                           	__end_of_SerialBegin:
  2480  04FB                     	signat	_SerialBegin,4217
  2481                           	global	___aldiv
  2482                           
  2483 ;; *************** function ___aldiv *****************
  2484 ;; Defined at:
  2485 ;;		line 5 in file "C:\Program Files (x86)\Microchip\xc8\v2.00\pic\sources\c90\common\aldiv.c"
  2486 ;; Parameters:    Size  Location     Type
  2487 ;;  divisor         4    0[COMMON] long 
  2488 ;;  dividend        4    4[COMMON] long 
  2489 ;; Auto vars:     Size  Location     Type
  2490 ;;  quotient        4    2[BANK0 ] long 
  2491 ;;  sign            1    1[BANK0 ] unsigned char 
  2492 ;;  counter         1    0[BANK0 ] unsigned char 
  2493 ;; Return value:  Size  Location     Type
  2494 ;;                  4    0[COMMON] long 
  2495 ;; Registers used:
  2496 ;;		wreg, status,2, status,0
  2497 ;; Tracked objects:
  2498 ;;		On entry : 0/0
  2499 ;;		On exit  : 0/0
  2500 ;;		Unchanged: 0/0
  2501 ;; Data sizes:     COMMON   BANK0   BANK1   BANK3   BANK2
  2502 ;;      Params:         8       0       0       0       0
  2503 ;;      Locals:         0       6       0       0       0
  2504 ;;      Temps:          1       0       0       0       0
  2505 ;;      Totals:         9       6       0       0       0
  2506 ;;Total ram usage:       15 bytes
  2507 ;; Hardware stack levels used:    1
  2508 ;; This function calls:
  2509 ;;		Nothing
  2510 ;; This function is called by:
  2511 ;;		_SerialBegin
  2512 ;; This function uses a non-reentrant model
  2513 ;;
  2514                           psect	text4,local,class=CODE,delta=2,merge=1,group=1
  2515                           	file	"C:\Program Files (x86)\Microchip\xc8\v2.00\pic\sources\c90\common\aldiv.c"
  2516                           	line	5
  2517                           global __ptext4
  2518                           __ptext4:	;psect for function ___aldiv
  2519  04FB                     psect	text4
  2520                           	file	"C:\Program Files (x86)\Microchip\xc8\v2.00\pic\sources\c90\common\aldiv.c"
  2521                           	line	5
  2522                           	global	__size_of___aldiv
  2523                           	__size_of___aldiv	equ	__end_of___aldiv-___aldiv
  2524  00A6                     	
  2525                           ___aldiv:	
  2526  04FB                     ;incstack = 0
  2527                           	opt	stack 5
  2528                           ; Regs used in ___aldiv: [wreg+status,2+status,0]
  2529                           	line	13
  2530                           	
  2531                           l2336:	
  2532  04FB                     	bcf	status, 5	;RP0=0, select bank0
  2533  04FB  1283               	bcf	status, 6	;RP1=0, select bank0
  2534  04FC  1303               	clrf	(___aldiv@sign)
  2535  04FD  01D1               	line	14
  2536                           	
  2537                           l2338:	
  2538  04FE                     	btfss	(___aldiv@divisor+3),7
  2539  04FE  1FF3               	goto	u911
  2540  04FF  2D01               	goto	u910
  2541  0500  2D02               u911:
  2542  0501                     	goto	l756
  2543  0501  2D0F               u910:
  2544  0502                     	line	15
  2545                           	
  2546                           l2340:	
  2547  0502                     	comf	(___aldiv@divisor),f
  2548  0502  09F0               	comf	(___aldiv@divisor+1),f
  2549  0503  09F1               	comf	(___aldiv@divisor+2),f
  2550  0504  09F2               	comf	(___aldiv@divisor+3),f
  2551  0505  09F3               	incf	(___aldiv@divisor),f
  2552  0506  0AF0               	skipnz
  2553  0507  1903               	incf	(___aldiv@divisor+1),f
  2554  0508  0AF1               	skipnz
  2555  0509  1903               	incf	(___aldiv@divisor+2),f
  2556  050A  0AF2               	skipnz
  2557  050B  1903               	incf	(___aldiv@divisor+3),f
  2558  050C  0AF3               	line	16
  2559                           	clrf	(___aldiv@sign)
  2560  050D  01D1               	incf	(___aldiv@sign),f
  2561  050E  0AD1               	line	17
  2562                           	
  2563                           l756:	
  2564  050F                     	line	18
  2565                           	btfss	(___aldiv@dividend+3),7
  2566  050F  1FF7               	goto	u921
  2567  0510  2D12               	goto	u920
  2568  0511  2D13               u921:
  2569  0512                     	goto	l2346
  2570  0512  2D23               u920:
  2571  0513                     	line	19
  2572                           	
  2573                           l2342:	
  2574  0513                     	comf	(___aldiv@dividend),f
  2575  0513  09F4               	comf	(___aldiv@dividend+1),f
  2576  0514  09F5               	comf	(___aldiv@dividend+2),f
  2577  0515  09F6               	comf	(___aldiv@dividend+3),f
  2578  0516  09F7               	incf	(___aldiv@dividend),f
  2579  0517  0AF4               	skipnz
  2580  0518  1903               	incf	(___aldiv@dividend+1),f
  2581  0519  0AF5               	skipnz
  2582  051A  1903               	incf	(___aldiv@dividend+2),f
  2583  051B  0AF6               	skipnz
  2584  051C  1903               	incf	(___aldiv@dividend+3),f
  2585  051D  0AF7               	line	20
  2586                           	
  2587                           l2344:	
  2588  051E                     	movlw	low(01h)
  2589  051E  3001               	movwf	(??___aldiv+0)+0
  2590  051F  00F8               	movf	(??___aldiv+0)+0,w
  2591  0520  0878               	xorwf	(___aldiv@sign),f
  2592  0521  06D1               	goto	l2346
  2593  0522  2D23               	line	21
  2594                           	
  2595                           l757:	
  2596  0523                     	line	22
  2597                           	
  2598                           l2346:	
  2599  0523                     	movlw	high highword(0)
  2600  0523  3000               	movwf	(___aldiv@quotient+3)
  2601  0524  00D5               	movlw	low highword(0)
  2602  0525  3000               	movwf	(___aldiv@quotient+2)
  2603  0526  00D4               	movlw	high(0)
  2604  0527  3000               	movwf	(___aldiv@quotient+1)
  2605  0528  00D3               	movlw	low(0)
  2606  0529  3000               	movwf	(___aldiv@quotient)
  2607  052A  00D2               
  2608                           	line	23
  2609                           	
  2610                           l2348:	
  2611  052B                     	movf	(___aldiv@divisor+3),w
  2612  052B  0873               	iorwf	(___aldiv@divisor+2),w
  2613  052C  0472               	iorwf	(___aldiv@divisor+1),w
  2614  052D  0471               	iorwf	(___aldiv@divisor),w
  2615  052E  0470               	skipnz
  2616  052F  1903               	goto	u931
  2617  0530  2D32               	goto	u930
  2618  0531  2D33               u931:
  2619  0532                     	goto	l2368
  2620  0532  2D86               u930:
  2621  0533                     	line	24
  2622                           	
  2623                           l2350:	
  2624  0533                     	clrf	(___aldiv@counter)
  2625  0533  01D0               	incf	(___aldiv@counter),f
  2626  0534  0AD0               	line	25
  2627                           	goto	l2354
  2628  0535  2D44               	
  2629                           l760:	
  2630  0536                     	line	26
  2631                           	
  2632                           l2352:	
  2633  0536                     	movlw	01h
  2634  0536  3001               	movwf	(??___aldiv+0)+0
  2635  0537  00F8               u945:
  2636  0538                     	clrc
  2637  0538  1003               	rlf	(___aldiv@divisor),f
  2638  0539  0DF0               	rlf	(___aldiv@divisor+1),f
  2639  053A  0DF1               	rlf	(___aldiv@divisor+2),f
  2640  053B  0DF2               	rlf	(___aldiv@divisor+3),f
  2641  053C  0DF3               	decfsz	(??___aldiv+0)+0
  2642  053D  0BF8               	goto	u945
  2643  053E  2D38               	line	27
  2644                           	movlw	low(01h)
  2645  053F  3001               	movwf	(??___aldiv+0)+0
  2646  0540  00F8               	movf	(??___aldiv+0)+0,w
  2647  0541  0878               	addwf	(___aldiv@counter),f
  2648  0542  07D0               	goto	l2354
  2649  0543  2D44               	line	28
  2650                           	
  2651                           l759:	
  2652  0544                     	line	25
  2653                           	
  2654                           l2354:	
  2655  0544                     	btfss	(___aldiv@divisor+3),(31)&7
  2656  0544  1FF3               	goto	u951
  2657  0545  2D47               	goto	u950
  2658  0546  2D48               u951:
  2659  0547                     	goto	l2352
  2660  0547  2D36               u950:
  2661  0548                     	goto	l2356
  2662  0548  2D4A               	
  2663                           l761:	
  2664  0549                     	goto	l2356
  2665  0549  2D4A               	line	29
  2666                           	
  2667                           l762:	
  2668  054A                     	line	30
  2669                           	
  2670                           l2356:	
  2671  054A                     	movlw	01h
  2672  054A  3001               	movwf	(??___aldiv+0)+0
  2673  054B  00F8               u965:
  2674  054C                     	clrc
  2675  054C  1003               	rlf	(___aldiv@quotient),f
  2676  054D  0DD2               	rlf	(___aldiv@quotient+1),f
  2677  054E  0DD3               	rlf	(___aldiv@quotient+2),f
  2678  054F  0DD4               	rlf	(___aldiv@quotient+3),f
  2679  0550  0DD5               	decfsz	(??___aldiv+0)+0
  2680  0551  0BF8               	goto	u965
  2681  0552  2D4C               	line	31
  2682                           	
  2683                           l2358:	
  2684  0553                     	movf	(___aldiv@divisor+3),w
  2685  0553  0873               	subwf	(___aldiv@dividend+3),w
  2686  0554  0277               	skipz
  2687  0555  1D03               	goto	u975
  2688  0556  2D61               	movf	(___aldiv@divisor+2),w
  2689  0557  0872               	subwf	(___aldiv@dividend+2),w
  2690  0558  0276               	skipz
  2691  0559  1D03               	goto	u975
  2692  055A  2D61               	movf	(___aldiv@divisor+1),w
  2693  055B  0871               	subwf	(___aldiv@dividend+1),w
  2694  055C  0275               	skipz
  2695  055D  1D03               	goto	u975
  2696  055E  2D61               	movf	(___aldiv@divisor),w
  2697  055F  0870               	subwf	(___aldiv@dividend),w
  2698  0560  0274               u975:
  2699  0561                     	skipc
  2700  0561  1C03               	goto	u971
  2701  0562  2D64               	goto	u970
  2702  0563  2D65               u971:
  2703  0564                     	goto	l2364
  2704  0564  2D75               u970:
  2705  0565                     	line	32
  2706                           	
  2707                           l2360:	
  2708  0565                     	movf	(___aldiv@divisor),w
  2709  0565  0870               	subwf	(___aldiv@dividend),f
  2710  0566  02F4               	movf	(___aldiv@divisor+1),w
  2711  0567  0871               	skipc
  2712  0568  1C03               	incfsz	(___aldiv@divisor+1),w
  2713  0569  0F71               	subwf	(___aldiv@dividend+1),f
  2714  056A  02F5               	movf	(___aldiv@divisor+2),w
  2715  056B  0872               	skipc
  2716  056C  1C03               	incfsz	(___aldiv@divisor+2),w
  2717  056D  0F72               	subwf	(___aldiv@dividend+2),f
  2718  056E  02F6               	movf	(___aldiv@divisor+3),w
  2719  056F  0873               	skipc
  2720  0570  1C03               	incfsz	(___aldiv@divisor+3),w
  2721  0571  0F73               	subwf	(___aldiv@dividend+3),f
  2722  0572  02F7               	line	33
  2723                           	
  2724                           l2362:	
  2725  0573                     	bsf	(___aldiv@quotient)+(0/8),(0)&7
  2726  0573  1452               	goto	l2364
  2727  0574  2D75               	line	34
  2728                           	
  2729                           l763:	
  2730  0575                     	line	35
  2731                           	
  2732                           l2364:	
  2733  0575                     	movlw	01h
  2734  0575  3001               u985:
  2735  0576                     	clrc
  2736  0576  1003               	rrf	(___aldiv@divisor+3),f
  2737  0577  0CF3               	rrf	(___aldiv@divisor+2),f
  2738  0578  0CF2               	rrf	(___aldiv@divisor+1),f
  2739  0579  0CF1               	rrf	(___aldiv@divisor),f
  2740  057A  0CF0               	addlw	-1
  2741  057B  3EFF               	skipz
  2742  057C  1D03               	goto	u985
  2743  057D  2D76               
  2744                           	line	36
  2745                           	
  2746                           l2366:	
  2747  057E                     	movlw	01h
  2748  057E  3001               	subwf	(___aldiv@counter),f
  2749  057F  02D0               	btfss	status,2
  2750  0580  1D03               	goto	u991
  2751  0581  2D83               	goto	u990
  2752  0582  2D84               u991:
  2753  0583                     	goto	l2356
  2754  0583  2D4A               u990:
  2755  0584                     	goto	l2368
  2756  0584  2D86               	
  2757                           l764:	
  2758  0585                     	goto	l2368
  2759  0585  2D86               	line	37
  2760                           	
  2761                           l758:	
  2762  0586                     	line	38
  2763                           	
  2764                           l2368:	
  2765  0586                     	movf	((___aldiv@sign)),w
  2766  0586  0851               	btfsc	status,2
  2767  0587  1903               	goto	u1001
  2768  0588  2D8A               	goto	u1000
  2769  0589  2D8B               u1001:
  2770  058A                     	goto	l2372
  2771  058A  2D97               u1000:
  2772  058B                     	line	39
  2773                           	
  2774                           l2370:	
  2775  058B                     	comf	(___aldiv@quotient),f
  2776  058B  09D2               	comf	(___aldiv@quotient+1),f
  2777  058C  09D3               	comf	(___aldiv@quotient+2),f
  2778  058D  09D4               	comf	(___aldiv@quotient+3),f
  2779  058E  09D5               	incf	(___aldiv@quotient),f
  2780  058F  0AD2               	skipnz
  2781  0590  1903               	incf	(___aldiv@quotient+1),f
  2782  0591  0AD3               	skipnz
  2783  0592  1903               	incf	(___aldiv@quotient+2),f
  2784  0593  0AD4               	skipnz
  2785  0594  1903               	incf	(___aldiv@quotient+3),f
  2786  0595  0AD5               	goto	l2372
  2787  0596  2D97               	
  2788                           l765:	
  2789  0597                     	line	40
  2790                           	
  2791                           l2372:	
  2792  0597                     	movf	(___aldiv@quotient+3),w
  2793  0597  0855               	movwf	(?___aldiv+3)
  2794  0598  00F3               	movf	(___aldiv@quotient+2),w
  2795  0599  0854               	movwf	(?___aldiv+2)
  2796  059A  00F2               	movf	(___aldiv@quotient+1),w
  2797  059B  0853               	movwf	(?___aldiv+1)
  2798  059C  00F1               	movf	(___aldiv@quotient),w
  2799  059D  0852               	movwf	(?___aldiv)
  2800  059E  00F0               
  2801                           	goto	l766
  2802  059F  2DA0               	
  2803                           l2374:	
  2804  05A0                     	line	41
  2805                           	
  2806                           l766:	
  2807  05A0                     	return
  2808  05A0  0008               	opt stack 0
  2809                           GLOBAL	__end_of___aldiv
  2810                           	__end_of___aldiv:
  2811  05A1                     	signat	___aldiv,8316
  2812                           	global	_loop
  2813                           
  2814 ;; *************** function _loop *****************
  2815 ;; Defined at:
  2816 ;;		line 9 in file "application.c"
  2817 ;; Parameters:    Size  Location     Type
  2818 ;;		None
  2819 ;; Auto vars:     Size  Location     Type
  2820 ;;		None
  2821 ;; Return value:  Size  Location     Type
  2822 ;;                  1    wreg      void 
  2823 ;; Registers used:
  2824 ;;		wreg, fsr0l, fsr0h, status,2, status,0, btemp+1, pclath, cstack
  2825 ;; Tracked objects:
  2826 ;;		On entry : 0/0
  2827 ;;		On exit  : 0/0
  2828 ;;		Unchanged: 0/0
  2829 ;; Data sizes:     COMMON   BANK0   BANK1   BANK3   BANK2
  2830 ;;      Params:         0       0       0       0       0
  2831 ;;      Locals:         0       0       0       0       0
  2832 ;;      Temps:          0       0       0       0       0
  2833 ;;      Totals:         0       0       0       0       0
  2834 ;;Total ram usage:        0 bytes
  2835 ;; Hardware stack levels used:    1
  2836 ;; Hardware stack levels required when called:    1
  2837 ;; This function calls:
  2838 ;;		_SerialAvailable
  2839 ;;		_delay
  2840 ;;		_digitalWrite
  2841 ;; This function is called by:
  2842 ;;		_main
  2843 ;; This function uses a non-reentrant model
  2844 ;;
  2845                           psect	text5,local,class=CODE,delta=2,merge=1,group=0
  2846                           	file	"application.c"
  2847                           	line	9
  2848                           global __ptext5
  2849                           __ptext5:	;psect for function _loop
  2850  03E0                     psect	text5
  2851                           	file	"application.c"
  2852                           	line	9
  2853                           	global	__size_of_loop
  2854                           	__size_of_loop	equ	__end_of_loop-_loop
  2855  0028                     	
  2856                           _loop:	
  2857  03E0                     ;incstack = 0
  2858                           	opt	stack 6
  2859                           ; Regs used in _loop: [wreg-fsr0h+status,2+status,0+btemp+1+pclath+cstack]
  2860                           	line	11
  2861                           	
  2862                           l2584:	
  2863  03E0                     ;application.c: 11:     if(SerialAvailable() >= 0 )
  2864                           	fcall	_SerialAvailable
  2865  03E0  120A  118A  238C  120A  118A  	line	13
  2866                           	
  2867                           l2586:	
  2868  03E5                     ;application.c: 12:     {;application.c: 13:         digitalWrite(13,1);
  2869                           	clrf	(digitalWrite@value)
  2870  03E5  01F0               	incf	(digitalWrite@value),f
  2871  03E6  0AF0               	movlw	low(0Dh)
  2872  03E7  300D               	fcall	_digitalWrite
  2873  03E8  120A  118A  26C2  120A  118A  	line	14
  2874                           	
  2875                           l2588:	
  2876  03ED                     ;application.c: 14:         delay(500);
  2877                           	movlw	0F4h
  2878  03ED  30F4               	movwf	(delay@milis)
  2879  03EE  00F0               	movlw	01h
  2880  03EF  3001               	movwf	((delay@milis))+1
  2881  03F0  00F1               	fcall	_delay
  2882  03F1  120A  118A  2408  120A  118A  	line	15
  2883                           	
  2884                           l2590:	
  2885  03F6                     ;application.c: 15:         digitalWrite(13,0);
  2886                           	clrf	(digitalWrite@value)
  2887  03F6  01F0               	movlw	low(0Dh)
  2888  03F7  300D               	fcall	_digitalWrite
  2889  03F8  120A  118A  26C2  120A  118A  	line	16
  2890                           	
  2891                           l2592:	
  2892  03FD                     ;application.c: 16:         delay(500);
  2893                           	movlw	0F4h
  2894  03FD  30F4               	movwf	(delay@milis)
  2895  03FE  00F0               	movlw	01h
  2896  03FF  3001               	movwf	((delay@milis))+1
  2897  0400  00F1               	fcall	_delay
  2898  0401  120A  118A  2408  120A  118A  	goto	l401
  2899  0406  2C07               	line	17
  2900                           ;application.c: 17:     }
  2901                           	
  2902                           l400:	
  2903  0407                     	line	18
  2904                           	
  2905                           l401:	
  2906  0407                     	return
  2907  0407  0008               	opt stack 0
  2908                           GLOBAL	__end_of_loop
  2909                           	__end_of_loop:
  2910  0408                     	signat	_loop,89
  2911                           	global	_digitalWrite
  2912                           
  2913 ;; *************** function _digitalWrite *****************
  2914 ;; Defined at:
  2915 ;;		line 169 in file "source.c"
  2916 ;; Parameters:    Size  Location     Type
  2917 ;;  pin             1    wreg     unsigned char 
  2918 ;;  value           1    0[COMMON] unsigned char 
  2919 ;; Auto vars:     Size  Location     Type
  2920 ;;  pin             1    3[COMMON] unsigned char 
  2921 ;; Return value:  Size  Location     Type
  2922 ;;                  1    wreg      void 
  2923 ;; Registers used:
  2924 ;;		wreg, fsr0l, fsr0h, status,2, status,0
  2925 ;; Tracked objects:
  2926 ;;		On entry : 0/0
  2927 ;;		On exit  : 0/0
  2928 ;;		Unchanged: 0/0
  2929 ;; Data sizes:     COMMON   BANK0   BANK1   BANK3   BANK2
  2930 ;;      Params:         1       0       0       0       0
  2931 ;;      Locals:         1       0       0       0       0
  2932 ;;      Temps:          2       0       0       0       0
  2933 ;;      Totals:         4       0       0       0       0
  2934 ;;Total ram usage:        4 bytes
  2935 ;; Hardware stack levels used:    1
  2936 ;; This function calls:
  2937 ;;		Nothing
  2938 ;; This function is called by:
  2939 ;;		_loop
  2940 ;;		_lcdWritePort
  2941 ;;		_WriteInstruction
  2942 ;;		_WriteData
  2943 ;;		_ByteByNibble
  2944 ;;		_ServoWrite
  2945 ;;		_ServoWriteCero
  2946 ;;		_ServoWriteNoventa
  2947 ;;		_KeypadRead
  2948 ;; This function uses a non-reentrant model
  2949 ;;
  2950                           psect	text6,local,class=CODE,delta=2,merge=1,group=0
  2951                           	file	"source.c"
  2952                           	line	169
  2953                           global __ptext6
  2954                           __ptext6:	;psect for function _digitalWrite
  2955  06C2                     psect	text6
  2956                           	file	"source.c"
  2957                           	line	169
  2958                           	global	__size_of_digitalWrite
  2959                           	__size_of_digitalWrite	equ	__end_of_digitalWrite-_digitalWrite
  2960  0123                     	
  2961                           _digitalWrite:	
  2962  06C2                     ;incstack = 0
  2963                           	opt	stack 6
  2964                           ; Regs used in _digitalWrite: [wreg-fsr0h+status,2+status,0]
  2965                           ;digitalWrite@pin stored from wreg
  2966                           	movwf	(digitalWrite@pin)
  2967  06C2  00F3               	line	171
  2968                           	
  2969                           l2436:	
  2970  06C3                     ;source.c: 169: void digitalWrite(char pin, char value);source.c: 170: {;source.c: 171: 
                                     switch(pin)
  2971                           	goto	l2494
  2972  06C3  2F8F               	line	173
  2973                           ;source.c: 172:     {;source.c: 173:         case 0:
  2974                           	
  2975                           l183:	
  2976  06C4                     	line	174
  2977                           	
  2978                           l2438:	
  2979  06C4                     ;source.c: 174:             PORTCbits.RC7 = value;
  2980                           	rrf	(digitalWrite@value),w
  2981  06C4  0C70               	bcf	status, 5	;RP0=0, select bank0
  2982  06C5  1283               	bcf	status, 6	;RP1=0, select bank0
  2983  06C6  1303               	skipc
  2984  06C7  1C03               	bcf	(7),7	;volatile
  2985  06C8  1387               	skipnc
  2986  06C9  1803               	bsf	(7),7	;volatile
  2987  06CA  1787               	line	175
  2988                           ;source.c: 175:             break;
  2989                           	goto	l209
  2990  06CB  2FE4               	line	176
  2991                           ;source.c: 176:         case 1:
  2992                           	
  2993                           l185:	
  2994  06CC                     	line	177
  2995                           	
  2996                           l2440:	
  2997  06CC                     ;source.c: 177:             PORTCbits.RC6 = value;
  2998                           	rrf	(digitalWrite@value),w
  2999  06CC  0C70               	bcf	status, 5	;RP0=0, select bank0
  3000  06CD  1283               	bcf	status, 6	;RP1=0, select bank0
  3001  06CE  1303               	skipc
  3002  06CF  1C03               	bcf	(7),6	;volatile
  3003  06D0  1307               	skipnc
  3004  06D1  1803               	bsf	(7),6	;volatile
  3005  06D2  1707               	line	178
  3006                           ;source.c: 178:             break;
  3007                           	goto	l209
  3008  06D3  2FE4               	line	179
  3009                           ;source.c: 179:         case 2:
  3010                           	
  3011                           l186:	
  3012  06D4                     	line	180
  3013                           	
  3014                           l2442:	
  3015  06D4                     ;source.c: 180:             PORTCbits.RC5 = value;
  3016                           	rrf	(digitalWrite@value),w
  3017  06D4  0C70               	bcf	status, 5	;RP0=0, select bank0
  3018  06D5  1283               	bcf	status, 6	;RP1=0, select bank0
  3019  06D6  1303               	skipc
  3020  06D7  1C03               	bcf	(7),5	;volatile
  3021  06D8  1287               	skipnc
  3022  06D9  1803               	bsf	(7),5	;volatile
  3023  06DA  1687               	line	181
  3024                           ;source.c: 181:             break;
  3025                           	goto	l209
  3026  06DB  2FE4               	line	182
  3027                           ;source.c: 182:         case 3:
  3028                           	
  3029                           l187:	
  3030  06DC                     	line	183
  3031                           	
  3032                           l2444:	
  3033  06DC                     ;source.c: 183:             PORTCbits.RC4 = value;
  3034                           	rrf	(digitalWrite@value),w
  3035  06DC  0C70               	bcf	status, 5	;RP0=0, select bank0
  3036  06DD  1283               	bcf	status, 6	;RP1=0, select bank0
  3037  06DE  1303               	skipc
  3038  06DF  1C03               	bcf	(7),4	;volatile
  3039  06E0  1207               	skipnc
  3040  06E1  1803               	bsf	(7),4	;volatile
  3041  06E2  1607               	line	184
  3042                           ;source.c: 184:             break;
  3043                           	goto	l209
  3044  06E3  2FE4               	line	185
  3045                           ;source.c: 185:         case 4:
  3046                           	
  3047                           l188:	
  3048  06E4                     	line	186
  3049                           	
  3050                           l2446:	
  3051  06E4                     ;source.c: 186:             PORTCbits.RC3 = value;
  3052                           	rrf	(digitalWrite@value),w
  3053  06E4  0C70               	bcf	status, 5	;RP0=0, select bank0
  3054  06E5  1283               	bcf	status, 6	;RP1=0, select bank0
  3055  06E6  1303               	skipc
  3056  06E7  1C03               	bcf	(7),3	;volatile
  3057  06E8  1187               	skipnc
  3058  06E9  1803               	bsf	(7),3	;volatile
  3059  06EA  1587               	line	187
  3060                           ;source.c: 187:             break;
  3061                           	goto	l209
  3062  06EB  2FE4               	line	188
  3063                           ;source.c: 188:         case 5:
  3064                           	
  3065                           l189:	
  3066  06EC                     	line	189
  3067                           	
  3068                           l2448:	
  3069  06EC                     ;source.c: 189:             CCP1CON = 0x00;
  3070                           	bcf	status, 5	;RP0=0, select bank0
  3071  06EC  1283               	bcf	status, 6	;RP1=0, select bank0
  3072  06ED  1303               	clrf	(23)	;volatile
  3073  06EE  0197               	line	190
  3074                           	
  3075                           l2450:	
  3076  06EF                     ;source.c: 190:             PORTCbits.RC2 = value;
  3077                           	rrf	(digitalWrite@value),w
  3078  06EF  0C70               	skipc
  3079  06F0  1C03               	bcf	(7),2	;volatile
  3080  06F1  1107               	skipnc
  3081  06F2  1803               	bsf	(7),2	;volatile
  3082  06F3  1507               	line	191
  3083                           ;source.c: 191:             break;
  3084                           	goto	l209
  3085  06F4  2FE4               	line	192
  3086                           ;source.c: 192:         case 6:
  3087                           	
  3088                           l190:	
  3089  06F5                     	line	193
  3090                           	
  3091                           l2452:	
  3092  06F5                     ;source.c: 193:             CCP2CON = 0x00;
  3093                           	bcf	status, 5	;RP0=0, select bank0
  3094  06F5  1283               	bcf	status, 6	;RP1=0, select bank0
  3095  06F6  1303               	clrf	(29)	;volatile
  3096  06F7  019D               	line	194
  3097                           	
  3098                           l2454:	
  3099  06F8                     ;source.c: 194:             PORTCbits.RC1 = value;
  3100                           	rrf	(digitalWrite@value),w
  3101  06F8  0C70               	skipc
  3102  06F9  1C03               	bcf	(7),1	;volatile
  3103  06FA  1087               	skipnc
  3104  06FB  1803               	bsf	(7),1	;volatile
  3105  06FC  1487               	line	195
  3106                           ;source.c: 195:             break;
  3107                           	goto	l209
  3108  06FD  2FE4               	line	196
  3109                           ;source.c: 196:         case 7:
  3110                           	
  3111                           l191:	
  3112  06FE                     	line	197
  3113                           	
  3114                           l2456:	
  3115  06FE                     ;source.c: 197:             PORTCbits.RC0 = value;
  3116                           	rrf	(digitalWrite@value),w
  3117  06FE  0C70               	bcf	status, 5	;RP0=0, select bank0
  3118  06FF  1283               	bcf	status, 6	;RP1=0, select bank0
  3119  0700  1303               	skipc
  3120  0701  1C03               	bcf	(7),0	;volatile
  3121  0702  1007               	skipnc
  3122  0703  1803               	bsf	(7),0	;volatile
  3123  0704  1407               	line	198
  3124                           ;source.c: 198:             break;
  3125                           	goto	l209
  3126  0705  2FE4               	line	199
  3127                           ;source.c: 199:         case 8:
  3128                           	
  3129                           l192:	
  3130  0706                     	line	200
  3131                           	
  3132                           l2458:	
  3133  0706                     ;source.c: 200:             PORTBbits.RB0 = value;
  3134                           	rrf	(digitalWrite@value),w
  3135  0706  0C70               	bcf	status, 5	;RP0=0, select bank0
  3136  0707  1283               	bcf	status, 6	;RP1=0, select bank0
  3137  0708  1303               	skipc
  3138  0709  1C03               	bcf	(6),0	;volatile
  3139  070A  1006               	skipnc
  3140  070B  1803               	bsf	(6),0	;volatile
  3141  070C  1406               	line	201
  3142                           ;source.c: 201:             break;
  3143                           	goto	l209
  3144  070D  2FE4               	line	202
  3145                           ;source.c: 202:         case 9:
  3146                           	
  3147                           l193:	
  3148  070E                     	line	203
  3149                           	
  3150                           l2460:	
  3151  070E                     ;source.c: 203:             PORTBbits.RB1 = value;
  3152                           	rrf	(digitalWrite@value),w
  3153  070E  0C70               	bcf	status, 5	;RP0=0, select bank0
  3154  070F  1283               	bcf	status, 6	;RP1=0, select bank0
  3155  0710  1303               	skipc
  3156  0711  1C03               	bcf	(6),1	;volatile
  3157  0712  1086               	skipnc
  3158  0713  1803               	bsf	(6),1	;volatile
  3159  0714  1486               	line	204
  3160                           ;source.c: 204:             break;
  3161                           	goto	l209
  3162  0715  2FE4               	line	205
  3163                           ;source.c: 205:         case 10:
  3164                           	
  3165                           l194:	
  3166  0716                     	line	206
  3167                           	
  3168                           l2462:	
  3169  0716                     ;source.c: 206:             PORTBbits.RB2 = value;
  3170                           	rrf	(digitalWrite@value),w
  3171  0716  0C70               	bcf	status, 5	;RP0=0, select bank0
  3172  0717  1283               	bcf	status, 6	;RP1=0, select bank0
  3173  0718  1303               	skipc
  3174  0719  1C03               	bcf	(6),2	;volatile
  3175  071A  1106               	skipnc
  3176  071B  1803               	bsf	(6),2	;volatile
  3177  071C  1506               	line	207
  3178                           ;source.c: 207:             break;
  3179                           	goto	l209
  3180  071D  2FE4               	line	208
  3181                           ;source.c: 208:         case 11:
  3182                           	
  3183                           l195:	
  3184  071E                     	line	209
  3185                           	
  3186                           l2464:	
  3187  071E                     ;source.c: 209:             PORTBbits.RB3 = value;
  3188                           	rrf	(digitalWrite@value),w
  3189  071E  0C70               	bcf	status, 5	;RP0=0, select bank0
  3190  071F  1283               	bcf	status, 6	;RP1=0, select bank0
  3191  0720  1303               	skipc
  3192  0721  1C03               	bcf	(6),3	;volatile
  3193  0722  1186               	skipnc
  3194  0723  1803               	bsf	(6),3	;volatile
  3195  0724  1586               	line	210
  3196                           ;source.c: 210:             break;
  3197                           	goto	l209
  3198  0725  2FE4               	line	211
  3199                           ;source.c: 211:         case 12:
  3200                           	
  3201                           l196:	
  3202  0726                     	line	212
  3203                           	
  3204                           l2466:	
  3205  0726                     ;source.c: 212:             PORTBbits.RB4 = value;
  3206                           	rrf	(digitalWrite@value),w
  3207  0726  0C70               	bcf	status, 5	;RP0=0, select bank0
  3208  0727  1283               	bcf	status, 6	;RP1=0, select bank0
  3209  0728  1303               	skipc
  3210  0729  1C03               	bcf	(6),4	;volatile
  3211  072A  1206               	skipnc
  3212  072B  1803               	bsf	(6),4	;volatile
  3213  072C  1606               	line	213
  3214                           ;source.c: 213:             break;
  3215                           	goto	l209
  3216  072D  2FE4               	line	214
  3217                           ;source.c: 214:         case 13:
  3218                           	
  3219                           l197:	
  3220  072E                     	line	215
  3221                           	
  3222                           l2468:	
  3223  072E                     ;source.c: 215:             PORTBbits.RB5 = value;
  3224                           	rrf	(digitalWrite@value),w
  3225  072E  0C70               	bcf	status, 5	;RP0=0, select bank0
  3226  072F  1283               	bcf	status, 6	;RP1=0, select bank0
  3227  0730  1303               	skipc
  3228  0731  1C03               	bcf	(6),5	;volatile
  3229  0732  1286               	skipnc
  3230  0733  1803               	bsf	(6),5	;volatile
  3231  0734  1686               	line	216
  3232                           ;source.c: 216:             break;
  3233                           	goto	l209
  3234  0735  2FE4               	line	217
  3235                           ;source.c: 217:         case 14:
  3236                           	
  3237                           l198:	
  3238  0736                     	line	218
  3239                           	
  3240                           l2470:	
  3241  0736                     ;source.c: 218:             PORTBbits.RB6 = value;
  3242                           	rrf	(digitalWrite@value),w
  3243  0736  0C70               	bcf	status, 5	;RP0=0, select bank0
  3244  0737  1283               	bcf	status, 6	;RP1=0, select bank0
  3245  0738  1303               	skipc
  3246  0739  1C03               	bcf	(6),6	;volatile
  3247  073A  1306               	skipnc
  3248  073B  1803               	bsf	(6),6	;volatile
  3249  073C  1706               	line	219
  3250                           ;source.c: 219:             break;
  3251                           	goto	l209
  3252  073D  2FE4               	line	220
  3253                           ;source.c: 220:         case 15:
  3254                           	
  3255                           l199:	
  3256  073E                     	line	221
  3257                           	
  3258                           l2472:	
  3259  073E                     ;source.c: 221:             PORTBbits.RB7 = value;
  3260                           	rrf	(digitalWrite@value),w
  3261  073E  0C70               	bcf	status, 5	;RP0=0, select bank0
  3262  073F  1283               	bcf	status, 6	;RP1=0, select bank0
  3263  0740  1303               	skipc
  3264  0741  1C03               	bcf	(6),7	;volatile
  3265  0742  1386               	skipnc
  3266  0743  1803               	bsf	(6),7	;volatile
  3267  0744  1786               	line	222
  3268                           ;source.c: 222:             break;
  3269                           	goto	l209
  3270  0745  2FE4               	line	223
  3271                           ;source.c: 223:         case 16:
  3272                           	
  3273                           l200:	
  3274  0746                     	line	224
  3275                           	
  3276                           l2474:	
  3277  0746                     ;source.c: 224:             PORTDbits.RD0 = value;
  3278                           	rrf	(digitalWrite@value),w
  3279  0746  0C70               	bcf	status, 5	;RP0=0, select bank0
  3280  0747  1283               	bcf	status, 6	;RP1=0, select bank0
  3281  0748  1303               	skipc
  3282  0749  1C03               	bcf	(8),0	;volatile
  3283  074A  1008               	skipnc
  3284  074B  1803               	bsf	(8),0	;volatile
  3285  074C  1408               	line	225
  3286                           ;source.c: 225:             break;
  3287                           	goto	l209
  3288  074D  2FE4               	line	226
  3289                           ;source.c: 226:         case 17:
  3290                           	
  3291                           l201:	
  3292  074E                     	line	227
  3293                           	
  3294                           l2476:	
  3295  074E                     ;source.c: 227:             PORTDbits.RD1 = value;
  3296                           	rrf	(digitalWrite@value),w
  3297  074E  0C70               	bcf	status, 5	;RP0=0, select bank0
  3298  074F  1283               	bcf	status, 6	;RP1=0, select bank0
  3299  0750  1303               	skipc
  3300  0751  1C03               	bcf	(8),1	;volatile
  3301  0752  1088               	skipnc
  3302  0753  1803               	bsf	(8),1	;volatile
  3303  0754  1488               	line	228
  3304                           ;source.c: 228:             break;
  3305                           	goto	l209
  3306  0755  2FE4               	line	229
  3307                           ;source.c: 229:         case 18:
  3308                           	
  3309                           l202:	
  3310  0756                     	line	230
  3311                           	
  3312                           l2478:	
  3313  0756                     ;source.c: 230:             PORTDbits.RD2 = value;
  3314                           	rrf	(digitalWrite@value),w
  3315  0756  0C70               	bcf	status, 5	;RP0=0, select bank0
  3316  0757  1283               	bcf	status, 6	;RP1=0, select bank0
  3317  0758  1303               	skipc
  3318  0759  1C03               	bcf	(8),2	;volatile
  3319  075A  1108               	skipnc
  3320  075B  1803               	bsf	(8),2	;volatile
  3321  075C  1508               	line	231
  3322                           ;source.c: 231:             break;
  3323                           	goto	l209
  3324  075D  2FE4               	line	232
  3325                           ;source.c: 232:         case 19:
  3326                           	
  3327                           l203:	
  3328  075E                     	line	233
  3329                           	
  3330                           l2480:	
  3331  075E                     ;source.c: 233:             PORTDbits.RD3 = value;
  3332                           	rrf	(digitalWrite@value),w
  3333  075E  0C70               	bcf	status, 5	;RP0=0, select bank0
  3334  075F  1283               	bcf	status, 6	;RP1=0, select bank0
  3335  0760  1303               	skipc
  3336  0761  1C03               	bcf	(8),3	;volatile
  3337  0762  1188               	skipnc
  3338  0763  1803               	bsf	(8),3	;volatile
  3339  0764  1588               	line	234
  3340                           ;source.c: 234:             break;
  3341                           	goto	l209
  3342  0765  2FE4               	line	235
  3343                           ;source.c: 235:         case 20:
  3344                           	
  3345                           l204:	
  3346  0766                     	line	236
  3347                           	
  3348                           l2482:	
  3349  0766                     ;source.c: 236:             PORTDbits.RD4 = value;
  3350                           	rrf	(digitalWrite@value),w
  3351  0766  0C70               	bcf	status, 5	;RP0=0, select bank0
  3352  0767  1283               	bcf	status, 6	;RP1=0, select bank0
  3353  0768  1303               	skipc
  3354  0769  1C03               	bcf	(8),4	;volatile
  3355  076A  1208               	skipnc
  3356  076B  1803               	bsf	(8),4	;volatile
  3357  076C  1608               	line	237
  3358                           ;source.c: 237:             break;
  3359                           	goto	l209
  3360  076D  2FE4               	line	238
  3361                           ;source.c: 238:         case 21:
  3362                           	
  3363                           l205:	
  3364  076E                     	line	239
  3365                           	
  3366                           l2484:	
  3367  076E                     ;source.c: 239:             PORTDbits.RD5 = value;
  3368                           	rrf	(digitalWrite@value),w
  3369  076E  0C70               	bcf	status, 5	;RP0=0, select bank0
  3370  076F  1283               	bcf	status, 6	;RP1=0, select bank0
  3371  0770  1303               	skipc
  3372  0771  1C03               	bcf	(8),5	;volatile
  3373  0772  1288               	skipnc
  3374  0773  1803               	bsf	(8),5	;volatile
  3375  0774  1688               	line	240
  3376                           ;source.c: 240:             break;
  3377                           	goto	l209
  3378  0775  2FE4               	line	241
  3379                           ;source.c: 241:         case 22:
  3380                           	
  3381                           l206:	
  3382  0776                     	line	242
  3383                           	
  3384                           l2486:	
  3385  0776                     ;source.c: 242:             PORTDbits.RD6 = value;
  3386                           	rrf	(digitalWrite@value),w
  3387  0776  0C70               	bcf	status, 5	;RP0=0, select bank0
  3388  0777  1283               	bcf	status, 6	;RP1=0, select bank0
  3389  0778  1303               	skipc
  3390  0779  1C03               	bcf	(8),6	;volatile
  3391  077A  1308               	skipnc
  3392  077B  1803               	bsf	(8),6	;volatile
  3393  077C  1708               	line	243
  3394                           ;source.c: 243:             break;
  3395                           	goto	l209
  3396  077D  2FE4               	line	244
  3397                           ;source.c: 244:         case 23:
  3398                           	
  3399                           l207:	
  3400  077E                     	line	245
  3401                           	
  3402                           l2488:	
  3403  077E                     ;source.c: 245:             PORTDbits.RD7 = value;
  3404                           	rrf	(digitalWrite@value),w
  3405  077E  0C70               	bcf	status, 5	;RP0=0, select bank0
  3406  077F  1283               	bcf	status, 6	;RP1=0, select bank0
  3407  0780  1303               	skipc
  3408  0781  1C03               	bcf	(8),7	;volatile
  3409  0782  1388               	skipnc
  3410  0783  1803               	bsf	(8),7	;volatile
  3411  0784  1788               	line	246
  3412                           ;source.c: 246:             break;
  3413                           	goto	l209
  3414  0785  2FE4               	line	247
  3415                           ;source.c: 247:         case 24:
  3416                           	
  3417                           l208:	
  3418  0786                     	line	248
  3419                           	
  3420                           l2490:	
  3421  0786                     ;source.c: 248:             PORTAbits.RA4 = value;
  3422                           	rrf	(digitalWrite@value),w
  3423  0786  0C70               	bcf	status, 5	;RP0=0, select bank0
  3424  0787  1283               	bcf	status, 6	;RP1=0, select bank0
  3425  0788  1303               	skipc
  3426  0789  1C03               	bcf	(5),4	;volatile
  3427  078A  1205               	skipnc
  3428  078B  1803               	bsf	(5),4	;volatile
  3429  078C  1605               	line	249
  3430                           ;source.c: 249:             break;
  3431                           	goto	l209
  3432  078D  2FE4               	line	258
  3433                           	
  3434                           l2492:	
  3435  078E                     ;source.c: 258:     }
  3436                           	goto	l209
  3437  078E  2FE4               	
  3438                           l182:	
  3439  078F                     	
  3440                           l2494:	
  3441  078F                     	movf	(digitalWrite@pin),w
  3442  078F  0873               	movwf	(??_digitalWrite+0)+0
  3443  0790  00F1               	clrf	(??_digitalWrite+0)+0+1
  3444  0791  01F2               	; Switch on 2 bytes has been partitioned into a top level switch of size 1, and 1 sub-s
                                 witches
  3445                           ; Switch size 1, requested type "space"
  3446                           ; Number of cases is 1, Range of values is 0 to 0
  3447                           ; switch strategies available:
  3448                           ; Name         Instructions Cycles
  3449                           ; simple_byte            4     3 (average)
  3450                           ; direct_byte           11     8 (fixed)
  3451                           ; jumptable            260     6 (fixed)
  3452                           ;	Chosen strategy is simple_byte
  3453                           
  3454                           	movf 1+(??_digitalWrite+0)+0,w
  3455  0792  0872               	opt asmopt_push
  3456                           	opt asmopt_off
  3457                           	xorlw	0^0	; case 0
  3458  0793  3A00               	skipnz
  3459  0794  1903               	goto	l3212
  3460  0795  2F97               	goto	l209
  3461  0796  2FE4               	opt asmopt_pop
  3462                           	
  3463                           l3212:	
  3464  0797                     ; Switch size 1, requested type "space"
  3465                           ; Number of cases is 25, Range of values is 0 to 24
  3466                           ; switch strategies available:
  3467                           ; Name         Instructions Cycles
  3468                           ; simple_byte           76    39 (average)
  3469                           ; direct_byte           83     8 (fixed)
  3470                           ; jumptable            260     6 (fixed)
  3471                           ;	Chosen strategy is simple_byte
  3472                           
  3473                           	movf 0+(??_digitalWrite+0)+0,w
  3474  0797  0871               	opt asmopt_push
  3475                           	opt asmopt_off
  3476                           	xorlw	0^0	; case 0
  3477  0798  3A00               	skipnz
  3478  0799  1903               	goto	l2438
  3479  079A  2EC4               	xorlw	1^0	; case 1
  3480  079B  3A01               	skipnz
  3481  079C  1903               	goto	l2440
  3482  079D  2ECC               	xorlw	2^1	; case 2
  3483  079E  3A03               	skipnz
  3484  079F  1903               	goto	l2442
  3485  07A0  2ED4               	xorlw	3^2	; case 3
  3486  07A1  3A01               	skipnz
  3487  07A2  1903               	goto	l2444
  3488  07A3  2EDC               	xorlw	4^3	; case 4
  3489  07A4  3A07               	skipnz
  3490  07A5  1903               	goto	l2446
  3491  07A6  2EE4               	xorlw	5^4	; case 5
  3492  07A7  3A01               	skipnz
  3493  07A8  1903               	goto	l2448
  3494  07A9  2EEC               	xorlw	6^5	; case 6
  3495  07AA  3A03               	skipnz
  3496  07AB  1903               	goto	l2452
  3497  07AC  2EF5               	xorlw	7^6	; case 7
  3498  07AD  3A01               	skipnz
  3499  07AE  1903               	goto	l2456
  3500  07AF  2EFE               	xorlw	8^7	; case 8
  3501  07B0  3A0F               	skipnz
  3502  07B1  1903               	goto	l2458
  3503  07B2  2F06               	xorlw	9^8	; case 9
  3504  07B3  3A01               	skipnz
  3505  07B4  1903               	goto	l2460
  3506  07B5  2F0E               	xorlw	10^9	; case 10
  3507  07B6  3A03               	skipnz
  3508  07B7  1903               	goto	l2462
  3509  07B8  2F16               	xorlw	11^10	; case 11
  3510  07B9  3A01               	skipnz
  3511  07BA  1903               	goto	l2464
  3512  07BB  2F1E               	xorlw	12^11	; case 12
  3513  07BC  3A07               	skipnz
  3514  07BD  1903               	goto	l2466
  3515  07BE  2F26               	xorlw	13^12	; case 13
  3516  07BF  3A01               	skipnz
  3517  07C0  1903               	goto	l2468
  3518  07C1  2F2E               	xorlw	14^13	; case 14
  3519  07C2  3A03               	skipnz
  3520  07C3  1903               	goto	l2470
  3521  07C4  2F36               	xorlw	15^14	; case 15
  3522  07C5  3A01               	skipnz
  3523  07C6  1903               	goto	l2472
  3524  07C7  2F3E               	xorlw	16^15	; case 16
  3525  07C8  3A1F               	skipnz
  3526  07C9  1903               	goto	l2474
  3527  07CA  2F46               	xorlw	17^16	; case 17
  3528  07CB  3A01               	skipnz
  3529  07CC  1903               	goto	l2476
  3530  07CD  2F4E               	xorlw	18^17	; case 18
  3531  07CE  3A03               	skipnz
  3532  07CF  1903               	goto	l2478
  3533  07D0  2F56               	xorlw	19^18	; case 19
  3534  07D1  3A01               	skipnz
  3535  07D2  1903               	goto	l2480
  3536  07D3  2F5E               	xorlw	20^19	; case 20
  3537  07D4  3A07               	skipnz
  3538  07D5  1903               	goto	l2482
  3539  07D6  2F66               	xorlw	21^20	; case 21
  3540  07D7  3A01               	skipnz
  3541  07D8  1903               	goto	l2484
  3542  07D9  2F6E               	xorlw	22^21	; case 22
  3543  07DA  3A03               	skipnz
  3544  07DB  1903               	goto	l2486
  3545  07DC  2F76               	xorlw	23^22	; case 23
  3546  07DD  3A01               	skipnz
  3547  07DE  1903               	goto	l2488
  3548  07DF  2F7E               	xorlw	24^23	; case 24
  3549  07E0  3A0F               	skipnz
  3550  07E1  1903               	goto	l2490
  3551  07E2  2F86               	goto	l209
  3552  07E3  2FE4               	opt asmopt_pop
  3553                           
  3554                           	
  3555                           l184:	
  3556  07E4                     	line	259
  3557                           	
  3558                           l209:	
  3559  07E4                     	return
  3560  07E4  0008               	opt stack 0
  3561                           GLOBAL	__end_of_digitalWrite
  3562                           	__end_of_digitalWrite:
  3563  07E5                     	signat	_digitalWrite,8313
  3564                           	global	_delay
  3565                           
  3566 ;; *************** function _delay *****************
  3567 ;; Defined at:
  3568 ;;		line 626 in file "source.c"
  3569 ;; Parameters:    Size  Location     Type
  3570 ;;  milis           2    0[COMMON] const int 
  3571 ;; Auto vars:     Size  Location     Type
  3572 ;;  i               2    5[COMMON] int 
  3573 ;;  j               2    3[COMMON] int 
  3574 ;; Return value:  Size  Location     Type
  3575 ;;                  1    wreg      void 
  3576 ;; Registers used:
  3577 ;;		wreg, status,2, btemp+1
  3578 ;; Tracked objects:
  3579 ;;		On entry : 0/0
  3580 ;;		On exit  : 0/0
  3581 ;;		Unchanged: 0/0
  3582 ;; Data sizes:     COMMON   BANK0   BANK1   BANK3   BANK2
  3583 ;;      Params:         2       0       0       0       0
  3584 ;;      Locals:         4       0       0       0       0
  3585 ;;      Temps:          1       0       0       0       0
  3586 ;;      Totals:         7       0       0       0       0
  3587 ;;Total ram usage:        7 bytes
  3588 ;; Hardware stack levels used:    1
  3589 ;; This function calls:
  3590 ;;		Nothing
  3591 ;; This function is called by:
  3592 ;;		_loop
  3593 ;;		_lcdBegin
  3594 ;;		_lcdWrite
  3595 ;;		_WriteInstruction
  3596 ;;		_WriteData
  3597 ;;		_KeypadRead
  3598 ;; This function uses a non-reentrant model
  3599 ;;
  3600                           psect	text7,local,class=CODE,delta=2,merge=1,group=0
  3601                           	line	626
  3602                           global __ptext7
  3603                           __ptext7:	;psect for function _delay
  3604  0408                     psect	text7
  3605                           	file	"source.c"
  3606                           	line	626
  3607                           	global	__size_of_delay
  3608                           	__size_of_delay	equ	__end_of_delay-_delay
  3609  004E                     	
  3610                           _delay:	
  3611  0408                     ;incstack = 0
  3612                           	opt	stack 6
  3613                           ; Regs used in _delay: [wreg+status,2+btemp+1]
  3614                           	line	628
  3615                           	
  3616                           l2562:	
  3617  0408                     ;source.c: 626: void delay(const int milis);source.c: 627: {;source.c: 628:     for(int 
                                 j=0;j<milis;j++)
  3618                           	clrf	(delay@j)
  3619  0408  01F3               	clrf	(delay@j+1)
  3620  0409  01F4               	
  3621                           l2564:	
  3622  040A                     	movf	(delay@j+1),w
  3623  040A  0874               	xorlw	80h
  3624  040B  3A80               	movwf	(??_delay+0)+0
  3625  040C  00F2               	movf	(delay@milis+1),w
  3626  040D  0871               	xorlw	80h
  3627  040E  3A80               	subwf	(??_delay+0)+0,w
  3628  040F  0272               	skipz
  3629  0410  1D03               	goto	u1075
  3630  0411  2C14               	movf	(delay@milis),w
  3631  0412  0870               	subwf	(delay@j),w
  3632  0413  0273               u1075:
  3633  0414                     
  3634                           	skipc
  3635  0414  1C03               	goto	u1071
  3636  0415  2C17               	goto	u1070
  3637  0416  2C18               u1071:
  3638  0417                     	goto	l2568
  3639  0417  2C1A               u1070:
  3640  0418                     	goto	l379
  3641  0418  2C55               	
  3642                           l2566:	
  3643  0419                     	goto	l379
  3644  0419  2C55               	
  3645                           l375:	
  3646  041A                     	line	631
  3647                           	
  3648                           l2568:	
  3649  041A                     ;source.c: 629:     {;source.c: 631:         for(int i=0;i<400;i++)
  3650                           	clrf	(delay@i)
  3651  041A  01F5               	clrf	(delay@i+1)
  3652  041B  01F6               	
  3653                           l2570:	
  3654  041C                     	movf	(delay@i+1),w
  3655  041C  0876               	xorlw	80h
  3656  041D  3A80               	movwf	btemp+1
  3657  041E  00FF               	movlw	(01h)^80h
  3658  041F  3081               	subwf	btemp+1,w
  3659  0420  027F               	skipz
  3660  0421  1D03               	goto	u1085
  3661  0422  2C25               	movlw	090h
  3662  0423  3090               	subwf	(delay@i),w
  3663  0424  0275               u1085:
  3664  0425                     
  3665                           	skipc
  3666  0425  1C03               	goto	u1081
  3667  0426  2C28               	goto	u1080
  3668  0427  2C29               u1081:
  3669  0428                     	goto	l377
  3670  0428  2C2B               u1080:
  3671  0429                     	goto	l2578
  3672  0429  2C40               	
  3673                           l2572:	
  3674  042A                     	goto	l2578
  3675  042A  2C40               	
  3676                           l377:	
  3677  042B                     	line	633
  3678                           # 633 "source.c"
  3679                           NOP ;# 
  3680  042B  0000               psect	text7
  3681                           	line	634
  3682                           	
  3683                           l2574:	
  3684  042C                     ;source.c: 634:         }
  3685                           	movlw	01h
  3686  042C  3001               	addwf	(delay@i),f
  3687  042D  07F5               	skipnc
  3688  042E  1803               	incf	(delay@i+1),f
  3689  042F  0AF6               	movlw	0
  3690  0430  3000               	addwf	(delay@i+1),f
  3691  0431  07F6               	
  3692                           l2576:	
  3693  0432                     	movf	(delay@i+1),w
  3694  0432  0876               	xorlw	80h
  3695  0433  3A80               	movwf	btemp+1
  3696  0434  00FF               	movlw	(01h)^80h
  3697  0435  3081               	subwf	btemp+1,w
  3698  0436  027F               	skipz
  3699  0437  1D03               	goto	u1095
  3700  0438  2C3B               	movlw	090h
  3701  0439  3090               	subwf	(delay@i),w
  3702  043A  0275               u1095:
  3703  043B                     
  3704                           	skipc
  3705  043B  1C03               	goto	u1091
  3706  043C  2C3E               	goto	u1090
  3707  043D  2C3F               u1091:
  3708  043E                     	goto	l377
  3709  043E  2C2B               u1090:
  3710  043F                     	goto	l2578
  3711  043F  2C40               	
  3712                           l378:	
  3713  0440                     	line	635
  3714                           	
  3715                           l2578:	
  3716  0440                     ;source.c: 635:     }
  3717                           	movlw	01h
  3718  0440  3001               	addwf	(delay@j),f
  3719  0441  07F3               	skipnc
  3720  0442  1803               	incf	(delay@j+1),f
  3721  0443  0AF4               	movlw	0
  3722  0444  3000               	addwf	(delay@j+1),f
  3723  0445  07F4               	movf	(delay@j+1),w
  3724  0446  0874               	xorlw	80h
  3725  0447  3A80               	movwf	(??_delay+0)+0
  3726  0448  00F2               	movf	(delay@milis+1),w
  3727  0449  0871               	xorlw	80h
  3728  044A  3A80               	subwf	(??_delay+0)+0,w
  3729  044B  0272               	skipz
  3730  044C  1D03               	goto	u1105
  3731  044D  2C50               	movf	(delay@milis),w
  3732  044E  0870               	subwf	(delay@j),w
  3733  044F  0273               u1105:
  3734  0450                     
  3735                           	skipc
  3736  0450  1C03               	goto	u1101
  3737  0451  2C53               	goto	u1100
  3738  0452  2C54               u1101:
  3739  0453                     	goto	l2568
  3740  0453  2C1A               u1100:
  3741  0454                     	goto	l379
  3742  0454  2C55               	
  3743                           l376:	
  3744  0455                     	line	636
  3745                           	
  3746                           l379:	
  3747  0455                     	return
  3748  0455  0008               	opt stack 0
  3749                           GLOBAL	__end_of_delay
  3750                           	__end_of_delay:
  3751  0456                     	signat	_delay,4217
  3752                           	global	_SerialAvailable
  3753                           
  3754 ;; *************** function _SerialAvailable *****************
  3755 ;; Defined at:
  3756 ;;		line 541 in file "source.c"
  3757 ;; Parameters:    Size  Location     Type
  3758 ;;		None
  3759 ;; Auto vars:     Size  Location     Type
  3760 ;;		None
  3761 ;; Return value:  Size  Location     Type
  3762 ;;                  1    wreg      unsigned char 
  3763 ;; Registers used:
  3764 ;;		status,2
  3765 ;; Tracked objects:
  3766 ;;		On entry : 0/0
  3767 ;;		On exit  : 0/0
  3768 ;;		Unchanged: 0/0
  3769 ;; Data sizes:     COMMON   BANK0   BANK1   BANK3   BANK2
  3770 ;;      Params:         0       0       0       0       0
  3771 ;;      Locals:         1       0       0       0       0
  3772 ;;      Temps:          0       0       0       0       0
  3773 ;;      Totals:         1       0       0       0       0
  3774 ;;Total ram usage:        1 bytes
  3775 ;; Hardware stack levels used:    1
  3776 ;; This function calls:
  3777 ;;		Nothing
  3778 ;; This function is called by:
  3779 ;;		_loop
  3780 ;; This function uses a non-reentrant model
  3781 ;;
  3782                           psect	text8,local,class=CODE,delta=2,merge=1,group=0
  3783                           	line	541
  3784                           global __ptext8
  3785                           __ptext8:	;psect for function _SerialAvailable
  3786  038C                     psect	text8
  3787                           	file	"source.c"
  3788                           	line	541
  3789                           	global	__size_of_SerialAvailable
  3790                           	__size_of_SerialAvailable	equ	__end_of_SerialAvailable-_SerialAvailable
  3791  0017                     	
  3792                           _SerialAvailable:	
  3793  038C                     ;incstack = 0
  3794                           	opt	stack 6
  3795                           ; Regs used in _SerialAvailable: [status,2]
  3796                           	line	543
  3797                           	
  3798                           l2552:	
  3799  038C                     ;source.c: 543:     return RCIF || (TXIF && TRMT);
  3800                           	clrf	(_SerialAvailable$429)
  3801  038C  01F0               	incf	(_SerialAvailable$429),f
  3802  038D  0AF0               	bcf	status, 5	;RP0=0, select bank0
  3803  038E  1283               	bcf	status, 6	;RP1=0, select bank0
  3804  038F  1303               	btfsc	(101/8),(101)&7	;volatile
  3805  0390  1A8C               	goto	u1041
  3806  0391  2B93               	goto	u1040
  3807  0392  2B94               u1041:
  3808  0393                     	goto	l332
  3809  0393  2BA2               u1040:
  3810  0394                     	
  3811                           l2554:	
  3812  0394                     	btfss	(100/8),(100)&7	;volatile
  3813  0394  1E0C               	goto	u1051
  3814  0395  2B97               	goto	u1050
  3815  0396  2B98               u1051:
  3816  0397                     	goto	l2558
  3817  0397  2B9F               u1050:
  3818  0398                     	
  3819                           l2556:	
  3820  0398                     	bsf	status, 5	;RP0=1, select bank1
  3821  0398  1683               	bcf	status, 6	;RP1=0, select bank1
  3822  0399  1303               	btfsc	(1217/8)^080h,(1217)&7	;volatile
  3823  039A  1898               	goto	u1061
  3824  039B  2B9D               	goto	u1060
  3825  039C  2B9E               u1061:
  3826  039D                     	goto	l332
  3827  039D  2BA2               u1060:
  3828  039E                     	goto	l2558
  3829  039E  2B9F               	
  3830                           l2334:	
  3831  039F                     	
  3832                           l2558:	
  3833  039F                     	clrf	(_SerialAvailable$429)
  3834  039F  01F0               	goto	l332
  3835  03A0  2BA2               	
  3836                           l331:	
  3837  03A1                     	goto	l332
  3838  03A1  2BA2               	
  3839                           l2560:	
  3840  03A2                     	line	544
  3841                           ;	Return value of _SerialAvailable is never used
  3842                           	
  3843                           l332:	
  3844  03A2                     	return
  3845  03A2  0008               	opt stack 0
  3846                           GLOBAL	__end_of_SerialAvailable
  3847                           	__end_of_SerialAvailable:
  3848  03A3                     	signat	_SerialAvailable,89
  3849                           	global	_Initialization
  3850                           
  3851 ;; *************** function _Initialization *****************
  3852 ;; Defined at:
  3853 ;;		line 18 in file "source.c"
  3854 ;; Parameters:    Size  Location     Type
  3855 ;;		None
  3856 ;; Auto vars:     Size  Location     Type
  3857 ;;		None
  3858 ;; Return value:  Size  Location     Type
  3859 ;;                  1    wreg      void 
  3860 ;; Registers used:
  3861 ;;		wreg, status,2, status,0, pclath, cstack
  3862 ;; Tracked objects:
  3863 ;;		On entry : 0/0
  3864 ;;		On exit  : 0/0
  3865 ;;		Unchanged: 0/0
  3866 ;; Data sizes:     COMMON   BANK0   BANK1   BANK3   BANK2
  3867 ;;      Params:         0       0       0       0       0
  3868 ;;      Locals:         0       0       0       0       0
  3869 ;;      Temps:          0       0       0       0       0
  3870 ;;      Totals:         0       0       0       0       0
  3871 ;;Total ram usage:        0 bytes
  3872 ;; Hardware stack levels used:    1
  3873 ;; Hardware stack levels required when called:    1
  3874 ;; This function calls:
  3875 ;;		_CCP1Configuration
  3876 ;;		_CCP2Configuration
  3877 ;; This function is called by:
  3878 ;;		_main
  3879 ;; This function uses a non-reentrant model
  3880 ;;
  3881                           psect	text9,local,class=CODE,delta=2,merge=1,group=0
  3882                           	line	18
  3883                           global __ptext9
  3884                           __ptext9:	;psect for function _Initialization
  3885  03BA                     psect	text9
  3886                           	file	"source.c"
  3887                           	line	18
  3888                           	global	__size_of_Initialization
  3889                           	__size_of_Initialization	equ	__end_of_Initialization-_Initialization
  3890  0026                     	
  3891                           _Initialization:	
  3892  03BA                     ;incstack = 0
  3893                           	opt	stack 6
  3894                           ; Regs used in _Initialization: [wreg+status,2+status,0+pclath+cstack]
  3895                           	line	21
  3896                           	
  3897                           l1446:	
  3898  03BA                     ;source.c: 21:     ADCON0 = 0x81;
  3899                           	movlw	low(081h)
  3900  03BA  3081               	bcf	status, 5	;RP0=0, select bank0
  3901  03BB  1283               	bcf	status, 6	;RP1=0, select bank0
  3902  03BC  1303               	movwf	(31)	;volatile
  3903  03BD  009F               	line	22
  3904                           ;source.c: 22:     ADCON1 = 0xC2;
  3905                           	movlw	low(0C2h)
  3906  03BE  30C2               	bsf	status, 5	;RP0=1, select bank1
  3907  03BF  1683               	bcf	status, 6	;RP1=0, select bank1
  3908  03C0  1303               	movwf	(159)^080h	;volatile
  3909  03C1  009F               	line	24
  3910                           # 24 "source.c"
  3911                           CLRF PORTA ;# 
  3912  03C2  0185               	line	25
  3913                           # 25 "source.c"
  3914                           MOVLW 0x3F ;# 
  3915  03C3  303F               	line	26
  3916                           # 26 "source.c"
  3917                           MOVWF TRISA ;# 
  3918  03C4  0085               	line	28
  3919                           # 28 "source.c"
  3920                           CLRF PORTB ;# 
  3921  03C5  0186               	line	29
  3922                           # 29 "source.c"
  3923                           MOVLW 0x00 ;# 
  3924  03C6  3000               	line	30
  3925                           # 30 "source.c"
  3926                           MOVWF TRISB ;# 
  3927  03C7  0086               	line	32
  3928                           # 32 "source.c"
  3929                           CLRF PORTC ;# 
  3930  03C8  0187               	line	33
  3931                           # 33 "source.c"
  3932                           MOVLW 0x00 ;# 
  3933  03C9  3000               	line	34
  3934                           # 34 "source.c"
  3935                           MOVWF TRISC ;# 
  3936  03CA  0087               psect	text9
  3937                           	line	35
  3938                           	
  3939                           l1448:	
  3940  03CB                     ;source.c: 35:     CCP1Configuration();
  3941                           	fcall	_CCP1Configuration
  3942  03CB  120A  118A  2347  120A  118A  	line	36
  3943                           	
  3944                           l1450:	
  3945  03D0                     ;source.c: 36:     CCP2Configuration();
  3946                           	fcall	_CCP2Configuration
  3947  03D0  120A  118A  233A  120A  118A  	line	38
  3948                           # 38 "source.c"
  3949                           CLRF PORTD ;# 
  3950  03D5  0188               	line	39
  3951                           # 39 "source.c"
  3952                           MOVLW 0x00 ;# 
  3953  03D6  3000               	line	40
  3954                           # 40 "source.c"
  3955                           MOVF TRISD ;# 
  3956  03D7  0888               psect	text9
  3957                           	line	41
  3958                           	
  3959                           l1452:	
  3960  03D8                     ;source.c: 41:     PORTE = 0x00;
  3961                           	bcf	status, 5	;RP0=0, select bank0
  3962  03D8  1283               	bcf	status, 6	;RP1=0, select bank0
  3963  03D9  1303               	clrf	(9)	;volatile
  3964  03DA  0189               	line	42
  3965                           	
  3966                           l1454:	
  3967  03DB                     ;source.c: 42:     TRISE = 0x07;
  3968                           	movlw	low(07h)
  3969  03DB  3007               	bsf	status, 5	;RP0=1, select bank1
  3970  03DC  1683               	bcf	status, 6	;RP1=0, select bank1
  3971  03DD  1303               	movwf	(137)^080h	;volatile
  3972  03DE  0089               	line	43
  3973                           	
  3974                           l137:	
  3975  03DF                     	return
  3976  03DF  0008               	opt stack 0
  3977                           GLOBAL	__end_of_Initialization
  3978                           	__end_of_Initialization:
  3979  03E0                     	signat	_Initialization,89
  3980                           	global	_CCP2Configuration
  3981                           
  3982 ;; *************** function _CCP2Configuration *****************
  3983 ;; Defined at:
  3984 ;;		line 55 in file "source.c"
  3985 ;; Parameters:    Size  Location     Type
  3986 ;;		None
  3987 ;; Auto vars:     Size  Location     Type
  3988 ;;		None
  3989 ;; Return value:  Size  Location     Type
  3990 ;;                  1    wreg      void 
  3991 ;; Registers used:
  3992 ;;		wreg
  3993 ;; Tracked objects:
  3994 ;;		On entry : 0/0
  3995 ;;		On exit  : 0/0
  3996 ;;		Unchanged: 0/0
  3997 ;; Data sizes:     COMMON   BANK0   BANK1   BANK3   BANK2
  3998 ;;      Params:         0       0       0       0       0
  3999 ;;      Locals:         0       0       0       0       0
  4000 ;;      Temps:          0       0       0       0       0
  4001 ;;      Totals:         0       0       0       0       0
  4002 ;;Total ram usage:        0 bytes
  4003 ;; Hardware stack levels used:    1
  4004 ;; This function calls:
  4005 ;;		Nothing
  4006 ;; This function is called by:
  4007 ;;		_Initialization
  4008 ;; This function uses a non-reentrant model
  4009 ;;
  4010                           psect	text10,local,class=CODE,delta=2,merge=1,group=0
  4011                           	line	55
  4012                           global __ptext10
  4013                           __ptext10:	;psect for function _CCP2Configuration
  4014  033A                     psect	text10
  4015                           	file	"source.c"
  4016                           	line	55
  4017                           	global	__size_of_CCP2Configuration
  4018                           	__size_of_CCP2Configuration	equ	__end_of_CCP2Configuration-_CCP2Configuration
  4019  0005                     	
  4020                           _CCP2Configuration:	
  4021  033A                     ;incstack = 0
  4022                           	opt	stack 6
  4023                           ; Regs used in _CCP2Configuration: [wreg]
  4024                           	line	57
  4025                           	
  4026                           l1240:	
  4027  033A                     ;source.c: 57:     CCP2CON = 0x4F;
  4028                           	movlw	low(04Fh)
  4029  033A  304F               	bcf	status, 5	;RP0=0, select bank0
  4030  033B  1283               	bcf	status, 6	;RP1=0, select bank0
  4031  033C  1303               	movwf	(29)	;volatile
  4032  033D  009D               	line	58
  4033                           	
  4034                           l146:	
  4035  033E                     	return
  4036  033E  0008               	opt stack 0
  4037                           GLOBAL	__end_of_CCP2Configuration
  4038                           	__end_of_CCP2Configuration:
  4039  033F                     	signat	_CCP2Configuration,89
  4040                           	global	_CCP1Configuration
  4041                           
  4042 ;; *************** function _CCP1Configuration *****************
  4043 ;; Defined at:
  4044 ;;		line 44 in file "source.c"
  4045 ;; Parameters:    Size  Location     Type
  4046 ;;		None
  4047 ;; Auto vars:     Size  Location     Type
  4048 ;;		None
  4049 ;; Return value:  Size  Location     Type
  4050 ;;                  1    wreg      void 
  4051 ;; Registers used:
  4052 ;;		wreg
  4053 ;; Tracked objects:
  4054 ;;		On entry : 0/0
  4055 ;;		On exit  : 0/0
  4056 ;;		Unchanged: 0/0
  4057 ;; Data sizes:     COMMON   BANK0   BANK1   BANK3   BANK2
  4058 ;;      Params:         0       0       0       0       0
  4059 ;;      Locals:         0       0       0       0       0
  4060 ;;      Temps:          0       0       0       0       0
  4061 ;;      Totals:         0       0       0       0       0
  4062 ;;Total ram usage:        0 bytes
  4063 ;; Hardware stack levels used:    1
  4064 ;; This function calls:
  4065 ;;		Nothing
  4066 ;; This function is called by:
  4067 ;;		_Initialization
  4068 ;; This function uses a non-reentrant model
  4069 ;;
  4070                           psect	text11,local,class=CODE,delta=2,merge=1,group=0
  4071                           	line	44
  4072                           global __ptext11
  4073                           __ptext11:	;psect for function _CCP1Configuration
  4074  0347                     psect	text11
  4075                           	file	"source.c"
  4076                           	line	44
  4077                           	global	__size_of_CCP1Configuration
  4078                           	__size_of_CCP1Configuration	equ	__end_of_CCP1Configuration-_CCP1Configuration
  4079  000B                     	
  4080                           _CCP1Configuration:	
  4081  0347                     ;incstack = 0
  4082                           	opt	stack 6
  4083                           ; Regs used in _CCP1Configuration: [wreg]
  4084                           	line	46
  4085                           	
  4086                           l1238:	
  4087  0347                     ;source.c: 46:     PR2 = 0xFF;
  4088                           	movlw	low(0FFh)
  4089  0347  30FF               	bsf	status, 5	;RP0=1, select bank1
  4090  0348  1683               	bcf	status, 6	;RP1=0, select bank1
  4091  0349  1303               	movwf	(146)^080h	;volatile
  4092  034A  0092               	line	47
  4093                           ;source.c: 47:     T2CON = 0x05;
  4094                           	movlw	low(05h)
  4095  034B  3005               	bcf	status, 5	;RP0=0, select bank0
  4096  034C  1283               	bcf	status, 6	;RP1=0, select bank0
  4097  034D  1303               	movwf	(18)	;volatile
  4098  034E  0092               	line	48
  4099                           ;source.c: 48:     CCP1CON = 0x4F;
  4100                           	movlw	low(04Fh)
  4101  034F  304F               	movwf	(23)	;volatile
  4102  0350  0097               	line	49
  4103                           	
  4104                           l140:	
  4105  0351                     	return
  4106  0351  0008               	opt stack 0
  4107                           GLOBAL	__end_of_CCP1Configuration
  4108                           	__end_of_CCP1Configuration:
  4109  0352                     	signat	_CCP1Configuration,89
  4110                           global	___latbits
  4111                           ___latbits	equ	2
  4112  0002                     	global	btemp
  4113                           	btemp set 07Eh
  4114  007E                     
  4115                           	DABS	1,126,2	;btemp
  4116                           	global	wtemp0
  4117                           	wtemp0 set btemp+0
  4118  007E                     	end


Data Sizes:
    Strings     0
    Constant    0
    Data        18
    BSS         31
    Persistent  0
    Stack       0

Auto Spaces:
    Space          Size  Autos    Used
    COMMON           14     13      14
    BANK0            80     12      60
    BANK1            80      0       0
    BANK3            96      0       0
    BANK2            96      0       0

Pointer List with Targets:

    None.

Critical Paths under _main in COMMON

    _setup->_SerialBegin
    _SerialBegin->___aldiv
    _loop->_delay

Critical Paths under _main in BANK0

    _setup->_SerialBegin
    _SerialBegin->___aldiv

Critical Paths under _main in BANK1

    None.

Critical Paths under _main in BANK3

    None.

Critical Paths under _main in BANK2

    None.

Call Graph Tables:

 ---------------------------------------------------------------------------------
 (Depth) Function   	        Calls       Base Space   Used Autos Params    Refs
 ---------------------------------------------------------------------------------
 (0) _main                                                 0     0      0   13252
                     _Initialization
                               _loop
                              _setup
 ---------------------------------------------------------------------------------
 (1) _setup                                                0     0      0    2200
                        _SerialBegin
                            _pinMode
 ---------------------------------------------------------------------------------
 (2) _pinMode                                              4     3      1    1408
                                              0 COMMON     4     3      1
 ---------------------------------------------------------------------------------
 (2) _SerialBegin                                         10     6      4     792
                                              9 COMMON     4     4      0
                                              6 BANK0      6     2      4
                            ___aldiv
 ---------------------------------------------------------------------------------
 (3) ___aldiv                                             15     7      8     604
                                              0 COMMON     9     1      8
                                              0 BANK0      6     6      0
 ---------------------------------------------------------------------------------
 (1) _loop                                                 0     0      0   11052
                    _SerialAvailable
                              _delay
                       _digitalWrite
 ---------------------------------------------------------------------------------
 (2) _digitalWrite                                         4     3      1    8780
                                              0 COMMON     4     3      1
 ---------------------------------------------------------------------------------
 (2) _delay                                                7     5      2    2264
                                              0 COMMON     7     5      2
 ---------------------------------------------------------------------------------
 (2) _SerialAvailable                                      1     1      0       8
                                              0 COMMON     1     1      0
 ---------------------------------------------------------------------------------
 (1) _Initialization                                       0     0      0       0
                  _CCP1Configuration
                  _CCP2Configuration
 ---------------------------------------------------------------------------------
 (2) _CCP2Configuration                                    0     0      0       0
 ---------------------------------------------------------------------------------
 (2) _CCP1Configuration                                    0     0      0       0
 ---------------------------------------------------------------------------------
 Estimated maximum stack depth 3
 ---------------------------------------------------------------------------------

 Call Graph Graphs:

 _main (ROOT)
   _Initialization
     _CCP1Configuration
     _CCP2Configuration
   _loop
     _SerialAvailable
     _delay
     _digitalWrite
   _setup
     _SerialBegin
       ___aldiv
     _pinMode

 Address spaces:
Name               Size   Autos  Total    Cost      Usage
BANK3               60      0       0       9        0.0%
BITBANK3            60      0       0       8        0.0%
SFR3                 0      0       0       4        0.0%
BITSFR3              0      0       0       4        0.0%
BANK2               60      0       0      11        0.0%
BITBANK2            60      0       0      10        0.0%
SFR2                 0      0       0       5        0.0%
BITSFR2              0      0       0       5        0.0%
BANK1               50      0       0       7        0.0%
BITBANK1            50      0       0       6        0.0%
SFR1                 0      0       0       2        0.0%
BITSFR1              0      0       0       2        0.0%
BANK0               50      C      3C       5       75.0%
BITBANK0            50      0       0       4        0.0%
SFR0                 0      0       0       1        0.0%
BITSFR0              0      0       0       1        0.0%
COMMON               E      D       E       1      100.0%
BITCOMMON            E      0       0       0        0.0%
CODE                 0      0       0       0        0.0%
DATA                 0      0      4A      12        0.0%
ABS                  0      0      4A       3        0.0%
NULL                 0      0       0       0        0.0%
STACK                0      0       0       2        0.0%
EEDATA             100      0       0       0        0.0%


Microchip Technology PIC Macro Assembler V2.00 build -1524193055 
Symbol Table                                                                                   Thu Jan 30 10:24:54 2020

                         pc 0002                 __CFG_CP$OFF 0000                          fsr 0004  
               __CFG_LVP$ON 0000                         l200 0746                         l201 074E  
                       l202 0756                         l203 075E                         l131 0382  
                       l140 0351                         l204 0766                         l132 0388  
                       l205 076E                         l133 0389                         l206 0776  
                       l134 0389                         l207 077E                         l208 0786  
                       l400 0407                         l152 066C                         l160 05D3  
                       l137 03DF                         l209 07E4                         l401 0407  
                       l161 05DB                         l153 05A3                         l146 033E  
                       l154 06C1                         l170 0623                         l162 05E3  
                       l331 03A1                         l171 062B                         l163 05EB  
                       l155 05AB                         l332 03A2                         l172 0633  
                       l164 05F3                         l156 05B3                         l173 063B  
                       l165 05FB                         l157 05BB                         l182 078F  
                       l190 06F5                         l174 0643                         l166 0603  
                       l158 05C3                         l191 06FE                         l183 06C4  
                       l175 064B                         l167 060B                         l159 05CB  
                       l184 07E4                         l192 0706                         l176 0653  
                       l168 0613                         l193 070E                         l185 06CC  
                       l177 065B                         l169 061B                         l194 0716  
                       l186 06D4                         l178 0663                         l195 071E  
                       l187 06DC                         l179 06C1                         l196 0726  
                       l188 06E4                         l197 072E                         l189 06EC  
                       l285 04E2                         l198 0736                         l286 04FA  
                       l375 041A                         l199 073E                         l287 04FA  
                       l376 0455                         l377 042B                         l378 0440  
                       l379 0455                         l397 03B9                         l760 0536  
                       l761 0549                         l762 054A                         l763 0575  
                       l764 0585                         l756 050F                         l765 0597  
                       l757 0523                         l766 05A0                         l758 0586  
                       l759 0544                         _GIE 005F                         _PR2 0092  
                       _PEN 048A                __CFG_CPD$OFF 0000                         _SEN 0488  
                       u910 0502                         u911 0501                         u920 0513  
                       u921 0512                         u930 0533                         u931 0532  
                       u950 0548                         u951 0547                         u945 0538  
                       u970 0565                         u971 0564                         u965 054C  
                       u990 0584                         u991 0583                         u975 0561  
                       u985 0576                         indf 0000                __CFG_FOSC$HS 0000  
                      l1240 033A                        PORTA 0005                        PORTB 0006  
                      PORTC 0007                        PORTD 0008                        l1238 0347  
                      l2400 05FB                        l1450 03D0                        l3210 0674  
                      l2410 0623                        l2402 0603                        l1452 03D8  
                      l3212 0797                        l2340 0502                        l2500 0456  
                      l2420 064B                        l2412 062B                        l2404 060B  
                      l1454 03DB                        l1446 03BA                        l2334 039F  
                      l2350 0533                        l2342 0513                        l2510 04C9  
                      l2502 0459                        l2422 0653                        l2414 0633  
                      l2406 0613                        l2430 066C                        l1448 03CB  
                      l2440 06CC                        l2360 0565                        l2352 0536  
                      l2344 051E                        l2336 04FB                        l2520 04D5  
                      l2512 04CD                        l2504 048B                        l2424 065B  
                      l2416 063B                        l2408 061B                        l2450 06EF  
                      l2442 06D4                        l2370 058B                        l2362 0573  
                      l2354 0544                        l2346 0523                        l2338 04FE  
                      l2530 04E1                        l2522 04D8                        l2514 04CE  
                      l2506 0494                        l2426 0663                        l2418 0643  
                      l2460 070E                        l2452 06F5                        l2444 06DC  
                      l2436 06C3                        l2372 0597                        l2364 0575  
                      l2356 054A                        l2348 052B                        l2540 04ED  
                      l2524 04DB                        l2516 04D1                        l2508 0497  
                      l2532 04E2                        l2428 066B                        l2380 05AB  
                      l2470 0736                        l2462 0716                        l2454 06F8  
                      l2446 06E4                        l2438 06C4                        l2374 05A0  
                      l2366 057E                        l2358 0553                        l2550 04F9  
                      l2542 04EE                        l2534 04E6                        l2526 04DE  
                      l2518 04D4                        l2390 05D3                        l2382 05B3  
                      l2560 03A2                        l2552 038C                        l2480 075E  
                      l2472 073E                        l2464 071E                        l2456 06FE  
                      l2448 06EC                        l2368 0586                        l2544 04F1  
                      l2536 04E7                        l2528 04E0                        l2392 05DB  
                      l2384 05BB                        l2376 05A2                        l2554 0394  
                      l2570 041C                        l2562 0408                        l2490 0786  
                      l2482 0766                        l2474 0746                        l2466 0726  
                      l2458 0706                        l2546 04F4                        l2538 04EA  
                      l2394 05E3                        l2386 05C3                        l2378 05A3  
                      l2556 0398                        l2572 042A                        l2564 040A  
                      l2492 078E                        l2484 076E                        l2476 074E  
                      l2468 072E                        l2548 04F7                        l2396 05EB  
                      l2388 05CB                        l2580 03A3                        l2558 039F  
                      l2574 042C                        l2566 0419                        l2486 0776  
                      l2478 0756                        l2494 078F                        l2590 03F6  
                      l2398 05F3                        l2582 03B2                        l2576 0432  
                      l2568 041A                        l2488 077E                        l2592 03FD  
                      l2584 03E0                        l2760 037C                        l2578 0440  
                      l2586 03E5                        l2762 0382                        l2588 03ED  
                      l2758 0377                        TRISA 0085                        TRISB 0086  
                      TRISC 0087                        TRISD 0088                        _BRGH 04C2  
                      u1000 058B                        _CREN 00C4                        u1001 058A  
                      u1010 0469                        _FERR 00C2                        u1100 0454  
                      u1020 0494                        u1101 0453                        u1021 0493  
                      u1030 04A7                        u1015 0464                        u1040 0394  
                      u1041 0393                        u1105 0450                        u1050 0398  
                      u1051 0397                        u1035 04A2                        u1060 039E  
                      u1061 039D                        u1070 0418                        u1071 0417  
                      u1080 0429                        u1081 0428                        u1090 043F  
                      u1091 043E                        u1075 0414                        u1085 0425  
                      u1095 043B                        _PEIE 005E                        _RCEN 048B  
                      _RCIF 0065                        _OERR 00C1                        _SPEN 00C7  
                      _RSEN 0489                        _TRMT 04C1                        _TXEN 04C5  
                      _TXIF 0064                        _SYNC 04C4                __CFG_WRT$OFF 0000  
                      _main 0377                        _loop 03E0                        btemp 007E  
                      start 0000           _CCP2Configuration 033A          ?_CCP2Configuration 0070  
           __end_of___aldiv 05A1                       ?_main 0070                       _ACKEN 048C  
                     _ACKDT 048D                       _CCP1X 00BD                       _CCP1Y 00BC  
                     _CCP2X 00ED                       _CCP2Y 00EC                       ?_loop 0070  
             __CFG_WDTE$OFF 0000                       _T2CON 0012                       _ENPin 003A  
                     _RCREG 001A                       _SPBRG 0099                       _PORTE 0009  
                     _SSPIE 0463                       _TRISE 0089                       _SSPIF 0063  
                     _TXREG 0019                       _RSPin 003C                       _RWPin 0038  
                     _d4Pin 0036                       _d5Pin 0034                       _d6Pin 0032  
                     _d7Pin 0030         ??_CCP2Configuration 0070                       _delay 0408  
           __end_of_pinMode 06C2                       _setup 03A3              __CFG_BOREN$OFF 0000  
                     pclath 000A                       status 0003                       wtemp0 007E  
__size_of_CCP1Configuration 000B        __end_of_digitalWrite 07E5             __initialization 07E5  
 __end_of_CCP2Configuration 033F                __end_of_main 038C                __end_of_loop 0408  
   __size_of_Initialization 0026                      ??_main 007D                      ??_loop 0077  
                    ?_delay 0070                      _ADCON0 001F                      _ADCON1 009F  
                    _ADRESH 001E                      _ADRESL 009E                      _CCPR1L 0015  
                    _CCPR2L 001B                      ?_setup 0070               ??_SerialBegin 0079  
           _SerialAvailable 038C                      _SSPADD 0093         SerialBegin@BaudRate 0056  
                    _TRISC3 043B                      _TRISC4 043C                      _TRISC6 043E  
                    _TRISC7 043F                      _SSPCON 0014                      _SSPBUF 0013  
            __CFG_PWRTE$OFF 0000                   ??___aldiv 0078                  _ServoValue 007D  
                    delay@i 0075                      delay@j 0073                   ??_pinMode 0071  
   __end_of__initialization 07FC                 pinMode@mode 0070         __end_of_SerialBegin 04FB  
__size_of_CCP2Configuration 0005              __pcstackCOMMON 0070                __pidataBANK0 0352  
             __end_of_delay 0456               __end_of_setup 03BA     __end_of_SerialAvailable 03A3  
                   ??_delay 0072                     ??_setup 007D                  __pbssBANK0 0020  
                _characters 003E       __size_of_digitalWrite 0123                  __pmaintext 0377  
            _Initialization 03BA                     _CCP1CON 0017                     _CCP2CON 001D  
              _digitalWrite 06C2                     _SSPCON2 0091                     _SSPSTAT 0094  
                   _ColPins 0020                 _SerialBegin 0456      __end_of_Initialization 03E0  
                   _RowPins 0028                     ___aldiv 04FB                     __ptext1 03A3  
                   __ptext2 05A1                     __ptext3 0456                     __ptext4 04FB  
                   __ptext5 03E0                     __ptext6 06C2                     __ptext7 0408  
                   __ptext8 038C                     __ptext9 03BA                     _pinMode 05A1  
                delay@milis 0070            ___aldiv@dividend 0074            ?_SerialAvailable 0070  
                   clrloop0 0340        end_of_initialization 07FC             ?_Initialization 0070  
          ___aldiv@quotient 0052                   _PORTAbits 0005                   _PORTBbits 0006  
                 _PORTCbits 0007                   _PORTDbits 0008                   _PORTEbits 0009  
                 _TRISAbits 0085                   _TRISBbits 0086                   _TRISCbits 0087  
                 _TRISDbits 0088         start_initialization 07E5                  init_fetch0 0364  
               __pdataBANK0 003E                 __pbssCOMMON 007D                   ___latbits 0002  
             __pcstackBANK0 0050                  pinMode@pin 0073                ?_SerialBegin 0056  
                  ?___aldiv 0070                SerialBegin@x 005A                    ?_pinMode 0070  
            __size_of_delay 004E              __size_of_setup 0017             ___aldiv@divisor 0070  
          ??_Initialization 0070             ___aldiv@counter 0050                   clear_ram0 033F  
                _ADCON0bits 001F    __size_of_SerialAvailable 0017            __size_of___aldiv 00A6  
          __size_of_pinMode 0121                    _delaying 004E                    __ptext10 033A  
                  __ptext11 0347               __size_of_main 0015               __size_of_loop 0028  
      __size_of_SerialBegin 00A5               ?_digitalWrite 0070                    init_ram0 0368  
         digitalWrite@value 0070         _SerialAvailable$429 0070           ??_SerialAvailable 0070  
         _CCP1Configuration 0347          ?_CCP1Configuration 0070              ??_digitalWrite 0071  
       ??_CCP1Configuration 0070                ___aldiv@sign 0051             digitalWrite@pin 0073  
 __end_of_CCP1Configuration 0352  
